   1              		.syntax unified
   2              		.cpu cortex-m3
   3              		.fpu softvfp
   4              		.eabi_attribute 20, 1
   5              		.eabi_attribute 21, 1
   6              		.eabi_attribute 23, 3
   7              		.eabi_attribute 24, 1
   8              		.eabi_attribute 25, 1
   9              		.eabi_attribute 26, 1
  10              		.eabi_attribute 30, 6
  11              		.eabi_attribute 34, 1
  12              		.eabi_attribute 18, 4
  13              		.thumb
  14              		.file	"ff.c"
  15              		.text
  16              	.Ltext0:
  17              		.cfi_sections	.debug_frame
  18              		.bss
  19              		.align	2
  20              	FatFs:
  21 0000 00000000 		.space	12
  21      00000000 
  21      00000000 
  22              		.align	1
  23              	Fsid:
  24 000c 0000     		.space	2
  25              	CurrVol:
  26 000e 00       		.space	1
  27 000f 00       		.align	2
  28              	Files:
  29 0010 00000000 		.space	24
  29      00000000 
  29      00000000 
  29      00000000 
  29      00000000 
  30              		.section	.rodata
  31              		.align	2
  34              	ExCvt:
  35 0000 80       		.byte	-128
  36 0001 81       		.byte	-127
  37 0002 82       		.byte	-126
  38 0003 83       		.byte	-125
  39 0004 84       		.byte	-124
  40 0005 85       		.byte	-123
  41 0006 86       		.byte	-122
  42 0007 87       		.byte	-121
  43 0008 88       		.byte	-120
  44 0009 89       		.byte	-119
  45 000a 8A       		.byte	-118
  46 000b 8B       		.byte	-117
  47 000c 8C       		.byte	-116
  48 000d 8D       		.byte	-115
  49 000e 8E       		.byte	-114
  50 000f 8F       		.byte	-113
  51 0010 90       		.byte	-112
  52 0011 91       		.byte	-111
  53 0012 92       		.byte	-110
  54 0013 93       		.byte	-109
  55 0014 94       		.byte	-108
  56 0015 95       		.byte	-107
  57 0016 96       		.byte	-106
  58 0017 97       		.byte	-105
  59 0018 98       		.byte	-104
  60 0019 99       		.byte	-103
  61 001a AD       		.byte	-83
  62 001b 9B       		.byte	-101
  63 001c 8C       		.byte	-116
  64 001d 9D       		.byte	-99
  65 001e AE       		.byte	-82
  66 001f 9F       		.byte	-97
  67 0020 A0       		.byte	-96
  68 0021 21       		.byte	33
  69 0022 A2       		.byte	-94
  70 0023 A3       		.byte	-93
  71 0024 A4       		.byte	-92
  72 0025 A5       		.byte	-91
  73 0026 A6       		.byte	-90
  74 0027 A7       		.byte	-89
  75 0028 A8       		.byte	-88
  76 0029 A9       		.byte	-87
  77 002a AA       		.byte	-86
  78 002b AB       		.byte	-85
  79 002c AC       		.byte	-84
  80 002d AD       		.byte	-83
  81 002e AE       		.byte	-82
  82 002f AF       		.byte	-81
  83 0030 B0       		.byte	-80
  84 0031 B1       		.byte	-79
  85 0032 B2       		.byte	-78
  86 0033 B3       		.byte	-77
  87 0034 B4       		.byte	-76
  88 0035 B5       		.byte	-75
  89 0036 B6       		.byte	-74
  90 0037 B7       		.byte	-73
  91 0038 B8       		.byte	-72
  92 0039 B9       		.byte	-71
  93 003a BA       		.byte	-70
  94 003b BB       		.byte	-69
  95 003c BC       		.byte	-68
  96 003d BD       		.byte	-67
  97 003e BE       		.byte	-66
  98 003f BF       		.byte	-65
  99 0040 C0       		.byte	-64
 100 0041 C1       		.byte	-63
 101 0042 C2       		.byte	-62
 102 0043 C3       		.byte	-61
 103 0044 C4       		.byte	-60
 104 0045 C5       		.byte	-59
 105 0046 C6       		.byte	-58
 106 0047 C7       		.byte	-57
 107 0048 C8       		.byte	-56
 108 0049 C9       		.byte	-55
 109 004a CA       		.byte	-54
 110 004b CB       		.byte	-53
 111 004c CC       		.byte	-52
 112 004d CD       		.byte	-51
 113 004e CE       		.byte	-50
 114 004f CF       		.byte	-49
 115 0050 D0       		.byte	-48
 116 0051 D1       		.byte	-47
 117 0052 D2       		.byte	-46
 118 0053 D3       		.byte	-45
 119 0054 D4       		.byte	-44
 120 0055 D5       		.byte	-43
 121 0056 D6       		.byte	-42
 122 0057 D7       		.byte	-41
 123 0058 D8       		.byte	-40
 124 0059 D9       		.byte	-39
 125 005a DA       		.byte	-38
 126 005b DB       		.byte	-37
 127 005c DC       		.byte	-36
 128 005d DD       		.byte	-35
 129 005e DE       		.byte	-34
 130 005f DF       		.byte	-33
 131 0060 C0       		.byte	-64
 132 0061 C1       		.byte	-63
 133 0062 C2       		.byte	-62
 134 0063 C3       		.byte	-61
 135 0064 C4       		.byte	-60
 136 0065 C5       		.byte	-59
 137 0066 C6       		.byte	-58
 138 0067 C7       		.byte	-57
 139 0068 C8       		.byte	-56
 140 0069 C9       		.byte	-55
 141 006a CA       		.byte	-54
 142 006b CB       		.byte	-53
 143 006c CC       		.byte	-52
 144 006d CD       		.byte	-51
 145 006e CE       		.byte	-50
 146 006f CF       		.byte	-49
 147 0070 D0       		.byte	-48
 148 0071 D1       		.byte	-47
 149 0072 D2       		.byte	-46
 150 0073 D3       		.byte	-45
 151 0074 D4       		.byte	-44
 152 0075 D5       		.byte	-43
 153 0076 D6       		.byte	-42
 154 0077 F7       		.byte	-9
 155 0078 D8       		.byte	-40
 156 0079 D9       		.byte	-39
 157 007a DA       		.byte	-38
 158 007b DB       		.byte	-37
 159 007c DC       		.byte	-36
 160 007d DD       		.byte	-35
 161 007e DE       		.byte	-34
 162 007f 9F       		.byte	-97
 163              		.text
 164              		.align	2
 165              		.thumb
 166              		.thumb_func
 168              	mem_cpy:
 169              	.LFB55:
 170              		.file 1 "../tasks/SDMMC/ff.c"
   1:../tasks/SDMMC/ff.c **** /*----------------------------------------------------------------------------/
   2:../tasks/SDMMC/ff.c **** /  FatFs - FAT file system module  R0.10                 (C)ChaN, 2013
   3:../tasks/SDMMC/ff.c **** /-----------------------------------------------------------------------------/
   4:../tasks/SDMMC/ff.c **** / FatFs module is a generic FAT file system module for small embedded systems.
   5:../tasks/SDMMC/ff.c **** / This is a free software that opened for education, research and commercial
   6:../tasks/SDMMC/ff.c **** / developments under license policy of following terms.
   7:../tasks/SDMMC/ff.c **** /
   8:../tasks/SDMMC/ff.c **** /  Copyright (C) 2013, ChaN, all right reserved.
   9:../tasks/SDMMC/ff.c **** /
  10:../tasks/SDMMC/ff.c **** / * The FatFs module is a free software and there is NO WARRANTY.
  11:../tasks/SDMMC/ff.c **** / * No restriction on use. You can use, modify and redistribute it for
  12:../tasks/SDMMC/ff.c **** /   personal, non-profit or commercial products UNDER YOUR RESPONSIBILITY.
  13:../tasks/SDMMC/ff.c **** / * Redistributions of source code must retain the above copyright notice.
  14:../tasks/SDMMC/ff.c **** /
  15:../tasks/SDMMC/ff.c **** /-----------------------------------------------------------------------------/
  16:../tasks/SDMMC/ff.c **** / Feb 26,'06 R0.00  Prototype.
  17:../tasks/SDMMC/ff.c **** /
  18:../tasks/SDMMC/ff.c **** / Apr 29,'06 R0.01  First stable version.
  19:../tasks/SDMMC/ff.c **** /
  20:../tasks/SDMMC/ff.c **** / Jun 01,'06 R0.02  Added FAT12 support.
  21:../tasks/SDMMC/ff.c **** /                   Removed unbuffered mode.
  22:../tasks/SDMMC/ff.c **** /                   Fixed a problem on small (<32M) partition.
  23:../tasks/SDMMC/ff.c **** / Jun 10,'06 R0.02a Added a configuration option (_FS_MINIMUM).
  24:../tasks/SDMMC/ff.c **** /
  25:../tasks/SDMMC/ff.c **** / Sep 22,'06 R0.03  Added f_rename().
  26:../tasks/SDMMC/ff.c **** /                   Changed option _FS_MINIMUM to _FS_MINIMIZE.
  27:../tasks/SDMMC/ff.c **** / Dec 11,'06 R0.03a Improved cluster scan algorithm to write files fast.
  28:../tasks/SDMMC/ff.c **** /                   Fixed f_mkdir() creates incorrect directory on FAT32.
  29:../tasks/SDMMC/ff.c **** /
  30:../tasks/SDMMC/ff.c **** / Feb 04,'07 R0.04  Supported multiple drive system.
  31:../tasks/SDMMC/ff.c **** /                   Changed some interfaces for multiple drive system.
  32:../tasks/SDMMC/ff.c **** /                   Changed f_mountdrv() to f_mount().
  33:../tasks/SDMMC/ff.c **** /                   Added f_mkfs().
  34:../tasks/SDMMC/ff.c **** / Apr 01,'07 R0.04a Supported multiple partitions on a physical drive.
  35:../tasks/SDMMC/ff.c **** /                   Added a capability of extending file size to f_lseek().
  36:../tasks/SDMMC/ff.c **** /                   Added minimization level 3.
  37:../tasks/SDMMC/ff.c **** /                   Fixed an endian sensitive code in f_mkfs().
  38:../tasks/SDMMC/ff.c **** / May 05,'07 R0.04b Added a configuration option _USE_NTFLAG.
  39:../tasks/SDMMC/ff.c **** /                   Added FSINFO support.
  40:../tasks/SDMMC/ff.c **** /                   Fixed DBCS name can result FR_INVALID_NAME.
  41:../tasks/SDMMC/ff.c **** /                   Fixed short seek (<= csize) collapses the file object.
  42:../tasks/SDMMC/ff.c **** /
  43:../tasks/SDMMC/ff.c **** / Aug 25,'07 R0.05  Changed arguments of f_read(), f_write() and f_mkfs().
  44:../tasks/SDMMC/ff.c **** /                   Fixed f_mkfs() on FAT32 creates incorrect FSINFO.
  45:../tasks/SDMMC/ff.c **** /                   Fixed f_mkdir() on FAT32 creates incorrect directory.
  46:../tasks/SDMMC/ff.c **** / Feb 03,'08 R0.05a Added f_truncate() and f_utime().
  47:../tasks/SDMMC/ff.c **** /                   Fixed off by one error at FAT sub-type determination.
  48:../tasks/SDMMC/ff.c **** /                   Fixed btr in f_read() can be mistruncated.
  49:../tasks/SDMMC/ff.c **** /                   Fixed cached sector is not flushed when create and close without write.
  50:../tasks/SDMMC/ff.c **** /
  51:../tasks/SDMMC/ff.c **** / Apr 01,'08 R0.06  Added fputc(), fputs(), fprintf() and fgets().
  52:../tasks/SDMMC/ff.c **** /                   Improved performance of f_lseek() on moving to the same or following cluster.
  53:../tasks/SDMMC/ff.c **** /
  54:../tasks/SDMMC/ff.c **** / Apr 01,'09 R0.07  Merged Tiny-FatFs as a configuration option. (_FS_TINY)
  55:../tasks/SDMMC/ff.c **** /                   Added long file name feature.
  56:../tasks/SDMMC/ff.c **** /                   Added multiple code page feature.
  57:../tasks/SDMMC/ff.c **** /                   Added re-entrancy for multitask operation.
  58:../tasks/SDMMC/ff.c **** /                   Added auto cluster size selection to f_mkfs().
  59:../tasks/SDMMC/ff.c **** /                   Added rewind option to f_readdir().
  60:../tasks/SDMMC/ff.c **** /                   Changed result code of critical errors.
  61:../tasks/SDMMC/ff.c **** /                   Renamed string functions to avoid name collision.
  62:../tasks/SDMMC/ff.c **** / Apr 14,'09 R0.07a Separated out OS dependent code on reentrant cfg.
  63:../tasks/SDMMC/ff.c **** /                   Added multiple sector size feature.
  64:../tasks/SDMMC/ff.c **** / Jun 21,'09 R0.07c Fixed f_unlink() can return FR_OK on error.
  65:../tasks/SDMMC/ff.c **** /                   Fixed wrong cache control in f_lseek().
  66:../tasks/SDMMC/ff.c **** /                   Added relative path feature.
  67:../tasks/SDMMC/ff.c **** /                   Added f_chdir() and f_chdrive().
  68:../tasks/SDMMC/ff.c **** /                   Added proper case conversion to extended character.
  69:../tasks/SDMMC/ff.c **** / Nov 03,'09 R0.07e Separated out configuration options from ff.h to ffconf.h.
  70:../tasks/SDMMC/ff.c **** /                   Fixed f_unlink() fails to remove a sub-directory on _FS_RPATH.
  71:../tasks/SDMMC/ff.c **** /                   Fixed name matching error on the 13 character boundary.
  72:../tasks/SDMMC/ff.c **** /                   Added a configuration option, _LFN_UNICODE.
  73:../tasks/SDMMC/ff.c **** /                   Changed f_readdir() to return the SFN with always upper case on non-LFN cfg.
  74:../tasks/SDMMC/ff.c **** /
  75:../tasks/SDMMC/ff.c **** / May 15,'10 R0.08  Added a memory configuration option. (_USE_LFN = 3)
  76:../tasks/SDMMC/ff.c **** /                   Added file lock feature. (_FS_SHARE)
  77:../tasks/SDMMC/ff.c **** /                   Added fast seek feature. (_USE_FASTSEEK)
  78:../tasks/SDMMC/ff.c **** /                   Changed some types on the API, XCHAR->TCHAR.
  79:../tasks/SDMMC/ff.c **** /                   Changed .fname in the FILINFO structure on Unicode cfg.
  80:../tasks/SDMMC/ff.c **** /                   String functions support UTF-8 encoding files on Unicode cfg.
  81:../tasks/SDMMC/ff.c **** / Aug 16,'10 R0.08a Added f_getcwd().
  82:../tasks/SDMMC/ff.c **** /                   Added sector erase feature. (_USE_ERASE)
  83:../tasks/SDMMC/ff.c **** /                   Moved file lock semaphore table from fs object to the bss.
  84:../tasks/SDMMC/ff.c **** /                   Fixed a wrong directory entry is created on non-LFN cfg when the given name con
  85:../tasks/SDMMC/ff.c **** /                   Fixed f_mkfs() creates wrong FAT32 volume.
  86:../tasks/SDMMC/ff.c **** / Jan 15,'11 R0.08b Fast seek feature is also applied to f_read() and f_write().
  87:../tasks/SDMMC/ff.c **** /                   f_lseek() reports required table size on creating CLMP.
  88:../tasks/SDMMC/ff.c **** /                   Extended format syntax of f_printf().
  89:../tasks/SDMMC/ff.c **** /                   Ignores duplicated directory separators in given path name.
  90:../tasks/SDMMC/ff.c **** /
  91:../tasks/SDMMC/ff.c **** / Sep 06,'11 R0.09  f_mkfs() supports multiple partition to complete the multiple partition feature
  92:../tasks/SDMMC/ff.c **** /                   Added f_fdisk().
  93:../tasks/SDMMC/ff.c **** / Aug 27,'12 R0.09a Changed f_open() and f_opendir() reject null object pointer to avoid crash.
  94:../tasks/SDMMC/ff.c **** /                   Changed option name _FS_SHARE to _FS_LOCK.
  95:../tasks/SDMMC/ff.c **** /                   Fixed assertion failure due to OS/2 EA on FAT12/16 volume.
  96:../tasks/SDMMC/ff.c **** / Jan 24,'13 R0.09b Added f_setlabel() and f_getlabel().
  97:../tasks/SDMMC/ff.c **** /
  98:../tasks/SDMMC/ff.c **** / Oct 02,'13 R0.10  Added selection of character encoding on the file. (_STRF_ENCODE)
  99:../tasks/SDMMC/ff.c **** /                   Added f_closedir().
 100:../tasks/SDMMC/ff.c **** /                   Added forced full FAT scan for f_getfree(). (_FS_NOFSINFO)
 101:../tasks/SDMMC/ff.c **** /                   Added forced mount feature with changes of f_mount().
 102:../tasks/SDMMC/ff.c **** /                   Improved behavior of volume auto detection.
 103:../tasks/SDMMC/ff.c **** /                   Improved write throughput of f_puts() and f_printf().
 104:../tasks/SDMMC/ff.c **** /                   Changed argument of f_chdrive(), f_mkfs(), disk_read() and disk_write().
 105:../tasks/SDMMC/ff.c **** /                   Fixed f_write() can be truncated when the file size is close to 4GB.
 106:../tasks/SDMMC/ff.c **** /                   Fixed f_open(), f_mkdir() and f_setlabel() can return incorrect error code.
 107:../tasks/SDMMC/ff.c **** /---------------------------------------------------------------------------*/
 108:../tasks/SDMMC/ff.c **** 
 109:../tasks/SDMMC/ff.c **** #include "ff.h"			/* Declarations of FatFs API */
 110:../tasks/SDMMC/ff.c **** #include "diskio.h"		/* Declarations of disk I/O functions */
 111:../tasks/SDMMC/ff.c **** 
 112:../tasks/SDMMC/ff.c **** #include "LEDs.h"
 113:../tasks/SDMMC/ff.c **** 
 114:../tasks/SDMMC/ff.c **** 
 115:../tasks/SDMMC/ff.c **** /*--------------------------------------------------------------------------
 116:../tasks/SDMMC/ff.c **** 
 117:../tasks/SDMMC/ff.c ****    Module Private Definitions
 118:../tasks/SDMMC/ff.c **** 
 119:../tasks/SDMMC/ff.c **** ---------------------------------------------------------------------------*/
 120:../tasks/SDMMC/ff.c **** 
 121:../tasks/SDMMC/ff.c **** #if _FATFS != 80960	/* Revision ID */
 122:../tasks/SDMMC/ff.c **** #error Wrong include file (ff.h).
 123:../tasks/SDMMC/ff.c **** #endif
 124:../tasks/SDMMC/ff.c **** 
 125:../tasks/SDMMC/ff.c **** 
 126:../tasks/SDMMC/ff.c **** /* Definitions on sector size */
 127:../tasks/SDMMC/ff.c **** #if _MAX_SS != 512 && _MAX_SS != 1024 && _MAX_SS != 2048 && _MAX_SS != 4096
 128:../tasks/SDMMC/ff.c **** #error Wrong sector size.
 129:../tasks/SDMMC/ff.c **** #endif
 130:../tasks/SDMMC/ff.c **** #if _MAX_SS != 512
 131:../tasks/SDMMC/ff.c **** #define	SS(fs)	((fs)->ssize)	/* Variable sector size */
 132:../tasks/SDMMC/ff.c **** #else
 133:../tasks/SDMMC/ff.c **** #define	SS(fs)	512U			/* Fixed sector size */
 134:../tasks/SDMMC/ff.c **** #endif
 135:../tasks/SDMMC/ff.c **** 
 136:../tasks/SDMMC/ff.c **** 
 137:../tasks/SDMMC/ff.c **** /* Reentrancy related */
 138:../tasks/SDMMC/ff.c **** #if _FS_REENTRANT
 139:../tasks/SDMMC/ff.c **** #if _USE_LFN == 1
 140:../tasks/SDMMC/ff.c **** #error Static LFN work area cannot be used at thread-safe configuration.
 141:../tasks/SDMMC/ff.c **** #endif
 142:../tasks/SDMMC/ff.c **** #define	ENTER_FF(fs)		{ if (!lock_fs(fs)) return FR_TIMEOUT; }
 143:../tasks/SDMMC/ff.c **** #define	LEAVE_FF(fs, res)	{ unlock_fs(fs, res); return res; }
 144:../tasks/SDMMC/ff.c **** #else
 145:../tasks/SDMMC/ff.c **** #define	ENTER_FF(fs)
 146:../tasks/SDMMC/ff.c **** #define LEAVE_FF(fs, res)	return res
 147:../tasks/SDMMC/ff.c **** #endif
 148:../tasks/SDMMC/ff.c **** 
 149:../tasks/SDMMC/ff.c **** #define	ABORT(fs, res)		{ fp->err = (BYTE)(res); LEAVE_FF(fs, res); }
 150:../tasks/SDMMC/ff.c **** 
 151:../tasks/SDMMC/ff.c **** 
 152:../tasks/SDMMC/ff.c **** /* File access control feature */
 153:../tasks/SDMMC/ff.c **** #if _FS_LOCK
 154:../tasks/SDMMC/ff.c **** #if _FS_READONLY
 155:../tasks/SDMMC/ff.c **** #error _FS_LOCK must be 0 at read-only cfg.
 156:../tasks/SDMMC/ff.c **** #endif
 157:../tasks/SDMMC/ff.c **** typedef struct {
 158:../tasks/SDMMC/ff.c **** 	FATFS *fs;				/* Object ID 1, volume (NULL:blank entry) */
 159:../tasks/SDMMC/ff.c **** 	DWORD clu;				/* Object ID 2, directory */
 160:../tasks/SDMMC/ff.c **** 	WORD idx;				/* Object ID 3, directory index */
 161:../tasks/SDMMC/ff.c **** 	WORD ctr;				/* Object open counter, 0:none, 0x01..0xFF:read mode open count, 0x100:write mode */
 162:../tasks/SDMMC/ff.c **** } FILESEM;
 163:../tasks/SDMMC/ff.c **** #endif
 164:../tasks/SDMMC/ff.c **** 
 165:../tasks/SDMMC/ff.c **** 
 166:../tasks/SDMMC/ff.c **** 
 167:../tasks/SDMMC/ff.c **** /* DBCS code ranges and SBCS extend character conversion table */
 168:../tasks/SDMMC/ff.c **** 
 169:../tasks/SDMMC/ff.c **** #if _CODE_PAGE == 932	/* Japanese Shift-JIS */
 170:../tasks/SDMMC/ff.c **** #define _DF1S	0x81	/* DBC 1st byte range 1 start */
 171:../tasks/SDMMC/ff.c **** #define _DF1E	0x9F	/* DBC 1st byte range 1 end */
 172:../tasks/SDMMC/ff.c **** #define _DF2S	0xE0	/* DBC 1st byte range 2 start */
 173:../tasks/SDMMC/ff.c **** #define _DF2E	0xFC	/* DBC 1st byte range 2 end */
 174:../tasks/SDMMC/ff.c **** #define _DS1S	0x40	/* DBC 2nd byte range 1 start */
 175:../tasks/SDMMC/ff.c **** #define _DS1E	0x7E	/* DBC 2nd byte range 1 end */
 176:../tasks/SDMMC/ff.c **** #define _DS2S	0x80	/* DBC 2nd byte range 2 start */
 177:../tasks/SDMMC/ff.c **** #define _DS2E	0xFC	/* DBC 2nd byte range 2 end */
 178:../tasks/SDMMC/ff.c **** 
 179:../tasks/SDMMC/ff.c **** #elif _CODE_PAGE == 936	/* Simplified Chinese GBK */
 180:../tasks/SDMMC/ff.c **** #define _DF1S	0x81
 181:../tasks/SDMMC/ff.c **** #define _DF1E	0xFE
 182:../tasks/SDMMC/ff.c **** #define _DS1S	0x40
 183:../tasks/SDMMC/ff.c **** #define _DS1E	0x7E
 184:../tasks/SDMMC/ff.c **** #define _DS2S	0x80
 185:../tasks/SDMMC/ff.c **** #define _DS2E	0xFE
 186:../tasks/SDMMC/ff.c **** 
 187:../tasks/SDMMC/ff.c **** #elif _CODE_PAGE == 949	/* Korean */
 188:../tasks/SDMMC/ff.c **** #define _DF1S	0x81
 189:../tasks/SDMMC/ff.c **** #define _DF1E	0xFE
 190:../tasks/SDMMC/ff.c **** #define _DS1S	0x41
 191:../tasks/SDMMC/ff.c **** #define _DS1E	0x5A
 192:../tasks/SDMMC/ff.c **** #define _DS2S	0x61
 193:../tasks/SDMMC/ff.c **** #define _DS2E	0x7A
 194:../tasks/SDMMC/ff.c **** #define _DS3S	0x81
 195:../tasks/SDMMC/ff.c **** #define _DS3E	0xFE
 196:../tasks/SDMMC/ff.c **** 
 197:../tasks/SDMMC/ff.c **** #elif _CODE_PAGE == 950	/* Traditional Chinese Big5 */
 198:../tasks/SDMMC/ff.c **** #define _DF1S	0x81
 199:../tasks/SDMMC/ff.c **** #define _DF1E	0xFE
 200:../tasks/SDMMC/ff.c **** #define _DS1S	0x40
 201:../tasks/SDMMC/ff.c **** #define _DS1E	0x7E
 202:../tasks/SDMMC/ff.c **** #define _DS2S	0xA1
 203:../tasks/SDMMC/ff.c **** #define _DS2E	0xFE
 204:../tasks/SDMMC/ff.c **** 
 205:../tasks/SDMMC/ff.c **** #elif _CODE_PAGE == 437	/* U.S. (OEM) */
 206:../tasks/SDMMC/ff.c **** #define _DF1S	0
 207:../tasks/SDMMC/ff.c **** #define _EXCVT {0x80,0x9A,0x90,0x41,0x8E,0x41,0x8F,0x80,0x45,0x45,0x45,0x49,0x49,0x49,0x8E,0x8F,0x9
 208:../tasks/SDMMC/ff.c **** 				0x41,0x49,0x4F,0x55,0xA5,0xA5,0xA6,0xA7,0xA8,0xA9,0xAA,0xAB,0xAC,0x21,0xAE,0xAF,0xB0,0xB1,0xB2,
 209:../tasks/SDMMC/ff.c **** 				0xC0,0xC1,0xC2,0xC3,0xC4,0xC5,0xC6,0xC7,0xC8,0xC9,0xCA,0xCB,0xCC,0xCD,0xCE,0xCF,0xD0,0xD1,0xD2,
 210:../tasks/SDMMC/ff.c **** 				0xE0,0xE1,0xE2,0xE3,0xE4,0xE5,0xE6,0xE7,0xE8,0xE9,0xEA,0xEB,0xEC,0xED,0xEE,0xEF,0xF0,0xF1,0xF2,
 211:../tasks/SDMMC/ff.c **** 
 212:../tasks/SDMMC/ff.c **** #elif _CODE_PAGE == 720	/* Arabic (OEM) */
 213:../tasks/SDMMC/ff.c **** #define _DF1S	0
 214:../tasks/SDMMC/ff.c **** #define _EXCVT {0x80,0x81,0x45,0x41,0x84,0x41,0x86,0x43,0x45,0x45,0x45,0x49,0x49,0x8D,0x8E,0x8F,0x9
 215:../tasks/SDMMC/ff.c **** 				0xA0,0xA1,0xA2,0xA3,0xA4,0xA5,0xA6,0xA7,0xA8,0xA9,0xAA,0xAB,0xAC,0xAD,0xAE,0xAF,0xB0,0xB1,0xB2,
 216:../tasks/SDMMC/ff.c **** 				0xC0,0xC1,0xC2,0xC3,0xC4,0xC5,0xC6,0xC7,0xC8,0xC9,0xCA,0xCB,0xCC,0xCD,0xCE,0xCF,0xD0,0xD1,0xD2,
 217:../tasks/SDMMC/ff.c **** 				0xE0,0xE1,0xE2,0xE3,0xE4,0xE5,0xE6,0xE7,0xE8,0xE9,0xEA,0xEB,0xEC,0xED,0xEE,0xEF,0xF0,0xF1,0xF2,
 218:../tasks/SDMMC/ff.c **** 
 219:../tasks/SDMMC/ff.c **** #elif _CODE_PAGE == 737	/* Greek (OEM) */
 220:../tasks/SDMMC/ff.c **** #define _DF1S	0
 221:../tasks/SDMMC/ff.c **** #define _EXCVT {0x80,0x81,0x82,0x83,0x84,0x85,0x86,0x87,0x88,0x89,0x8A,0x8B,0x8C,0x8D,0x8E,0x8F,0x9
 222:../tasks/SDMMC/ff.c **** 				0x88,0x89,0x8A,0x8B,0x8C,0x8D,0x8E,0x8F,0x90,0x91,0xAA,0x92,0x93,0x94,0x95,0x96,0xB0,0xB1,0xB2,
 223:../tasks/SDMMC/ff.c **** 				0xC0,0xC1,0xC2,0xC3,0xC4,0xC5,0xC6,0xC7,0xC8,0xC9,0xCA,0xCB,0xCC,0xCD,0xCE,0xCF,0xD0,0xD1,0xD2,
 224:../tasks/SDMMC/ff.c **** 				0x97,0xEA,0xEB,0xEC,0xE4,0xED,0xEE,0xE7,0xE8,0xF1,0xEA,0xEB,0xEC,0xED,0xEE,0xEF,0xF0,0xF1,0xF2,
 225:../tasks/SDMMC/ff.c **** 
 226:../tasks/SDMMC/ff.c **** #elif _CODE_PAGE == 775	/* Baltic (OEM) */
 227:../tasks/SDMMC/ff.c **** #define _DF1S	0
 228:../tasks/SDMMC/ff.c **** #define _EXCVT {0x80,0x9A,0x91,0xA0,0x8E,0x95,0x8F,0x80,0xAD,0xED,0x8A,0x8A,0xA1,0x8D,0x8E,0x8F,0x9
 229:../tasks/SDMMC/ff.c **** 				0xA0,0xA1,0xE0,0xA3,0xA3,0xA5,0xA6,0xA7,0xA8,0xA9,0xAA,0xAB,0xAC,0xAD,0xAE,0xAF,0xB0,0xB1,0xB2,
 230:../tasks/SDMMC/ff.c **** 				0xC0,0xC1,0xC2,0xC3,0xC4,0xC5,0xC6,0xC7,0xC8,0xC9,0xCA,0xCB,0xCC,0xCD,0xCE,0xCF,0xB5,0xB6,0xB7,
 231:../tasks/SDMMC/ff.c **** 				0xE0,0xE1,0xE2,0xE3,0xE5,0xE5,0xE6,0xE3,0xE8,0xE8,0xEA,0xEA,0xEE,0xED,0xEE,0xEF,0xF0,0xF1,0xF2,
 232:../tasks/SDMMC/ff.c **** 
 233:../tasks/SDMMC/ff.c **** #elif _CODE_PAGE == 850	/* Multilingual Latin 1 (OEM) */
 234:../tasks/SDMMC/ff.c **** #define _DF1S	0
 235:../tasks/SDMMC/ff.c **** #define _EXCVT {0x80,0x9A,0x90,0xB6,0x8E,0xB7,0x8F,0x80,0xD2,0xD3,0xD4,0xD8,0xD7,0xDE,0x8E,0x8F,0x9
 236:../tasks/SDMMC/ff.c **** 				0xB5,0xD6,0xE0,0xE9,0xA5,0xA5,0xA6,0xA7,0xA8,0xA9,0xAA,0xAB,0xAC,0x21,0xAE,0xAF,0xB0,0xB1,0xB2,
 237:../tasks/SDMMC/ff.c **** 				0xC0,0xC1,0xC2,0xC3,0xC4,0xC5,0xC7,0xC7,0xC8,0xC9,0xCA,0xCB,0xCC,0xCD,0xCE,0xCF,0xD0,0xD1,0xD2,
 238:../tasks/SDMMC/ff.c **** 				0xE0,0xE1,0xE2,0xE3,0xE5,0xE5,0xE6,0xE7,0xE7,0xE9,0xEA,0xEB,0xED,0xED,0xEE,0xEF,0xF0,0xF1,0xF2,
 239:../tasks/SDMMC/ff.c **** 
 240:../tasks/SDMMC/ff.c **** #elif _CODE_PAGE == 852	/* Latin 2 (OEM) */
 241:../tasks/SDMMC/ff.c **** #define _DF1S	0
 242:../tasks/SDMMC/ff.c **** #define _EXCVT {0x80,0x9A,0x90,0xB6,0x8E,0xDE,0x8F,0x80,0x9D,0xD3,0x8A,0x8A,0xD7,0x8D,0x8E,0x8F,0x9
 243:../tasks/SDMMC/ff.c **** 				0xB5,0xD6,0xE0,0xE9,0xA4,0xA4,0xA6,0xA6,0xA8,0xA8,0xAA,0x8D,0xAC,0xB8,0xAE,0xAF,0xB0,0xB1,0xB2,
 244:../tasks/SDMMC/ff.c **** 				0xC0,0xC1,0xC2,0xC3,0xC4,0xC5,0xC6,0xC6,0xC8,0xC9,0xCA,0xCB,0xCC,0xCD,0xCE,0xCF,0xD1,0xD1,0xD2,
 245:../tasks/SDMMC/ff.c **** 				0xE0,0xE1,0xE2,0xE3,0xE3,0xD5,0xE6,0xE6,0xE8,0xE9,0xE8,0xEB,0xED,0xED,0xDD,0xEF,0xF0,0xF1,0xF2,
 246:../tasks/SDMMC/ff.c **** 
 247:../tasks/SDMMC/ff.c **** #elif _CODE_PAGE == 855	/* Cyrillic (OEM) */
 248:../tasks/SDMMC/ff.c **** #define _DF1S	0
 249:../tasks/SDMMC/ff.c **** #define _EXCVT {0x81,0x81,0x83,0x83,0x85,0x85,0x87,0x87,0x89,0x89,0x8B,0x8B,0x8D,0x8D,0x8F,0x8F,0x9
 250:../tasks/SDMMC/ff.c **** 				0xA1,0xA1,0xA3,0xA3,0xA5,0xA5,0xA7,0xA7,0xA9,0xA9,0xAB,0xAB,0xAD,0xAD,0xAE,0xAF,0xB0,0xB1,0xB2,
 251:../tasks/SDMMC/ff.c **** 				0xC0,0xC1,0xC2,0xC3,0xC4,0xC5,0xC7,0xC7,0xC8,0xC9,0xCA,0xCB,0xCC,0xCD,0xCE,0xCF,0xD1,0xD1,0xD3,
 252:../tasks/SDMMC/ff.c **** 				0xE0,0xE2,0xE2,0xE4,0xE4,0xE6,0xE6,0xE8,0xE8,0xEA,0xEA,0xEC,0xEC,0xEE,0xEE,0xEF,0xF0,0xF2,0xF2,
 253:../tasks/SDMMC/ff.c **** 
 254:../tasks/SDMMC/ff.c **** #elif _CODE_PAGE == 857	/* Turkish (OEM) */
 255:../tasks/SDMMC/ff.c **** #define _DF1S	0
 256:../tasks/SDMMC/ff.c **** #define _EXCVT {0x80,0x9A,0x90,0xB6,0x8E,0xB7,0x8F,0x80,0xD2,0xD3,0xD4,0xD8,0xD7,0x98,0x8E,0x8F,0x9
 257:../tasks/SDMMC/ff.c **** 				0xB5,0xD6,0xE0,0xE9,0xA5,0xA5,0xA6,0xA6,0xA8,0xA9,0xAA,0xAB,0xAC,0x21,0xAE,0xAF,0xB0,0xB1,0xB2,
 258:../tasks/SDMMC/ff.c **** 				0xC0,0xC1,0xC2,0xC3,0xC4,0xC5,0xC7,0xC7,0xC8,0xC9,0xCA,0xCB,0xCC,0xCD,0xCE,0xCF,0xD0,0xD1,0xD2,
 259:../tasks/SDMMC/ff.c **** 				0xE0,0xE1,0xE2,0xE3,0xE5,0xE5,0xE6,0xE7,0xE8,0xE9,0xEA,0xEB,0xDE,0x59,0xEE,0xEF,0xF0,0xF1,0xF2,
 260:../tasks/SDMMC/ff.c **** 
 261:../tasks/SDMMC/ff.c **** #elif _CODE_PAGE == 858	/* Multilingual Latin 1 + Euro (OEM) */
 262:../tasks/SDMMC/ff.c **** #define _DF1S	0
 263:../tasks/SDMMC/ff.c **** #define _EXCVT {0x80,0x9A,0x90,0xB6,0x8E,0xB7,0x8F,0x80,0xD2,0xD3,0xD4,0xD8,0xD7,0xDE,0x8E,0x8F,0x9
 264:../tasks/SDMMC/ff.c **** 				0xB5,0xD6,0xE0,0xE9,0xA5,0xA5,0xA6,0xA7,0xA8,0xA9,0xAA,0xAB,0xAC,0x21,0xAE,0xAF,0xB0,0xB1,0xB2,
 265:../tasks/SDMMC/ff.c **** 				0xC0,0xC1,0xC2,0xC3,0xC4,0xC5,0xC7,0xC7,0xC8,0xC9,0xCA,0xCB,0xCC,0xCD,0xCE,0xCF,0xD1,0xD1,0xD2,
 266:../tasks/SDMMC/ff.c **** 				0xE0,0xE1,0xE2,0xE3,0xE5,0xE5,0xE6,0xE7,0xE7,0xE9,0xEA,0xEB,0xED,0xED,0xEE,0xEF,0xF0,0xF1,0xF2,
 267:../tasks/SDMMC/ff.c **** 
 268:../tasks/SDMMC/ff.c **** #elif _CODE_PAGE == 862	/* Hebrew (OEM) */
 269:../tasks/SDMMC/ff.c **** #define _DF1S	0
 270:../tasks/SDMMC/ff.c **** #define _EXCVT {0x80,0x81,0x82,0x83,0x84,0x85,0x86,0x87,0x88,0x89,0x8A,0x8B,0x8C,0x8D,0x8E,0x8F,0x9
 271:../tasks/SDMMC/ff.c **** 				0x41,0x49,0x4F,0x55,0xA5,0xA5,0xA6,0xA7,0xA8,0xA9,0xAA,0xAB,0xAC,0x21,0xAE,0xAF,0xB0,0xB1,0xB2,
 272:../tasks/SDMMC/ff.c **** 				0xC0,0xC1,0xC2,0xC3,0xC4,0xC5,0xC6,0xC7,0xC8,0xC9,0xCA,0xCB,0xCC,0xCD,0xCE,0xCF,0xD0,0xD1,0xD2,
 273:../tasks/SDMMC/ff.c **** 				0xE0,0xE1,0xE2,0xE3,0xE4,0xE5,0xE6,0xE7,0xE8,0xE9,0xEA,0xEB,0xEC,0xED,0xEE,0xEF,0xF0,0xF1,0xF2,
 274:../tasks/SDMMC/ff.c **** 
 275:../tasks/SDMMC/ff.c **** #elif _CODE_PAGE == 866	/* Russian (OEM) */
 276:../tasks/SDMMC/ff.c **** #define _DF1S	0
 277:../tasks/SDMMC/ff.c **** #define _EXCVT {0x80,0x81,0x82,0x83,0x84,0x85,0x86,0x87,0x88,0x89,0x8A,0x8B,0x8C,0x8D,0x8E,0x8F,0x9
 278:../tasks/SDMMC/ff.c **** 				0x80,0x81,0x82,0x83,0x84,0x85,0x86,0x87,0x88,0x89,0x8A,0x8B,0x8C,0x8D,0x8E,0x8F,0xB0,0xB1,0xB2,
 279:../tasks/SDMMC/ff.c **** 				0xC0,0xC1,0xC2,0xC3,0xC4,0xC5,0xC6,0xC7,0xC8,0xC9,0xCA,0xCB,0xCC,0xCD,0xCE,0xCF,0xD0,0xD1,0xD2,
 280:../tasks/SDMMC/ff.c **** 				0x90,0x91,0x92,0x93,0x9d,0x95,0x96,0x97,0x98,0x99,0x9A,0x9B,0x9C,0x9D,0x9E,0x9F,0xF0,0xF0,0xF2,
 281:../tasks/SDMMC/ff.c **** 
 282:../tasks/SDMMC/ff.c **** #elif _CODE_PAGE == 874	/* Thai (OEM, Windows) */
 283:../tasks/SDMMC/ff.c **** #define _DF1S	0
 284:../tasks/SDMMC/ff.c **** #define _EXCVT {0x80,0x81,0x82,0x83,0x84,0x85,0x86,0x87,0x88,0x89,0x8A,0x8B,0x8C,0x8D,0x8E,0x8F,0x9
 285:../tasks/SDMMC/ff.c **** 				0xA0,0xA1,0xA2,0xA3,0xA4,0xA5,0xA6,0xA7,0xA8,0xA9,0xAA,0xAB,0xAC,0xAD,0xAE,0xAF,0xB0,0xB1,0xB2,
 286:../tasks/SDMMC/ff.c **** 				0xC0,0xC1,0xC2,0xC3,0xC4,0xC5,0xC6,0xC7,0xC8,0xC9,0xCA,0xCB,0xCC,0xCD,0xCE,0xCF,0xD0,0xD1,0xD2,
 287:../tasks/SDMMC/ff.c **** 				0xE0,0xE1,0xE2,0xE3,0xE4,0xE5,0xE6,0xE7,0xE8,0xE9,0xEA,0xEB,0xEC,0xED,0xEE,0xEF,0xF0,0xF1,0xF2,
 288:../tasks/SDMMC/ff.c **** 
 289:../tasks/SDMMC/ff.c **** #elif _CODE_PAGE == 1250 /* Central Europe (Windows) */
 290:../tasks/SDMMC/ff.c **** #define _DF1S	0
 291:../tasks/SDMMC/ff.c **** #define _EXCVT {0x80,0x81,0x82,0x83,0x84,0x85,0x86,0x87,0x88,0x89,0x8A,0x8B,0x8C,0x8D,0x8E,0x8F,0x9
 292:../tasks/SDMMC/ff.c **** 				0xA0,0xA1,0xA2,0xA3,0xA4,0xA5,0xA6,0xA7,0xA8,0xA9,0xAA,0xAB,0xAC,0xAD,0xAE,0xAF,0xB0,0xB1,0xB2,
 293:../tasks/SDMMC/ff.c **** 				0xC0,0xC1,0xC2,0xC3,0xC4,0xC5,0xC6,0xC7,0xC8,0xC9,0xCA,0xCB,0xCC,0xCD,0xCE,0xCF,0xD0,0xD1,0xD2,
 294:../tasks/SDMMC/ff.c **** 				0xC0,0xC1,0xC2,0xC3,0xC4,0xC5,0xC6,0xC7,0xC8,0xC9,0xCA,0xCB,0xCC,0xCD,0xCE,0xCF,0xD0,0xD1,0xD2,
 295:../tasks/SDMMC/ff.c **** 
 296:../tasks/SDMMC/ff.c **** #elif _CODE_PAGE == 1251 /* Cyrillic (Windows) */
 297:../tasks/SDMMC/ff.c **** #define _DF1S	0
 298:../tasks/SDMMC/ff.c **** #define _EXCVT {0x80,0x81,0x82,0x82,0x84,0x85,0x86,0x87,0x88,0x89,0x8A,0x8B,0x8C,0x8D,0x8E,0x8F,0x8
 299:../tasks/SDMMC/ff.c **** 				0xA0,0xA2,0xA2,0xA3,0xA4,0xA5,0xA6,0xA7,0xA8,0xA9,0xAA,0xAB,0xAC,0xAD,0xAE,0xAF,0xB0,0xB1,0xB2,
 300:../tasks/SDMMC/ff.c **** 				0xC0,0xC1,0xC2,0xC3,0xC4,0xC5,0xC6,0xC7,0xC8,0xC9,0xCA,0xCB,0xCC,0xCD,0xCE,0xCF,0xD0,0xD1,0xD2,
 301:../tasks/SDMMC/ff.c **** 				0xC0,0xC1,0xC2,0xC3,0xC4,0xC5,0xC6,0xC7,0xC8,0xC9,0xCA,0xCB,0xCC,0xCD,0xCE,0xCF,0xD0,0xD1,0xD2,
 302:../tasks/SDMMC/ff.c **** 
 303:../tasks/SDMMC/ff.c **** #elif _CODE_PAGE == 1252 /* Latin 1 (Windows) */
 304:../tasks/SDMMC/ff.c **** #define _DF1S	0
 305:../tasks/SDMMC/ff.c **** #define _EXCVT {0x80,0x81,0x82,0x83,0x84,0x85,0x86,0x87,0x88,0x89,0x8A,0x8B,0x8C,0x8D,0x8E,0x8F,0x9
 306:../tasks/SDMMC/ff.c **** 				0xA0,0x21,0xA2,0xA3,0xA4,0xA5,0xA6,0xA7,0xA8,0xA9,0xAA,0xAB,0xAC,0xAD,0xAE,0xAF,0xB0,0xB1,0xB2,
 307:../tasks/SDMMC/ff.c **** 				0xC0,0xC1,0xC2,0xC3,0xC4,0xC5,0xC6,0xC7,0xC8,0xC9,0xCA,0xCB,0xCC,0xCD,0xCE,0xCF,0xD0,0xD1,0xD2,
 308:../tasks/SDMMC/ff.c **** 				0xC0,0xC1,0xC2,0xC3,0xC4,0xC5,0xC6,0xC7,0xC8,0xC9,0xCA,0xCB,0xCC,0xCD,0xCE,0xCF,0xD0,0xD1,0xD2,
 309:../tasks/SDMMC/ff.c **** 
 310:../tasks/SDMMC/ff.c **** #elif _CODE_PAGE == 1253 /* Greek (Windows) */
 311:../tasks/SDMMC/ff.c **** #define _DF1S	0
 312:../tasks/SDMMC/ff.c **** #define _EXCVT {0x80,0x81,0x82,0x83,0x84,0x85,0x86,0x87,0x88,0x89,0x8A,0x8B,0x8C,0x8D,0x8E,0x8F,0x9
 313:../tasks/SDMMC/ff.c **** 				0xA0,0xA1,0xA2,0xA3,0xA4,0xA5,0xA6,0xA7,0xA8,0xA9,0xAA,0xAB,0xAC,0xAD,0xAE,0xAF,0xB0,0xB1,0xB2,
 314:../tasks/SDMMC/ff.c **** 				0xC0,0xC1,0xC2,0xC3,0xC4,0xC5,0xC6,0xC7,0xC8,0xC9,0xCA,0xCB,0xCC,0xCD,0xCE,0xCF,0xD0,0xD1,0xD2,
 315:../tasks/SDMMC/ff.c **** 				0xE0,0xC1,0xC2,0xC3,0xC4,0xC5,0xC6,0xC7,0xC8,0xC9,0xCA,0xCB,0xCC,0xCD,0xCE,0xCF,0xD0,0xD1,0xF2,
 316:../tasks/SDMMC/ff.c **** 
 317:../tasks/SDMMC/ff.c **** #elif _CODE_PAGE == 1254 /* Turkish (Windows) */
 318:../tasks/SDMMC/ff.c **** #define _DF1S	0
 319:../tasks/SDMMC/ff.c **** #define _EXCVT {0x80,0x81,0x82,0x83,0x84,0x85,0x86,0x87,0x88,0x89,0x8A,0x8B,0x8C,0x8D,0x8E,0x8F,0x9
 320:../tasks/SDMMC/ff.c **** 				0xA0,0x21,0xA2,0xA3,0xA4,0xA5,0xA6,0xA7,0xA8,0xA9,0xAA,0xAB,0xAC,0xAD,0xAE,0xAF,0xB0,0xB1,0xB2,
 321:../tasks/SDMMC/ff.c **** 				0xC0,0xC1,0xC2,0xC3,0xC4,0xC5,0xC6,0xC7,0xC8,0xC9,0xCA,0xCB,0xCC,0xCD,0xCE,0xCF,0xD0,0xD1,0xD2,
 322:../tasks/SDMMC/ff.c **** 				0xC0,0xC1,0xC2,0xC3,0xC4,0xC5,0xC6,0xC7,0xC8,0xC9,0xCA,0xCB,0xCC,0xCD,0xCE,0xCF,0xD0,0xD1,0xD2,
 323:../tasks/SDMMC/ff.c **** 
 324:../tasks/SDMMC/ff.c **** #elif _CODE_PAGE == 1255 /* Hebrew (Windows) */
 325:../tasks/SDMMC/ff.c **** #define _DF1S	0
 326:../tasks/SDMMC/ff.c **** #define _EXCVT {0x80,0x81,0x82,0x83,0x84,0x85,0x86,0x87,0x88,0x89,0x8A,0x8B,0x8C,0x8D,0x8E,0x8F,0x9
 327:../tasks/SDMMC/ff.c **** 				0xA0,0x21,0xA2,0xA3,0xA4,0xA5,0xA6,0xA7,0xA8,0xA9,0xAA,0xAB,0xAC,0xAD,0xAE,0xAF,0xB0,0xB1,0xB2,
 328:../tasks/SDMMC/ff.c **** 				0xC0,0xC1,0xC2,0xC3,0xC4,0xC5,0xC6,0xC7,0xC8,0xC9,0xCA,0xCB,0xCC,0xCD,0xCE,0xCF,0xD0,0xD1,0xD2,
 329:../tasks/SDMMC/ff.c **** 				0xE0,0xE1,0xE2,0xE3,0xE4,0xE5,0xE6,0xE7,0xE8,0xE9,0xEA,0xEB,0xEC,0xED,0xEE,0xEF,0xF0,0xF1,0xF2,
 330:../tasks/SDMMC/ff.c **** 
 331:../tasks/SDMMC/ff.c **** #elif _CODE_PAGE == 1256 /* Arabic (Windows) */
 332:../tasks/SDMMC/ff.c **** #define _DF1S	0
 333:../tasks/SDMMC/ff.c **** #define _EXCVT {0x80,0x81,0x82,0x83,0x84,0x85,0x86,0x87,0x88,0x89,0x8A,0x8B,0x8C,0x8D,0x8E,0x8F,0x9
 334:../tasks/SDMMC/ff.c **** 				0xA0,0xA1,0xA2,0xA3,0xA4,0xA5,0xA6,0xA7,0xA8,0xA9,0xAA,0xAB,0xAC,0xAD,0xAE,0xAF,0xB0,0xB1,0xB2,
 335:../tasks/SDMMC/ff.c **** 				0xC0,0xC1,0xC2,0xC3,0xC4,0xC5,0xC6,0xC7,0xC8,0xC9,0xCA,0xCB,0xCC,0xCD,0xCE,0xCF,0xD0,0xD1,0xD2,
 336:../tasks/SDMMC/ff.c **** 				0x41,0xE1,0x41,0xE3,0xE4,0xE5,0xE6,0x43,0x45,0x45,0x45,0x45,0xEC,0xED,0x49,0x49,0xF0,0xF1,0xF2,
 337:../tasks/SDMMC/ff.c **** 
 338:../tasks/SDMMC/ff.c **** #elif _CODE_PAGE == 1257 /* Baltic (Windows) */
 339:../tasks/SDMMC/ff.c **** #define _DF1S	0
 340:../tasks/SDMMC/ff.c **** #define _EXCVT {0x80,0x81,0x82,0x83,0x84,0x85,0x86,0x87,0x88,0x89,0x8A,0x8B,0x8C,0x8D,0x8E,0x8F,0x9
 341:../tasks/SDMMC/ff.c **** 				0xA0,0xA1,0xA2,0xA3,0xA4,0xA5,0xA6,0xA7,0xA8,0xA9,0xAA,0xAB,0xAC,0xAD,0xAE,0xAF,0xB0,0xB1,0xB2,
 342:../tasks/SDMMC/ff.c **** 				0xC0,0xC1,0xC2,0xC3,0xC4,0xC5,0xC6,0xC7,0xC8,0xC9,0xCA,0xCB,0xCC,0xCD,0xCE,0xCF,0xD0,0xD1,0xD2,
 343:../tasks/SDMMC/ff.c **** 				0xC0,0xC1,0xC2,0xC3,0xC4,0xC5,0xC6,0xC7,0xC8,0xC9,0xCA,0xCB,0xCC,0xCD,0xCE,0xCF,0xD0,0xD1,0xD2,
 344:../tasks/SDMMC/ff.c **** 
 345:../tasks/SDMMC/ff.c **** #elif _CODE_PAGE == 1258 /* Vietnam (OEM, Windows) */
 346:../tasks/SDMMC/ff.c **** #define _DF1S	0
 347:../tasks/SDMMC/ff.c **** #define _EXCVT {0x80,0x81,0x82,0x83,0x84,0x85,0x86,0x87,0x88,0x89,0x8A,0x8B,0x8C,0x8D,0x8E,0x8F,0x9
 348:../tasks/SDMMC/ff.c **** 				0xA0,0x21,0xA2,0xA3,0xA4,0xA5,0xA6,0xA7,0xA8,0xA9,0xAA,0xAB,0xAC,0xAD,0xAE,0xAF,0xB0,0xB1,0xB2,
 349:../tasks/SDMMC/ff.c **** 				0xC0,0xC1,0xC2,0xC3,0xC4,0xC5,0xC6,0xC7,0xC8,0xC9,0xCA,0xCB,0xCC,0xCD,0xCE,0xCF,0xD0,0xD1,0xD2,
 350:../tasks/SDMMC/ff.c **** 				0xC0,0xC1,0xC2,0xC3,0xC4,0xC5,0xC6,0xC7,0xC8,0xC9,0xCA,0xCB,0xEC,0xCD,0xCE,0xCF,0xD0,0xD1,0xF2,
 351:../tasks/SDMMC/ff.c **** 
 352:../tasks/SDMMC/ff.c **** #elif _CODE_PAGE == 1	/* ASCII (for only non-LFN cfg) */
 353:../tasks/SDMMC/ff.c **** #if _USE_LFN
 354:../tasks/SDMMC/ff.c **** #error Cannot use LFN feature without valid code page.
 355:../tasks/SDMMC/ff.c **** #endif
 356:../tasks/SDMMC/ff.c **** #define _DF1S	0
 357:../tasks/SDMMC/ff.c **** 
 358:../tasks/SDMMC/ff.c **** #else
 359:../tasks/SDMMC/ff.c **** #error Unknown code page
 360:../tasks/SDMMC/ff.c **** 
 361:../tasks/SDMMC/ff.c **** #endif
 362:../tasks/SDMMC/ff.c **** 
 363:../tasks/SDMMC/ff.c **** 
 364:../tasks/SDMMC/ff.c **** /* Character code support macros */
 365:../tasks/SDMMC/ff.c **** #define IsUpper(c)	(((c)>='A')&&((c)<='Z'))
 366:../tasks/SDMMC/ff.c **** #define IsLower(c)	(((c)>='a')&&((c)<='z'))
 367:../tasks/SDMMC/ff.c **** #define IsDigit(c)	(((c)>='0')&&((c)<='9'))
 368:../tasks/SDMMC/ff.c **** 
 369:../tasks/SDMMC/ff.c **** #if _DF1S		/* Code page is DBCS */
 370:../tasks/SDMMC/ff.c **** 
 371:../tasks/SDMMC/ff.c **** #ifdef _DF2S	/* Two 1st byte areas */
 372:../tasks/SDMMC/ff.c **** #define IsDBCS1(c)	(((BYTE)(c) >= _DF1S && (BYTE)(c) <= _DF1E) || ((BYTE)(c) >= _DF2S && (BYTE)(c) 
 373:../tasks/SDMMC/ff.c **** #else			/* One 1st byte area */
 374:../tasks/SDMMC/ff.c **** #define IsDBCS1(c)	((BYTE)(c) >= _DF1S && (BYTE)(c) <= _DF1E)
 375:../tasks/SDMMC/ff.c **** #endif
 376:../tasks/SDMMC/ff.c **** 
 377:../tasks/SDMMC/ff.c **** #ifdef _DS3S	/* Three 2nd byte areas */
 378:../tasks/SDMMC/ff.c **** #define IsDBCS2(c)	(((BYTE)(c) >= _DS1S && (BYTE)(c) <= _DS1E) || ((BYTE)(c) >= _DS2S && (BYTE)(c) 
 379:../tasks/SDMMC/ff.c **** #else			/* Two 2nd byte areas */
 380:../tasks/SDMMC/ff.c **** #define IsDBCS2(c)	(((BYTE)(c) >= _DS1S && (BYTE)(c) <= _DS1E) || ((BYTE)(c) >= _DS2S && (BYTE)(c) 
 381:../tasks/SDMMC/ff.c **** #endif
 382:../tasks/SDMMC/ff.c **** 
 383:../tasks/SDMMC/ff.c **** #else			/* Code page is SBCS */
 384:../tasks/SDMMC/ff.c **** 
 385:../tasks/SDMMC/ff.c **** #define IsDBCS1(c)	0
 386:../tasks/SDMMC/ff.c **** #define IsDBCS2(c)	0
 387:../tasks/SDMMC/ff.c **** 
 388:../tasks/SDMMC/ff.c **** #endif /* _DF1S */
 389:../tasks/SDMMC/ff.c **** 
 390:../tasks/SDMMC/ff.c **** 
 391:../tasks/SDMMC/ff.c **** /* Name status flags */
 392:../tasks/SDMMC/ff.c **** #define NS			11		/* Index of name status byte in fn[] */
 393:../tasks/SDMMC/ff.c **** #define NS_LOSS		0x01	/* Out of 8.3 format */
 394:../tasks/SDMMC/ff.c **** #define NS_LFN		0x02	/* Force to create LFN entry */
 395:../tasks/SDMMC/ff.c **** #define NS_LAST		0x04	/* Last segment */
 396:../tasks/SDMMC/ff.c **** #define NS_BODY		0x08	/* Lower case flag (body) */
 397:../tasks/SDMMC/ff.c **** #define NS_EXT		0x10	/* Lower case flag (ext) */
 398:../tasks/SDMMC/ff.c **** #define NS_DOT		0x20	/* Dot entry */
 399:../tasks/SDMMC/ff.c **** 
 400:../tasks/SDMMC/ff.c **** 
 401:../tasks/SDMMC/ff.c **** /* FAT sub-type boundaries */
 402:../tasks/SDMMC/ff.c **** #define MIN_FAT16	4086U	/* Minimum number of clusters for FAT16 */
 403:../tasks/SDMMC/ff.c **** #define	MIN_FAT32	65526U	/* Minimum number of clusters for FAT32 */
 404:../tasks/SDMMC/ff.c **** 
 405:../tasks/SDMMC/ff.c **** 
 406:../tasks/SDMMC/ff.c **** /* FatFs refers the members in the FAT structures as byte array instead of
 407:../tasks/SDMMC/ff.c **** / structure member because the structure is not binary compatible between
 408:../tasks/SDMMC/ff.c **** / different platforms */
 409:../tasks/SDMMC/ff.c **** 
 410:../tasks/SDMMC/ff.c **** #define BS_jmpBoot			0	/* Jump instruction (3) */
 411:../tasks/SDMMC/ff.c **** #define BS_OEMName			3	/* OEM name (8) */
 412:../tasks/SDMMC/ff.c **** #define BPB_BytsPerSec		11	/* Sector size [byte] (2) */
 413:../tasks/SDMMC/ff.c **** #define BPB_SecPerClus		13	/* Cluster size [sector] (1) */
 414:../tasks/SDMMC/ff.c **** #define BPB_RsvdSecCnt		14	/* Size of reserved area [sector] (2) */
 415:../tasks/SDMMC/ff.c **** #define BPB_NumFATs			16	/* Number of FAT copies (1) */
 416:../tasks/SDMMC/ff.c **** #define BPB_RootEntCnt		17	/* Number of root directory entries for FAT12/16 (2) */
 417:../tasks/SDMMC/ff.c **** #define BPB_TotSec16		19	/* Volume size [sector] (2) */
 418:../tasks/SDMMC/ff.c **** #define BPB_Media			21	/* Media descriptor (1) */
 419:../tasks/SDMMC/ff.c **** #define BPB_FATSz16			22	/* FAT size [sector] (2) */
 420:../tasks/SDMMC/ff.c **** #define BPB_SecPerTrk		24	/* Track size [sector] (2) */
 421:../tasks/SDMMC/ff.c **** #define BPB_NumHeads		26	/* Number of heads (2) */
 422:../tasks/SDMMC/ff.c **** #define BPB_HiddSec			28	/* Number of special hidden sectors (4) */
 423:../tasks/SDMMC/ff.c **** #define BPB_TotSec32		32	/* Volume size [sector] (4) */
 424:../tasks/SDMMC/ff.c **** #define BS_DrvNum			36	/* Physical drive number (2) */
 425:../tasks/SDMMC/ff.c **** #define BS_BootSig			38	/* Extended boot signature (1) */
 426:../tasks/SDMMC/ff.c **** #define BS_VolID			39	/* Volume serial number (4) */
 427:../tasks/SDMMC/ff.c **** #define BS_VolLab			43	/* Volume label (8) */
 428:../tasks/SDMMC/ff.c **** #define BS_FilSysType		54	/* File system type (1) */
 429:../tasks/SDMMC/ff.c **** #define BPB_FATSz32			36	/* FAT size [sector] (4) */
 430:../tasks/SDMMC/ff.c **** #define BPB_ExtFlags		40	/* Extended flags (2) */
 431:../tasks/SDMMC/ff.c **** #define BPB_FSVer			42	/* File system version (2) */
 432:../tasks/SDMMC/ff.c **** #define BPB_RootClus		44	/* Root directory first cluster (4) */
 433:../tasks/SDMMC/ff.c **** #define BPB_FSInfo			48	/* Offset of FSINFO sector (2) */
 434:../tasks/SDMMC/ff.c **** #define BPB_BkBootSec		50	/* Offset of backup boot sector (2) */
 435:../tasks/SDMMC/ff.c **** #define BS_DrvNum32			64	/* Physical drive number (2) */
 436:../tasks/SDMMC/ff.c **** #define BS_BootSig32		66	/* Extended boot signature (1) */
 437:../tasks/SDMMC/ff.c **** #define BS_VolID32			67	/* Volume serial number (4) */
 438:../tasks/SDMMC/ff.c **** #define BS_VolLab32			71	/* Volume label (8) */
 439:../tasks/SDMMC/ff.c **** #define BS_FilSysType32		82	/* File system type (1) */
 440:../tasks/SDMMC/ff.c **** #define	FSI_LeadSig			0	/* FSI: Leading signature (4) */
 441:../tasks/SDMMC/ff.c **** #define	FSI_StrucSig		484	/* FSI: Structure signature (4) */
 442:../tasks/SDMMC/ff.c **** #define	FSI_Free_Count		488	/* FSI: Number of free clusters (4) */
 443:../tasks/SDMMC/ff.c **** #define	FSI_Nxt_Free		492	/* FSI: Last allocated cluster (4) */
 444:../tasks/SDMMC/ff.c **** #define MBR_Table			446	/* MBR: Partition table offset (2) */
 445:../tasks/SDMMC/ff.c **** #define	SZ_PTE				16	/* MBR: Size of a partition table entry */
 446:../tasks/SDMMC/ff.c **** #define BS_55AA				510	/* Boot sector signature (2) */
 447:../tasks/SDMMC/ff.c **** 
 448:../tasks/SDMMC/ff.c **** #define	DIR_Name			0	/* Short file name (11) */
 449:../tasks/SDMMC/ff.c **** #define	DIR_Attr			11	/* Attribute (1) */
 450:../tasks/SDMMC/ff.c **** #define	DIR_NTres			12	/* NT flag (1) */
 451:../tasks/SDMMC/ff.c **** #define DIR_CrtTimeTenth	13	/* Created time sub-second (1) */
 452:../tasks/SDMMC/ff.c **** #define	DIR_CrtTime			14	/* Created time (2) */
 453:../tasks/SDMMC/ff.c **** #define	DIR_CrtDate			16	/* Created date (2) */
 454:../tasks/SDMMC/ff.c **** #define DIR_LstAccDate		18	/* Last accessed date (2) */
 455:../tasks/SDMMC/ff.c **** #define	DIR_FstClusHI		20	/* Higher 16-bit of first cluster (2) */
 456:../tasks/SDMMC/ff.c **** #define	DIR_WrtTime			22	/* Modified time (2) */
 457:../tasks/SDMMC/ff.c **** #define	DIR_WrtDate			24	/* Modified date (2) */
 458:../tasks/SDMMC/ff.c **** #define	DIR_FstClusLO		26	/* Lower 16-bit of first cluster (2) */
 459:../tasks/SDMMC/ff.c **** #define	DIR_FileSize		28	/* File size (4) */
 460:../tasks/SDMMC/ff.c **** #define	LDIR_Ord			0	/* LFN entry order and LLE flag (1) */
 461:../tasks/SDMMC/ff.c **** #define	LDIR_Attr			11	/* LFN attribute (1) */
 462:../tasks/SDMMC/ff.c **** #define	LDIR_Type			12	/* LFN type (1) */
 463:../tasks/SDMMC/ff.c **** #define	LDIR_Chksum			13	/* Sum of corresponding SFN entry */
 464:../tasks/SDMMC/ff.c **** #define	LDIR_FstClusLO		26	/* Filled by zero (0) */
 465:../tasks/SDMMC/ff.c **** #define	SZ_DIR				32		/* Size of a directory entry */
 466:../tasks/SDMMC/ff.c **** #define	LLE					0x40	/* Last long entry flag in LDIR_Ord */
 467:../tasks/SDMMC/ff.c **** #define	DDE					0xE5	/* Deleted directory entry mark in DIR_Name[0] */
 468:../tasks/SDMMC/ff.c **** #define	NDDE				0x05	/* Replacement of the character collides with DDE */
 469:../tasks/SDMMC/ff.c **** 
 470:../tasks/SDMMC/ff.c **** 
 471:../tasks/SDMMC/ff.c **** /*------------------------------------------------------------*/
 472:../tasks/SDMMC/ff.c **** /* Module private work area                                   */
 473:../tasks/SDMMC/ff.c **** /*------------------------------------------------------------*/
 474:../tasks/SDMMC/ff.c **** /* Note that uninitialized variables with static duration are
 475:../tasks/SDMMC/ff.c **** /  zeroed/nulled at start-up. If not, the compiler or start-up
 476:../tasks/SDMMC/ff.c **** /  routine is out of ANSI-C standard.
 477:../tasks/SDMMC/ff.c **** */
 478:../tasks/SDMMC/ff.c **** 
 479:../tasks/SDMMC/ff.c **** #if _VOLUMES
 480:../tasks/SDMMC/ff.c **** static
 481:../tasks/SDMMC/ff.c **** FATFS *FatFs[_VOLUMES];	/* Pointer to the file system objects (logical drives) */
 482:../tasks/SDMMC/ff.c **** #else
 483:../tasks/SDMMC/ff.c **** #error Number of volumes must not be 0.
 484:../tasks/SDMMC/ff.c **** #endif
 485:../tasks/SDMMC/ff.c **** 
 486:../tasks/SDMMC/ff.c **** static
 487:../tasks/SDMMC/ff.c **** WORD Fsid;				/* File system mount ID */
 488:../tasks/SDMMC/ff.c **** 
 489:../tasks/SDMMC/ff.c **** #if _FS_RPATH && _VOLUMES >= 2
 490:../tasks/SDMMC/ff.c **** static
 491:../tasks/SDMMC/ff.c **** BYTE CurrVol;			/* Current drive */
 492:../tasks/SDMMC/ff.c **** #endif
 493:../tasks/SDMMC/ff.c **** 
 494:../tasks/SDMMC/ff.c **** #if _FS_LOCK
 495:../tasks/SDMMC/ff.c **** static
 496:../tasks/SDMMC/ff.c **** FILESEM	Files[_FS_LOCK];	/* Open object lock semaphores */
 497:../tasks/SDMMC/ff.c **** #endif
 498:../tasks/SDMMC/ff.c **** 
 499:../tasks/SDMMC/ff.c **** #if _USE_LFN == 0			/* No LFN feature */
 500:../tasks/SDMMC/ff.c **** #define	DEF_NAMEBUF			BYTE sfn[12]
 501:../tasks/SDMMC/ff.c **** #define INIT_BUF(dobj)		(dobj).fn = sfn
 502:../tasks/SDMMC/ff.c **** #define	FREE_BUF()
 503:../tasks/SDMMC/ff.c **** 
 504:../tasks/SDMMC/ff.c **** #elif _USE_LFN == 1			/* LFN feature with static working buffer */
 505:../tasks/SDMMC/ff.c **** static
 506:../tasks/SDMMC/ff.c **** WCHAR LfnBuf[_MAX_LFN+1];
 507:../tasks/SDMMC/ff.c **** #define	DEF_NAMEBUF			BYTE sfn[12]
 508:../tasks/SDMMC/ff.c **** #define INIT_BUF(dobj)		{ (dobj).fn = sfn; (dobj).lfn = LfnBuf; }
 509:../tasks/SDMMC/ff.c **** #define	FREE_BUF()
 510:../tasks/SDMMC/ff.c **** 
 511:../tasks/SDMMC/ff.c **** #elif _USE_LFN == 2 		/* LFN feature with dynamic working buffer on the stack */
 512:../tasks/SDMMC/ff.c **** #define	DEF_NAMEBUF			BYTE sfn[12]; WCHAR lbuf[_MAX_LFN+1]
 513:../tasks/SDMMC/ff.c **** #define INIT_BUF(dobj)		{ (dobj).fn = sfn; (dobj).lfn = lbuf; }
 514:../tasks/SDMMC/ff.c **** #define	FREE_BUF()
 515:../tasks/SDMMC/ff.c **** 
 516:../tasks/SDMMC/ff.c **** #elif _USE_LFN == 3 		/* LFN feature with dynamic working buffer on the heap */
 517:../tasks/SDMMC/ff.c **** #define	DEF_NAMEBUF			BYTE sfn[12]; WCHAR *lfn
 518:../tasks/SDMMC/ff.c **** #define INIT_BUF(dobj)		{ lfn = ff_memalloc((_MAX_LFN + 1) * 2); \
 519:../tasks/SDMMC/ff.c **** 							  if (!lfn) LEAVE_FF((dobj).fs, FR_NOT_ENOUGH_CORE); \
 520:../tasks/SDMMC/ff.c **** 							  (dobj).lfn = lfn;	(dobj).fn = sfn; }
 521:../tasks/SDMMC/ff.c **** #define	FREE_BUF()			ff_memfree(lfn)
 522:../tasks/SDMMC/ff.c **** 
 523:../tasks/SDMMC/ff.c **** #else
 524:../tasks/SDMMC/ff.c **** #error Wrong LFN configuration.
 525:../tasks/SDMMC/ff.c **** #endif
 526:../tasks/SDMMC/ff.c **** 
 527:../tasks/SDMMC/ff.c **** 
 528:../tasks/SDMMC/ff.c **** #ifdef _EXCVT
 529:../tasks/SDMMC/ff.c **** static
 530:../tasks/SDMMC/ff.c **** const BYTE ExCvt[] = _EXCVT;	/* Upper conversion table for extended characters */
 531:../tasks/SDMMC/ff.c **** #endif
 532:../tasks/SDMMC/ff.c **** 
 533:../tasks/SDMMC/ff.c **** 
 534:../tasks/SDMMC/ff.c **** 
 535:../tasks/SDMMC/ff.c **** 
 536:../tasks/SDMMC/ff.c **** 
 537:../tasks/SDMMC/ff.c **** 
 538:../tasks/SDMMC/ff.c **** /*--------------------------------------------------------------------------
 539:../tasks/SDMMC/ff.c **** 
 540:../tasks/SDMMC/ff.c ****    Module Private Functions
 541:../tasks/SDMMC/ff.c **** 
 542:../tasks/SDMMC/ff.c **** ---------------------------------------------------------------------------*/
 543:../tasks/SDMMC/ff.c **** DWORD clust2sect (FATFS* fs, DWORD clst);
 544:../tasks/SDMMC/ff.c **** DWORD get_fat (FATFS* fs,	DWORD clst);
 545:../tasks/SDMMC/ff.c **** 
 546:../tasks/SDMMC/ff.c **** #if !_FS_READONLY
 547:../tasks/SDMMC/ff.c **** FRESULT put_fat (FATFS* fs,	DWORD clst,	DWORD val);
 548:../tasks/SDMMC/ff.c **** #endif /* !_FS_READONLY */
 549:../tasks/SDMMC/ff.c **** 
 550:../tasks/SDMMC/ff.c **** #if _USE_LFN
 551:../tasks/SDMMC/ff.c **** void gen_numname (BYTE* dst, const BYTE* src, const WCHAR* lfn, WORD seq);
 552:../tasks/SDMMC/ff.c **** #endif /* !_USE_LFN */
 553:../tasks/SDMMC/ff.c **** 
 554:../tasks/SDMMC/ff.c **** /*-----------------------------------------------------------------------*/
 555:../tasks/SDMMC/ff.c **** /* String functions                                                      */
 556:../tasks/SDMMC/ff.c **** /*-----------------------------------------------------------------------*/
 557:../tasks/SDMMC/ff.c **** 
 558:../tasks/SDMMC/ff.c **** /* Copy memory to memory */
 559:../tasks/SDMMC/ff.c **** static
 560:../tasks/SDMMC/ff.c **** void mem_cpy (void* dst, const void* src, UINT cnt) {
 171              		.loc 1 560 0
 172              		.cfi_startproc
 173              		@ args = 0, pretend = 0, frame = 24
 174              		@ frame_needed = 1, uses_anonymous_args = 0
 175              		@ link register save eliminated.
 176 0000 80B4     		push	{r7}
 177              		.cfi_def_cfa_offset 4
 178              		.cfi_offset 7, -4
 179 0002 87B0     		sub	sp, sp, #28
 180              		.cfi_def_cfa_offset 32
 181 0004 00AF     		add	r7, sp, #0
 182              		.cfi_def_cfa_register 7
 183 0006 F860     		str	r0, [r7, #12]
 184 0008 B960     		str	r1, [r7, #8]
 185 000a 7A60     		str	r2, [r7, #4]
 561:../tasks/SDMMC/ff.c **** 	BYTE *d = (BYTE*)dst;
 186              		.loc 1 561 0
 187 000c FB68     		ldr	r3, [r7, #12]
 188 000e 7B61     		str	r3, [r7, #20]
 562:../tasks/SDMMC/ff.c **** 	const BYTE *s = (const BYTE*)src;
 189              		.loc 1 562 0
 190 0010 BB68     		ldr	r3, [r7, #8]
 191 0012 3B61     		str	r3, [r7, #16]
 563:../tasks/SDMMC/ff.c **** 
 564:../tasks/SDMMC/ff.c **** #if _WORD_ACCESS == 1
 565:../tasks/SDMMC/ff.c **** 	while (cnt >= sizeof (int)) {
 566:../tasks/SDMMC/ff.c **** 		*(int*)d = *(int*)s;
 567:../tasks/SDMMC/ff.c **** 		d += sizeof (int); s += sizeof (int);
 568:../tasks/SDMMC/ff.c **** 		cnt -= sizeof (int);
 569:../tasks/SDMMC/ff.c **** 	}
 570:../tasks/SDMMC/ff.c **** #endif
 571:../tasks/SDMMC/ff.c **** 	while (cnt--)
 192              		.loc 1 571 0
 193 0014 07E0     		b	.L2
 194              	.L3:
 572:../tasks/SDMMC/ff.c **** 		*d++ = *s++;
 195              		.loc 1 572 0
 196 0016 7B69     		ldr	r3, [r7, #20]
 197 0018 5A1C     		adds	r2, r3, #1
 198 001a 7A61     		str	r2, [r7, #20]
 199 001c 3A69     		ldr	r2, [r7, #16]
 200 001e 511C     		adds	r1, r2, #1
 201 0020 3961     		str	r1, [r7, #16]
 202 0022 1278     		ldrb	r2, [r2]	@ zero_extendqisi2
 203 0024 1A70     		strb	r2, [r3]
 204              	.L2:
 571:../tasks/SDMMC/ff.c **** 		*d++ = *s++;
 205              		.loc 1 571 0 discriminator 1
 206 0026 7B68     		ldr	r3, [r7, #4]
 207 0028 5A1E     		subs	r2, r3, #1
 208 002a 7A60     		str	r2, [r7, #4]
 209 002c 002B     		cmp	r3, #0
 210 002e F2D1     		bne	.L3
 573:../tasks/SDMMC/ff.c **** }
 211              		.loc 1 573 0
 212 0030 1C37     		adds	r7, r7, #28
 213 0032 BD46     		mov	sp, r7
 214              		@ sp needed
 215 0034 5DF8047B 		ldr	r7, [sp], #4
 216 0038 7047     		bx	lr
 217              		.cfi_endproc
 218              	.LFE55:
 220 003a 00BF     		.align	2
 221              		.thumb
 222              		.thumb_func
 224              	mem_set:
 225              	.LFB56:
 574:../tasks/SDMMC/ff.c **** 
 575:../tasks/SDMMC/ff.c **** /* Fill memory */
 576:../tasks/SDMMC/ff.c **** static
 577:../tasks/SDMMC/ff.c **** void mem_set (void* dst, int val, UINT cnt) {
 226              		.loc 1 577 0
 227              		.cfi_startproc
 228              		@ args = 0, pretend = 0, frame = 24
 229              		@ frame_needed = 1, uses_anonymous_args = 0
 230              		@ link register save eliminated.
 231 003c 80B4     		push	{r7}
 232              		.cfi_def_cfa_offset 4
 233              		.cfi_offset 7, -4
 234 003e 87B0     		sub	sp, sp, #28
 235              		.cfi_def_cfa_offset 32
 236 0040 00AF     		add	r7, sp, #0
 237              		.cfi_def_cfa_register 7
 238 0042 F860     		str	r0, [r7, #12]
 239 0044 B960     		str	r1, [r7, #8]
 240 0046 7A60     		str	r2, [r7, #4]
 578:../tasks/SDMMC/ff.c **** 	BYTE *d = (BYTE*)dst;
 241              		.loc 1 578 0
 242 0048 FB68     		ldr	r3, [r7, #12]
 243 004a 7B61     		str	r3, [r7, #20]
 579:../tasks/SDMMC/ff.c **** 
 580:../tasks/SDMMC/ff.c **** 	while (cnt--)
 244              		.loc 1 580 0
 245 004c 05E0     		b	.L5
 246              	.L6:
 581:../tasks/SDMMC/ff.c **** 		*d++ = (BYTE)val;
 247              		.loc 1 581 0
 248 004e 7B69     		ldr	r3, [r7, #20]
 249 0050 5A1C     		adds	r2, r3, #1
 250 0052 7A61     		str	r2, [r7, #20]
 251 0054 BA68     		ldr	r2, [r7, #8]
 252 0056 D2B2     		uxtb	r2, r2
 253 0058 1A70     		strb	r2, [r3]
 254              	.L5:
 580:../tasks/SDMMC/ff.c **** 		*d++ = (BYTE)val;
 255              		.loc 1 580 0 discriminator 1
 256 005a 7B68     		ldr	r3, [r7, #4]
 257 005c 5A1E     		subs	r2, r3, #1
 258 005e 7A60     		str	r2, [r7, #4]
 259 0060 002B     		cmp	r3, #0
 260 0062 F4D1     		bne	.L6
 582:../tasks/SDMMC/ff.c **** }
 261              		.loc 1 582 0
 262 0064 1C37     		adds	r7, r7, #28
 263 0066 BD46     		mov	sp, r7
 264              		@ sp needed
 265 0068 5DF8047B 		ldr	r7, [sp], #4
 266 006c 7047     		bx	lr
 267              		.cfi_endproc
 268              	.LFE56:
 270 006e 00BF     		.align	2
 271              		.thumb
 272              		.thumb_func
 274              	mem_cmp:
 275              	.LFB57:
 583:../tasks/SDMMC/ff.c **** 
 584:../tasks/SDMMC/ff.c **** /* Compare memory to memory */
 585:../tasks/SDMMC/ff.c **** static
 586:../tasks/SDMMC/ff.c **** int mem_cmp (const void* dst, const void* src, UINT cnt) {
 276              		.loc 1 586 0
 277              		.cfi_startproc
 278              		@ args = 0, pretend = 0, frame = 32
 279              		@ frame_needed = 1, uses_anonymous_args = 0
 280              		@ link register save eliminated.
 281 0070 80B4     		push	{r7}
 282              		.cfi_def_cfa_offset 4
 283              		.cfi_offset 7, -4
 284 0072 89B0     		sub	sp, sp, #36
 285              		.cfi_def_cfa_offset 40
 286 0074 00AF     		add	r7, sp, #0
 287              		.cfi_def_cfa_register 7
 288 0076 F860     		str	r0, [r7, #12]
 289 0078 B960     		str	r1, [r7, #8]
 290 007a 7A60     		str	r2, [r7, #4]
 587:../tasks/SDMMC/ff.c **** 	const BYTE *d = (const BYTE *)dst, *s = (const BYTE *)src;
 291              		.loc 1 587 0
 292 007c FB68     		ldr	r3, [r7, #12]
 293 007e FB61     		str	r3, [r7, #28]
 294 0080 BB68     		ldr	r3, [r7, #8]
 295 0082 BB61     		str	r3, [r7, #24]
 588:../tasks/SDMMC/ff.c **** 	int r = 0;
 296              		.loc 1 588 0
 297 0084 0023     		movs	r3, #0
 298 0086 7B61     		str	r3, [r7, #20]
 589:../tasks/SDMMC/ff.c **** 
 590:../tasks/SDMMC/ff.c **** 	while (cnt-- && (r = *d++ - *s++) == 0) ;
 299              		.loc 1 590 0
 300 0088 00BF     		nop
 301              	.L9:
 302              		.loc 1 590 0 is_stmt 0 discriminator 1
 303 008a 7B68     		ldr	r3, [r7, #4]
 304 008c 5A1E     		subs	r2, r3, #1
 305 008e 7A60     		str	r2, [r7, #4]
 306 0090 002B     		cmp	r3, #0
 307 0092 0DD0     		beq	.L8
 308              		.loc 1 590 0 discriminator 2
 309 0094 FB69     		ldr	r3, [r7, #28]
 310 0096 5A1C     		adds	r2, r3, #1
 311 0098 FA61     		str	r2, [r7, #28]
 312 009a 1B78     		ldrb	r3, [r3]	@ zero_extendqisi2
 313 009c 1A46     		mov	r2, r3
 314 009e BB69     		ldr	r3, [r7, #24]
 315 00a0 591C     		adds	r1, r3, #1
 316 00a2 B961     		str	r1, [r7, #24]
 317 00a4 1B78     		ldrb	r3, [r3]	@ zero_extendqisi2
 318 00a6 D31A     		subs	r3, r2, r3
 319 00a8 7B61     		str	r3, [r7, #20]
 320 00aa 7B69     		ldr	r3, [r7, #20]
 321 00ac 002B     		cmp	r3, #0
 322 00ae ECD0     		beq	.L9
 323              	.L8:
 591:../tasks/SDMMC/ff.c **** 	return r;
 324              		.loc 1 591 0 is_stmt 1
 325 00b0 7B69     		ldr	r3, [r7, #20]
 592:../tasks/SDMMC/ff.c **** }
 326              		.loc 1 592 0
 327 00b2 1846     		mov	r0, r3
 328 00b4 2437     		adds	r7, r7, #36
 329 00b6 BD46     		mov	sp, r7
 330              		@ sp needed
 331 00b8 5DF8047B 		ldr	r7, [sp], #4
 332 00bc 7047     		bx	lr
 333              		.cfi_endproc
 334              	.LFE57:
 336 00be 00BF     		.align	2
 337              		.thumb
 338              		.thumb_func
 340              	chk_chr:
 341              	.LFB58:
 593:../tasks/SDMMC/ff.c **** 
 594:../tasks/SDMMC/ff.c **** /* Check if chr is contained in the string */
 595:../tasks/SDMMC/ff.c **** static
 596:../tasks/SDMMC/ff.c **** int chk_chr (const char* str, int chr) {
 342              		.loc 1 596 0
 343              		.cfi_startproc
 344              		@ args = 0, pretend = 0, frame = 8
 345              		@ frame_needed = 1, uses_anonymous_args = 0
 346              		@ link register save eliminated.
 347 00c0 80B4     		push	{r7}
 348              		.cfi_def_cfa_offset 4
 349              		.cfi_offset 7, -4
 350 00c2 83B0     		sub	sp, sp, #12
 351              		.cfi_def_cfa_offset 16
 352 00c4 00AF     		add	r7, sp, #0
 353              		.cfi_def_cfa_register 7
 354 00c6 7860     		str	r0, [r7, #4]
 355 00c8 3960     		str	r1, [r7]
 597:../tasks/SDMMC/ff.c **** 	while (*str && *str != chr) str++;
 356              		.loc 1 597 0
 357 00ca 02E0     		b	.L12
 358              	.L14:
 359              		.loc 1 597 0 is_stmt 0 discriminator 1
 360 00cc 7B68     		ldr	r3, [r7, #4]
 361 00ce 0133     		adds	r3, r3, #1
 362 00d0 7B60     		str	r3, [r7, #4]
 363              	.L12:
 364 00d2 7B68     		ldr	r3, [r7, #4]
 365 00d4 1B78     		ldrb	r3, [r3]	@ zero_extendqisi2
 366 00d6 002B     		cmp	r3, #0
 367 00d8 05D0     		beq	.L13
 368              		.loc 1 597 0 discriminator 2
 369 00da 7B68     		ldr	r3, [r7, #4]
 370 00dc 1B78     		ldrb	r3, [r3]	@ zero_extendqisi2
 371 00de 1A46     		mov	r2, r3
 372 00e0 3B68     		ldr	r3, [r7]
 373 00e2 9A42     		cmp	r2, r3
 374 00e4 F2D1     		bne	.L14
 375              	.L13:
 598:../tasks/SDMMC/ff.c **** 	return *str;
 376              		.loc 1 598 0 is_stmt 1
 377 00e6 7B68     		ldr	r3, [r7, #4]
 378 00e8 1B78     		ldrb	r3, [r3]	@ zero_extendqisi2
 599:../tasks/SDMMC/ff.c **** }
 379              		.loc 1 599 0
 380 00ea 1846     		mov	r0, r3
 381 00ec 0C37     		adds	r7, r7, #12
 382 00ee BD46     		mov	sp, r7
 383              		@ sp needed
 384 00f0 5DF8047B 		ldr	r7, [sp], #4
 385 00f4 7047     		bx	lr
 386              		.cfi_endproc
 387              	.LFE58:
 389 00f6 00BF     		.align	2
 390              		.thumb
 391              		.thumb_func
 393              	chk_lock:
 394              	.LFB59:
 600:../tasks/SDMMC/ff.c **** 
 601:../tasks/SDMMC/ff.c **** 
 602:../tasks/SDMMC/ff.c **** 
 603:../tasks/SDMMC/ff.c **** 
 604:../tasks/SDMMC/ff.c **** /*-----------------------------------------------------------------------*/
 605:../tasks/SDMMC/ff.c **** /* Request/Release grant to access the volume                            */
 606:../tasks/SDMMC/ff.c **** /*-----------------------------------------------------------------------*/
 607:../tasks/SDMMC/ff.c **** #if _FS_REENTRANT
 608:../tasks/SDMMC/ff.c **** static
 609:../tasks/SDMMC/ff.c **** int lock_fs (
 610:../tasks/SDMMC/ff.c **** 	FATFS* fs		/* File system object */
 611:../tasks/SDMMC/ff.c **** )
 612:../tasks/SDMMC/ff.c **** {
 613:../tasks/SDMMC/ff.c **** 	return ff_req_grant(fs->sobj);
 614:../tasks/SDMMC/ff.c **** }
 615:../tasks/SDMMC/ff.c **** 
 616:../tasks/SDMMC/ff.c **** 
 617:../tasks/SDMMC/ff.c **** static
 618:../tasks/SDMMC/ff.c **** void unlock_fs (
 619:../tasks/SDMMC/ff.c **** 	FATFS* fs,		/* File system object */
 620:../tasks/SDMMC/ff.c **** 	FRESULT res		/* Result code to be returned */
 621:../tasks/SDMMC/ff.c **** )
 622:../tasks/SDMMC/ff.c **** {
 623:../tasks/SDMMC/ff.c **** 	if (fs &&
 624:../tasks/SDMMC/ff.c **** 		res != FR_NOT_ENABLED &&
 625:../tasks/SDMMC/ff.c **** 		res != FR_INVALID_DRIVE &&
 626:../tasks/SDMMC/ff.c **** 		res != FR_INVALID_OBJECT &&
 627:../tasks/SDMMC/ff.c **** 		res != FR_TIMEOUT) {
 628:../tasks/SDMMC/ff.c **** 		ff_rel_grant(fs->sobj);
 629:../tasks/SDMMC/ff.c **** 	}
 630:../tasks/SDMMC/ff.c **** }
 631:../tasks/SDMMC/ff.c **** #endif
 632:../tasks/SDMMC/ff.c **** 
 633:../tasks/SDMMC/ff.c **** 
 634:../tasks/SDMMC/ff.c **** 
 635:../tasks/SDMMC/ff.c **** 
 636:../tasks/SDMMC/ff.c **** /*-----------------------------------------------------------------------*/
 637:../tasks/SDMMC/ff.c **** /* File lock control functions                                           */
 638:../tasks/SDMMC/ff.c **** /*-----------------------------------------------------------------------*/
 639:../tasks/SDMMC/ff.c **** #if _FS_LOCK
 640:../tasks/SDMMC/ff.c **** 
 641:../tasks/SDMMC/ff.c **** static
 642:../tasks/SDMMC/ff.c **** FRESULT chk_lock (	/* Check if the file can be accessed */
 643:../tasks/SDMMC/ff.c **** 	DIR* dp,		/* Directory object pointing the file to be checked */
 644:../tasks/SDMMC/ff.c **** 	int acc			/* Desired access (0:Read, 1:Write, 2:Delete/Rename) */
 645:../tasks/SDMMC/ff.c **** )
 646:../tasks/SDMMC/ff.c **** {
 395              		.loc 1 646 0
 396              		.cfi_startproc
 397              		@ args = 0, pretend = 0, frame = 16
 398              		@ frame_needed = 1, uses_anonymous_args = 0
 399              		@ link register save eliminated.
 400 00f8 80B4     		push	{r7}
 401              		.cfi_def_cfa_offset 4
 402              		.cfi_offset 7, -4
 403 00fa 85B0     		sub	sp, sp, #20
 404              		.cfi_def_cfa_offset 24
 405 00fc 00AF     		add	r7, sp, #0
 406              		.cfi_def_cfa_register 7
 407 00fe 7860     		str	r0, [r7, #4]
 408 0100 3960     		str	r1, [r7]
 647:../tasks/SDMMC/ff.c **** 	UINT i, be;
 648:../tasks/SDMMC/ff.c **** 
 649:../tasks/SDMMC/ff.c **** 	/* Search file semaphore table */
 650:../tasks/SDMMC/ff.c **** 	for (i = be = 0; i < _FS_LOCK; i++) {
 409              		.loc 1 650 0
 410 0102 0023     		movs	r3, #0
 411 0104 BB60     		str	r3, [r7, #8]
 412 0106 BB68     		ldr	r3, [r7, #8]
 413 0108 FB60     		str	r3, [r7, #12]
 414 010a 44E0     		b	.L17
 415              	.L21:
 651:../tasks/SDMMC/ff.c **** 		if (Files[i].fs) {	/* Existing entry */
 416              		.loc 1 651 0
 417 010c 40F20002 		movw	r2, #:lower16:Files
 418 0110 C0F20002 		movt	r2, #:upper16:Files
 419 0114 F968     		ldr	r1, [r7, #12]
 420 0116 0B46     		mov	r3, r1
 421 0118 5B00     		lsls	r3, r3, #1
 422 011a 0B44     		add	r3, r3, r1
 423 011c 9B00     		lsls	r3, r3, #2
 424 011e 1344     		add	r3, r3, r2
 425 0120 1B68     		ldr	r3, [r3]
 426 0122 002B     		cmp	r3, #0
 427 0124 32D0     		beq	.L18
 652:../tasks/SDMMC/ff.c **** 			if (Files[i].fs == dp->fs &&	 	/* Check if the object matched with an open object */
 428              		.loc 1 652 0
 429 0126 40F20002 		movw	r2, #:lower16:Files
 430 012a C0F20002 		movt	r2, #:upper16:Files
 431 012e F968     		ldr	r1, [r7, #12]
 432 0130 0B46     		mov	r3, r1
 433 0132 5B00     		lsls	r3, r3, #1
 434 0134 0B44     		add	r3, r3, r1
 435 0136 9B00     		lsls	r3, r3, #2
 436 0138 1344     		add	r3, r3, r2
 437 013a 1A68     		ldr	r2, [r3]
 438 013c 7B68     		ldr	r3, [r7, #4]
 439 013e D3F80032 		ldr	r3, [r3, #512]
 440 0142 9A42     		cmp	r2, r3
 441 0144 24D1     		bne	.L19
 653:../tasks/SDMMC/ff.c **** 				Files[i].clu == dp->sclust &&
 442              		.loc 1 653 0 discriminator 1
 443 0146 40F20002 		movw	r2, #:lower16:Files
 444 014a C0F20002 		movt	r2, #:upper16:Files
 445 014e F968     		ldr	r1, [r7, #12]
 446 0150 0B46     		mov	r3, r1
 447 0152 5B00     		lsls	r3, r3, #1
 448 0154 0B44     		add	r3, r3, r1
 449 0156 9B00     		lsls	r3, r3, #2
 450 0158 1344     		add	r3, r3, r2
 451 015a 0433     		adds	r3, r3, #4
 452 015c 1A68     		ldr	r2, [r3]
 453 015e 7B68     		ldr	r3, [r7, #4]
 454 0160 D3F80832 		ldr	r3, [r3, #520]
 652:../tasks/SDMMC/ff.c **** 			if (Files[i].fs == dp->fs &&	 	/* Check if the object matched with an open object */
 455              		.loc 1 652 0 discriminator 1
 456 0164 9A42     		cmp	r2, r3
 457 0166 13D1     		bne	.L19
 654:../tasks/SDMMC/ff.c **** 				Files[i].idx == dp->index) break;
 458              		.loc 1 654 0
 459 0168 40F20002 		movw	r2, #:lower16:Files
 460 016c C0F20002 		movt	r2, #:upper16:Files
 461 0170 F968     		ldr	r1, [r7, #12]
 462 0172 0B46     		mov	r3, r1
 463 0174 5B00     		lsls	r3, r3, #1
 464 0176 0B44     		add	r3, r3, r1
 465 0178 9B00     		lsls	r3, r3, #2
 466 017a 1344     		add	r3, r3, r2
 467 017c 0833     		adds	r3, r3, #8
 468 017e 1A88     		ldrh	r2, [r3]
 469 0180 7B68     		ldr	r3, [r7, #4]
 470 0182 B3F80632 		ldrh	r3, [r3, #518]
 653:../tasks/SDMMC/ff.c **** 				Files[i].clu == dp->sclust &&
 471              		.loc 1 653 0
 472 0186 9A42     		cmp	r2, r3
 473 0188 02D1     		bne	.L19
 474              		.loc 1 654 0
 475 018a 07E0     		b	.L20
 476              	.L18:
 655:../tasks/SDMMC/ff.c **** 		} else {			/* Blank entry */
 656:../tasks/SDMMC/ff.c **** 			be = 1;
 477              		.loc 1 656 0
 478 018c 0123     		movs	r3, #1
 479 018e BB60     		str	r3, [r7, #8]
 480              	.L19:
 650:../tasks/SDMMC/ff.c **** 		if (Files[i].fs) {	/* Existing entry */
 481              		.loc 1 650 0
 482 0190 FB68     		ldr	r3, [r7, #12]
 483 0192 0133     		adds	r3, r3, #1
 484 0194 FB60     		str	r3, [r7, #12]
 485              	.L17:
 650:../tasks/SDMMC/ff.c **** 		if (Files[i].fs) {	/* Existing entry */
 486              		.loc 1 650 0 is_stmt 0 discriminator 1
 487 0196 FB68     		ldr	r3, [r7, #12]
 488 0198 012B     		cmp	r3, #1
 489 019a B7D9     		bls	.L21
 490              	.L20:
 657:../tasks/SDMMC/ff.c **** 		}
 658:../tasks/SDMMC/ff.c **** 	}
 659:../tasks/SDMMC/ff.c **** 	if (i == _FS_LOCK)	/* The object is not opened */
 491              		.loc 1 659 0 is_stmt 1
 492 019c FB68     		ldr	r3, [r7, #12]
 493 019e 022B     		cmp	r3, #2
 494 01a0 09D1     		bne	.L22
 660:../tasks/SDMMC/ff.c **** 		return (be || acc == 2) ? FR_OK : FR_TOO_MANY_OPEN_FILES;	/* Is there a blank entry for new objec
 495              		.loc 1 660 0
 496 01a2 BB68     		ldr	r3, [r7, #8]
 497 01a4 002B     		cmp	r3, #0
 498 01a6 02D1     		bne	.L23
 499              		.loc 1 660 0 is_stmt 0 discriminator 2
 500 01a8 3B68     		ldr	r3, [r7]
 501 01aa 022B     		cmp	r3, #2
 502 01ac 01D1     		bne	.L24
 503              	.L23:
 504              		.loc 1 660 0 discriminator 1
 505 01ae 0023     		movs	r3, #0
 506 01b0 16E0     		b	.L26
 507              	.L24:
 508 01b2 1223     		movs	r3, #18
 509 01b4 14E0     		b	.L26
 510              	.L22:
 661:../tasks/SDMMC/ff.c **** 
 662:../tasks/SDMMC/ff.c **** 	/* The object has been opened. Reject any open against writing file and all write mode open */
 663:../tasks/SDMMC/ff.c **** 	return (acc || Files[i].ctr == 0x100) ? FR_LOCKED : FR_OK;
 511              		.loc 1 663 0 is_stmt 1
 512 01b6 3B68     		ldr	r3, [r7]
 513 01b8 002B     		cmp	r3, #0
 514 01ba 0ED1     		bne	.L27
 515              		.loc 1 663 0 is_stmt 0 discriminator 2
 516 01bc 40F20002 		movw	r2, #:lower16:Files
 517 01c0 C0F20002 		movt	r2, #:upper16:Files
 518 01c4 F968     		ldr	r1, [r7, #12]
 519 01c6 0B46     		mov	r3, r1
 520 01c8 5B00     		lsls	r3, r3, #1
 521 01ca 0B44     		add	r3, r3, r1
 522 01cc 9B00     		lsls	r3, r3, #2
 523 01ce 1344     		add	r3, r3, r2
 524 01d0 0833     		adds	r3, r3, #8
 525 01d2 5B88     		ldrh	r3, [r3, #2]
 526 01d4 B3F5807F 		cmp	r3, #256
 527 01d8 01D1     		bne	.L28
 528              	.L27:
 529              		.loc 1 663 0 discriminator 1
 530 01da 1023     		movs	r3, #16
 531 01dc 00E0     		b	.L26
 532              	.L28:
 533 01de 0023     		movs	r3, #0
 534              	.L26:
 664:../tasks/SDMMC/ff.c **** }
 535              		.loc 1 664 0 is_stmt 1
 536 01e0 1846     		mov	r0, r3
 537 01e2 1437     		adds	r7, r7, #20
 538 01e4 BD46     		mov	sp, r7
 539              		@ sp needed
 540 01e6 5DF8047B 		ldr	r7, [sp], #4
 541 01ea 7047     		bx	lr
 542              		.cfi_endproc
 543              	.LFE59:
 545              		.align	2
 546              		.thumb
 547              		.thumb_func
 549              	enq_lock:
 550              	.LFB60:
 665:../tasks/SDMMC/ff.c **** 
 666:../tasks/SDMMC/ff.c **** 
 667:../tasks/SDMMC/ff.c **** static
 668:../tasks/SDMMC/ff.c **** int enq_lock (void)	/* Check if an entry is available for a new object */
 669:../tasks/SDMMC/ff.c **** {
 551              		.loc 1 669 0
 552              		.cfi_startproc
 553              		@ args = 0, pretend = 0, frame = 8
 554              		@ frame_needed = 1, uses_anonymous_args = 0
 555              		@ link register save eliminated.
 556 01ec 80B4     		push	{r7}
 557              		.cfi_def_cfa_offset 4
 558              		.cfi_offset 7, -4
 559 01ee 83B0     		sub	sp, sp, #12
 560              		.cfi_def_cfa_offset 16
 561 01f0 00AF     		add	r7, sp, #0
 562              		.cfi_def_cfa_register 7
 670:../tasks/SDMMC/ff.c **** 	UINT i;
 671:../tasks/SDMMC/ff.c **** 
 672:../tasks/SDMMC/ff.c **** 	for (i = 0; i < _FS_LOCK && Files[i].fs; i++) ;
 563              		.loc 1 672 0
 564 01f2 0023     		movs	r3, #0
 565 01f4 7B60     		str	r3, [r7, #4]
 566 01f6 02E0     		b	.L31
 567              	.L33:
 568              		.loc 1 672 0 is_stmt 0 discriminator 1
 569 01f8 7B68     		ldr	r3, [r7, #4]
 570 01fa 0133     		adds	r3, r3, #1
 571 01fc 7B60     		str	r3, [r7, #4]
 572              	.L31:
 573 01fe 7B68     		ldr	r3, [r7, #4]
 574 0200 012B     		cmp	r3, #1
 575 0202 0CD8     		bhi	.L32
 576              		.loc 1 672 0 discriminator 2
 577 0204 40F20002 		movw	r2, #:lower16:Files
 578 0208 C0F20002 		movt	r2, #:upper16:Files
 579 020c 7968     		ldr	r1, [r7, #4]
 580 020e 0B46     		mov	r3, r1
 581 0210 5B00     		lsls	r3, r3, #1
 582 0212 0B44     		add	r3, r3, r1
 583 0214 9B00     		lsls	r3, r3, #2
 584 0216 1344     		add	r3, r3, r2
 585 0218 1B68     		ldr	r3, [r3]
 586 021a 002B     		cmp	r3, #0
 587 021c ECD1     		bne	.L33
 588              	.L32:
 673:../tasks/SDMMC/ff.c **** 	return (i == _FS_LOCK) ? 0 : 1;
 589              		.loc 1 673 0 is_stmt 1
 590 021e 7B68     		ldr	r3, [r7, #4]
 591 0220 022B     		cmp	r3, #2
 592 0222 0CBF     		ite	eq
 593 0224 0023     		moveq	r3, #0
 594 0226 0123     		movne	r3, #1
 595 0228 DBB2     		uxtb	r3, r3
 674:../tasks/SDMMC/ff.c **** }
 596              		.loc 1 674 0
 597 022a 1846     		mov	r0, r3
 598 022c 0C37     		adds	r7, r7, #12
 599 022e BD46     		mov	sp, r7
 600              		@ sp needed
 601 0230 5DF8047B 		ldr	r7, [sp], #4
 602 0234 7047     		bx	lr
 603              		.cfi_endproc
 604              	.LFE60:
 606 0236 00BF     		.align	2
 607              		.thumb
 608              		.thumb_func
 610              	inc_lock:
 611              	.LFB61:
 675:../tasks/SDMMC/ff.c **** 
 676:../tasks/SDMMC/ff.c **** 
 677:../tasks/SDMMC/ff.c **** static
 678:../tasks/SDMMC/ff.c **** UINT inc_lock (	/* Increment object open counter and returns its index (0:Internal error) */
 679:../tasks/SDMMC/ff.c **** 	DIR* dp,	/* Directory object pointing the file to register or increment */
 680:../tasks/SDMMC/ff.c **** 	int acc		/* Desired access (0:Read, 1:Write, 2:Delete/Rename) */
 681:../tasks/SDMMC/ff.c **** )
 682:../tasks/SDMMC/ff.c **** {
 612              		.loc 1 682 0
 613              		.cfi_startproc
 614              		@ args = 0, pretend = 0, frame = 16
 615              		@ frame_needed = 1, uses_anonymous_args = 0
 616              		@ link register save eliminated.
 617 0238 80B4     		push	{r7}
 618              		.cfi_def_cfa_offset 4
 619              		.cfi_offset 7, -4
 620 023a 85B0     		sub	sp, sp, #20
 621              		.cfi_def_cfa_offset 24
 622 023c 00AF     		add	r7, sp, #0
 623              		.cfi_def_cfa_register 7
 624 023e 7860     		str	r0, [r7, #4]
 625 0240 3960     		str	r1, [r7]
 683:../tasks/SDMMC/ff.c **** 	UINT i;
 684:../tasks/SDMMC/ff.c **** 
 685:../tasks/SDMMC/ff.c **** 
 686:../tasks/SDMMC/ff.c **** 	for (i = 0; i < _FS_LOCK; i++) {	/* Find the object */
 626              		.loc 1 686 0
 627 0242 0023     		movs	r3, #0
 628 0244 FB60     		str	r3, [r7, #12]
 629 0246 35E0     		b	.L36
 630              	.L39:
 687:../tasks/SDMMC/ff.c **** 		if (Files[i].fs == dp->fs &&
 631              		.loc 1 687 0
 632 0248 40F20002 		movw	r2, #:lower16:Files
 633 024c C0F20002 		movt	r2, #:upper16:Files
 634 0250 F968     		ldr	r1, [r7, #12]
 635 0252 0B46     		mov	r3, r1
 636 0254 5B00     		lsls	r3, r3, #1
 637 0256 0B44     		add	r3, r3, r1
 638 0258 9B00     		lsls	r3, r3, #2
 639 025a 1344     		add	r3, r3, r2
 640 025c 1A68     		ldr	r2, [r3]
 641 025e 7B68     		ldr	r3, [r7, #4]
 642 0260 D3F80032 		ldr	r3, [r3, #512]
 643 0264 9A42     		cmp	r2, r3
 644 0266 22D1     		bne	.L37
 688:../tasks/SDMMC/ff.c **** 			Files[i].clu == dp->sclust &&
 645              		.loc 1 688 0 discriminator 1
 646 0268 40F20002 		movw	r2, #:lower16:Files
 647 026c C0F20002 		movt	r2, #:upper16:Files
 648 0270 F968     		ldr	r1, [r7, #12]
 649 0272 0B46     		mov	r3, r1
 650 0274 5B00     		lsls	r3, r3, #1
 651 0276 0B44     		add	r3, r3, r1
 652 0278 9B00     		lsls	r3, r3, #2
 653 027a 1344     		add	r3, r3, r2
 654 027c 0433     		adds	r3, r3, #4
 655 027e 1A68     		ldr	r2, [r3]
 656 0280 7B68     		ldr	r3, [r7, #4]
 657 0282 D3F80832 		ldr	r3, [r3, #520]
 687:../tasks/SDMMC/ff.c **** 		if (Files[i].fs == dp->fs &&
 658              		.loc 1 687 0 discriminator 1
 659 0286 9A42     		cmp	r2, r3
 660 0288 11D1     		bne	.L37
 689:../tasks/SDMMC/ff.c **** 			Files[i].idx == dp->index) break;
 661              		.loc 1 689 0
 662 028a 40F20002 		movw	r2, #:lower16:Files
 663 028e C0F20002 		movt	r2, #:upper16:Files
 664 0292 F968     		ldr	r1, [r7, #12]
 665 0294 0B46     		mov	r3, r1
 666 0296 5B00     		lsls	r3, r3, #1
 667 0298 0B44     		add	r3, r3, r1
 668 029a 9B00     		lsls	r3, r3, #2
 669 029c 1344     		add	r3, r3, r2
 670 029e 0833     		adds	r3, r3, #8
 671 02a0 1A88     		ldrh	r2, [r3]
 672 02a2 7B68     		ldr	r3, [r7, #4]
 673 02a4 B3F80632 		ldrh	r3, [r3, #518]
 688:../tasks/SDMMC/ff.c **** 			Files[i].clu == dp->sclust &&
 674              		.loc 1 688 0
 675 02a8 9A42     		cmp	r2, r3
 676 02aa 00D1     		bne	.L37
 677              		.loc 1 689 0
 678 02ac 05E0     		b	.L38
 679              	.L37:
 686:../tasks/SDMMC/ff.c **** 		if (Files[i].fs == dp->fs &&
 680              		.loc 1 686 0
 681 02ae FB68     		ldr	r3, [r7, #12]
 682 02b0 0133     		adds	r3, r3, #1
 683 02b2 FB60     		str	r3, [r7, #12]
 684              	.L36:
 686:../tasks/SDMMC/ff.c **** 		if (Files[i].fs == dp->fs &&
 685              		.loc 1 686 0 is_stmt 0 discriminator 1
 686 02b4 FB68     		ldr	r3, [r7, #12]
 687 02b6 012B     		cmp	r3, #1
 688 02b8 C6D9     		bls	.L39
 689              	.L38:
 690:../tasks/SDMMC/ff.c **** 	}
 691:../tasks/SDMMC/ff.c **** 
 692:../tasks/SDMMC/ff.c **** 	if (i == _FS_LOCK) {				/* Not opened. Register it as new. */
 690              		.loc 1 692 0 is_stmt 1
 691 02ba FB68     		ldr	r3, [r7, #12]
 692 02bc 022B     		cmp	r3, #2
 693 02be 54D1     		bne	.L40
 693:../tasks/SDMMC/ff.c **** 		for (i = 0; i < _FS_LOCK && Files[i].fs; i++) ;
 694              		.loc 1 693 0
 695 02c0 0023     		movs	r3, #0
 696 02c2 FB60     		str	r3, [r7, #12]
 697 02c4 02E0     		b	.L41
 698              	.L43:
 699              		.loc 1 693 0 is_stmt 0 discriminator 1
 700 02c6 FB68     		ldr	r3, [r7, #12]
 701 02c8 0133     		adds	r3, r3, #1
 702 02ca FB60     		str	r3, [r7, #12]
 703              	.L41:
 704 02cc FB68     		ldr	r3, [r7, #12]
 705 02ce 012B     		cmp	r3, #1
 706 02d0 0CD8     		bhi	.L42
 707              		.loc 1 693 0 discriminator 2
 708 02d2 40F20002 		movw	r2, #:lower16:Files
 709 02d6 C0F20002 		movt	r2, #:upper16:Files
 710 02da F968     		ldr	r1, [r7, #12]
 711 02dc 0B46     		mov	r3, r1
 712 02de 5B00     		lsls	r3, r3, #1
 713 02e0 0B44     		add	r3, r3, r1
 714 02e2 9B00     		lsls	r3, r3, #2
 715 02e4 1344     		add	r3, r3, r2
 716 02e6 1B68     		ldr	r3, [r3]
 717 02e8 002B     		cmp	r3, #0
 718 02ea ECD1     		bne	.L43
 719              	.L42:
 694:../tasks/SDMMC/ff.c **** 		if (i == _FS_LOCK) return 0;	/* No free entry to register (int err) */
 720              		.loc 1 694 0 is_stmt 1
 721 02ec FB68     		ldr	r3, [r7, #12]
 722 02ee 022B     		cmp	r3, #2
 723 02f0 01D1     		bne	.L44
 724              		.loc 1 694 0 is_stmt 0 discriminator 1
 725 02f2 0023     		movs	r3, #0
 726 02f4 6FE0     		b	.L45
 727              	.L44:
 695:../tasks/SDMMC/ff.c **** 		Files[i].fs = dp->fs;
 728              		.loc 1 695 0 is_stmt 1
 729 02f6 7B68     		ldr	r3, [r7, #4]
 730 02f8 D3F80002 		ldr	r0, [r3, #512]
 731 02fc 40F20002 		movw	r2, #:lower16:Files
 732 0300 C0F20002 		movt	r2, #:upper16:Files
 733 0304 F968     		ldr	r1, [r7, #12]
 734 0306 0B46     		mov	r3, r1
 735 0308 5B00     		lsls	r3, r3, #1
 736 030a 0B44     		add	r3, r3, r1
 737 030c 9B00     		lsls	r3, r3, #2
 738 030e 1344     		add	r3, r3, r2
 739 0310 1860     		str	r0, [r3]
 696:../tasks/SDMMC/ff.c **** 		Files[i].clu = dp->sclust;
 740              		.loc 1 696 0
 741 0312 7B68     		ldr	r3, [r7, #4]
 742 0314 D3F80802 		ldr	r0, [r3, #520]
 743 0318 40F20002 		movw	r2, #:lower16:Files
 744 031c C0F20002 		movt	r2, #:upper16:Files
 745 0320 F968     		ldr	r1, [r7, #12]
 746 0322 0B46     		mov	r3, r1
 747 0324 5B00     		lsls	r3, r3, #1
 748 0326 0B44     		add	r3, r3, r1
 749 0328 9B00     		lsls	r3, r3, #2
 750 032a 1344     		add	r3, r3, r2
 751 032c 0433     		adds	r3, r3, #4
 752 032e 1860     		str	r0, [r3]
 697:../tasks/SDMMC/ff.c **** 		Files[i].idx = dp->index;
 753              		.loc 1 697 0
 754 0330 7B68     		ldr	r3, [r7, #4]
 755 0332 B3F80602 		ldrh	r0, [r3, #518]
 756 0336 40F20002 		movw	r2, #:lower16:Files
 757 033a C0F20002 		movt	r2, #:upper16:Files
 758 033e F968     		ldr	r1, [r7, #12]
 759 0340 0B46     		mov	r3, r1
 760 0342 5B00     		lsls	r3, r3, #1
 761 0344 0B44     		add	r3, r3, r1
 762 0346 9B00     		lsls	r3, r3, #2
 763 0348 1344     		add	r3, r3, r2
 764 034a 0833     		adds	r3, r3, #8
 765 034c 0246     		mov	r2, r0	@ movhi
 766 034e 1A80     		strh	r2, [r3]	@ movhi
 698:../tasks/SDMMC/ff.c **** 		Files[i].ctr = 0;
 767              		.loc 1 698 0
 768 0350 40F20002 		movw	r2, #:lower16:Files
 769 0354 C0F20002 		movt	r2, #:upper16:Files
 770 0358 F968     		ldr	r1, [r7, #12]
 771 035a 0B46     		mov	r3, r1
 772 035c 5B00     		lsls	r3, r3, #1
 773 035e 0B44     		add	r3, r3, r1
 774 0360 9B00     		lsls	r3, r3, #2
 775 0362 1344     		add	r3, r3, r2
 776 0364 0833     		adds	r3, r3, #8
 777 0366 0022     		movs	r2, #0
 778 0368 5A80     		strh	r2, [r3, #2]	@ movhi
 779              	.L40:
 699:../tasks/SDMMC/ff.c **** 	}
 700:../tasks/SDMMC/ff.c **** 
 701:../tasks/SDMMC/ff.c **** 	if (acc && Files[i].ctr) return 0;	/* Access violation (int err) */
 780              		.loc 1 701 0
 781 036a 3B68     		ldr	r3, [r7]
 782 036c 002B     		cmp	r3, #0
 783 036e 0FD0     		beq	.L46
 784              		.loc 1 701 0 is_stmt 0 discriminator 1
 785 0370 40F20002 		movw	r2, #:lower16:Files
 786 0374 C0F20002 		movt	r2, #:upper16:Files
 787 0378 F968     		ldr	r1, [r7, #12]
 788 037a 0B46     		mov	r3, r1
 789 037c 5B00     		lsls	r3, r3, #1
 790 037e 0B44     		add	r3, r3, r1
 791 0380 9B00     		lsls	r3, r3, #2
 792 0382 1344     		add	r3, r3, r2
 793 0384 0833     		adds	r3, r3, #8
 794 0386 5B88     		ldrh	r3, [r3, #2]
 795 0388 002B     		cmp	r3, #0
 796 038a 01D0     		beq	.L46
 797 038c 0023     		movs	r3, #0
 798 038e 22E0     		b	.L45
 799              	.L46:
 702:../tasks/SDMMC/ff.c **** 
 703:../tasks/SDMMC/ff.c **** 	Files[i].ctr = acc ? 0x100 : Files[i].ctr + 1;	/* Set semaphore value */
 800              		.loc 1 703 0 is_stmt 1
 801 0390 3B68     		ldr	r3, [r7]
 802 0392 002B     		cmp	r3, #0
 803 0394 0ED1     		bne	.L47
 804              		.loc 1 703 0 is_stmt 0 discriminator 1
 805 0396 40F20002 		movw	r2, #:lower16:Files
 806 039a C0F20002 		movt	r2, #:upper16:Files
 807 039e F968     		ldr	r1, [r7, #12]
 808 03a0 0B46     		mov	r3, r1
 809 03a2 5B00     		lsls	r3, r3, #1
 810 03a4 0B44     		add	r3, r3, r1
 811 03a6 9B00     		lsls	r3, r3, #2
 812 03a8 1344     		add	r3, r3, r2
 813 03aa 0833     		adds	r3, r3, #8
 814 03ac 5B88     		ldrh	r3, [r3, #2]
 815 03ae 0133     		adds	r3, r3, #1
 816 03b0 99B2     		uxth	r1, r3
 817 03b2 01E0     		b	.L48
 818              	.L47:
 819              		.loc 1 703 0 discriminator 2
 820 03b4 4FF48071 		mov	r1, #256
 821              	.L48:
 822              		.loc 1 703 0 discriminator 3
 823 03b8 40F20002 		movw	r2, #:lower16:Files
 824 03bc C0F20002 		movt	r2, #:upper16:Files
 825 03c0 F868     		ldr	r0, [r7, #12]
 826 03c2 0346     		mov	r3, r0
 827 03c4 5B00     		lsls	r3, r3, #1
 828 03c6 0344     		add	r3, r3, r0
 829 03c8 9B00     		lsls	r3, r3, #2
 830 03ca 1344     		add	r3, r3, r2
 831 03cc 0833     		adds	r3, r3, #8
 832 03ce 0A46     		mov	r2, r1	@ movhi
 833 03d0 5A80     		strh	r2, [r3, #2]	@ movhi
 704:../tasks/SDMMC/ff.c **** 
 705:../tasks/SDMMC/ff.c **** 	return i + 1;
 834              		.loc 1 705 0 is_stmt 1 discriminator 3
 835 03d2 FB68     		ldr	r3, [r7, #12]
 836 03d4 0133     		adds	r3, r3, #1
 837              	.L45:
 706:../tasks/SDMMC/ff.c **** }
 838              		.loc 1 706 0
 839 03d6 1846     		mov	r0, r3
 840 03d8 1437     		adds	r7, r7, #20
 841 03da BD46     		mov	sp, r7
 842              		@ sp needed
 843 03dc 5DF8047B 		ldr	r7, [sp], #4
 844 03e0 7047     		bx	lr
 845              		.cfi_endproc
 846              	.LFE61:
 848 03e2 00BF     		.align	2
 849              		.thumb
 850              		.thumb_func
 852              	dec_lock:
 853              	.LFB62:
 707:../tasks/SDMMC/ff.c **** 
 708:../tasks/SDMMC/ff.c **** 
 709:../tasks/SDMMC/ff.c **** static
 710:../tasks/SDMMC/ff.c **** FRESULT dec_lock (	/* Decrement object open counter */
 711:../tasks/SDMMC/ff.c **** 	UINT i			/* Semaphore index (1..) */
 712:../tasks/SDMMC/ff.c **** )
 713:../tasks/SDMMC/ff.c **** {
 854              		.loc 1 713 0
 855              		.cfi_startproc
 856              		@ args = 0, pretend = 0, frame = 16
 857              		@ frame_needed = 1, uses_anonymous_args = 0
 858              		@ link register save eliminated.
 859 03e4 80B4     		push	{r7}
 860              		.cfi_def_cfa_offset 4
 861              		.cfi_offset 7, -4
 862 03e6 85B0     		sub	sp, sp, #20
 863              		.cfi_def_cfa_offset 24
 864 03e8 00AF     		add	r7, sp, #0
 865              		.cfi_def_cfa_register 7
 866 03ea 7860     		str	r0, [r7, #4]
 714:../tasks/SDMMC/ff.c **** 	WORD n;
 715:../tasks/SDMMC/ff.c **** 	FRESULT res;
 716:../tasks/SDMMC/ff.c **** 
 717:../tasks/SDMMC/ff.c **** 
 718:../tasks/SDMMC/ff.c **** 	if (--i < _FS_LOCK) {	/* Shift index number origin from 0 */
 867              		.loc 1 718 0
 868 03ec 7B68     		ldr	r3, [r7, #4]
 869 03ee 013B     		subs	r3, r3, #1
 870 03f0 7B60     		str	r3, [r7, #4]
 871 03f2 7B68     		ldr	r3, [r7, #4]
 872 03f4 012B     		cmp	r3, #1
 873 03f6 37D8     		bhi	.L50
 719:../tasks/SDMMC/ff.c **** 		n = Files[i].ctr;
 874              		.loc 1 719 0
 875 03f8 40F20002 		movw	r2, #:lower16:Files
 876 03fc C0F20002 		movt	r2, #:upper16:Files
 877 0400 7968     		ldr	r1, [r7, #4]
 878 0402 0B46     		mov	r3, r1
 879 0404 5B00     		lsls	r3, r3, #1
 880 0406 0B44     		add	r3, r3, r1
 881 0408 9B00     		lsls	r3, r3, #2
 882 040a 1344     		add	r3, r3, r2
 883 040c 0833     		adds	r3, r3, #8
 884 040e 5B88     		ldrh	r3, [r3, #2]	@ movhi
 885 0410 FB81     		strh	r3, [r7, #14]	@ movhi
 720:../tasks/SDMMC/ff.c **** 		if (n == 0x100) n = 0;		/* If write mode open, delete the entry */
 886              		.loc 1 720 0
 887 0412 FB89     		ldrh	r3, [r7, #14]
 888 0414 B3F5807F 		cmp	r3, #256
 889 0418 01D1     		bne	.L51
 890              		.loc 1 720 0 is_stmt 0 discriminator 1
 891 041a 0023     		movs	r3, #0
 892 041c FB81     		strh	r3, [r7, #14]	@ movhi
 893              	.L51:
 721:../tasks/SDMMC/ff.c **** 		if (n) n--;					/* Decrement read mode open count */
 894              		.loc 1 721 0 is_stmt 1
 895 041e FB89     		ldrh	r3, [r7, #14]
 896 0420 002B     		cmp	r3, #0
 897 0422 02D0     		beq	.L52
 898              		.loc 1 721 0 is_stmt 0 discriminator 1
 899 0424 FB89     		ldrh	r3, [r7, #14]
 900 0426 013B     		subs	r3, r3, #1
 901 0428 FB81     		strh	r3, [r7, #14]	@ movhi
 902              	.L52:
 722:../tasks/SDMMC/ff.c **** 		Files[i].ctr = n;
 903              		.loc 1 722 0 is_stmt 1
 904 042a 40F20002 		movw	r2, #:lower16:Files
 905 042e C0F20002 		movt	r2, #:upper16:Files
 906 0432 7968     		ldr	r1, [r7, #4]
 907 0434 0B46     		mov	r3, r1
 908 0436 5B00     		lsls	r3, r3, #1
 909 0438 0B44     		add	r3, r3, r1
 910 043a 9B00     		lsls	r3, r3, #2
 911 043c 1344     		add	r3, r3, r2
 912 043e 0833     		adds	r3, r3, #8
 913 0440 FA89     		ldrh	r2, [r7, #14]	@ movhi
 914 0442 5A80     		strh	r2, [r3, #2]	@ movhi
 723:../tasks/SDMMC/ff.c **** 		if (!n) Files[i].fs = 0;	/* Delete the entry if open count gets zero */
 915              		.loc 1 723 0
 916 0444 FB89     		ldrh	r3, [r7, #14]
 917 0446 002B     		cmp	r3, #0
 918 0448 0BD1     		bne	.L53
 919              		.loc 1 723 0 is_stmt 0 discriminator 1
 920 044a 40F20002 		movw	r2, #:lower16:Files
 921 044e C0F20002 		movt	r2, #:upper16:Files
 922 0452 7968     		ldr	r1, [r7, #4]
 923 0454 0B46     		mov	r3, r1
 924 0456 5B00     		lsls	r3, r3, #1
 925 0458 0B44     		add	r3, r3, r1
 926 045a 9B00     		lsls	r3, r3, #2
 927 045c 1344     		add	r3, r3, r2
 928 045e 0022     		movs	r2, #0
 929 0460 1A60     		str	r2, [r3]
 930              	.L53:
 724:../tasks/SDMMC/ff.c **** 		res = FR_OK;
 931              		.loc 1 724 0 is_stmt 1
 932 0462 0023     		movs	r3, #0
 933 0464 7B73     		strb	r3, [r7, #13]
 934 0466 01E0     		b	.L54
 935              	.L50:
 725:../tasks/SDMMC/ff.c **** 	} else {
 726:../tasks/SDMMC/ff.c **** 		res = FR_INT_ERR;			/* Invalid index nunber */
 936              		.loc 1 726 0
 937 0468 0223     		movs	r3, #2
 938 046a 7B73     		strb	r3, [r7, #13]
 939              	.L54:
 727:../tasks/SDMMC/ff.c **** 	}
 728:../tasks/SDMMC/ff.c **** 	return res;
 940              		.loc 1 728 0
 941 046c 7B7B     		ldrb	r3, [r7, #13]	@ zero_extendqisi2
 729:../tasks/SDMMC/ff.c **** }
 942              		.loc 1 729 0
 943 046e 1846     		mov	r0, r3
 944 0470 1437     		adds	r7, r7, #20
 945 0472 BD46     		mov	sp, r7
 946              		@ sp needed
 947 0474 5DF8047B 		ldr	r7, [sp], #4
 948 0478 7047     		bx	lr
 949              		.cfi_endproc
 950              	.LFE62:
 952 047a 00BF     		.align	2
 953              		.thumb
 954              		.thumb_func
 956              	clear_lock:
 957              	.LFB63:
 730:../tasks/SDMMC/ff.c **** 
 731:../tasks/SDMMC/ff.c **** 
 732:../tasks/SDMMC/ff.c **** static
 733:../tasks/SDMMC/ff.c **** void clear_lock (	/* Clear lock entries of the volume */
 734:../tasks/SDMMC/ff.c **** 	FATFS *fs
 735:../tasks/SDMMC/ff.c **** )
 736:../tasks/SDMMC/ff.c **** {
 958              		.loc 1 736 0
 959              		.cfi_startproc
 960              		@ args = 0, pretend = 0, frame = 16
 961              		@ frame_needed = 1, uses_anonymous_args = 0
 962              		@ link register save eliminated.
 963 047c 80B4     		push	{r7}
 964              		.cfi_def_cfa_offset 4
 965              		.cfi_offset 7, -4
 966 047e 85B0     		sub	sp, sp, #20
 967              		.cfi_def_cfa_offset 24
 968 0480 00AF     		add	r7, sp, #0
 969              		.cfi_def_cfa_register 7
 970 0482 7860     		str	r0, [r7, #4]
 737:../tasks/SDMMC/ff.c **** 	UINT i;
 738:../tasks/SDMMC/ff.c **** 
 739:../tasks/SDMMC/ff.c **** 	for (i = 0; i < _FS_LOCK; i++) {
 971              		.loc 1 739 0
 972 0484 0023     		movs	r3, #0
 973 0486 FB60     		str	r3, [r7, #12]
 974 0488 1CE0     		b	.L57
 975              	.L59:
 740:../tasks/SDMMC/ff.c **** 		if (Files[i].fs == fs) Files[i].fs = 0;
 976              		.loc 1 740 0
 977 048a 40F20002 		movw	r2, #:lower16:Files
 978 048e C0F20002 		movt	r2, #:upper16:Files
 979 0492 F968     		ldr	r1, [r7, #12]
 980 0494 0B46     		mov	r3, r1
 981 0496 5B00     		lsls	r3, r3, #1
 982 0498 0B44     		add	r3, r3, r1
 983 049a 9B00     		lsls	r3, r3, #2
 984 049c 1344     		add	r3, r3, r2
 985 049e 1A68     		ldr	r2, [r3]
 986 04a0 7B68     		ldr	r3, [r7, #4]
 987 04a2 9A42     		cmp	r2, r3
 988 04a4 0BD1     		bne	.L58
 989              		.loc 1 740 0 is_stmt 0 discriminator 1
 990 04a6 40F20002 		movw	r2, #:lower16:Files
 991 04aa C0F20002 		movt	r2, #:upper16:Files
 992 04ae F968     		ldr	r1, [r7, #12]
 993 04b0 0B46     		mov	r3, r1
 994 04b2 5B00     		lsls	r3, r3, #1
 995 04b4 0B44     		add	r3, r3, r1
 996 04b6 9B00     		lsls	r3, r3, #2
 997 04b8 1344     		add	r3, r3, r2
 998 04ba 0022     		movs	r2, #0
 999 04bc 1A60     		str	r2, [r3]
 1000              	.L58:
 739:../tasks/SDMMC/ff.c **** 		if (Files[i].fs == fs) Files[i].fs = 0;
 1001              		.loc 1 739 0 is_stmt 1
 1002 04be FB68     		ldr	r3, [r7, #12]
 1003 04c0 0133     		adds	r3, r3, #1
 1004 04c2 FB60     		str	r3, [r7, #12]
 1005              	.L57:
 739:../tasks/SDMMC/ff.c **** 		if (Files[i].fs == fs) Files[i].fs = 0;
 1006              		.loc 1 739 0 is_stmt 0 discriminator 1
 1007 04c4 FB68     		ldr	r3, [r7, #12]
 1008 04c6 012B     		cmp	r3, #1
 1009 04c8 DFD9     		bls	.L59
 741:../tasks/SDMMC/ff.c **** 	}
 742:../tasks/SDMMC/ff.c **** }
 1010              		.loc 1 742 0 is_stmt 1
 1011 04ca 1437     		adds	r7, r7, #20
 1012 04cc BD46     		mov	sp, r7
 1013              		@ sp needed
 1014 04ce 5DF8047B 		ldr	r7, [sp], #4
 1015 04d2 7047     		bx	lr
 1016              		.cfi_endproc
 1017              	.LFE63:
 1019              		.align	2
 1020              		.thumb
 1021              		.thumb_func
 1023              	sync_window:
 1024              	.LFB64:
 743:../tasks/SDMMC/ff.c **** #endif
 744:../tasks/SDMMC/ff.c **** 
 745:../tasks/SDMMC/ff.c **** 
 746:../tasks/SDMMC/ff.c **** 
 747:../tasks/SDMMC/ff.c **** 
 748:../tasks/SDMMC/ff.c **** /*-----------------------------------------------------------------------*/
 749:../tasks/SDMMC/ff.c **** /* Move/Flush disk access window in the file system object               */
 750:../tasks/SDMMC/ff.c **** /*-----------------------------------------------------------------------*/
 751:../tasks/SDMMC/ff.c **** #if !_FS_READONLY
 752:../tasks/SDMMC/ff.c **** static
 753:../tasks/SDMMC/ff.c **** FRESULT sync_window (
 754:../tasks/SDMMC/ff.c **** 	FATFS* fs		/* File system object */
 755:../tasks/SDMMC/ff.c **** )
 756:../tasks/SDMMC/ff.c **** {
 1025              		.loc 1 756 0
 1026              		.cfi_startproc
 1027              		@ args = 0, pretend = 0, frame = 16
 1028              		@ frame_needed = 1, uses_anonymous_args = 0
 1029 04d4 80B5     		push	{r7, lr}
 1030              		.cfi_def_cfa_offset 8
 1031              		.cfi_offset 7, -8
 1032              		.cfi_offset 14, -4
 1033 04d6 84B0     		sub	sp, sp, #16
 1034              		.cfi_def_cfa_offset 24
 1035 04d8 00AF     		add	r7, sp, #0
 1036              		.cfi_def_cfa_register 7
 1037 04da 7860     		str	r0, [r7, #4]
 757:../tasks/SDMMC/ff.c **** 	DWORD wsect;
 758:../tasks/SDMMC/ff.c **** 	UINT nf;
 759:../tasks/SDMMC/ff.c **** 
 760:../tasks/SDMMC/ff.c **** 	if (fs->wflag) {	/* Write back the sector if it is dirty */
 1038              		.loc 1 760 0
 1039 04dc 7B68     		ldr	r3, [r7, #4]
 1040 04de 93F80432 		ldrb	r3, [r3, #516]	@ zero_extendqisi2
 1041 04e2 002B     		cmp	r3, #0
 1042 04e4 3BD0     		beq	.L61
 761:../tasks/SDMMC/ff.c **** 		wsect = fs->winsect;	/* Current sector number */
 1043              		.loc 1 761 0
 1044 04e6 7B68     		ldr	r3, [r7, #4]
 1045 04e8 D3F83032 		ldr	r3, [r3, #560]
 1046 04ec FB60     		str	r3, [r7, #12]
 762:../tasks/SDMMC/ff.c **** //		TST_High(TST1);
 763:../tasks/SDMMC/ff.c **** 		if (disk_write(fs->drv, fs->win.d8, wsect, 1)){
 1047              		.loc 1 763 0
 1048 04ee 7B68     		ldr	r3, [r7, #4]
 1049 04f0 93F80122 		ldrb	r2, [r3, #513]	@ zero_extendqisi2
 1050 04f4 7B68     		ldr	r3, [r7, #4]
 1051 04f6 1046     		mov	r0, r2
 1052 04f8 1946     		mov	r1, r3
 1053 04fa FA68     		ldr	r2, [r7, #12]
 1054 04fc 0123     		movs	r3, #1
 1055 04fe FFF7FEFF 		bl	disk_write
 1056 0502 0346     		mov	r3, r0
 1057 0504 002B     		cmp	r3, #0
 1058 0506 01D0     		beq	.L62
 764:../tasks/SDMMC/ff.c **** //			TST_High(TST3);
 765:../tasks/SDMMC/ff.c **** 			return FR_DISK_ERR;
 1059              		.loc 1 765 0
 1060 0508 0123     		movs	r3, #1
 1061 050a 29E0     		b	.L63
 1062              	.L62:
 766:../tasks/SDMMC/ff.c **** 		}
 767:../tasks/SDMMC/ff.c **** 		fs->wflag = 0;
 1063              		.loc 1 767 0
 1064 050c 7B68     		ldr	r3, [r7, #4]
 1065 050e 0022     		movs	r2, #0
 1066 0510 83F80422 		strb	r2, [r3, #516]
 768:../tasks/SDMMC/ff.c **** 		if (wsect - fs->fatbase < fs->fsize) {		/* Is it in the FAT area? */
 1067              		.loc 1 768 0
 1068 0514 7B68     		ldr	r3, [r7, #4]
 1069 0516 D3F82432 		ldr	r3, [r3, #548]
 1070 051a FA68     		ldr	r2, [r7, #12]
 1071 051c D21A     		subs	r2, r2, r3
 1072 051e 7B68     		ldr	r3, [r7, #4]
 1073 0520 D3F81C32 		ldr	r3, [r3, #540]
 1074 0524 9A42     		cmp	r2, r3
 1075 0526 1AD2     		bcs	.L61
 769:../tasks/SDMMC/ff.c **** 			for (nf = fs->n_fats; nf >= 2; nf--) {	/* Reflect the change to all FAT copies */
 1076              		.loc 1 769 0
 1077 0528 7B68     		ldr	r3, [r7, #4]
 1078 052a 93F80332 		ldrb	r3, [r3, #515]	@ zero_extendqisi2
 1079 052e BB60     		str	r3, [r7, #8]
 1080 0530 12E0     		b	.L64
 1081              	.L65:
 770:../tasks/SDMMC/ff.c **** 				wsect += fs->fsize;
 1082              		.loc 1 770 0 discriminator 2
 1083 0532 7B68     		ldr	r3, [r7, #4]
 1084 0534 D3F81C32 		ldr	r3, [r3, #540]
 1085 0538 FA68     		ldr	r2, [r7, #12]
 1086 053a 1344     		add	r3, r3, r2
 1087 053c FB60     		str	r3, [r7, #12]
 771:../tasks/SDMMC/ff.c **** 				disk_write(fs->drv, fs->win.d8, wsect, 1);
 1088              		.loc 1 771 0 discriminator 2
 1089 053e 7B68     		ldr	r3, [r7, #4]
 1090 0540 93F80122 		ldrb	r2, [r3, #513]	@ zero_extendqisi2
 1091 0544 7B68     		ldr	r3, [r7, #4]
 1092 0546 1046     		mov	r0, r2
 1093 0548 1946     		mov	r1, r3
 1094 054a FA68     		ldr	r2, [r7, #12]
 1095 054c 0123     		movs	r3, #1
 1096 054e FFF7FEFF 		bl	disk_write
 769:../tasks/SDMMC/ff.c **** 			for (nf = fs->n_fats; nf >= 2; nf--) {	/* Reflect the change to all FAT copies */
 1097              		.loc 1 769 0 discriminator 2
 1098 0552 BB68     		ldr	r3, [r7, #8]
 1099 0554 013B     		subs	r3, r3, #1
 1100 0556 BB60     		str	r3, [r7, #8]
 1101              	.L64:
 769:../tasks/SDMMC/ff.c **** 			for (nf = fs->n_fats; nf >= 2; nf--) {	/* Reflect the change to all FAT copies */
 1102              		.loc 1 769 0 is_stmt 0 discriminator 1
 1103 0558 BB68     		ldr	r3, [r7, #8]
 1104 055a 012B     		cmp	r3, #1
 1105 055c E9D8     		bhi	.L65
 1106              	.L61:
 772:../tasks/SDMMC/ff.c **** 			}
 773:../tasks/SDMMC/ff.c **** 		}
 774:../tasks/SDMMC/ff.c **** 	}
 775:../tasks/SDMMC/ff.c **** 	return FR_OK;
 1107              		.loc 1 775 0 is_stmt 1
 1108 055e 0023     		movs	r3, #0
 1109              	.L63:
 776:../tasks/SDMMC/ff.c **** }
 1110              		.loc 1 776 0
 1111 0560 1846     		mov	r0, r3
 1112 0562 1037     		adds	r7, r7, #16
 1113 0564 BD46     		mov	sp, r7
 1114              		@ sp needed
 1115 0566 80BD     		pop	{r7, pc}
 1116              		.cfi_endproc
 1117              	.LFE64:
 1119              		.align	2
 1120              		.thumb
 1121              		.thumb_func
 1123              	move_window:
 1124              	.LFB65:
 777:../tasks/SDMMC/ff.c **** #endif
 778:../tasks/SDMMC/ff.c **** 
 779:../tasks/SDMMC/ff.c **** 
 780:../tasks/SDMMC/ff.c **** static
 781:../tasks/SDMMC/ff.c **** FRESULT move_window (
 782:../tasks/SDMMC/ff.c **** 	FATFS* fs,		/* File system object */
 783:../tasks/SDMMC/ff.c **** 	DWORD sector	/* Sector number to make appearance in the fs->win.d8[] */
 784:../tasks/SDMMC/ff.c **** )
 785:../tasks/SDMMC/ff.c **** {
 1125              		.loc 1 785 0
 1126              		.cfi_startproc
 1127              		@ args = 0, pretend = 0, frame = 8
 1128              		@ frame_needed = 1, uses_anonymous_args = 0
 1129 0568 80B5     		push	{r7, lr}
 1130              		.cfi_def_cfa_offset 8
 1131              		.cfi_offset 7, -8
 1132              		.cfi_offset 14, -4
 1133 056a 82B0     		sub	sp, sp, #8
 1134              		.cfi_def_cfa_offset 16
 1135 056c 00AF     		add	r7, sp, #0
 1136              		.cfi_def_cfa_register 7
 1137 056e 7860     		str	r0, [r7, #4]
 1138 0570 3960     		str	r1, [r7]
 786:../tasks/SDMMC/ff.c **** 	if (sector != fs->winsect) {	/* Changed current window */
 1139              		.loc 1 786 0
 1140 0572 7B68     		ldr	r3, [r7, #4]
 1141 0574 D3F83022 		ldr	r2, [r3, #560]
 1142 0578 3B68     		ldr	r3, [r7]
 1143 057a 9A42     		cmp	r2, r3
 1144 057c 1AD0     		beq	.L67
 787:../tasks/SDMMC/ff.c **** #if !_FS_READONLY
 788:../tasks/SDMMC/ff.c **** 		if (sync_window(fs) != FR_OK)
 1145              		.loc 1 788 0
 1146 057e 7868     		ldr	r0, [r7, #4]
 1147 0580 FFF7A8FF 		bl	sync_window
 1148 0584 0346     		mov	r3, r0
 1149 0586 002B     		cmp	r3, #0
 1150 0588 01D0     		beq	.L68
 789:../tasks/SDMMC/ff.c **** 			{	//TST_High(TST1);
 790:../tasks/SDMMC/ff.c **** 				return FR_DISK_ERR;
 1151              		.loc 1 790 0
 1152 058a 0123     		movs	r3, #1
 1153 058c 13E0     		b	.L69
 1154              	.L68:
 791:../tasks/SDMMC/ff.c **** 			}
 792:../tasks/SDMMC/ff.c **** #endif
 793:../tasks/SDMMC/ff.c **** 		if (disk_read(fs->drv, fs->win.d8, sector, 1))
 1155              		.loc 1 793 0
 1156 058e 7B68     		ldr	r3, [r7, #4]
 1157 0590 93F80122 		ldrb	r2, [r3, #513]	@ zero_extendqisi2
 1158 0594 7B68     		ldr	r3, [r7, #4]
 1159 0596 1046     		mov	r0, r2
 1160 0598 1946     		mov	r1, r3
 1161 059a 3A68     		ldr	r2, [r7]
 1162 059c 0123     		movs	r3, #1
 1163 059e FFF7FEFF 		bl	disk_read
 1164 05a2 0346     		mov	r3, r0
 1165 05a4 002B     		cmp	r3, #0
 1166 05a6 01D0     		beq	.L70
 794:../tasks/SDMMC/ff.c **** 		{	//TST_High(TST3);
 795:../tasks/SDMMC/ff.c **** 			return FR_DISK_ERR;
 1167              		.loc 1 795 0
 1168 05a8 0123     		movs	r3, #1
 1169 05aa 04E0     		b	.L69
 1170              	.L70:
 796:../tasks/SDMMC/ff.c **** 		}		fs->winsect = sector;
 1171              		.loc 1 796 0
 1172 05ac 7B68     		ldr	r3, [r7, #4]
 1173 05ae 3A68     		ldr	r2, [r7]
 1174 05b0 C3F83022 		str	r2, [r3, #560]
 1175              	.L67:
 797:../tasks/SDMMC/ff.c **** 	}
 798:../tasks/SDMMC/ff.c **** //	TST_High(TST3);
 799:../tasks/SDMMC/ff.c **** 	return FR_OK;
 1176              		.loc 1 799 0
 1177 05b4 0023     		movs	r3, #0
 1178              	.L69:
 800:../tasks/SDMMC/ff.c **** }
 1179              		.loc 1 800 0
 1180 05b6 1846     		mov	r0, r3
 1181 05b8 0837     		adds	r7, r7, #8
 1182 05ba BD46     		mov	sp, r7
 1183              		@ sp needed
 1184 05bc 80BD     		pop	{r7, pc}
 1185              		.cfi_endproc
 1186              	.LFE65:
 1188 05be 00BF     		.align	2
 1189              		.thumb
 1190              		.thumb_func
 1192              	sync_fs:
 1193              	.LFB66:
 801:../tasks/SDMMC/ff.c **** 
 802:../tasks/SDMMC/ff.c **** 
 803:../tasks/SDMMC/ff.c **** 
 804:../tasks/SDMMC/ff.c **** 
 805:../tasks/SDMMC/ff.c **** /*-----------------------------------------------------------------------*/
 806:../tasks/SDMMC/ff.c **** /* Synchronize file system and strage device                             */
 807:../tasks/SDMMC/ff.c **** /*-----------------------------------------------------------------------*/
 808:../tasks/SDMMC/ff.c **** #if !_FS_READONLY
 809:../tasks/SDMMC/ff.c **** static
 810:../tasks/SDMMC/ff.c **** FRESULT sync_fs (	/* FR_OK: successful, FR_DISK_ERR: failed */
 811:../tasks/SDMMC/ff.c **** 	FATFS* fs		/* File system object */
 812:../tasks/SDMMC/ff.c **** )
 813:../tasks/SDMMC/ff.c **** {
 1194              		.loc 1 813 0
 1195              		.cfi_startproc
 1196              		@ args = 0, pretend = 0, frame = 16
 1197              		@ frame_needed = 1, uses_anonymous_args = 0
 1198 05c0 80B5     		push	{r7, lr}
 1199              		.cfi_def_cfa_offset 8
 1200              		.cfi_offset 7, -8
 1201              		.cfi_offset 14, -4
 1202 05c2 84B0     		sub	sp, sp, #16
 1203              		.cfi_def_cfa_offset 24
 1204 05c4 00AF     		add	r7, sp, #0
 1205              		.cfi_def_cfa_register 7
 1206 05c6 7860     		str	r0, [r7, #4]
 814:../tasks/SDMMC/ff.c **** 	FRESULT res;
 815:../tasks/SDMMC/ff.c **** 
 816:../tasks/SDMMC/ff.c **** 
 817:../tasks/SDMMC/ff.c **** 	res = sync_window(fs);
 1207              		.loc 1 817 0
 1208 05c8 7868     		ldr	r0, [r7, #4]
 1209 05ca FFF783FF 		bl	sync_window
 1210 05ce 0346     		mov	r3, r0
 1211 05d0 FB73     		strb	r3, [r7, #15]
 818:../tasks/SDMMC/ff.c **** 	if (res == FR_OK) {
 1212              		.loc 1 818 0
 1213 05d2 FB7B     		ldrb	r3, [r7, #15]	@ zero_extendqisi2
 1214 05d4 002B     		cmp	r3, #0
 1215 05d6 40F09E80 		bne	.L72
 819:../tasks/SDMMC/ff.c **** 		/* Update FSINFO sector if needed */
 820:../tasks/SDMMC/ff.c **** 		if (fs->fs_type == FS_FAT32 && fs->fsi_flag == 1) {
 1216              		.loc 1 820 0
 1217 05da 7B68     		ldr	r3, [r7, #4]
 1218 05dc 93F80032 		ldrb	r3, [r3, #512]	@ zero_extendqisi2
 1219 05e0 032B     		cmp	r3, #3
 1220 05e2 40F08B80 		bne	.L73
 1221              		.loc 1 820 0 is_stmt 0 discriminator 1
 1222 05e6 7B68     		ldr	r3, [r7, #4]
 1223 05e8 93F80532 		ldrb	r3, [r3, #517]	@ zero_extendqisi2
 1224 05ec 012B     		cmp	r3, #1
 1225 05ee 40F08580 		bne	.L73
 821:../tasks/SDMMC/ff.c **** 			/* Create FSINFO structure */
 822:../tasks/SDMMC/ff.c **** 			mem_set(fs->win.d8, 0, SS(fs));
 1226              		.loc 1 822 0 is_stmt 1
 1227 05f2 7B68     		ldr	r3, [r7, #4]
 1228 05f4 1846     		mov	r0, r3
 1229 05f6 0021     		movs	r1, #0
 1230 05f8 4FF40072 		mov	r2, #512
 1231 05fc FFF71EFD 		bl	mem_set
 823:../tasks/SDMMC/ff.c **** 			ST_WORD(fs->win.d8+BS_55AA, 0xAA55);
 1232              		.loc 1 823 0
 1233 0600 7B68     		ldr	r3, [r7, #4]
 1234 0602 5522     		movs	r2, #85
 1235 0604 83F8FE21 		strb	r2, [r3, #510]
 1236 0608 7B68     		ldr	r3, [r7, #4]
 1237 060a AA22     		movs	r2, #170
 1238 060c 83F8FF21 		strb	r2, [r3, #511]
 824:../tasks/SDMMC/ff.c **** 			ST_DWORD(fs->win.d8+FSI_LeadSig, 0x41615252);
 1239              		.loc 1 824 0
 1240 0610 7B68     		ldr	r3, [r7, #4]
 1241 0612 5222     		movs	r2, #82
 1242 0614 1A70     		strb	r2, [r3]
 1243 0616 7B68     		ldr	r3, [r7, #4]
 1244 0618 5222     		movs	r2, #82
 1245 061a 5A70     		strb	r2, [r3, #1]
 1246 061c 7B68     		ldr	r3, [r7, #4]
 1247 061e 6122     		movs	r2, #97
 1248 0620 9A70     		strb	r2, [r3, #2]
 1249 0622 7B68     		ldr	r3, [r7, #4]
 1250 0624 4122     		movs	r2, #65
 1251 0626 DA70     		strb	r2, [r3, #3]
 825:../tasks/SDMMC/ff.c **** 			ST_DWORD(fs->win.d8+FSI_StrucSig, 0x61417272);
 1252              		.loc 1 825 0
 1253 0628 7B68     		ldr	r3, [r7, #4]
 1254 062a 7222     		movs	r2, #114
 1255 062c 83F8E421 		strb	r2, [r3, #484]
 1256 0630 7B68     		ldr	r3, [r7, #4]
 1257 0632 7222     		movs	r2, #114
 1258 0634 83F8E521 		strb	r2, [r3, #485]
 1259 0638 7B68     		ldr	r3, [r7, #4]
 1260 063a 4122     		movs	r2, #65
 1261 063c 83F8E621 		strb	r2, [r3, #486]
 1262 0640 7B68     		ldr	r3, [r7, #4]
 1263 0642 6122     		movs	r2, #97
 1264 0644 83F8E721 		strb	r2, [r3, #487]
 826:../tasks/SDMMC/ff.c **** 			ST_DWORD(fs->win.d8+FSI_Free_Count, fs->free_clust);
 1265              		.loc 1 826 0
 1266 0648 7B68     		ldr	r3, [r7, #4]
 1267 064a D3F81032 		ldr	r3, [r3, #528]
 1268 064e DAB2     		uxtb	r2, r3
 1269 0650 7B68     		ldr	r3, [r7, #4]
 1270 0652 83F8E821 		strb	r2, [r3, #488]
 1271 0656 7B68     		ldr	r3, [r7, #4]
 1272 0658 D3F81032 		ldr	r3, [r3, #528]
 1273 065c 9BB2     		uxth	r3, r3
 1274 065e 1B0A     		lsrs	r3, r3, #8
 1275 0660 9BB2     		uxth	r3, r3
 1276 0662 DAB2     		uxtb	r2, r3
 1277 0664 7B68     		ldr	r3, [r7, #4]
 1278 0666 83F8E921 		strb	r2, [r3, #489]
 1279 066a 7B68     		ldr	r3, [r7, #4]
 1280 066c D3F81032 		ldr	r3, [r3, #528]
 1281 0670 1B0C     		lsrs	r3, r3, #16
 1282 0672 DAB2     		uxtb	r2, r3
 1283 0674 7B68     		ldr	r3, [r7, #4]
 1284 0676 83F8EA21 		strb	r2, [r3, #490]
 1285 067a 7B68     		ldr	r3, [r7, #4]
 1286 067c D3F81032 		ldr	r3, [r3, #528]
 1287 0680 1B0E     		lsrs	r3, r3, #24
 1288 0682 DAB2     		uxtb	r2, r3
 1289 0684 7B68     		ldr	r3, [r7, #4]
 1290 0686 83F8EB21 		strb	r2, [r3, #491]
 827:../tasks/SDMMC/ff.c **** 			ST_DWORD(fs->win.d8+FSI_Nxt_Free, fs->last_clust);
 1291              		.loc 1 827 0
 1292 068a 7B68     		ldr	r3, [r7, #4]
 1293 068c D3F80C32 		ldr	r3, [r3, #524]
 1294 0690 DAB2     		uxtb	r2, r3
 1295 0692 7B68     		ldr	r3, [r7, #4]
 1296 0694 83F8EC21 		strb	r2, [r3, #492]
 1297 0698 7B68     		ldr	r3, [r7, #4]
 1298 069a D3F80C32 		ldr	r3, [r3, #524]
 1299 069e 9BB2     		uxth	r3, r3
 1300 06a0 1B0A     		lsrs	r3, r3, #8
 1301 06a2 9BB2     		uxth	r3, r3
 1302 06a4 DAB2     		uxtb	r2, r3
 1303 06a6 7B68     		ldr	r3, [r7, #4]
 1304 06a8 83F8ED21 		strb	r2, [r3, #493]
 1305 06ac 7B68     		ldr	r3, [r7, #4]
 1306 06ae D3F80C32 		ldr	r3, [r3, #524]
 1307 06b2 1B0C     		lsrs	r3, r3, #16
 1308 06b4 DAB2     		uxtb	r2, r3
 1309 06b6 7B68     		ldr	r3, [r7, #4]
 1310 06b8 83F8EE21 		strb	r2, [r3, #494]
 1311 06bc 7B68     		ldr	r3, [r7, #4]
 1312 06be D3F80C32 		ldr	r3, [r3, #524]
 1313 06c2 1B0E     		lsrs	r3, r3, #24
 1314 06c4 DAB2     		uxtb	r2, r3
 1315 06c6 7B68     		ldr	r3, [r7, #4]
 1316 06c8 83F8EF21 		strb	r2, [r3, #495]
 828:../tasks/SDMMC/ff.c **** 			/* Write it into the FSINFO sector */
 829:../tasks/SDMMC/ff.c **** 			fs->winsect = fs->volbase + 1;
 1317              		.loc 1 829 0
 1318 06cc 7B68     		ldr	r3, [r7, #4]
 1319 06ce D3F82032 		ldr	r3, [r3, #544]
 1320 06d2 5A1C     		adds	r2, r3, #1
 1321 06d4 7B68     		ldr	r3, [r7, #4]
 1322 06d6 C3F83022 		str	r2, [r3, #560]
 830:../tasks/SDMMC/ff.c **** 			disk_write(fs->drv, fs->win.d8, fs->winsect, 1);
 1323              		.loc 1 830 0
 1324 06da 7B68     		ldr	r3, [r7, #4]
 1325 06dc 93F80112 		ldrb	r1, [r3, #513]	@ zero_extendqisi2
 1326 06e0 7A68     		ldr	r2, [r7, #4]
 1327 06e2 7B68     		ldr	r3, [r7, #4]
 1328 06e4 D3F83032 		ldr	r3, [r3, #560]
 1329 06e8 0846     		mov	r0, r1
 1330 06ea 1146     		mov	r1, r2
 1331 06ec 1A46     		mov	r2, r3
 1332 06ee 0123     		movs	r3, #1
 1333 06f0 FFF7FEFF 		bl	disk_write
 831:../tasks/SDMMC/ff.c **** 			fs->fsi_flag = 0;
 1334              		.loc 1 831 0
 1335 06f4 7B68     		ldr	r3, [r7, #4]
 1336 06f6 0022     		movs	r2, #0
 1337 06f8 83F80522 		strb	r2, [r3, #517]
 1338              	.L73:
 832:../tasks/SDMMC/ff.c **** 		}
 833:../tasks/SDMMC/ff.c **** 		/* Make sure that no pending write process in the physical drive */
 834:../tasks/SDMMC/ff.c **** 		if (disk_ioctl(fs->drv, CTRL_SYNC, 0) != RES_OK)
 1339              		.loc 1 834 0
 1340 06fc 7B68     		ldr	r3, [r7, #4]
 1341 06fe 93F80132 		ldrb	r3, [r3, #513]	@ zero_extendqisi2
 1342 0702 1846     		mov	r0, r3
 1343 0704 0021     		movs	r1, #0
 1344 0706 0022     		movs	r2, #0
 1345 0708 FFF7FEFF 		bl	disk_ioctl
 1346 070c 0346     		mov	r3, r0
 1347 070e 002B     		cmp	r3, #0
 1348 0710 01D0     		beq	.L72
 835:../tasks/SDMMC/ff.c **** 			res = FR_DISK_ERR;
 1349              		.loc 1 835 0
 1350 0712 0123     		movs	r3, #1
 1351 0714 FB73     		strb	r3, [r7, #15]
 1352              	.L72:
 836:../tasks/SDMMC/ff.c **** 	}
 837:../tasks/SDMMC/ff.c **** 
 838:../tasks/SDMMC/ff.c **** 	return res;
 1353              		.loc 1 838 0
 1354 0716 FB7B     		ldrb	r3, [r7, #15]	@ zero_extendqisi2
 839:../tasks/SDMMC/ff.c **** }
 1355              		.loc 1 839 0
 1356 0718 1846     		mov	r0, r3
 1357 071a 1037     		adds	r7, r7, #16
 1358 071c BD46     		mov	sp, r7
 1359              		@ sp needed
 1360 071e 80BD     		pop	{r7, pc}
 1361              		.cfi_endproc
 1362              	.LFE66:
 1364              		.align	2
 1365              		.global	clust2sect
 1366              		.thumb
 1367              		.thumb_func
 1369              	clust2sect:
 1370              	.LFB67:
 840:../tasks/SDMMC/ff.c **** #endif
 841:../tasks/SDMMC/ff.c **** 
 842:../tasks/SDMMC/ff.c **** 
 843:../tasks/SDMMC/ff.c **** 
 844:../tasks/SDMMC/ff.c **** 
 845:../tasks/SDMMC/ff.c **** /*-----------------------------------------------------------------------*/
 846:../tasks/SDMMC/ff.c **** /* Get sector# from cluster#                                             */
 847:../tasks/SDMMC/ff.c **** /*-----------------------------------------------------------------------*/
 848:../tasks/SDMMC/ff.c **** 
 849:../tasks/SDMMC/ff.c **** 
 850:../tasks/SDMMC/ff.c **** DWORD clust2sect (	/* !=0: Sector number, 0: Failed - invalid cluster# */
 851:../tasks/SDMMC/ff.c **** 	FATFS* fs,		/* File system object */
 852:../tasks/SDMMC/ff.c **** 	DWORD clst		/* Cluster# to be converted */
 853:../tasks/SDMMC/ff.c **** )
 854:../tasks/SDMMC/ff.c **** {
 1371              		.loc 1 854 0
 1372              		.cfi_startproc
 1373              		@ args = 0, pretend = 0, frame = 8
 1374              		@ frame_needed = 1, uses_anonymous_args = 0
 1375              		@ link register save eliminated.
 1376 0720 80B4     		push	{r7}
 1377              		.cfi_def_cfa_offset 4
 1378              		.cfi_offset 7, -4
 1379 0722 83B0     		sub	sp, sp, #12
 1380              		.cfi_def_cfa_offset 16
 1381 0724 00AF     		add	r7, sp, #0
 1382              		.cfi_def_cfa_register 7
 1383 0726 7860     		str	r0, [r7, #4]
 1384 0728 3960     		str	r1, [r7]
 855:../tasks/SDMMC/ff.c **** 	clst -= 2;
 1385              		.loc 1 855 0
 1386 072a 3B68     		ldr	r3, [r7]
 1387 072c 023B     		subs	r3, r3, #2
 1388 072e 3B60     		str	r3, [r7]
 856:../tasks/SDMMC/ff.c **** 	if (clst >= (fs->n_fatent - 2)) return 0;		/* Invalid cluster# */
 1389              		.loc 1 856 0
 1390 0730 7B68     		ldr	r3, [r7, #4]
 1391 0732 D3F81832 		ldr	r3, [r3, #536]
 1392 0736 9A1E     		subs	r2, r3, #2
 1393 0738 3B68     		ldr	r3, [r7]
 1394 073a 9A42     		cmp	r2, r3
 1395 073c 01D8     		bhi	.L76
 1396              		.loc 1 856 0 is_stmt 0 discriminator 1
 1397 073e 0023     		movs	r3, #0
 1398 0740 09E0     		b	.L77
 1399              	.L76:
 857:../tasks/SDMMC/ff.c **** 	return clst * fs->csize + fs->database;
 1400              		.loc 1 857 0 is_stmt 1
 1401 0742 7B68     		ldr	r3, [r7, #4]
 1402 0744 93F80232 		ldrb	r3, [r3, #514]	@ zero_extendqisi2
 1403 0748 3A68     		ldr	r2, [r7]
 1404 074a 02FB03F2 		mul	r2, r2, r3
 1405 074e 7B68     		ldr	r3, [r7, #4]
 1406 0750 D3F82C32 		ldr	r3, [r3, #556]
 1407 0754 1344     		add	r3, r3, r2
 1408              	.L77:
 858:../tasks/SDMMC/ff.c **** }
 1409              		.loc 1 858 0
 1410 0756 1846     		mov	r0, r3
 1411 0758 0C37     		adds	r7, r7, #12
 1412 075a BD46     		mov	sp, r7
 1413              		@ sp needed
 1414 075c 5DF8047B 		ldr	r7, [sp], #4
 1415 0760 7047     		bx	lr
 1416              		.cfi_endproc
 1417              	.LFE67:
 1419 0762 00BF     		.align	2
 1420              		.global	get_fat
 1421              		.thumb
 1422              		.thumb_func
 1424              	get_fat:
 1425              	.LFB68:
 859:../tasks/SDMMC/ff.c **** 
 860:../tasks/SDMMC/ff.c **** 
 861:../tasks/SDMMC/ff.c **** 
 862:../tasks/SDMMC/ff.c **** 
 863:../tasks/SDMMC/ff.c **** /*-----------------------------------------------------------------------*/
 864:../tasks/SDMMC/ff.c **** /* FAT access - Read value of a FAT entry                                */
 865:../tasks/SDMMC/ff.c **** /*-----------------------------------------------------------------------*/
 866:../tasks/SDMMC/ff.c **** 
 867:../tasks/SDMMC/ff.c **** 
 868:../tasks/SDMMC/ff.c **** DWORD get_fat (	/* 0xFFFFFFFF:Disk error, 1:Internal error, Else:Cluster status */
 869:../tasks/SDMMC/ff.c **** 	FATFS* fs,	/* File system object */
 870:../tasks/SDMMC/ff.c **** 	DWORD clst	/* Cluster# to get the link information */
 871:../tasks/SDMMC/ff.c **** )
 872:../tasks/SDMMC/ff.c **** {
 1426              		.loc 1 872 0
 1427              		.cfi_startproc
 1428              		@ args = 0, pretend = 0, frame = 24
 1429              		@ frame_needed = 1, uses_anonymous_args = 0
 1430 0764 80B5     		push	{r7, lr}
 1431              		.cfi_def_cfa_offset 8
 1432              		.cfi_offset 7, -8
 1433              		.cfi_offset 14, -4
 1434 0766 86B0     		sub	sp, sp, #24
 1435              		.cfi_def_cfa_offset 32
 1436 0768 00AF     		add	r7, sp, #0
 1437              		.cfi_def_cfa_register 7
 1438 076a 7860     		str	r0, [r7, #4]
 1439 076c 3960     		str	r1, [r7]
 873:../tasks/SDMMC/ff.c **** 	UINT wc, bc;
 874:../tasks/SDMMC/ff.c **** 	BYTE *p;
 875:../tasks/SDMMC/ff.c **** 
 876:../tasks/SDMMC/ff.c **** 
 877:../tasks/SDMMC/ff.c **** 	if (clst < 2 || clst >= fs->n_fatent)	/* Check range */
 1440              		.loc 1 877 0
 1441 076e 3B68     		ldr	r3, [r7]
 1442 0770 012B     		cmp	r3, #1
 1443 0772 05D9     		bls	.L79
 1444              		.loc 1 877 0 is_stmt 0 discriminator 1
 1445 0774 7B68     		ldr	r3, [r7, #4]
 1446 0776 D3F81822 		ldr	r2, [r3, #536]
 1447 077a 3B68     		ldr	r3, [r7]
 1448 077c 9A42     		cmp	r2, r3
 1449 077e 01D8     		bhi	.L80
 1450              	.L79:
 878:../tasks/SDMMC/ff.c **** 		return 1;
 1451              		.loc 1 878 0 is_stmt 1
 1452 0780 0123     		movs	r3, #1
 1453 0782 95E0     		b	.L81
 1454              	.L80:
 879:../tasks/SDMMC/ff.c **** 
 880:../tasks/SDMMC/ff.c **** 	switch (fs->fs_type) {
 1455              		.loc 1 880 0
 1456 0784 7B68     		ldr	r3, [r7, #4]
 1457 0786 93F80032 		ldrb	r3, [r3, #512]	@ zero_extendqisi2
 1458 078a 022B     		cmp	r3, #2
 1459 078c 45D0     		beq	.L83
 1460 078e 032B     		cmp	r3, #3
 1461 0790 63D0     		beq	.L84
 1462 0792 012B     		cmp	r3, #1
 1463 0794 40F08A80 		bne	.L82
 881:../tasks/SDMMC/ff.c **** 	case FS_FAT12 :
 882:../tasks/SDMMC/ff.c **** 		bc = (UINT)clst; bc += bc / 2;
 1464              		.loc 1 882 0
 1465 0798 3B68     		ldr	r3, [r7]
 1466 079a 7B61     		str	r3, [r7, #20]
 1467 079c 7B69     		ldr	r3, [r7, #20]
 1468 079e 5B08     		lsrs	r3, r3, #1
 1469 07a0 7A69     		ldr	r2, [r7, #20]
 1470 07a2 1344     		add	r3, r3, r2
 1471 07a4 7B61     		str	r3, [r7, #20]
 883:../tasks/SDMMC/ff.c **** 		if (move_window(fs, fs->fatbase + (bc / SS(fs)))) break;
 1472              		.loc 1 883 0
 1473 07a6 7B68     		ldr	r3, [r7, #4]
 1474 07a8 D3F82422 		ldr	r2, [r3, #548]
 1475 07ac 7B69     		ldr	r3, [r7, #20]
 1476 07ae 5B0A     		lsrs	r3, r3, #9
 1477 07b0 1344     		add	r3, r3, r2
 1478 07b2 7868     		ldr	r0, [r7, #4]
 1479 07b4 1946     		mov	r1, r3
 1480 07b6 FFF7D7FE 		bl	move_window
 1481 07ba 0346     		mov	r3, r0
 1482 07bc 002B     		cmp	r3, #0
 1483 07be 00D0     		beq	.L86
 1484              		.loc 1 883 0 is_stmt 0 discriminator 1
 1485 07c0 74E0     		b	.L82
 1486              	.L86:
 884:../tasks/SDMMC/ff.c **** 		wc = fs->win.d8[bc % SS(fs)]; bc++;
 1487              		.loc 1 884 0 is_stmt 1
 1488 07c2 7B69     		ldr	r3, [r7, #20]
 1489 07c4 C3F30803 		ubfx	r3, r3, #0, #9
 1490 07c8 7A68     		ldr	r2, [r7, #4]
 1491 07ca D35C     		ldrb	r3, [r2, r3]	@ zero_extendqisi2
 1492 07cc 3B61     		str	r3, [r7, #16]
 1493 07ce 7B69     		ldr	r3, [r7, #20]
 1494 07d0 0133     		adds	r3, r3, #1
 1495 07d2 7B61     		str	r3, [r7, #20]
 885:../tasks/SDMMC/ff.c **** 		if (move_window(fs, fs->fatbase + (bc / SS(fs)))) break;
 1496              		.loc 1 885 0
 1497 07d4 7B68     		ldr	r3, [r7, #4]
 1498 07d6 D3F82422 		ldr	r2, [r3, #548]
 1499 07da 7B69     		ldr	r3, [r7, #20]
 1500 07dc 5B0A     		lsrs	r3, r3, #9
 1501 07de 1344     		add	r3, r3, r2
 1502 07e0 7868     		ldr	r0, [r7, #4]
 1503 07e2 1946     		mov	r1, r3
 1504 07e4 FFF7C0FE 		bl	move_window
 1505 07e8 0346     		mov	r3, r0
 1506 07ea 002B     		cmp	r3, #0
 1507 07ec 00D0     		beq	.L87
 1508              		.loc 1 885 0 is_stmt 0 discriminator 1
 1509 07ee 5DE0     		b	.L82
 1510              	.L87:
 886:../tasks/SDMMC/ff.c **** 		wc |= fs->win.d8[bc % SS(fs)] << 8;
 1511              		.loc 1 886 0 is_stmt 1
 1512 07f0 7B69     		ldr	r3, [r7, #20]
 1513 07f2 C3F30803 		ubfx	r3, r3, #0, #9
 1514 07f6 7A68     		ldr	r2, [r7, #4]
 1515 07f8 D35C     		ldrb	r3, [r2, r3]	@ zero_extendqisi2
 1516 07fa 1B02     		lsls	r3, r3, #8
 1517 07fc 3A69     		ldr	r2, [r7, #16]
 1518 07fe 1343     		orrs	r3, r3, r2
 1519 0800 3B61     		str	r3, [r7, #16]
 887:../tasks/SDMMC/ff.c **** 		return clst & 1 ? wc >> 4 : (wc & 0xFFF);
 1520              		.loc 1 887 0
 1521 0802 3B68     		ldr	r3, [r7]
 1522 0804 03F00103 		and	r3, r3, #1
 1523 0808 002B     		cmp	r3, #0
 1524 080a 02D0     		beq	.L88
 1525              		.loc 1 887 0 is_stmt 0 discriminator 1
 1526 080c 3B69     		ldr	r3, [r7, #16]
 1527 080e 1B09     		lsrs	r3, r3, #4
 1528 0810 02E0     		b	.L89
 1529              	.L88:
 1530              		.loc 1 887 0 discriminator 2
 1531 0812 3B69     		ldr	r3, [r7, #16]
 1532 0814 C3F30B03 		ubfx	r3, r3, #0, #12
 1533              	.L89:
 1534              		.loc 1 887 0 discriminator 3
 1535 0818 4AE0     		b	.L81
 1536              	.L83:
 888:../tasks/SDMMC/ff.c **** 
 889:../tasks/SDMMC/ff.c **** 	case FS_FAT16 :
 890:../tasks/SDMMC/ff.c **** 		if (move_window(fs, fs->fatbase + (clst / (SS(fs) / 2)))) break;
 1537              		.loc 1 890 0 is_stmt 1
 1538 081a 7B68     		ldr	r3, [r7, #4]
 1539 081c D3F82422 		ldr	r2, [r3, #548]
 1540 0820 3B68     		ldr	r3, [r7]
 1541 0822 1B0A     		lsrs	r3, r3, #8
 1542 0824 1344     		add	r3, r3, r2
 1543 0826 7868     		ldr	r0, [r7, #4]
 1544 0828 1946     		mov	r1, r3
 1545 082a FFF79DFE 		bl	move_window
 1546 082e 0346     		mov	r3, r0
 1547 0830 002B     		cmp	r3, #0
 1548 0832 00D0     		beq	.L90
 1549              		.loc 1 890 0 is_stmt 0 discriminator 1
 1550 0834 3AE0     		b	.L82
 1551              	.L90:
 891:../tasks/SDMMC/ff.c **** 		p = &fs->win.d8[clst * 2 % SS(fs)];
 1552              		.loc 1 891 0 is_stmt 1
 1553 0836 3B68     		ldr	r3, [r7]
 1554 0838 5B00     		lsls	r3, r3, #1
 1555 083a 03F4FF73 		and	r3, r3, #510
 1556 083e 7A68     		ldr	r2, [r7, #4]
 1557 0840 1344     		add	r3, r3, r2
 1558 0842 FB60     		str	r3, [r7, #12]
 892:../tasks/SDMMC/ff.c **** 		return LD_WORD(p);
 1559              		.loc 1 892 0
 1560 0844 FB68     		ldr	r3, [r7, #12]
 1561 0846 0133     		adds	r3, r3, #1
 1562 0848 1B78     		ldrb	r3, [r3]	@ zero_extendqisi2
 1563 084a 1B02     		lsls	r3, r3, #8
 1564 084c 9AB2     		uxth	r2, r3
 1565 084e FB68     		ldr	r3, [r7, #12]
 1566 0850 1B78     		ldrb	r3, [r3]	@ zero_extendqisi2
 1567 0852 1343     		orrs	r3, r3, r2
 1568 0854 9BB2     		uxth	r3, r3
 1569 0856 9BB2     		uxth	r3, r3
 1570 0858 2AE0     		b	.L81
 1571              	.L84:
 893:../tasks/SDMMC/ff.c **** 
 894:../tasks/SDMMC/ff.c **** 	case FS_FAT32 :
 895:../tasks/SDMMC/ff.c **** 		if (move_window(fs, fs->fatbase + (clst / (SS(fs) / 4)))) break;
 1572              		.loc 1 895 0
 1573 085a 7B68     		ldr	r3, [r7, #4]
 1574 085c D3F82422 		ldr	r2, [r3, #548]
 1575 0860 3B68     		ldr	r3, [r7]
 1576 0862 DB09     		lsrs	r3, r3, #7
 1577 0864 1344     		add	r3, r3, r2
 1578 0866 7868     		ldr	r0, [r7, #4]
 1579 0868 1946     		mov	r1, r3
 1580 086a FFF77DFE 		bl	move_window
 1581 086e 0346     		mov	r3, r0
 1582 0870 002B     		cmp	r3, #0
 1583 0872 00D0     		beq	.L91
 1584              		.loc 1 895 0 is_stmt 0 discriminator 1
 1585 0874 1AE0     		b	.L82
 1586              	.L91:
 896:../tasks/SDMMC/ff.c **** 		p = &fs->win.d8[clst * 4 % SS(fs)];
 1587              		.loc 1 896 0 is_stmt 1
 1588 0876 3B68     		ldr	r3, [r7]
 1589 0878 9B00     		lsls	r3, r3, #2
 1590 087a 03F4FE73 		and	r3, r3, #508
 1591 087e 7A68     		ldr	r2, [r7, #4]
 1592 0880 1344     		add	r3, r3, r2
 1593 0882 FB60     		str	r3, [r7, #12]
 897:../tasks/SDMMC/ff.c **** 		return LD_DWORD(p) & 0x0FFFFFFF;
 1594              		.loc 1 897 0
 1595 0884 FB68     		ldr	r3, [r7, #12]
 1596 0886 0333     		adds	r3, r3, #3
 1597 0888 1B78     		ldrb	r3, [r3]	@ zero_extendqisi2
 1598 088a 1A06     		lsls	r2, r3, #24
 1599 088c FB68     		ldr	r3, [r7, #12]
 1600 088e 0233     		adds	r3, r3, #2
 1601 0890 1B78     		ldrb	r3, [r3]	@ zero_extendqisi2
 1602 0892 1B04     		lsls	r3, r3, #16
 1603 0894 1A43     		orrs	r2, r2, r3
 1604 0896 FB68     		ldr	r3, [r7, #12]
 1605 0898 0133     		adds	r3, r3, #1
 1606 089a 1B78     		ldrb	r3, [r3]	@ zero_extendqisi2
 1607 089c 1B02     		lsls	r3, r3, #8
 1608 089e 1A43     		orrs	r2, r2, r3
 1609 08a0 FB68     		ldr	r3, [r7, #12]
 1610 08a2 1B78     		ldrb	r3, [r3]	@ zero_extendqisi2
 1611 08a4 1343     		orrs	r3, r3, r2
 1612 08a6 23F07043 		bic	r3, r3, #-268435456
 1613 08aa 01E0     		b	.L81
 1614              	.L82:
 898:../tasks/SDMMC/ff.c **** 	}
 899:../tasks/SDMMC/ff.c **** 
 900:../tasks/SDMMC/ff.c **** 	return 0xFFFFFFFF;	/* An error occurred at the disk I/O layer */
 1615              		.loc 1 900 0
 1616 08ac 4FF0FF33 		mov	r3, #-1
 1617              	.L81:
 901:../tasks/SDMMC/ff.c **** }
 1618              		.loc 1 901 0
 1619 08b0 1846     		mov	r0, r3
 1620 08b2 1837     		adds	r7, r7, #24
 1621 08b4 BD46     		mov	sp, r7
 1622              		@ sp needed
 1623 08b6 80BD     		pop	{r7, pc}
 1624              		.cfi_endproc
 1625              	.LFE68:
 1627              		.align	2
 1628              		.global	put_fat
 1629              		.thumb
 1630              		.thumb_func
 1632              	put_fat:
 1633              	.LFB69:
 902:../tasks/SDMMC/ff.c **** 
 903:../tasks/SDMMC/ff.c **** 
 904:../tasks/SDMMC/ff.c **** 
 905:../tasks/SDMMC/ff.c **** 
 906:../tasks/SDMMC/ff.c **** /*-----------------------------------------------------------------------*/
 907:../tasks/SDMMC/ff.c **** /* FAT access - Change value of a FAT entry                              */
 908:../tasks/SDMMC/ff.c **** /*-----------------------------------------------------------------------*/
 909:../tasks/SDMMC/ff.c **** #if !_FS_READONLY
 910:../tasks/SDMMC/ff.c **** 
 911:../tasks/SDMMC/ff.c **** FRESULT put_fat (
 912:../tasks/SDMMC/ff.c **** 	FATFS* fs,	/* File system object */
 913:../tasks/SDMMC/ff.c **** 	DWORD clst,	/* Cluster# to be changed in range of 2 to fs->n_fatent - 1 */
 914:../tasks/SDMMC/ff.c **** 	DWORD val	/* New value to mark the cluster */
 915:../tasks/SDMMC/ff.c **** )
 916:../tasks/SDMMC/ff.c **** {
 1634              		.loc 1 916 0
 1635              		.cfi_startproc
 1636              		@ args = 0, pretend = 0, frame = 32
 1637              		@ frame_needed = 1, uses_anonymous_args = 0
 1638 08b8 80B5     		push	{r7, lr}
 1639              		.cfi_def_cfa_offset 8
 1640              		.cfi_offset 7, -8
 1641              		.cfi_offset 14, -4
 1642 08ba 88B0     		sub	sp, sp, #32
 1643              		.cfi_def_cfa_offset 40
 1644 08bc 00AF     		add	r7, sp, #0
 1645              		.cfi_def_cfa_register 7
 1646 08be F860     		str	r0, [r7, #12]
 1647 08c0 B960     		str	r1, [r7, #8]
 1648 08c2 7A60     		str	r2, [r7, #4]
 917:../tasks/SDMMC/ff.c **** 	UINT bc;
 918:../tasks/SDMMC/ff.c **** 	BYTE *p;
 919:../tasks/SDMMC/ff.c **** 	FRESULT res;
 920:../tasks/SDMMC/ff.c **** 
 921:../tasks/SDMMC/ff.c **** 
 922:../tasks/SDMMC/ff.c **** 	if (clst < 2 || clst >= fs->n_fatent) {	/* Check range */
 1649              		.loc 1 922 0
 1650 08c4 BB68     		ldr	r3, [r7, #8]
 1651 08c6 012B     		cmp	r3, #1
 1652 08c8 05D9     		bls	.L93
 1653              		.loc 1 922 0 is_stmt 0 discriminator 1
 1654 08ca FB68     		ldr	r3, [r7, #12]
 1655 08cc D3F81822 		ldr	r2, [r3, #536]
 1656 08d0 BB68     		ldr	r3, [r7, #8]
 1657 08d2 9A42     		cmp	r2, r3
 1658 08d4 02D8     		bhi	.L94
 1659              	.L93:
 923:../tasks/SDMMC/ff.c **** 		res = FR_INT_ERR;
 1660              		.loc 1 923 0 is_stmt 1
 1661 08d6 0223     		movs	r3, #2
 1662 08d8 FB77     		strb	r3, [r7, #31]
 1663 08da E7E0     		b	.L95
 1664              	.L94:
 924:../tasks/SDMMC/ff.c **** 
 925:../tasks/SDMMC/ff.c **** 	} else {
 926:../tasks/SDMMC/ff.c **** 		switch (fs->fs_type) {
 1665              		.loc 1 926 0
 1666 08dc FB68     		ldr	r3, [r7, #12]
 1667 08de 93F80032 		ldrb	r3, [r3, #512]	@ zero_extendqisi2
 1668 08e2 022B     		cmp	r3, #2
 1669 08e4 71D0     		beq	.L97
 1670 08e6 032B     		cmp	r3, #3
 1671 08e8 00F09380 		beq	.L98
 1672 08ec 012B     		cmp	r3, #1
 1673 08ee 40F0D680 		bne	.L110
 927:../tasks/SDMMC/ff.c **** 		case FS_FAT12 :
 928:../tasks/SDMMC/ff.c **** 			bc = (UINT)clst; bc += bc / 2;
 1674              		.loc 1 928 0
 1675 08f2 BB68     		ldr	r3, [r7, #8]
 1676 08f4 BB61     		str	r3, [r7, #24]
 1677 08f6 BB69     		ldr	r3, [r7, #24]
 1678 08f8 5B08     		lsrs	r3, r3, #1
 1679 08fa BA69     		ldr	r2, [r7, #24]
 1680 08fc 1344     		add	r3, r3, r2
 1681 08fe BB61     		str	r3, [r7, #24]
 929:../tasks/SDMMC/ff.c **** 			res = move_window(fs, fs->fatbase + (bc / SS(fs)));
 1682              		.loc 1 929 0
 1683 0900 FB68     		ldr	r3, [r7, #12]
 1684 0902 D3F82422 		ldr	r2, [r3, #548]
 1685 0906 BB69     		ldr	r3, [r7, #24]
 1686 0908 5B0A     		lsrs	r3, r3, #9
 1687 090a 1344     		add	r3, r3, r2
 1688 090c F868     		ldr	r0, [r7, #12]
 1689 090e 1946     		mov	r1, r3
 1690 0910 FFF72AFE 		bl	move_window
 1691 0914 0346     		mov	r3, r0
 1692 0916 FB77     		strb	r3, [r7, #31]
 930:../tasks/SDMMC/ff.c **** 			if (res != FR_OK) break;
 1693              		.loc 1 930 0
 1694 0918 FB7F     		ldrb	r3, [r7, #31]	@ zero_extendqisi2
 1695 091a 002B     		cmp	r3, #0
 1696 091c 00D0     		beq	.L100
 1697              		.loc 1 930 0 is_stmt 0 discriminator 1
 1698 091e C1E0     		b	.L101
 1699              	.L100:
 931:../tasks/SDMMC/ff.c **** 			p = &fs->win.d8[bc % SS(fs)];
 1700              		.loc 1 931 0 is_stmt 1
 1701 0920 BB69     		ldr	r3, [r7, #24]
 1702 0922 C3F30803 		ubfx	r3, r3, #0, #9
 1703 0926 FA68     		ldr	r2, [r7, #12]
 1704 0928 1344     		add	r3, r3, r2
 1705 092a 7B61     		str	r3, [r7, #20]
 932:../tasks/SDMMC/ff.c **** 			*p = (clst & 1) ? ((*p & 0x0F) | ((BYTE)val << 4)) : (BYTE)val;
 1706              		.loc 1 932 0
 1707 092c BB68     		ldr	r3, [r7, #8]
 1708 092e 03F00103 		and	r3, r3, #1
 1709 0932 002B     		cmp	r3, #0
 1710 0934 0DD0     		beq	.L102
 1711              		.loc 1 932 0 is_stmt 0 discriminator 1
 1712 0936 7B69     		ldr	r3, [r7, #20]
 1713 0938 1B78     		ldrb	r3, [r3]	@ zero_extendqisi2
 1714 093a DBB2     		uxtb	r3, r3
 1715 093c 03F00F03 		and	r3, r3, #15
 1716 0940 DAB2     		uxtb	r2, r3
 1717 0942 7B68     		ldr	r3, [r7, #4]
 1718 0944 DBB2     		uxtb	r3, r3
 1719 0946 1B01     		lsls	r3, r3, #4
 1720 0948 DBB2     		uxtb	r3, r3
 1721 094a 1343     		orrs	r3, r3, r2
 1722 094c DBB2     		uxtb	r3, r3
 1723 094e DBB2     		uxtb	r3, r3
 1724 0950 01E0     		b	.L103
 1725              	.L102:
 1726              		.loc 1 932 0 discriminator 2
 1727 0952 7B68     		ldr	r3, [r7, #4]
 1728 0954 DBB2     		uxtb	r3, r3
 1729              	.L103:
 1730              		.loc 1 932 0 discriminator 3
 1731 0956 7A69     		ldr	r2, [r7, #20]
 1732 0958 1370     		strb	r3, [r2]
 933:../tasks/SDMMC/ff.c **** 			bc++;
 1733              		.loc 1 933 0 is_stmt 1 discriminator 3
 1734 095a BB69     		ldr	r3, [r7, #24]
 1735 095c 0133     		adds	r3, r3, #1
 1736 095e BB61     		str	r3, [r7, #24]
 934:../tasks/SDMMC/ff.c **** 			fs->wflag = 1;
 1737              		.loc 1 934 0 discriminator 3
 1738 0960 FB68     		ldr	r3, [r7, #12]
 1739 0962 0122     		movs	r2, #1
 1740 0964 83F80422 		strb	r2, [r3, #516]
 935:../tasks/SDMMC/ff.c **** 			res = move_window(fs, fs->fatbase + (bc / SS(fs)));
 1741              		.loc 1 935 0 discriminator 3
 1742 0968 FB68     		ldr	r3, [r7, #12]
 1743 096a D3F82422 		ldr	r2, [r3, #548]
 1744 096e BB69     		ldr	r3, [r7, #24]
 1745 0970 5B0A     		lsrs	r3, r3, #9
 1746 0972 1344     		add	r3, r3, r2
 1747 0974 F868     		ldr	r0, [r7, #12]
 1748 0976 1946     		mov	r1, r3
 1749 0978 FFF7F6FD 		bl	move_window
 1750 097c 0346     		mov	r3, r0
 1751 097e FB77     		strb	r3, [r7, #31]
 936:../tasks/SDMMC/ff.c **** 			if (res != FR_OK) break;
 1752              		.loc 1 936 0 discriminator 3
 1753 0980 FB7F     		ldrb	r3, [r7, #31]	@ zero_extendqisi2
 1754 0982 002B     		cmp	r3, #0
 1755 0984 00D0     		beq	.L104
 1756              		.loc 1 936 0 is_stmt 0 discriminator 1
 1757 0986 8DE0     		b	.L101
 1758              	.L104:
 937:../tasks/SDMMC/ff.c **** 			p = &fs->win.d8[bc % SS(fs)];
 1759              		.loc 1 937 0 is_stmt 1
 1760 0988 BB69     		ldr	r3, [r7, #24]
 1761 098a C3F30803 		ubfx	r3, r3, #0, #9
 1762 098e FA68     		ldr	r2, [r7, #12]
 1763 0990 1344     		add	r3, r3, r2
 1764 0992 7B61     		str	r3, [r7, #20]
 938:../tasks/SDMMC/ff.c **** 			*p = (clst & 1) ? (BYTE)(val >> 4) : ((*p & 0xF0) | ((BYTE)(val >> 8) & 0x0F));
 1765              		.loc 1 938 0
 1766 0994 BB68     		ldr	r3, [r7, #8]
 1767 0996 03F00103 		and	r3, r3, #1
 1768 099a 002B     		cmp	r3, #0
 1769 099c 03D0     		beq	.L105
 1770              		.loc 1 938 0 is_stmt 0 discriminator 1
 1771 099e 7B68     		ldr	r3, [r7, #4]
 1772 09a0 1B09     		lsrs	r3, r3, #4
 1773 09a2 DBB2     		uxtb	r3, r3
 1774 09a4 0EE0     		b	.L106
 1775              	.L105:
 1776              		.loc 1 938 0 discriminator 2
 1777 09a6 7B69     		ldr	r3, [r7, #20]
 1778 09a8 1B78     		ldrb	r3, [r3]	@ zero_extendqisi2
 1779 09aa DBB2     		uxtb	r3, r3
 1780 09ac 23F00F03 		bic	r3, r3, #15
 1781 09b0 DAB2     		uxtb	r2, r3
 1782 09b2 7B68     		ldr	r3, [r7, #4]
 1783 09b4 1B0A     		lsrs	r3, r3, #8
 1784 09b6 DBB2     		uxtb	r3, r3
 1785 09b8 03F00F03 		and	r3, r3, #15
 1786 09bc DBB2     		uxtb	r3, r3
 1787 09be 1343     		orrs	r3, r3, r2
 1788 09c0 DBB2     		uxtb	r3, r3
 1789 09c2 DBB2     		uxtb	r3, r3
 1790              	.L106:
 1791              		.loc 1 938 0 discriminator 3
 1792 09c4 7A69     		ldr	r2, [r7, #20]
 1793 09c6 1370     		strb	r3, [r2]
 939:../tasks/SDMMC/ff.c **** 			break;
 1794              		.loc 1 939 0 is_stmt 1 discriminator 3
 1795 09c8 6CE0     		b	.L101
 1796              	.L97:
 940:../tasks/SDMMC/ff.c **** 
 941:../tasks/SDMMC/ff.c **** 		case FS_FAT16 :
 942:../tasks/SDMMC/ff.c **** 			res = move_window(fs, fs->fatbase + (clst / (SS(fs) / 2)));
 1797              		.loc 1 942 0
 1798 09ca FB68     		ldr	r3, [r7, #12]
 1799 09cc D3F82422 		ldr	r2, [r3, #548]
 1800 09d0 BB68     		ldr	r3, [r7, #8]
 1801 09d2 1B0A     		lsrs	r3, r3, #8
 1802 09d4 1344     		add	r3, r3, r2
 1803 09d6 F868     		ldr	r0, [r7, #12]
 1804 09d8 1946     		mov	r1, r3
 1805 09da FFF7C5FD 		bl	move_window
 1806 09de 0346     		mov	r3, r0
 1807 09e0 FB77     		strb	r3, [r7, #31]
 943:../tasks/SDMMC/ff.c **** 			if (res != FR_OK) break;
 1808              		.loc 1 943 0
 1809 09e2 FB7F     		ldrb	r3, [r7, #31]	@ zero_extendqisi2
 1810 09e4 002B     		cmp	r3, #0
 1811 09e6 00D0     		beq	.L107
 1812              		.loc 1 943 0 is_stmt 0 discriminator 1
 1813 09e8 5CE0     		b	.L101
 1814              	.L107:
 944:../tasks/SDMMC/ff.c **** 			p = &fs->win.d8[clst * 2 % SS(fs)];
 1815              		.loc 1 944 0 is_stmt 1
 1816 09ea BB68     		ldr	r3, [r7, #8]
 1817 09ec 5B00     		lsls	r3, r3, #1
 1818 09ee 03F4FF73 		and	r3, r3, #510
 1819 09f2 FA68     		ldr	r2, [r7, #12]
 1820 09f4 1344     		add	r3, r3, r2
 1821 09f6 7B61     		str	r3, [r7, #20]
 945:../tasks/SDMMC/ff.c **** 			ST_WORD(p, (WORD)val);
 1822              		.loc 1 945 0
 1823 09f8 7B68     		ldr	r3, [r7, #4]
 1824 09fa DAB2     		uxtb	r2, r3
 1825 09fc 7B69     		ldr	r3, [r7, #20]
 1826 09fe 1A70     		strb	r2, [r3]
 1827 0a00 7B69     		ldr	r3, [r7, #20]
 1828 0a02 0133     		adds	r3, r3, #1
 1829 0a04 7A68     		ldr	r2, [r7, #4]
 1830 0a06 92B2     		uxth	r2, r2
 1831 0a08 120A     		lsrs	r2, r2, #8
 1832 0a0a 92B2     		uxth	r2, r2
 1833 0a0c D2B2     		uxtb	r2, r2
 1834 0a0e 1A70     		strb	r2, [r3]
 946:../tasks/SDMMC/ff.c **** 			break;
 1835              		.loc 1 946 0
 1836 0a10 48E0     		b	.L101
 1837              	.L98:
 947:../tasks/SDMMC/ff.c **** 
 948:../tasks/SDMMC/ff.c **** 		case FS_FAT32 :
 949:../tasks/SDMMC/ff.c **** 			res = move_window(fs, fs->fatbase + (clst / (SS(fs) / 4)));
 1838              		.loc 1 949 0
 1839 0a12 FB68     		ldr	r3, [r7, #12]
 1840 0a14 D3F82422 		ldr	r2, [r3, #548]
 1841 0a18 BB68     		ldr	r3, [r7, #8]
 1842 0a1a DB09     		lsrs	r3, r3, #7
 1843 0a1c 1344     		add	r3, r3, r2
 1844 0a1e F868     		ldr	r0, [r7, #12]
 1845 0a20 1946     		mov	r1, r3
 1846 0a22 FFF7A1FD 		bl	move_window
 1847 0a26 0346     		mov	r3, r0
 1848 0a28 FB77     		strb	r3, [r7, #31]
 950:../tasks/SDMMC/ff.c **** 			if (res != FR_OK) break;
 1849              		.loc 1 950 0
 1850 0a2a FB7F     		ldrb	r3, [r7, #31]	@ zero_extendqisi2
 1851 0a2c 002B     		cmp	r3, #0
 1852 0a2e 00D0     		beq	.L108
 1853              		.loc 1 950 0 is_stmt 0 discriminator 1
 1854 0a30 38E0     		b	.L101
 1855              	.L108:
 951:../tasks/SDMMC/ff.c **** 			p = &fs->win.d8[clst * 4 % SS(fs)];
 1856              		.loc 1 951 0 is_stmt 1
 1857 0a32 BB68     		ldr	r3, [r7, #8]
 1858 0a34 9B00     		lsls	r3, r3, #2
 1859 0a36 03F4FE73 		and	r3, r3, #508
 1860 0a3a FA68     		ldr	r2, [r7, #12]
 1861 0a3c 1344     		add	r3, r3, r2
 1862 0a3e 7B61     		str	r3, [r7, #20]
 952:../tasks/SDMMC/ff.c **** 			val |= LD_DWORD(p) & 0xF0000000;
 1863              		.loc 1 952 0
 1864 0a40 7B69     		ldr	r3, [r7, #20]
 1865 0a42 0333     		adds	r3, r3, #3
 1866 0a44 1B78     		ldrb	r3, [r3]	@ zero_extendqisi2
 1867 0a46 1A06     		lsls	r2, r3, #24
 1868 0a48 7B69     		ldr	r3, [r7, #20]
 1869 0a4a 0233     		adds	r3, r3, #2
 1870 0a4c 1B78     		ldrb	r3, [r3]	@ zero_extendqisi2
 1871 0a4e 1B04     		lsls	r3, r3, #16
 1872 0a50 1A43     		orrs	r2, r2, r3
 1873 0a52 7B69     		ldr	r3, [r7, #20]
 1874 0a54 0133     		adds	r3, r3, #1
 1875 0a56 1B78     		ldrb	r3, [r3]	@ zero_extendqisi2
 1876 0a58 1B02     		lsls	r3, r3, #8
 1877 0a5a 1A43     		orrs	r2, r2, r3
 1878 0a5c 7B69     		ldr	r3, [r7, #20]
 1879 0a5e 1B78     		ldrb	r3, [r3]	@ zero_extendqisi2
 1880 0a60 1343     		orrs	r3, r3, r2
 1881 0a62 03F07043 		and	r3, r3, #-268435456
 1882 0a66 7A68     		ldr	r2, [r7, #4]
 1883 0a68 1343     		orrs	r3, r3, r2
 1884 0a6a 7B60     		str	r3, [r7, #4]
 953:../tasks/SDMMC/ff.c **** 			ST_DWORD(p, val);
 1885              		.loc 1 953 0
 1886 0a6c 7B68     		ldr	r3, [r7, #4]
 1887 0a6e DAB2     		uxtb	r2, r3
 1888 0a70 7B69     		ldr	r3, [r7, #20]
 1889 0a72 1A70     		strb	r2, [r3]
 1890 0a74 7B69     		ldr	r3, [r7, #20]
 1891 0a76 0133     		adds	r3, r3, #1
 1892 0a78 7A68     		ldr	r2, [r7, #4]
 1893 0a7a 92B2     		uxth	r2, r2
 1894 0a7c 120A     		lsrs	r2, r2, #8
 1895 0a7e 92B2     		uxth	r2, r2
 1896 0a80 D2B2     		uxtb	r2, r2
 1897 0a82 1A70     		strb	r2, [r3]
 1898 0a84 7B69     		ldr	r3, [r7, #20]
 1899 0a86 0233     		adds	r3, r3, #2
 1900 0a88 7A68     		ldr	r2, [r7, #4]
 1901 0a8a 120C     		lsrs	r2, r2, #16
 1902 0a8c D2B2     		uxtb	r2, r2
 1903 0a8e 1A70     		strb	r2, [r3]
 1904 0a90 7B69     		ldr	r3, [r7, #20]
 1905 0a92 0333     		adds	r3, r3, #3
 1906 0a94 7A68     		ldr	r2, [r7, #4]
 1907 0a96 120E     		lsrs	r2, r2, #24
 1908 0a98 D2B2     		uxtb	r2, r2
 1909 0a9a 1A70     		strb	r2, [r3]
 954:../tasks/SDMMC/ff.c **** 			break;
 1910              		.loc 1 954 0
 1911 0a9c 02E0     		b	.L101
 1912              	.L110:
 955:../tasks/SDMMC/ff.c **** 
 956:../tasks/SDMMC/ff.c **** 		default :
 957:../tasks/SDMMC/ff.c **** 			res = FR_INT_ERR;
 1913              		.loc 1 957 0
 1914 0a9e 0223     		movs	r3, #2
 1915 0aa0 FB77     		strb	r3, [r7, #31]
 958:../tasks/SDMMC/ff.c **** 			break;
 1916              		.loc 1 958 0
 1917 0aa2 00BF     		nop
 1918              	.L101:
 959:../tasks/SDMMC/ff.c **** 		}
 960:../tasks/SDMMC/ff.c **** 		fs->wflag = 1;
 1919              		.loc 1 960 0
 1920 0aa4 FB68     		ldr	r3, [r7, #12]
 1921 0aa6 0122     		movs	r2, #1
 1922 0aa8 83F80422 		strb	r2, [r3, #516]
 1923              	.L95:
 961:../tasks/SDMMC/ff.c **** 	}
 962:../tasks/SDMMC/ff.c **** 
 963:../tasks/SDMMC/ff.c **** 	return res;
 1924              		.loc 1 963 0
 1925 0aac FB7F     		ldrb	r3, [r7, #31]	@ zero_extendqisi2
 964:../tasks/SDMMC/ff.c **** }
 1926              		.loc 1 964 0
 1927 0aae 1846     		mov	r0, r3
 1928 0ab0 2037     		adds	r7, r7, #32
 1929 0ab2 BD46     		mov	sp, r7
 1930              		@ sp needed
 1931 0ab4 80BD     		pop	{r7, pc}
 1932              		.cfi_endproc
 1933              	.LFE69:
 1935 0ab6 00BF     		.align	2
 1936              		.thumb
 1937              		.thumb_func
 1939              	remove_chain:
 1940              	.LFB70:
 965:../tasks/SDMMC/ff.c **** #endif /* !_FS_READONLY */
 966:../tasks/SDMMC/ff.c **** 
 967:../tasks/SDMMC/ff.c **** 
 968:../tasks/SDMMC/ff.c **** 
 969:../tasks/SDMMC/ff.c **** 
 970:../tasks/SDMMC/ff.c **** /*-----------------------------------------------------------------------*/
 971:../tasks/SDMMC/ff.c **** /* FAT handling - Remove a cluster chain                                 */
 972:../tasks/SDMMC/ff.c **** /*-----------------------------------------------------------------------*/
 973:../tasks/SDMMC/ff.c **** #if !_FS_READONLY
 974:../tasks/SDMMC/ff.c **** static
 975:../tasks/SDMMC/ff.c **** FRESULT remove_chain (
 976:../tasks/SDMMC/ff.c **** 	FATFS* fs,			/* File system object */
 977:../tasks/SDMMC/ff.c **** 	DWORD clst			/* Cluster# to remove a chain from */
 978:../tasks/SDMMC/ff.c **** )
 979:../tasks/SDMMC/ff.c **** {
 1941              		.loc 1 979 0
 1942              		.cfi_startproc
 1943              		@ args = 0, pretend = 0, frame = 16
 1944              		@ frame_needed = 1, uses_anonymous_args = 0
 1945 0ab8 80B5     		push	{r7, lr}
 1946              		.cfi_def_cfa_offset 8
 1947              		.cfi_offset 7, -8
 1948              		.cfi_offset 14, -4
 1949 0aba 84B0     		sub	sp, sp, #16
 1950              		.cfi_def_cfa_offset 24
 1951 0abc 00AF     		add	r7, sp, #0
 1952              		.cfi_def_cfa_register 7
 1953 0abe 7860     		str	r0, [r7, #4]
 1954 0ac0 3960     		str	r1, [r7]
 980:../tasks/SDMMC/ff.c **** 	FRESULT res;
 981:../tasks/SDMMC/ff.c **** 	DWORD nxt;
 982:../tasks/SDMMC/ff.c **** #if _USE_ERASE
 983:../tasks/SDMMC/ff.c **** 	DWORD scl = clst, ecl = clst, rt[2];
 984:../tasks/SDMMC/ff.c **** #endif
 985:../tasks/SDMMC/ff.c **** 
 986:../tasks/SDMMC/ff.c **** 	if (clst < 2 || clst >= fs->n_fatent) {	/* Check range */
 1955              		.loc 1 986 0
 1956 0ac2 3B68     		ldr	r3, [r7]
 1957 0ac4 012B     		cmp	r3, #1
 1958 0ac6 05D9     		bls	.L112
 1959              		.loc 1 986 0 is_stmt 0 discriminator 1
 1960 0ac8 7B68     		ldr	r3, [r7, #4]
 1961 0aca D3F81822 		ldr	r2, [r3, #536]
 1962 0ace 3B68     		ldr	r3, [r7]
 1963 0ad0 9A42     		cmp	r2, r3
 1964 0ad2 02D8     		bhi	.L113
 1965              	.L112:
 987:../tasks/SDMMC/ff.c **** 		res = FR_INT_ERR;
 1966              		.loc 1 987 0 is_stmt 1
 1967 0ad4 0223     		movs	r3, #2
 1968 0ad6 FB73     		strb	r3, [r7, #15]
 1969 0ad8 41E0     		b	.L114
 1970              	.L113:
 988:../tasks/SDMMC/ff.c **** 
 989:../tasks/SDMMC/ff.c **** 	} else {
 990:../tasks/SDMMC/ff.c **** 		res = FR_OK;
 1971              		.loc 1 990 0
 1972 0ada 0023     		movs	r3, #0
 1973 0adc FB73     		strb	r3, [r7, #15]
 991:../tasks/SDMMC/ff.c **** 		while (clst < fs->n_fatent) {			/* Not a last link? */
 1974              		.loc 1 991 0
 1975 0ade 38E0     		b	.L115
 1976              	.L121:
 992:../tasks/SDMMC/ff.c **** 			nxt = get_fat(fs, clst);			/* Get cluster status */
 1977              		.loc 1 992 0
 1978 0ae0 7868     		ldr	r0, [r7, #4]
 1979 0ae2 3968     		ldr	r1, [r7]
 1980 0ae4 FFF7FEFF 		bl	get_fat
 1981 0ae8 B860     		str	r0, [r7, #8]
 993:../tasks/SDMMC/ff.c **** 			if (nxt == 0) break;				/* Empty cluster? */
 1982              		.loc 1 993 0
 1983 0aea BB68     		ldr	r3, [r7, #8]
 1984 0aec 002B     		cmp	r3, #0
 1985 0aee 00D1     		bne	.L116
 1986              		.loc 1 993 0 is_stmt 0 discriminator 1
 1987 0af0 35E0     		b	.L114
 1988              	.L116:
 994:../tasks/SDMMC/ff.c **** 			if (nxt == 1) { res = FR_INT_ERR; break; }	/* Internal error? */
 1989              		.loc 1 994 0 is_stmt 1
 1990 0af2 BB68     		ldr	r3, [r7, #8]
 1991 0af4 012B     		cmp	r3, #1
 1992 0af6 02D1     		bne	.L117
 1993              		.loc 1 994 0 is_stmt 0 discriminator 1
 1994 0af8 0223     		movs	r3, #2
 1995 0afa FB73     		strb	r3, [r7, #15]
 1996 0afc 2FE0     		b	.L114
 1997              	.L117:
 995:../tasks/SDMMC/ff.c **** 			if (nxt == 0xFFFFFFFF) { res = FR_DISK_ERR; break; }	/* Disk error? */
 1998              		.loc 1 995 0 is_stmt 1
 1999 0afe BB68     		ldr	r3, [r7, #8]
 2000 0b00 B3F1FF3F 		cmp	r3, #-1
 2001 0b04 02D1     		bne	.L118
 2002              		.loc 1 995 0 is_stmt 0 discriminator 1
 2003 0b06 0123     		movs	r3, #1
 2004 0b08 FB73     		strb	r3, [r7, #15]
 2005 0b0a 28E0     		b	.L114
 2006              	.L118:
 996:../tasks/SDMMC/ff.c **** 			res = put_fat(fs, clst, 0);			/* Mark the cluster "empty" */
 2007              		.loc 1 996 0 is_stmt 1
 2008 0b0c 7868     		ldr	r0, [r7, #4]
 2009 0b0e 3968     		ldr	r1, [r7]
 2010 0b10 0022     		movs	r2, #0
 2011 0b12 FFF7FEFF 		bl	put_fat
 2012 0b16 0346     		mov	r3, r0
 2013 0b18 FB73     		strb	r3, [r7, #15]
 997:../tasks/SDMMC/ff.c **** 			if (res != FR_OK) break;
 2014              		.loc 1 997 0
 2015 0b1a FB7B     		ldrb	r3, [r7, #15]	@ zero_extendqisi2
 2016 0b1c 002B     		cmp	r3, #0
 2017 0b1e 00D0     		beq	.L119
 2018              		.loc 1 997 0 is_stmt 0 discriminator 1
 2019 0b20 1DE0     		b	.L114
 2020              	.L119:
 998:../tasks/SDMMC/ff.c **** 			if (fs->free_clust != 0xFFFFFFFF) {	/* Update FSINFO */
 2021              		.loc 1 998 0 is_stmt 1
 2022 0b22 7B68     		ldr	r3, [r7, #4]
 2023 0b24 D3F81032 		ldr	r3, [r3, #528]
 2024 0b28 B3F1FF3F 		cmp	r3, #-1
 2025 0b2c 0FD0     		beq	.L120
 999:../tasks/SDMMC/ff.c **** 				fs->free_clust++;
 2026              		.loc 1 999 0
 2027 0b2e 7B68     		ldr	r3, [r7, #4]
 2028 0b30 D3F81032 		ldr	r3, [r3, #528]
 2029 0b34 5A1C     		adds	r2, r3, #1
 2030 0b36 7B68     		ldr	r3, [r7, #4]
 2031 0b38 C3F81022 		str	r2, [r3, #528]
1000:../tasks/SDMMC/ff.c **** 				fs->fsi_flag |= 1;
 2032              		.loc 1 1000 0
 2033 0b3c 7B68     		ldr	r3, [r7, #4]
 2034 0b3e 93F80532 		ldrb	r3, [r3, #517]	@ zero_extendqisi2
 2035 0b42 43F00103 		orr	r3, r3, #1
 2036 0b46 DAB2     		uxtb	r2, r3
 2037 0b48 7B68     		ldr	r3, [r7, #4]
 2038 0b4a 83F80522 		strb	r2, [r3, #517]
 2039              	.L120:
1001:../tasks/SDMMC/ff.c **** 			}
1002:../tasks/SDMMC/ff.c **** #if _USE_ERASE
1003:../tasks/SDMMC/ff.c **** 			if (ecl + 1 == nxt) {	/* Is next cluster contiguous? */
1004:../tasks/SDMMC/ff.c **** 				ecl = nxt;
1005:../tasks/SDMMC/ff.c **** 			} else {				/* End of contiguous clusters */ 
1006:../tasks/SDMMC/ff.c **** 				rt[0] = clust2sect(fs, scl);					/* Start sector */
1007:../tasks/SDMMC/ff.c **** 				rt[1] = clust2sect(fs, ecl) + fs->csize - 1;	/* End sector */
1008:../tasks/SDMMC/ff.c **** 				disk_ioctl(fs->drv, CTRL_ERASE_SECTOR, rt);		/* Erase the block */
1009:../tasks/SDMMC/ff.c **** 				scl = ecl = nxt;
1010:../tasks/SDMMC/ff.c **** 			}
1011:../tasks/SDMMC/ff.c **** #endif
1012:../tasks/SDMMC/ff.c **** 			clst = nxt;	/* Next cluster */
 2040              		.loc 1 1012 0
 2041 0b4e BB68     		ldr	r3, [r7, #8]
 2042 0b50 3B60     		str	r3, [r7]
 2043              	.L115:
 991:../tasks/SDMMC/ff.c **** 			nxt = get_fat(fs, clst);			/* Get cluster status */
 2044              		.loc 1 991 0 discriminator 1
 2045 0b52 7B68     		ldr	r3, [r7, #4]
 2046 0b54 D3F81822 		ldr	r2, [r3, #536]
 2047 0b58 3B68     		ldr	r3, [r7]
 2048 0b5a 9A42     		cmp	r2, r3
 2049 0b5c C0D8     		bhi	.L121
 2050              	.L114:
1013:../tasks/SDMMC/ff.c **** 		}
1014:../tasks/SDMMC/ff.c **** 	}
1015:../tasks/SDMMC/ff.c **** 
1016:../tasks/SDMMC/ff.c **** 	return res;
 2051              		.loc 1 1016 0
 2052 0b5e FB7B     		ldrb	r3, [r7, #15]	@ zero_extendqisi2
1017:../tasks/SDMMC/ff.c **** }
 2053              		.loc 1 1017 0
 2054 0b60 1846     		mov	r0, r3
 2055 0b62 1037     		adds	r7, r7, #16
 2056 0b64 BD46     		mov	sp, r7
 2057              		@ sp needed
 2058 0b66 80BD     		pop	{r7, pc}
 2059              		.cfi_endproc
 2060              	.LFE70:
 2062              		.align	2
 2063              		.thumb
 2064              		.thumb_func
 2066              	create_chain:
 2067              	.LFB71:
1018:../tasks/SDMMC/ff.c **** #endif
1019:../tasks/SDMMC/ff.c **** 
1020:../tasks/SDMMC/ff.c **** 
1021:../tasks/SDMMC/ff.c **** 
1022:../tasks/SDMMC/ff.c **** 
1023:../tasks/SDMMC/ff.c **** /*-----------------------------------------------------------------------*/
1024:../tasks/SDMMC/ff.c **** /* FAT handling - Stretch or Create a cluster chain                      */
1025:../tasks/SDMMC/ff.c **** /*-----------------------------------------------------------------------*/
1026:../tasks/SDMMC/ff.c **** #if !_FS_READONLY
1027:../tasks/SDMMC/ff.c **** static
1028:../tasks/SDMMC/ff.c **** DWORD create_chain (	/* 0:No free cluster, 1:Internal error, 0xFFFFFFFF:Disk error, >=2:New cluster
1029:../tasks/SDMMC/ff.c **** 	FATFS* fs,			/* File system object */
1030:../tasks/SDMMC/ff.c **** 	DWORD clst			/* Cluster# to stretch. 0 means create a new chain. */
1031:../tasks/SDMMC/ff.c **** )
1032:../tasks/SDMMC/ff.c **** {
 2068              		.loc 1 1032 0
 2069              		.cfi_startproc
 2070              		@ args = 0, pretend = 0, frame = 24
 2071              		@ frame_needed = 1, uses_anonymous_args = 0
 2072 0b68 80B5     		push	{r7, lr}
 2073              		.cfi_def_cfa_offset 8
 2074              		.cfi_offset 7, -8
 2075              		.cfi_offset 14, -4
 2076 0b6a 86B0     		sub	sp, sp, #24
 2077              		.cfi_def_cfa_offset 32
 2078 0b6c 00AF     		add	r7, sp, #0
 2079              		.cfi_def_cfa_register 7
 2080 0b6e 7860     		str	r0, [r7, #4]
 2081 0b70 3960     		str	r1, [r7]
1033:../tasks/SDMMC/ff.c **** 	DWORD cs, ncl, scl;
1034:../tasks/SDMMC/ff.c **** 	FRESULT res;
1035:../tasks/SDMMC/ff.c **** 
1036:../tasks/SDMMC/ff.c **** 
1037:../tasks/SDMMC/ff.c **** 	if (clst == 0) {		/* Create a new chain */
 2082              		.loc 1 1037 0
 2083 0b72 3B68     		ldr	r3, [r7]
 2084 0b74 002B     		cmp	r3, #0
 2085 0b76 0FD1     		bne	.L124
1038:../tasks/SDMMC/ff.c **** 		scl = fs->last_clust;			/* Get suggested start point */
 2086              		.loc 1 1038 0
 2087 0b78 7B68     		ldr	r3, [r7, #4]
 2088 0b7a D3F80C32 		ldr	r3, [r3, #524]
 2089 0b7e 3B61     		str	r3, [r7, #16]
1039:../tasks/SDMMC/ff.c **** 		if (!scl || scl >= fs->n_fatent) scl = 1;
 2090              		.loc 1 1039 0
 2091 0b80 3B69     		ldr	r3, [r7, #16]
 2092 0b82 002B     		cmp	r3, #0
 2093 0b84 05D0     		beq	.L125
 2094              		.loc 1 1039 0 is_stmt 0 discriminator 2
 2095 0b86 7B68     		ldr	r3, [r7, #4]
 2096 0b88 D3F81822 		ldr	r2, [r3, #536]
 2097 0b8c 3B69     		ldr	r3, [r7, #16]
 2098 0b8e 9A42     		cmp	r2, r3
 2099 0b90 16D8     		bhi	.L127
 2100              	.L125:
 2101              		.loc 1 1039 0 discriminator 1
 2102 0b92 0123     		movs	r3, #1
 2103 0b94 3B61     		str	r3, [r7, #16]
 2104 0b96 13E0     		b	.L127
 2105              	.L124:
1040:../tasks/SDMMC/ff.c **** 	}
1041:../tasks/SDMMC/ff.c **** 	else {					/* Stretch the current chain */
1042:../tasks/SDMMC/ff.c **** 		cs = get_fat(fs, clst);			/* Check the cluster status */
 2106              		.loc 1 1042 0 is_stmt 1
 2107 0b98 7868     		ldr	r0, [r7, #4]
 2108 0b9a 3968     		ldr	r1, [r7]
 2109 0b9c FFF7FEFF 		bl	get_fat
 2110 0ba0 B860     		str	r0, [r7, #8]
1043:../tasks/SDMMC/ff.c **** 		if (cs < 2) return 1;			/* It is an invalid cluster */
 2111              		.loc 1 1043 0
 2112 0ba2 BB68     		ldr	r3, [r7, #8]
 2113 0ba4 012B     		cmp	r3, #1
 2114 0ba6 01D8     		bhi	.L128
 2115              		.loc 1 1043 0 is_stmt 0 discriminator 1
 2116 0ba8 0123     		movs	r3, #1
 2117 0baa 72E0     		b	.L129
 2118              	.L128:
1044:../tasks/SDMMC/ff.c **** 		if (cs < fs->n_fatent) return cs;	/* It is already followed by next cluster */
 2119              		.loc 1 1044 0 is_stmt 1
 2120 0bac 7B68     		ldr	r3, [r7, #4]
 2121 0bae D3F81822 		ldr	r2, [r3, #536]
 2122 0bb2 BB68     		ldr	r3, [r7, #8]
 2123 0bb4 9A42     		cmp	r2, r3
 2124 0bb6 01D9     		bls	.L130
 2125              		.loc 1 1044 0 is_stmt 0 discriminator 1
 2126 0bb8 BB68     		ldr	r3, [r7, #8]
 2127 0bba 6AE0     		b	.L129
 2128              	.L130:
1045:../tasks/SDMMC/ff.c **** 		scl = clst;
 2129              		.loc 1 1045 0 is_stmt 1
 2130 0bbc 3B68     		ldr	r3, [r7]
 2131 0bbe 3B61     		str	r3, [r7, #16]
 2132              	.L127:
1046:../tasks/SDMMC/ff.c **** 	}
1047:../tasks/SDMMC/ff.c **** 
1048:../tasks/SDMMC/ff.c **** 	ncl = scl;				/* Start cluster */
 2133              		.loc 1 1048 0
 2134 0bc0 3B69     		ldr	r3, [r7, #16]
 2135 0bc2 7B61     		str	r3, [r7, #20]
 2136              	.L137:
1049:../tasks/SDMMC/ff.c **** 	for (;;) {
1050:../tasks/SDMMC/ff.c **** 		ncl++;							/* Next cluster */
 2137              		.loc 1 1050 0
 2138 0bc4 7B69     		ldr	r3, [r7, #20]
 2139 0bc6 0133     		adds	r3, r3, #1
 2140 0bc8 7B61     		str	r3, [r7, #20]
1051:../tasks/SDMMC/ff.c **** 		if (ncl >= fs->n_fatent) {		/* Wrap around */
 2141              		.loc 1 1051 0
 2142 0bca 7B68     		ldr	r3, [r7, #4]
 2143 0bcc D3F81822 		ldr	r2, [r3, #536]
 2144 0bd0 7B69     		ldr	r3, [r7, #20]
 2145 0bd2 9A42     		cmp	r2, r3
 2146 0bd4 07D8     		bhi	.L131
1052:../tasks/SDMMC/ff.c **** 			ncl = 2;
 2147              		.loc 1 1052 0
 2148 0bd6 0223     		movs	r3, #2
 2149 0bd8 7B61     		str	r3, [r7, #20]
1053:../tasks/SDMMC/ff.c **** 			if (ncl > scl) return 0;	/* No free cluster */
 2150              		.loc 1 1053 0
 2151 0bda 7A69     		ldr	r2, [r7, #20]
 2152 0bdc 3B69     		ldr	r3, [r7, #16]
 2153 0bde 9A42     		cmp	r2, r3
 2154 0be0 01D9     		bls	.L131
 2155              		.loc 1 1053 0 is_stmt 0 discriminator 1
 2156 0be2 0023     		movs	r3, #0
 2157 0be4 55E0     		b	.L129
 2158              	.L131:
1054:../tasks/SDMMC/ff.c **** 		}
1055:../tasks/SDMMC/ff.c **** 		cs = get_fat(fs, ncl);			/* Get the cluster status */
 2159              		.loc 1 1055 0 is_stmt 1
 2160 0be6 7868     		ldr	r0, [r7, #4]
 2161 0be8 7969     		ldr	r1, [r7, #20]
 2162 0bea FFF7FEFF 		bl	get_fat
 2163 0bee B860     		str	r0, [r7, #8]
1056:../tasks/SDMMC/ff.c **** 		if (cs == 0) break;				/* Found a free cluster */
 2164              		.loc 1 1056 0
 2165 0bf0 BB68     		ldr	r3, [r7, #8]
 2166 0bf2 002B     		cmp	r3, #0
 2167 0bf4 0CD1     		bne	.L132
 2168              		.loc 1 1056 0 is_stmt 0 discriminator 1
 2169 0bf6 00BF     		nop
1057:../tasks/SDMMC/ff.c **** 		if (cs == 0xFFFFFFFF || cs == 1)/* An error occurred */
1058:../tasks/SDMMC/ff.c **** 			return cs;
1059:../tasks/SDMMC/ff.c **** 		if (ncl == scl) return 0;		/* No free cluster */
1060:../tasks/SDMMC/ff.c **** 	}
1061:../tasks/SDMMC/ff.c **** 
1062:../tasks/SDMMC/ff.c **** 	res = put_fat(fs, ncl, 0x0FFFFFFF);	/* Mark the new cluster "last link" */
 2170              		.loc 1 1062 0 is_stmt 1 discriminator 1
 2171 0bf8 7868     		ldr	r0, [r7, #4]
 2172 0bfa 7969     		ldr	r1, [r7, #20]
 2173 0bfc 6FF07042 		mvn	r2, #-268435456
 2174 0c00 FFF7FEFF 		bl	put_fat
 2175 0c04 0346     		mov	r3, r0
 2176 0c06 FB73     		strb	r3, [r7, #15]
1063:../tasks/SDMMC/ff.c **** 	if (res == FR_OK && clst != 0) {
 2177              		.loc 1 1063 0 discriminator 1
 2178 0c08 FB7B     		ldrb	r3, [r7, #15]	@ zero_extendqisi2
 2179 0c0a 002B     		cmp	r3, #0
 2180 0c0c 1AD1     		bne	.L138
 2181 0c0e 0FE0     		b	.L144
 2182              	.L132:
1057:../tasks/SDMMC/ff.c **** 		if (cs == 0xFFFFFFFF || cs == 1)/* An error occurred */
 2183              		.loc 1 1057 0
 2184 0c10 BB68     		ldr	r3, [r7, #8]
 2185 0c12 B3F1FF3F 		cmp	r3, #-1
 2186 0c16 02D0     		beq	.L134
1057:../tasks/SDMMC/ff.c **** 		if (cs == 0xFFFFFFFF || cs == 1)/* An error occurred */
 2187              		.loc 1 1057 0 is_stmt 0 discriminator 1
 2188 0c18 BB68     		ldr	r3, [r7, #8]
 2189 0c1a 012B     		cmp	r3, #1
 2190 0c1c 01D1     		bne	.L135
 2191              	.L134:
1058:../tasks/SDMMC/ff.c **** 		if (ncl == scl) return 0;		/* No free cluster */
 2192              		.loc 1 1058 0 is_stmt 1
 2193 0c1e BB68     		ldr	r3, [r7, #8]
 2194 0c20 37E0     		b	.L129
 2195              	.L135:
1059:../tasks/SDMMC/ff.c **** 	}
 2196              		.loc 1 1059 0
 2197 0c22 7A69     		ldr	r2, [r7, #20]
 2198 0c24 3B69     		ldr	r3, [r7, #16]
 2199 0c26 9A42     		cmp	r2, r3
 2200 0c28 01D1     		bne	.L136
1059:../tasks/SDMMC/ff.c **** 	}
 2201              		.loc 1 1059 0 is_stmt 0 discriminator 1
 2202 0c2a 0023     		movs	r3, #0
 2203 0c2c 31E0     		b	.L129
 2204              	.L136:
1060:../tasks/SDMMC/ff.c **** 
 2205              		.loc 1 1060 0 is_stmt 1
 2206 0c2e C9E7     		b	.L137
 2207              	.L144:
 2208              		.loc 1 1063 0 discriminator 1
 2209 0c30 3B68     		ldr	r3, [r7]
 2210 0c32 002B     		cmp	r3, #0
 2211 0c34 06D0     		beq	.L138
1064:../tasks/SDMMC/ff.c **** 		res = put_fat(fs, clst, ncl);	/* Link it to the previous one if needed */
 2212              		.loc 1 1064 0
 2213 0c36 7868     		ldr	r0, [r7, #4]
 2214 0c38 3968     		ldr	r1, [r7]
 2215 0c3a 7A69     		ldr	r2, [r7, #20]
 2216 0c3c FFF7FEFF 		bl	put_fat
 2217 0c40 0346     		mov	r3, r0
 2218 0c42 FB73     		strb	r3, [r7, #15]
 2219              	.L138:
1065:../tasks/SDMMC/ff.c **** 	}
1066:../tasks/SDMMC/ff.c **** 	if (res == FR_OK) {
 2220              		.loc 1 1066 0
 2221 0c44 FB7B     		ldrb	r3, [r7, #15]	@ zero_extendqisi2
 2222 0c46 002B     		cmp	r3, #0
 2223 0c48 1AD1     		bne	.L139
1067:../tasks/SDMMC/ff.c **** 		fs->last_clust = ncl;			/* Update FSINFO */
 2224              		.loc 1 1067 0
 2225 0c4a 7B68     		ldr	r3, [r7, #4]
 2226 0c4c 7A69     		ldr	r2, [r7, #20]
 2227 0c4e C3F80C22 		str	r2, [r3, #524]
1068:../tasks/SDMMC/ff.c **** 		if (fs->free_clust != 0xFFFFFFFF) {
 2228              		.loc 1 1068 0
 2229 0c52 7B68     		ldr	r3, [r7, #4]
 2230 0c54 D3F81032 		ldr	r3, [r3, #528]
 2231 0c58 B3F1FF3F 		cmp	r3, #-1
 2232 0c5c 18D0     		beq	.L141
1069:../tasks/SDMMC/ff.c **** 			fs->free_clust--;
 2233              		.loc 1 1069 0
 2234 0c5e 7B68     		ldr	r3, [r7, #4]
 2235 0c60 D3F81032 		ldr	r3, [r3, #528]
 2236 0c64 5A1E     		subs	r2, r3, #1
 2237 0c66 7B68     		ldr	r3, [r7, #4]
 2238 0c68 C3F81022 		str	r2, [r3, #528]
1070:../tasks/SDMMC/ff.c **** 			fs->fsi_flag |= 1;
 2239              		.loc 1 1070 0
 2240 0c6c 7B68     		ldr	r3, [r7, #4]
 2241 0c6e 93F80532 		ldrb	r3, [r3, #517]	@ zero_extendqisi2
 2242 0c72 43F00103 		orr	r3, r3, #1
 2243 0c76 DAB2     		uxtb	r2, r3
 2244 0c78 7B68     		ldr	r3, [r7, #4]
 2245 0c7a 83F80522 		strb	r2, [r3, #517]
 2246 0c7e 07E0     		b	.L141
 2247              	.L139:
1071:../tasks/SDMMC/ff.c **** 		}
1072:../tasks/SDMMC/ff.c **** 	} else {
1073:../tasks/SDMMC/ff.c **** 		ncl = (res == FR_DISK_ERR) ? 0xFFFFFFFF : 1;
 2248              		.loc 1 1073 0
 2249 0c80 FB7B     		ldrb	r3, [r7, #15]	@ zero_extendqisi2
 2250 0c82 012B     		cmp	r3, #1
 2251 0c84 02D1     		bne	.L142
 2252              		.loc 1 1073 0 is_stmt 0 discriminator 1
 2253 0c86 4FF0FF33 		mov	r3, #-1
 2254 0c8a 00E0     		b	.L143
 2255              	.L142:
 2256              		.loc 1 1073 0 discriminator 2
 2257 0c8c 0123     		movs	r3, #1
 2258              	.L143:
 2259              		.loc 1 1073 0 discriminator 3
 2260 0c8e 7B61     		str	r3, [r7, #20]
 2261              	.L141:
1074:../tasks/SDMMC/ff.c **** 	}
1075:../tasks/SDMMC/ff.c **** 
1076:../tasks/SDMMC/ff.c **** 	return ncl;		/* Return new cluster number or error code */
 2262              		.loc 1 1076 0 is_stmt 1
 2263 0c90 7B69     		ldr	r3, [r7, #20]
 2264              	.L129:
1077:../tasks/SDMMC/ff.c **** }
 2265              		.loc 1 1077 0
 2266 0c92 1846     		mov	r0, r3
 2267 0c94 1837     		adds	r7, r7, #24
 2268 0c96 BD46     		mov	sp, r7
 2269              		@ sp needed
 2270 0c98 80BD     		pop	{r7, pc}
 2271              		.cfi_endproc
 2272              	.LFE71:
 2274 0c9a 00BF     		.align	2
 2275              		.thumb
 2276              		.thumb_func
 2278              	clmt_clust:
 2279              	.LFB72:
1078:../tasks/SDMMC/ff.c **** #endif /* !_FS_READONLY */
1079:../tasks/SDMMC/ff.c **** 
1080:../tasks/SDMMC/ff.c **** 
1081:../tasks/SDMMC/ff.c **** 
1082:../tasks/SDMMC/ff.c **** 
1083:../tasks/SDMMC/ff.c **** /*-----------------------------------------------------------------------*/
1084:../tasks/SDMMC/ff.c **** /* FAT handling - Convert offset into cluster with link map table        */
1085:../tasks/SDMMC/ff.c **** /*-----------------------------------------------------------------------*/
1086:../tasks/SDMMC/ff.c **** 
1087:../tasks/SDMMC/ff.c **** #if _USE_FASTSEEK
1088:../tasks/SDMMC/ff.c **** static
1089:../tasks/SDMMC/ff.c **** DWORD clmt_clust (	/* <2:Error, >=2:Cluster number */
1090:../tasks/SDMMC/ff.c **** 	FIL* fp,		/* Pointer to the file object */
1091:../tasks/SDMMC/ff.c **** 	DWORD ofs		/* File offset to be converted to cluster# */
1092:../tasks/SDMMC/ff.c **** )
1093:../tasks/SDMMC/ff.c **** {
 2280              		.loc 1 1093 0
 2281              		.cfi_startproc
 2282              		@ args = 0, pretend = 0, frame = 24
 2283              		@ frame_needed = 1, uses_anonymous_args = 0
 2284              		@ link register save eliminated.
 2285 0c9c 80B4     		push	{r7}
 2286              		.cfi_def_cfa_offset 4
 2287              		.cfi_offset 7, -4
 2288 0c9e 87B0     		sub	sp, sp, #28
 2289              		.cfi_def_cfa_offset 32
 2290 0ca0 00AF     		add	r7, sp, #0
 2291              		.cfi_def_cfa_register 7
 2292 0ca2 7860     		str	r0, [r7, #4]
 2293 0ca4 3960     		str	r1, [r7]
1094:../tasks/SDMMC/ff.c **** 	DWORD cl, ncl, *tbl;
1095:../tasks/SDMMC/ff.c **** 
1096:../tasks/SDMMC/ff.c **** 
1097:../tasks/SDMMC/ff.c **** 	tbl = fp->cltbl + 1;	/* Top of CLMT */
 2294              		.loc 1 1097 0
 2295 0ca6 7B68     		ldr	r3, [r7, #4]
 2296 0ca8 D3F82432 		ldr	r3, [r3, #548]
 2297 0cac 0433     		adds	r3, r3, #4
 2298 0cae 3B61     		str	r3, [r7, #16]
1098:../tasks/SDMMC/ff.c **** 	cl = ofs / SS(fp->fs) / fp->fs->csize;	/* Cluster order from top of the file */
 2299              		.loc 1 1098 0
 2300 0cb0 3B68     		ldr	r3, [r7]
 2301 0cb2 5A0A     		lsrs	r2, r3, #9
 2302 0cb4 7B68     		ldr	r3, [r7, #4]
 2303 0cb6 D3F80032 		ldr	r3, [r3, #512]
 2304 0cba 93F80232 		ldrb	r3, [r3, #514]	@ zero_extendqisi2
 2305 0cbe B2FBF3F3 		udiv	r3, r2, r3
 2306 0cc2 7B61     		str	r3, [r7, #20]
 2307              	.L150:
1099:../tasks/SDMMC/ff.c **** 	for (;;) {
1100:../tasks/SDMMC/ff.c **** 		ncl = *tbl++;			/* Number of cluters in the fragment */
 2308              		.loc 1 1100 0
 2309 0cc4 3B69     		ldr	r3, [r7, #16]
 2310 0cc6 1A1D     		adds	r2, r3, #4
 2311 0cc8 3A61     		str	r2, [r7, #16]
 2312 0cca 1B68     		ldr	r3, [r3]
 2313 0ccc FB60     		str	r3, [r7, #12]
1101:../tasks/SDMMC/ff.c **** 		if (!ncl) return 0;		/* End of table? (error) */
 2314              		.loc 1 1101 0
 2315 0cce FB68     		ldr	r3, [r7, #12]
 2316 0cd0 002B     		cmp	r3, #0
 2317 0cd2 01D1     		bne	.L146
 2318              		.loc 1 1101 0 is_stmt 0 discriminator 1
 2319 0cd4 0023     		movs	r3, #0
 2320 0cd6 11E0     		b	.L147
 2321              	.L146:
1102:../tasks/SDMMC/ff.c **** 		if (cl < ncl) break;	/* In this fragment? */
 2322              		.loc 1 1102 0 is_stmt 1
 2323 0cd8 7A69     		ldr	r2, [r7, #20]
 2324 0cda FB68     		ldr	r3, [r7, #12]
 2325 0cdc 9A42     		cmp	r2, r3
 2326 0cde 05D2     		bcs	.L148
 2327              		.loc 1 1102 0 is_stmt 0 discriminator 1
 2328 0ce0 00BF     		nop
1103:../tasks/SDMMC/ff.c **** 		cl -= ncl; tbl++;		/* Next fragment */
1104:../tasks/SDMMC/ff.c **** 	}
1105:../tasks/SDMMC/ff.c **** 	return cl + *tbl;	/* Return the cluster number */
 2329              		.loc 1 1105 0 is_stmt 1 discriminator 1
 2330 0ce2 3B69     		ldr	r3, [r7, #16]
 2331 0ce4 1A68     		ldr	r2, [r3]
 2332 0ce6 7B69     		ldr	r3, [r7, #20]
 2333 0ce8 1344     		add	r3, r3, r2
 2334 0cea 07E0     		b	.L147
 2335              	.L148:
1103:../tasks/SDMMC/ff.c **** 		cl -= ncl; tbl++;		/* Next fragment */
 2336              		.loc 1 1103 0
 2337 0cec 7A69     		ldr	r2, [r7, #20]
 2338 0cee FB68     		ldr	r3, [r7, #12]
 2339 0cf0 D31A     		subs	r3, r2, r3
 2340 0cf2 7B61     		str	r3, [r7, #20]
 2341 0cf4 3B69     		ldr	r3, [r7, #16]
 2342 0cf6 0433     		adds	r3, r3, #4
 2343 0cf8 3B61     		str	r3, [r7, #16]
1104:../tasks/SDMMC/ff.c **** 	return cl + *tbl;	/* Return the cluster number */
 2344              		.loc 1 1104 0
 2345 0cfa E3E7     		b	.L150
 2346              	.L147:
1106:../tasks/SDMMC/ff.c **** }
 2347              		.loc 1 1106 0
 2348 0cfc 1846     		mov	r0, r3
 2349 0cfe 1C37     		adds	r7, r7, #28
 2350 0d00 BD46     		mov	sp, r7
 2351              		@ sp needed
 2352 0d02 5DF8047B 		ldr	r7, [sp], #4
 2353 0d06 7047     		bx	lr
 2354              		.cfi_endproc
 2355              	.LFE72:
 2357              		.align	2
 2358              		.thumb
 2359              		.thumb_func
 2361              	dir_sdi:
 2362              	.LFB73:
1107:../tasks/SDMMC/ff.c **** #endif	/* _USE_FASTSEEK */
1108:../tasks/SDMMC/ff.c **** 
1109:../tasks/SDMMC/ff.c **** 
1110:../tasks/SDMMC/ff.c **** 
1111:../tasks/SDMMC/ff.c **** 
1112:../tasks/SDMMC/ff.c **** /*-----------------------------------------------------------------------*/
1113:../tasks/SDMMC/ff.c **** /* Directory handling - Set directory index                              */
1114:../tasks/SDMMC/ff.c **** /*-----------------------------------------------------------------------*/
1115:../tasks/SDMMC/ff.c **** 
1116:../tasks/SDMMC/ff.c **** static
1117:../tasks/SDMMC/ff.c **** FRESULT dir_sdi (
1118:../tasks/SDMMC/ff.c **** 	DIR* dp,		/* Pointer to directory object */
1119:../tasks/SDMMC/ff.c **** 	WORD idx		/* Index of directory table */
1120:../tasks/SDMMC/ff.c **** )
1121:../tasks/SDMMC/ff.c **** {
 2363              		.loc 1 1121 0
 2364              		.cfi_startproc
 2365              		@ args = 0, pretend = 0, frame = 16
 2366              		@ frame_needed = 1, uses_anonymous_args = 0
 2367 0d08 80B5     		push	{r7, lr}
 2368              		.cfi_def_cfa_offset 8
 2369              		.cfi_offset 7, -8
 2370              		.cfi_offset 14, -4
 2371 0d0a 84B0     		sub	sp, sp, #16
 2372              		.cfi_def_cfa_offset 24
 2373 0d0c 00AF     		add	r7, sp, #0
 2374              		.cfi_def_cfa_register 7
 2375 0d0e 7860     		str	r0, [r7, #4]
 2376 0d10 0B46     		mov	r3, r1
 2377 0d12 7B80     		strh	r3, [r7, #2]	@ movhi
1122:../tasks/SDMMC/ff.c **** 	DWORD clst;
1123:../tasks/SDMMC/ff.c **** 	WORD ic;
1124:../tasks/SDMMC/ff.c **** 
1125:../tasks/SDMMC/ff.c **** 
1126:../tasks/SDMMC/ff.c **** 	dp->index = idx;
 2378              		.loc 1 1126 0
 2379 0d14 7B68     		ldr	r3, [r7, #4]
 2380 0d16 7A88     		ldrh	r2, [r7, #2]	@ movhi
 2381 0d18 A3F80622 		strh	r2, [r3, #518]	@ movhi
1127:../tasks/SDMMC/ff.c **** 	clst = dp->sclust;
 2382              		.loc 1 1127 0
 2383 0d1c 7B68     		ldr	r3, [r7, #4]
 2384 0d1e D3F80832 		ldr	r3, [r3, #520]
 2385 0d22 FB60     		str	r3, [r7, #12]
1128:../tasks/SDMMC/ff.c **** 	if (clst == 1 || clst >= dp->fs->n_fatent)	/* Check start cluster range */
 2386              		.loc 1 1128 0
 2387 0d24 FB68     		ldr	r3, [r7, #12]
 2388 0d26 012B     		cmp	r3, #1
 2389 0d28 07D0     		beq	.L152
 2390              		.loc 1 1128 0 is_stmt 0 discriminator 1
 2391 0d2a 7B68     		ldr	r3, [r7, #4]
 2392 0d2c D3F80032 		ldr	r3, [r3, #512]
 2393 0d30 D3F81822 		ldr	r2, [r3, #536]
 2394 0d34 FB68     		ldr	r3, [r7, #12]
 2395 0d36 9A42     		cmp	r2, r3
 2396 0d38 01D8     		bhi	.L153
 2397              	.L152:
1129:../tasks/SDMMC/ff.c **** 		return FR_INT_ERR;
 2398              		.loc 1 1129 0 is_stmt 1
 2399 0d3a 0223     		movs	r3, #2
 2400 0d3c 77E0     		b	.L154
 2401              	.L153:
1130:../tasks/SDMMC/ff.c **** 	if (!clst && dp->fs->fs_type == FS_FAT32)	/* Replace cluster# 0 with root cluster# if in FAT32 */
 2402              		.loc 1 1130 0
 2403 0d3e FB68     		ldr	r3, [r7, #12]
 2404 0d40 002B     		cmp	r3, #0
 2405 0d42 0CD1     		bne	.L155
 2406              		.loc 1 1130 0 is_stmt 0 discriminator 1
 2407 0d44 7B68     		ldr	r3, [r7, #4]
 2408 0d46 D3F80032 		ldr	r3, [r3, #512]
 2409 0d4a 93F80032 		ldrb	r3, [r3, #512]	@ zero_extendqisi2
 2410 0d4e 032B     		cmp	r3, #3
 2411 0d50 05D1     		bne	.L155
1131:../tasks/SDMMC/ff.c **** 		clst = dp->fs->dirbase;
 2412              		.loc 1 1131 0 is_stmt 1
 2413 0d52 7B68     		ldr	r3, [r7, #4]
 2414 0d54 D3F80032 		ldr	r3, [r3, #512]
 2415 0d58 D3F82832 		ldr	r3, [r3, #552]
 2416 0d5c FB60     		str	r3, [r7, #12]
 2417              	.L155:
1132:../tasks/SDMMC/ff.c **** 
1133:../tasks/SDMMC/ff.c **** 	if (clst == 0) {	/* Static table (root-directory in FAT12/16) */
 2418              		.loc 1 1133 0
 2419 0d5e FB68     		ldr	r3, [r7, #12]
 2420 0d60 002B     		cmp	r3, #0
 2421 0d62 1AD1     		bne	.L156
1134:../tasks/SDMMC/ff.c **** 		dp->clust = clst;
 2422              		.loc 1 1134 0
 2423 0d64 7B68     		ldr	r3, [r7, #4]
 2424 0d66 FA68     		ldr	r2, [r7, #12]
 2425 0d68 C3F80C22 		str	r2, [r3, #524]
1135:../tasks/SDMMC/ff.c **** 		if (idx >= dp->fs->n_rootdir)		/* Index is out of range */
 2426              		.loc 1 1135 0
 2427 0d6c 7B68     		ldr	r3, [r7, #4]
 2428 0d6e D3F80032 		ldr	r3, [r3, #512]
 2429 0d72 B3F80832 		ldrh	r3, [r3, #520]
 2430 0d76 7A88     		ldrh	r2, [r7, #2]
 2431 0d78 9A42     		cmp	r2, r3
 2432 0d7a 01D3     		bcc	.L157
1136:../tasks/SDMMC/ff.c **** 			return FR_INT_ERR;
 2433              		.loc 1 1136 0
 2434 0d7c 0223     		movs	r3, #2
 2435 0d7e 56E0     		b	.L154
 2436              	.L157:
1137:../tasks/SDMMC/ff.c **** 		dp->sect = dp->fs->dirbase + idx / (SS(dp->fs) / SZ_DIR);	/* Sector# */
 2437              		.loc 1 1137 0
 2438 0d80 7B68     		ldr	r3, [r7, #4]
 2439 0d82 D3F80032 		ldr	r3, [r3, #512]
 2440 0d86 D3F82822 		ldr	r2, [r3, #552]
 2441 0d8a 7B88     		ldrh	r3, [r7, #2]
 2442 0d8c 1B09     		lsrs	r3, r3, #4
 2443 0d8e 9BB2     		uxth	r3, r3
 2444 0d90 1A44     		add	r2, r2, r3
 2445 0d92 7B68     		ldr	r3, [r7, #4]
 2446 0d94 C3F81022 		str	r2, [r3, #528]
 2447 0d98 3DE0     		b	.L158
 2448              	.L156:
1138:../tasks/SDMMC/ff.c **** 	}
1139:../tasks/SDMMC/ff.c **** 	else {				/* Dynamic table (sub-dirs or root-directory in FAT32) */
1140:../tasks/SDMMC/ff.c **** 		ic = SS(dp->fs) / SZ_DIR * dp->fs->csize;	/* Entries per cluster */
 2449              		.loc 1 1140 0
 2450 0d9a 7B68     		ldr	r3, [r7, #4]
 2451 0d9c D3F80032 		ldr	r3, [r3, #512]
 2452 0da0 93F80232 		ldrb	r3, [r3, #514]	@ zero_extendqisi2
 2453 0da4 1B01     		lsls	r3, r3, #4
 2454 0da6 7B81     		strh	r3, [r7, #10]	@ movhi
1141:../tasks/SDMMC/ff.c **** 		while (idx >= ic) {	/* Follow cluster chain */
 2455              		.loc 1 1141 0
 2456 0da8 1EE0     		b	.L159
 2457              	.L163:
1142:../tasks/SDMMC/ff.c **** 			clst = get_fat(dp->fs, clst);				/* Get next cluster */
 2458              		.loc 1 1142 0
 2459 0daa 7B68     		ldr	r3, [r7, #4]
 2460 0dac D3F80032 		ldr	r3, [r3, #512]
 2461 0db0 1846     		mov	r0, r3
 2462 0db2 F968     		ldr	r1, [r7, #12]
 2463 0db4 FFF7FEFF 		bl	get_fat
 2464 0db8 F860     		str	r0, [r7, #12]
1143:../tasks/SDMMC/ff.c **** 			if (clst == 0xFFFFFFFF) return FR_DISK_ERR;	/* Disk error */
 2465              		.loc 1 1143 0
 2466 0dba FB68     		ldr	r3, [r7, #12]
 2467 0dbc B3F1FF3F 		cmp	r3, #-1
 2468 0dc0 01D1     		bne	.L160
 2469              		.loc 1 1143 0 is_stmt 0 discriminator 1
 2470 0dc2 0123     		movs	r3, #1
 2471 0dc4 33E0     		b	.L154
 2472              	.L160:
1144:../tasks/SDMMC/ff.c **** 			if (clst < 2 || clst >= dp->fs->n_fatent)	/* Reached to end of table or int error */
 2473              		.loc 1 1144 0 is_stmt 1
 2474 0dc6 FB68     		ldr	r3, [r7, #12]
 2475 0dc8 012B     		cmp	r3, #1
 2476 0dca 07D9     		bls	.L161
 2477              		.loc 1 1144 0 is_stmt 0 discriminator 1
 2478 0dcc 7B68     		ldr	r3, [r7, #4]
 2479 0dce D3F80032 		ldr	r3, [r3, #512]
 2480 0dd2 D3F81822 		ldr	r2, [r3, #536]
 2481 0dd6 FB68     		ldr	r3, [r7, #12]
 2482 0dd8 9A42     		cmp	r2, r3
 2483 0dda 01D8     		bhi	.L162
 2484              	.L161:
1145:../tasks/SDMMC/ff.c **** 				return FR_INT_ERR;
 2485              		.loc 1 1145 0 is_stmt 1
 2486 0ddc 0223     		movs	r3, #2
 2487 0dde 26E0     		b	.L154
 2488              	.L162:
1146:../tasks/SDMMC/ff.c **** 			idx -= ic;
 2489              		.loc 1 1146 0
 2490 0de0 7A88     		ldrh	r2, [r7, #2]	@ movhi
 2491 0de2 7B89     		ldrh	r3, [r7, #10]	@ movhi
 2492 0de4 D31A     		subs	r3, r2, r3
 2493 0de6 7B80     		strh	r3, [r7, #2]	@ movhi
 2494              	.L159:
1141:../tasks/SDMMC/ff.c **** 			clst = get_fat(dp->fs, clst);				/* Get next cluster */
 2495              		.loc 1 1141 0 discriminator 1
 2496 0de8 7A88     		ldrh	r2, [r7, #2]
 2497 0dea 7B89     		ldrh	r3, [r7, #10]
 2498 0dec 9A42     		cmp	r2, r3
 2499 0dee DCD2     		bcs	.L163
1147:../tasks/SDMMC/ff.c **** 		}
1148:../tasks/SDMMC/ff.c **** 		dp->clust = clst;
 2500              		.loc 1 1148 0
 2501 0df0 7B68     		ldr	r3, [r7, #4]
 2502 0df2 FA68     		ldr	r2, [r7, #12]
 2503 0df4 C3F80C22 		str	r2, [r3, #524]
1149:../tasks/SDMMC/ff.c **** 		dp->sect = clust2sect(dp->fs, clst) + idx / (SS(dp->fs) / SZ_DIR);	/* Sector# */
 2504              		.loc 1 1149 0
 2505 0df8 7B68     		ldr	r3, [r7, #4]
 2506 0dfa D3F80032 		ldr	r3, [r3, #512]
 2507 0dfe 1846     		mov	r0, r3
 2508 0e00 F968     		ldr	r1, [r7, #12]
 2509 0e02 FFF7FEFF 		bl	clust2sect
 2510 0e06 0246     		mov	r2, r0
 2511 0e08 7B88     		ldrh	r3, [r7, #2]
 2512 0e0a 1B09     		lsrs	r3, r3, #4
 2513 0e0c 9BB2     		uxth	r3, r3
 2514 0e0e 1A44     		add	r2, r2, r3
 2515 0e10 7B68     		ldr	r3, [r7, #4]
 2516 0e12 C3F81022 		str	r2, [r3, #528]
 2517              	.L158:
1150:../tasks/SDMMC/ff.c **** 	}
1151:../tasks/SDMMC/ff.c **** 
1152:../tasks/SDMMC/ff.c **** 	dp->dir = dp->fs->win.d8 + (idx % (SS(dp->fs) / SZ_DIR)) * SZ_DIR;	/* Ptr to the entry in the sect
 2518              		.loc 1 1152 0
 2519 0e16 7B68     		ldr	r3, [r7, #4]
 2520 0e18 D3F80022 		ldr	r2, [r3, #512]
 2521 0e1c 7B88     		ldrh	r3, [r7, #2]
 2522 0e1e 03F00F03 		and	r3, r3, #15
 2523 0e22 5B01     		lsls	r3, r3, #5
 2524 0e24 1A44     		add	r2, r2, r3
 2525 0e26 7B68     		ldr	r3, [r7, #4]
 2526 0e28 C3F81422 		str	r2, [r3, #532]
1153:../tasks/SDMMC/ff.c **** 
1154:../tasks/SDMMC/ff.c **** 	return FR_OK;	/* Seek succeeded */
 2527              		.loc 1 1154 0
 2528 0e2c 0023     		movs	r3, #0
 2529              	.L154:
1155:../tasks/SDMMC/ff.c **** }
 2530              		.loc 1 1155 0
 2531 0e2e 1846     		mov	r0, r3
 2532 0e30 1037     		adds	r7, r7, #16
 2533 0e32 BD46     		mov	sp, r7
 2534              		@ sp needed
 2535 0e34 80BD     		pop	{r7, pc}
 2536              		.cfi_endproc
 2537              	.LFE73:
 2539 0e36 00BF     		.align	2
 2540              		.thumb
 2541              		.thumb_func
 2543              	dir_next:
 2544              	.LFB74:
1156:../tasks/SDMMC/ff.c **** 
1157:../tasks/SDMMC/ff.c **** 
1158:../tasks/SDMMC/ff.c **** 
1159:../tasks/SDMMC/ff.c **** 
1160:../tasks/SDMMC/ff.c **** /*-----------------------------------------------------------------------*/
1161:../tasks/SDMMC/ff.c **** /* Directory handling - Move directory table index next                  */
1162:../tasks/SDMMC/ff.c **** /*-----------------------------------------------------------------------*/
1163:../tasks/SDMMC/ff.c **** 
1164:../tasks/SDMMC/ff.c **** static
1165:../tasks/SDMMC/ff.c **** FRESULT dir_next (	/* FR_OK:Succeeded, FR_NO_FILE:End of table, FR_DENIED:Could not stretch */
1166:../tasks/SDMMC/ff.c **** 	DIR* dp,		/* Pointer to the directory object */
1167:../tasks/SDMMC/ff.c **** 	int stretch		/* 0: Do not stretch table, 1: Stretch table if needed */
1168:../tasks/SDMMC/ff.c **** )
1169:../tasks/SDMMC/ff.c **** {
 2545              		.loc 1 1169 0
 2546              		.cfi_startproc
 2547              		@ args = 0, pretend = 0, frame = 16
 2548              		@ frame_needed = 1, uses_anonymous_args = 0
 2549 0e38 90B5     		push	{r4, r7, lr}
 2550              		.cfi_def_cfa_offset 12
 2551              		.cfi_offset 4, -12
 2552              		.cfi_offset 7, -8
 2553              		.cfi_offset 14, -4
 2554 0e3a 85B0     		sub	sp, sp, #20
 2555              		.cfi_def_cfa_offset 32
 2556 0e3c 00AF     		add	r7, sp, #0
 2557              		.cfi_def_cfa_register 7
 2558 0e3e 7860     		str	r0, [r7, #4]
 2559 0e40 3960     		str	r1, [r7]
1170:../tasks/SDMMC/ff.c **** 	DWORD clst;
1171:../tasks/SDMMC/ff.c **** 	WORD i;
1172:../tasks/SDMMC/ff.c **** 
1173:../tasks/SDMMC/ff.c **** 
1174:../tasks/SDMMC/ff.c **** 	i = dp->index + 1;
 2560              		.loc 1 1174 0
 2561 0e42 7B68     		ldr	r3, [r7, #4]
 2562 0e44 B3F80632 		ldrh	r3, [r3, #518]
 2563 0e48 0133     		adds	r3, r3, #1
 2564 0e4a 3B81     		strh	r3, [r7, #8]	@ movhi
1175:../tasks/SDMMC/ff.c **** 	if (!i || !dp->sect)	/* Report EOT when index has reached 65535 */
 2565              		.loc 1 1175 0
 2566 0e4c 3B89     		ldrh	r3, [r7, #8]
 2567 0e4e 002B     		cmp	r3, #0
 2568 0e50 04D0     		beq	.L165
 2569              		.loc 1 1175 0 is_stmt 0 discriminator 1
 2570 0e52 7B68     		ldr	r3, [r7, #4]
 2571 0e54 D3F81032 		ldr	r3, [r3, #528]
 2572 0e58 002B     		cmp	r3, #0
 2573 0e5a 01D1     		bne	.L166
 2574              	.L165:
1176:../tasks/SDMMC/ff.c **** 		return FR_NO_FILE;
 2575              		.loc 1 1176 0 is_stmt 1
 2576 0e5c 0423     		movs	r3, #4
 2577 0e5e DCE0     		b	.L167
 2578              	.L166:
1177:../tasks/SDMMC/ff.c **** 
1178:../tasks/SDMMC/ff.c **** 	if (!(i % (SS(dp->fs) / SZ_DIR))) {	/* Sector changed? */
 2579              		.loc 1 1178 0
 2580 0e60 3B89     		ldrh	r3, [r7, #8]	@ movhi
 2581 0e62 03F00F03 		and	r3, r3, #15
 2582 0e66 9BB2     		uxth	r3, r3
 2583 0e68 002B     		cmp	r3, #0
 2584 0e6a 40F0C680 		bne	.L168
1179:../tasks/SDMMC/ff.c **** 		dp->sect++;					/* Next sector */
 2585              		.loc 1 1179 0
 2586 0e6e 7B68     		ldr	r3, [r7, #4]
 2587 0e70 D3F81032 		ldr	r3, [r3, #528]
 2588 0e74 5A1C     		adds	r2, r3, #1
 2589 0e76 7B68     		ldr	r3, [r7, #4]
 2590 0e78 C3F81022 		str	r2, [r3, #528]
1180:../tasks/SDMMC/ff.c **** 
1181:../tasks/SDMMC/ff.c **** 		if (!dp->clust) {		/* Static table */
 2591              		.loc 1 1181 0
 2592 0e7c 7B68     		ldr	r3, [r7, #4]
 2593 0e7e D3F80C32 		ldr	r3, [r3, #524]
 2594 0e82 002B     		cmp	r3, #0
 2595 0e84 0AD1     		bne	.L169
1182:../tasks/SDMMC/ff.c **** 			if (i >= dp->fs->n_rootdir)	/* Report EOT if it reached end of static table */
 2596              		.loc 1 1182 0
 2597 0e86 7B68     		ldr	r3, [r7, #4]
 2598 0e88 D3F80032 		ldr	r3, [r3, #512]
 2599 0e8c B3F80832 		ldrh	r3, [r3, #520]
 2600 0e90 3A89     		ldrh	r2, [r7, #8]
 2601 0e92 9A42     		cmp	r2, r3
 2602 0e94 C0F0B180 		bcc	.L168
1183:../tasks/SDMMC/ff.c **** 				return FR_NO_FILE;
 2603              		.loc 1 1183 0
 2604 0e98 0423     		movs	r3, #4
 2605 0e9a BEE0     		b	.L167
 2606              	.L169:
1184:../tasks/SDMMC/ff.c **** 		}
1185:../tasks/SDMMC/ff.c **** 		else {					/* Dynamic table */
1186:../tasks/SDMMC/ff.c **** 			if (((i / (SS(dp->fs) / SZ_DIR)) & (dp->fs->csize - 1)) == 0) {	/* Cluster changed? */
 2607              		.loc 1 1186 0
 2608 0e9c 3B89     		ldrh	r3, [r7, #8]
 2609 0e9e 1B09     		lsrs	r3, r3, #4
 2610 0ea0 9BB2     		uxth	r3, r3
 2611 0ea2 1A46     		mov	r2, r3
 2612 0ea4 7B68     		ldr	r3, [r7, #4]
 2613 0ea6 D3F80032 		ldr	r3, [r3, #512]
 2614 0eaa 93F80232 		ldrb	r3, [r3, #514]	@ zero_extendqisi2
 2615 0eae 013B     		subs	r3, r3, #1
 2616 0eb0 1340     		ands	r3, r3, r2
 2617 0eb2 002B     		cmp	r3, #0
 2618 0eb4 40F0A180 		bne	.L168
1187:../tasks/SDMMC/ff.c **** 				clst = get_fat(dp->fs, dp->clust);				/* Get next cluster */
 2619              		.loc 1 1187 0
 2620 0eb8 7B68     		ldr	r3, [r7, #4]
 2621 0eba D3F80022 		ldr	r2, [r3, #512]
 2622 0ebe 7B68     		ldr	r3, [r7, #4]
 2623 0ec0 D3F80C32 		ldr	r3, [r3, #524]
 2624 0ec4 1046     		mov	r0, r2
 2625 0ec6 1946     		mov	r1, r3
 2626 0ec8 FFF7FEFF 		bl	get_fat
 2627 0ecc F860     		str	r0, [r7, #12]
1188:../tasks/SDMMC/ff.c **** 				if (clst <= 1) return FR_INT_ERR;
 2628              		.loc 1 1188 0
 2629 0ece FB68     		ldr	r3, [r7, #12]
 2630 0ed0 012B     		cmp	r3, #1
 2631 0ed2 01D8     		bhi	.L170
 2632              		.loc 1 1188 0 is_stmt 0 discriminator 1
 2633 0ed4 0223     		movs	r3, #2
 2634 0ed6 A0E0     		b	.L167
 2635              	.L170:
1189:../tasks/SDMMC/ff.c **** 				if (clst == 0xFFFFFFFF) return FR_DISK_ERR;
 2636              		.loc 1 1189 0 is_stmt 1
 2637 0ed8 FB68     		ldr	r3, [r7, #12]
 2638 0eda B3F1FF3F 		cmp	r3, #-1
 2639 0ede 01D1     		bne	.L171
 2640              		.loc 1 1189 0 is_stmt 0 discriminator 1
 2641 0ee0 0123     		movs	r3, #1
 2642 0ee2 9AE0     		b	.L167
 2643              	.L171:
1190:../tasks/SDMMC/ff.c **** 				if (clst >= dp->fs->n_fatent) {					/* If it reached end of dynamic table, */
 2644              		.loc 1 1190 0 is_stmt 1
 2645 0ee4 7B68     		ldr	r3, [r7, #4]
 2646 0ee6 D3F80032 		ldr	r3, [r3, #512]
 2647 0eea D3F81822 		ldr	r2, [r3, #536]
 2648 0eee FB68     		ldr	r3, [r7, #12]
 2649 0ef0 9A42     		cmp	r2, r3
 2650 0ef2 73D8     		bhi	.L172
 2651              	.LBB2:
1191:../tasks/SDMMC/ff.c **** #if !_FS_READONLY
1192:../tasks/SDMMC/ff.c **** 					BYTE c;
1193:../tasks/SDMMC/ff.c **** 					if (!stretch) return FR_NO_FILE;			/* If do not stretch, report EOT */
 2652              		.loc 1 1193 0
 2653 0ef4 3B68     		ldr	r3, [r7]
 2654 0ef6 002B     		cmp	r3, #0
 2655 0ef8 01D1     		bne	.L173
 2656              		.loc 1 1193 0 is_stmt 0 discriminator 1
 2657 0efa 0423     		movs	r3, #4
 2658 0efc 8DE0     		b	.L167
 2659              	.L173:
1194:../tasks/SDMMC/ff.c **** 					clst = create_chain(dp->fs, dp->clust);		/* Stretch cluster chain */
 2660              		.loc 1 1194 0 is_stmt 1
 2661 0efe 7B68     		ldr	r3, [r7, #4]
 2662 0f00 D3F80022 		ldr	r2, [r3, #512]
 2663 0f04 7B68     		ldr	r3, [r7, #4]
 2664 0f06 D3F80C32 		ldr	r3, [r3, #524]
 2665 0f0a 1046     		mov	r0, r2
 2666 0f0c 1946     		mov	r1, r3
 2667 0f0e FFF72BFE 		bl	create_chain
 2668 0f12 F860     		str	r0, [r7, #12]
1195:../tasks/SDMMC/ff.c **** 					if (clst == 0) return FR_DENIED;			/* No free cluster */
 2669              		.loc 1 1195 0
 2670 0f14 FB68     		ldr	r3, [r7, #12]
 2671 0f16 002B     		cmp	r3, #0
 2672 0f18 01D1     		bne	.L174
 2673              		.loc 1 1195 0 is_stmt 0 discriminator 1
 2674 0f1a 0723     		movs	r3, #7
 2675 0f1c 7DE0     		b	.L167
 2676              	.L174:
1196:../tasks/SDMMC/ff.c **** 					if (clst == 1) return FR_INT_ERR;
 2677              		.loc 1 1196 0 is_stmt 1
 2678 0f1e FB68     		ldr	r3, [r7, #12]
 2679 0f20 012B     		cmp	r3, #1
 2680 0f22 01D1     		bne	.L175
 2681              		.loc 1 1196 0 is_stmt 0 discriminator 1
 2682 0f24 0223     		movs	r3, #2
 2683 0f26 78E0     		b	.L167
 2684              	.L175:
1197:../tasks/SDMMC/ff.c **** 					if (clst == 0xFFFFFFFF) return FR_DISK_ERR;
 2685              		.loc 1 1197 0 is_stmt 1
 2686 0f28 FB68     		ldr	r3, [r7, #12]
 2687 0f2a B3F1FF3F 		cmp	r3, #-1
 2688 0f2e 01D1     		bne	.L176
 2689              		.loc 1 1197 0 is_stmt 0 discriminator 1
 2690 0f30 0123     		movs	r3, #1
 2691 0f32 72E0     		b	.L167
 2692              	.L176:
1198:../tasks/SDMMC/ff.c **** 					/* Clean-up stretched table */
1199:../tasks/SDMMC/ff.c **** 					if (sync_window(dp->fs)) return FR_DISK_ERR;/* Flush disk access window */
 2693              		.loc 1 1199 0 is_stmt 1
 2694 0f34 7B68     		ldr	r3, [r7, #4]
 2695 0f36 D3F80032 		ldr	r3, [r3, #512]
 2696 0f3a 1846     		mov	r0, r3
 2697 0f3c FFF7CAFA 		bl	sync_window
 2698 0f40 0346     		mov	r3, r0
 2699 0f42 002B     		cmp	r3, #0
 2700 0f44 01D0     		beq	.L177
 2701              		.loc 1 1199 0 is_stmt 0 discriminator 1
 2702 0f46 0123     		movs	r3, #1
 2703 0f48 67E0     		b	.L167
 2704              	.L177:
1200:../tasks/SDMMC/ff.c **** 					mem_set(dp->fs->win.d8, 0, SS(dp->fs));		/* Clear window buffer */
 2705              		.loc 1 1200 0 is_stmt 1
 2706 0f4a 7B68     		ldr	r3, [r7, #4]
 2707 0f4c D3F80032 		ldr	r3, [r3, #512]
 2708 0f50 1846     		mov	r0, r3
 2709 0f52 0021     		movs	r1, #0
 2710 0f54 4FF40072 		mov	r2, #512
 2711 0f58 FFF770F8 		bl	mem_set
1201:../tasks/SDMMC/ff.c **** 					dp->fs->winsect = clust2sect(dp->fs, clst);	/* Cluster start sector */
 2712              		.loc 1 1201 0
 2713 0f5c 7B68     		ldr	r3, [r7, #4]
 2714 0f5e D3F80042 		ldr	r4, [r3, #512]
 2715 0f62 7B68     		ldr	r3, [r7, #4]
 2716 0f64 D3F80032 		ldr	r3, [r3, #512]
 2717 0f68 1846     		mov	r0, r3
 2718 0f6a F968     		ldr	r1, [r7, #12]
 2719 0f6c FFF7FEFF 		bl	clust2sect
 2720 0f70 0346     		mov	r3, r0
 2721 0f72 C4F83032 		str	r3, [r4, #560]
1202:../tasks/SDMMC/ff.c **** 					for (c = 0; c < dp->fs->csize; c++) {		/* Fill the new cluster with 0 */
 2722              		.loc 1 1202 0
 2723 0f76 0023     		movs	r3, #0
 2724 0f78 FB72     		strb	r3, [r7, #11]
 2725 0f7a 1BE0     		b	.L178
 2726              	.L180:
1203:../tasks/SDMMC/ff.c **** 						dp->fs->wflag = 1;
 2727              		.loc 1 1203 0
 2728 0f7c 7B68     		ldr	r3, [r7, #4]
 2729 0f7e D3F80032 		ldr	r3, [r3, #512]
 2730 0f82 0122     		movs	r2, #1
 2731 0f84 83F80422 		strb	r2, [r3, #516]
1204:../tasks/SDMMC/ff.c **** 						if (sync_window(dp->fs)) return FR_DISK_ERR;
 2732              		.loc 1 1204 0
 2733 0f88 7B68     		ldr	r3, [r7, #4]
 2734 0f8a D3F80032 		ldr	r3, [r3, #512]
 2735 0f8e 1846     		mov	r0, r3
 2736 0f90 FFF7A0FA 		bl	sync_window
 2737 0f94 0346     		mov	r3, r0
 2738 0f96 002B     		cmp	r3, #0
 2739 0f98 01D0     		beq	.L179
 2740              		.loc 1 1204 0 is_stmt 0 discriminator 1
 2741 0f9a 0123     		movs	r3, #1
 2742 0f9c 3DE0     		b	.L167
 2743              	.L179:
1205:../tasks/SDMMC/ff.c **** 						dp->fs->winsect++;
 2744              		.loc 1 1205 0 is_stmt 1
 2745 0f9e 7B68     		ldr	r3, [r7, #4]
 2746 0fa0 D3F80032 		ldr	r3, [r3, #512]
 2747 0fa4 D3F83022 		ldr	r2, [r3, #560]
 2748 0fa8 0132     		adds	r2, r2, #1
 2749 0faa C3F83022 		str	r2, [r3, #560]
1202:../tasks/SDMMC/ff.c **** 						dp->fs->wflag = 1;
 2750              		.loc 1 1202 0
 2751 0fae FB7A     		ldrb	r3, [r7, #11]	@ zero_extendqisi2
 2752 0fb0 0133     		adds	r3, r3, #1
 2753 0fb2 FB72     		strb	r3, [r7, #11]
 2754              	.L178:
1202:../tasks/SDMMC/ff.c **** 						dp->fs->wflag = 1;
 2755              		.loc 1 1202 0 is_stmt 0 discriminator 1
 2756 0fb4 7B68     		ldr	r3, [r7, #4]
 2757 0fb6 D3F80032 		ldr	r3, [r3, #512]
 2758 0fba 93F80232 		ldrb	r3, [r3, #514]	@ zero_extendqisi2
 2759 0fbe FA7A     		ldrb	r2, [r7, #11]	@ zero_extendqisi2
 2760 0fc0 9A42     		cmp	r2, r3
 2761 0fc2 DBD3     		bcc	.L180
1206:../tasks/SDMMC/ff.c **** 					}
1207:../tasks/SDMMC/ff.c **** 					dp->fs->winsect -= c;						/* Rewind window offset */
 2762              		.loc 1 1207 0 is_stmt 1
 2763 0fc4 7B68     		ldr	r3, [r7, #4]
 2764 0fc6 D3F80032 		ldr	r3, [r3, #512]
 2765 0fca 7A68     		ldr	r2, [r7, #4]
 2766 0fcc D2F80022 		ldr	r2, [r2, #512]
 2767 0fd0 D2F83012 		ldr	r1, [r2, #560]
 2768 0fd4 FA7A     		ldrb	r2, [r7, #11]	@ zero_extendqisi2
 2769 0fd6 8A1A     		subs	r2, r1, r2
 2770 0fd8 C3F83022 		str	r2, [r3, #560]
 2771              	.L172:
 2772              	.LBE2:
1208:../tasks/SDMMC/ff.c **** #else
1209:../tasks/SDMMC/ff.c **** 					if (!stretch) return FR_NO_FILE;			/* If do not stretch, report EOT */
1210:../tasks/SDMMC/ff.c **** 					return FR_NO_FILE;							/* Report EOT */
1211:../tasks/SDMMC/ff.c **** #endif
1212:../tasks/SDMMC/ff.c **** 				}
1213:../tasks/SDMMC/ff.c **** 				dp->clust = clst;				/* Initialize data for new cluster */
 2773              		.loc 1 1213 0
 2774 0fdc 7B68     		ldr	r3, [r7, #4]
 2775 0fde FA68     		ldr	r2, [r7, #12]
 2776 0fe0 C3F80C22 		str	r2, [r3, #524]
1214:../tasks/SDMMC/ff.c **** 				dp->sect = clust2sect(dp->fs, clst);
 2777              		.loc 1 1214 0
 2778 0fe4 7B68     		ldr	r3, [r7, #4]
 2779 0fe6 D3F80032 		ldr	r3, [r3, #512]
 2780 0fea 1846     		mov	r0, r3
 2781 0fec F968     		ldr	r1, [r7, #12]
 2782 0fee FFF7FEFF 		bl	clust2sect
 2783 0ff2 0246     		mov	r2, r0
 2784 0ff4 7B68     		ldr	r3, [r7, #4]
 2785 0ff6 C3F81022 		str	r2, [r3, #528]
 2786              	.L168:
1215:../tasks/SDMMC/ff.c **** 			}
1216:../tasks/SDMMC/ff.c **** 		}
1217:../tasks/SDMMC/ff.c **** 	}
1218:../tasks/SDMMC/ff.c **** 
1219:../tasks/SDMMC/ff.c **** 	dp->index = i;	/* Current index */
 2787              		.loc 1 1219 0
 2788 0ffa 7B68     		ldr	r3, [r7, #4]
 2789 0ffc 3A89     		ldrh	r2, [r7, #8]	@ movhi
 2790 0ffe A3F80622 		strh	r2, [r3, #518]	@ movhi
1220:../tasks/SDMMC/ff.c **** 	dp->dir = dp->fs->win.d8 + (i % (SS(dp->fs) / SZ_DIR)) * SZ_DIR;	/* Current entry in the window */
 2791              		.loc 1 1220 0
 2792 1002 7B68     		ldr	r3, [r7, #4]
 2793 1004 D3F80022 		ldr	r2, [r3, #512]
 2794 1008 3B89     		ldrh	r3, [r7, #8]
 2795 100a 03F00F03 		and	r3, r3, #15
 2796 100e 5B01     		lsls	r3, r3, #5
 2797 1010 1A44     		add	r2, r2, r3
 2798 1012 7B68     		ldr	r3, [r7, #4]
 2799 1014 C3F81422 		str	r2, [r3, #532]
1221:../tasks/SDMMC/ff.c **** 
1222:../tasks/SDMMC/ff.c **** 	return FR_OK;
 2800              		.loc 1 1222 0
 2801 1018 0023     		movs	r3, #0
 2802              	.L167:
1223:../tasks/SDMMC/ff.c **** }
 2803              		.loc 1 1223 0
 2804 101a 1846     		mov	r0, r3
 2805 101c 1437     		adds	r7, r7, #20
 2806 101e BD46     		mov	sp, r7
 2807              		@ sp needed
 2808 1020 90BD     		pop	{r4, r7, pc}
 2809              		.cfi_endproc
 2810              	.LFE74:
 2812 1022 00BF     		.align	2
 2813              		.thumb
 2814              		.thumb_func
 2816              	dir_alloc:
 2817              	.LFB75:
1224:../tasks/SDMMC/ff.c **** 
1225:../tasks/SDMMC/ff.c **** 
1226:../tasks/SDMMC/ff.c **** 
1227:../tasks/SDMMC/ff.c **** 
1228:../tasks/SDMMC/ff.c **** /*-----------------------------------------------------------------------*/
1229:../tasks/SDMMC/ff.c **** /* Directory handling - Reserve directory entry                          */
1230:../tasks/SDMMC/ff.c **** /*-----------------------------------------------------------------------*/
1231:../tasks/SDMMC/ff.c **** 
1232:../tasks/SDMMC/ff.c **** #if !_FS_READONLY
1233:../tasks/SDMMC/ff.c **** static
1234:../tasks/SDMMC/ff.c **** FRESULT dir_alloc (
1235:../tasks/SDMMC/ff.c **** 	DIR* dp,	/* Pointer to the directory object */
1236:../tasks/SDMMC/ff.c **** 	UINT nent	/* Number of contiguous entries to allocate (1-21) */
1237:../tasks/SDMMC/ff.c **** )
1238:../tasks/SDMMC/ff.c **** {
 2818              		.loc 1 1238 0
 2819              		.cfi_startproc
 2820              		@ args = 0, pretend = 0, frame = 16
 2821              		@ frame_needed = 1, uses_anonymous_args = 0
 2822 1024 80B5     		push	{r7, lr}
 2823              		.cfi_def_cfa_offset 8
 2824              		.cfi_offset 7, -8
 2825              		.cfi_offset 14, -4
 2826 1026 84B0     		sub	sp, sp, #16
 2827              		.cfi_def_cfa_offset 24
 2828 1028 00AF     		add	r7, sp, #0
 2829              		.cfi_def_cfa_register 7
 2830 102a 7860     		str	r0, [r7, #4]
 2831 102c 3960     		str	r1, [r7]
1239:../tasks/SDMMC/ff.c **** 	FRESULT res;
1240:../tasks/SDMMC/ff.c **** 	UINT n;
1241:../tasks/SDMMC/ff.c **** 
1242:../tasks/SDMMC/ff.c **** 
1243:../tasks/SDMMC/ff.c **** 	res = dir_sdi(dp, 0);
 2832              		.loc 1 1243 0
 2833 102e 7868     		ldr	r0, [r7, #4]
 2834 1030 0021     		movs	r1, #0
 2835 1032 FFF769FE 		bl	dir_sdi
 2836 1036 0346     		mov	r3, r0
 2837 1038 FB73     		strb	r3, [r7, #15]
1244:../tasks/SDMMC/ff.c **** 	if (res == FR_OK) {
 2838              		.loc 1 1244 0
 2839 103a FB7B     		ldrb	r3, [r7, #15]	@ zero_extendqisi2
 2840 103c 002B     		cmp	r3, #0
 2841 103e 31D1     		bne	.L182
1245:../tasks/SDMMC/ff.c **** 		n = 0;
 2842              		.loc 1 1245 0
 2843 1040 0023     		movs	r3, #0
 2844 1042 BB60     		str	r3, [r7, #8]
 2845              	.L188:
1246:../tasks/SDMMC/ff.c **** 		do {
1247:../tasks/SDMMC/ff.c **** 			res = move_window(dp->fs, dp->sect);
 2846              		.loc 1 1247 0
 2847 1044 7B68     		ldr	r3, [r7, #4]
 2848 1046 D3F80022 		ldr	r2, [r3, #512]
 2849 104a 7B68     		ldr	r3, [r7, #4]
 2850 104c D3F81032 		ldr	r3, [r3, #528]
 2851 1050 1046     		mov	r0, r2
 2852 1052 1946     		mov	r1, r3
 2853 1054 FFF788FA 		bl	move_window
 2854 1058 0346     		mov	r3, r0
 2855 105a FB73     		strb	r3, [r7, #15]
1248:../tasks/SDMMC/ff.c **** 			if (res != FR_OK) break;
 2856              		.loc 1 1248 0
 2857 105c FB7B     		ldrb	r3, [r7, #15]	@ zero_extendqisi2
 2858 105e 002B     		cmp	r3, #0
 2859 1060 00D0     		beq	.L183
 2860              		.loc 1 1248 0 is_stmt 0 discriminator 1
 2861 1062 1FE0     		b	.L182
 2862              	.L183:
1249:../tasks/SDMMC/ff.c **** 			if (dp->dir[0] == DDE || dp->dir[0] == 0) {	/* Is it a blank entry? */
 2863              		.loc 1 1249 0 is_stmt 1
 2864 1064 7B68     		ldr	r3, [r7, #4]
 2865 1066 D3F81432 		ldr	r3, [r3, #532]
 2866 106a 1B78     		ldrb	r3, [r3]	@ zero_extendqisi2
 2867 106c E52B     		cmp	r3, #229
 2868 106e 05D0     		beq	.L184
 2869              		.loc 1 1249 0 is_stmt 0 discriminator 1
 2870 1070 7B68     		ldr	r3, [r7, #4]
 2871 1072 D3F81432 		ldr	r3, [r3, #532]
 2872 1076 1B78     		ldrb	r3, [r3]	@ zero_extendqisi2
 2873 1078 002B     		cmp	r3, #0
 2874 107a 08D1     		bne	.L185
 2875              	.L184:
1250:../tasks/SDMMC/ff.c **** 				if (++n == nent) break;	/* A block of contiguous entries is found */
 2876              		.loc 1 1250 0 is_stmt 1
 2877 107c BB68     		ldr	r3, [r7, #8]
 2878 107e 0133     		adds	r3, r3, #1
 2879 1080 BB60     		str	r3, [r7, #8]
 2880 1082 BA68     		ldr	r2, [r7, #8]
 2881 1084 3B68     		ldr	r3, [r7]
 2882 1086 9A42     		cmp	r2, r3
 2883 1088 00D1     		bne	.L186
 2884              		.loc 1 1250 0 is_stmt 0 discriminator 1
 2885 108a 0BE0     		b	.L182
 2886              	.L186:
 2887              		.loc 1 1250 0 discriminator 2
 2888 108c 01E0     		b	.L187
 2889              	.L185:
1251:../tasks/SDMMC/ff.c **** 			} else {
1252:../tasks/SDMMC/ff.c **** 				n = 0;					/* Not a blank entry. Restart to search */
 2890              		.loc 1 1252 0 is_stmt 1
 2891 108e 0023     		movs	r3, #0
 2892 1090 BB60     		str	r3, [r7, #8]
 2893              	.L187:
1253:../tasks/SDMMC/ff.c **** 			}
1254:../tasks/SDMMC/ff.c **** 			res = dir_next(dp, 1);		/* Next entry with table stretch enabled */
 2894              		.loc 1 1254 0
 2895 1092 7868     		ldr	r0, [r7, #4]
 2896 1094 0121     		movs	r1, #1
 2897 1096 FFF7CFFE 		bl	dir_next
 2898 109a 0346     		mov	r3, r0
 2899 109c FB73     		strb	r3, [r7, #15]
1255:../tasks/SDMMC/ff.c **** 		} while (res == FR_OK);
 2900              		.loc 1 1255 0
 2901 109e FB7B     		ldrb	r3, [r7, #15]	@ zero_extendqisi2
 2902 10a0 002B     		cmp	r3, #0
 2903 10a2 CFD0     		beq	.L188
 2904              	.L182:
1256:../tasks/SDMMC/ff.c **** 	}
1257:../tasks/SDMMC/ff.c **** 	if (res == FR_NO_FILE) res = FR_DENIED;	/* No directory entry to allocate */
 2905              		.loc 1 1257 0
 2906 10a4 FB7B     		ldrb	r3, [r7, #15]	@ zero_extendqisi2
 2907 10a6 042B     		cmp	r3, #4
 2908 10a8 01D1     		bne	.L189
 2909              		.loc 1 1257 0 is_stmt 0 discriminator 1
 2910 10aa 0723     		movs	r3, #7
 2911 10ac FB73     		strb	r3, [r7, #15]
 2912              	.L189:
1258:../tasks/SDMMC/ff.c **** 	return res;
 2913              		.loc 1 1258 0 is_stmt 1
 2914 10ae FB7B     		ldrb	r3, [r7, #15]	@ zero_extendqisi2
1259:../tasks/SDMMC/ff.c **** }
 2915              		.loc 1 1259 0
 2916 10b0 1846     		mov	r0, r3
 2917 10b2 1037     		adds	r7, r7, #16
 2918 10b4 BD46     		mov	sp, r7
 2919              		@ sp needed
 2920 10b6 80BD     		pop	{r7, pc}
 2921              		.cfi_endproc
 2922              	.LFE75:
 2924              		.align	2
 2925              		.thumb
 2926              		.thumb_func
 2928              	ld_clust:
 2929              	.LFB76:
1260:../tasks/SDMMC/ff.c **** #endif
1261:../tasks/SDMMC/ff.c **** 
1262:../tasks/SDMMC/ff.c **** 
1263:../tasks/SDMMC/ff.c **** 
1264:../tasks/SDMMC/ff.c **** 
1265:../tasks/SDMMC/ff.c **** /*-----------------------------------------------------------------------*/
1266:../tasks/SDMMC/ff.c **** /* Directory handling - Load/Store start cluster number                  */
1267:../tasks/SDMMC/ff.c **** /*-----------------------------------------------------------------------*/
1268:../tasks/SDMMC/ff.c **** 
1269:../tasks/SDMMC/ff.c **** static
1270:../tasks/SDMMC/ff.c **** DWORD ld_clust (
1271:../tasks/SDMMC/ff.c **** 	FATFS* fs,	/* Pointer to the fs object */
1272:../tasks/SDMMC/ff.c **** 	BYTE* dir	/* Pointer to the directory entry */
1273:../tasks/SDMMC/ff.c **** )
1274:../tasks/SDMMC/ff.c **** {
 2930              		.loc 1 1274 0
 2931              		.cfi_startproc
 2932              		@ args = 0, pretend = 0, frame = 16
 2933              		@ frame_needed = 1, uses_anonymous_args = 0
 2934              		@ link register save eliminated.
 2935 10b8 80B4     		push	{r7}
 2936              		.cfi_def_cfa_offset 4
 2937              		.cfi_offset 7, -4
 2938 10ba 85B0     		sub	sp, sp, #20
 2939              		.cfi_def_cfa_offset 24
 2940 10bc 00AF     		add	r7, sp, #0
 2941              		.cfi_def_cfa_register 7
 2942 10be 7860     		str	r0, [r7, #4]
 2943 10c0 3960     		str	r1, [r7]
1275:../tasks/SDMMC/ff.c **** 	DWORD cl;
1276:../tasks/SDMMC/ff.c **** 
1277:../tasks/SDMMC/ff.c **** 	cl = LD_WORD(dir+DIR_FstClusLO);
 2944              		.loc 1 1277 0
 2945 10c2 3B68     		ldr	r3, [r7]
 2946 10c4 1B33     		adds	r3, r3, #27
 2947 10c6 1B78     		ldrb	r3, [r3]	@ zero_extendqisi2
 2948 10c8 1B02     		lsls	r3, r3, #8
 2949 10ca 9AB2     		uxth	r2, r3
 2950 10cc 3B68     		ldr	r3, [r7]
 2951 10ce 1A33     		adds	r3, r3, #26
 2952 10d0 1B78     		ldrb	r3, [r3]	@ zero_extendqisi2
 2953 10d2 1343     		orrs	r3, r3, r2
 2954 10d4 9BB2     		uxth	r3, r3
 2955 10d6 9BB2     		uxth	r3, r3
 2956 10d8 FB60     		str	r3, [r7, #12]
1278:../tasks/SDMMC/ff.c **** 	if (fs->fs_type == FS_FAT32)
 2957              		.loc 1 1278 0
 2958 10da 7B68     		ldr	r3, [r7, #4]
 2959 10dc 93F80032 		ldrb	r3, [r3, #512]	@ zero_extendqisi2
 2960 10e0 032B     		cmp	r3, #3
 2961 10e2 0ED1     		bne	.L192
1279:../tasks/SDMMC/ff.c **** 		cl |= (DWORD)LD_WORD(dir+DIR_FstClusHI) << 16;
 2962              		.loc 1 1279 0
 2963 10e4 3B68     		ldr	r3, [r7]
 2964 10e6 1533     		adds	r3, r3, #21
 2965 10e8 1B78     		ldrb	r3, [r3]	@ zero_extendqisi2
 2966 10ea 1B02     		lsls	r3, r3, #8
 2967 10ec 9AB2     		uxth	r2, r3
 2968 10ee 3B68     		ldr	r3, [r7]
 2969 10f0 1433     		adds	r3, r3, #20
 2970 10f2 1B78     		ldrb	r3, [r3]	@ zero_extendqisi2
 2971 10f4 1343     		orrs	r3, r3, r2
 2972 10f6 9BB2     		uxth	r3, r3
 2973 10f8 9BB2     		uxth	r3, r3
 2974 10fa 1B04     		lsls	r3, r3, #16
 2975 10fc FA68     		ldr	r2, [r7, #12]
 2976 10fe 1343     		orrs	r3, r3, r2
 2977 1100 FB60     		str	r3, [r7, #12]
 2978              	.L192:
1280:../tasks/SDMMC/ff.c **** 
1281:../tasks/SDMMC/ff.c **** 	return cl;
 2979              		.loc 1 1281 0
 2980 1102 FB68     		ldr	r3, [r7, #12]
1282:../tasks/SDMMC/ff.c **** }
 2981              		.loc 1 1282 0
 2982 1104 1846     		mov	r0, r3
 2983 1106 1437     		adds	r7, r7, #20
 2984 1108 BD46     		mov	sp, r7
 2985              		@ sp needed
 2986 110a 5DF8047B 		ldr	r7, [sp], #4
 2987 110e 7047     		bx	lr
 2988              		.cfi_endproc
 2989              	.LFE76:
 2991              		.align	2
 2992              		.thumb
 2993              		.thumb_func
 2995              	st_clust:
 2996              	.LFB77:
1283:../tasks/SDMMC/ff.c **** 
1284:../tasks/SDMMC/ff.c **** 
1285:../tasks/SDMMC/ff.c **** #if !_FS_READONLY
1286:../tasks/SDMMC/ff.c **** static
1287:../tasks/SDMMC/ff.c **** void st_clust (
1288:../tasks/SDMMC/ff.c **** 	BYTE* dir,	/* Pointer to the directory entry */
1289:../tasks/SDMMC/ff.c **** 	DWORD cl	/* Value to be set */
1290:../tasks/SDMMC/ff.c **** )
1291:../tasks/SDMMC/ff.c **** {
 2997              		.loc 1 1291 0
 2998              		.cfi_startproc
 2999              		@ args = 0, pretend = 0, frame = 8
 3000              		@ frame_needed = 1, uses_anonymous_args = 0
 3001              		@ link register save eliminated.
 3002 1110 80B4     		push	{r7}
 3003              		.cfi_def_cfa_offset 4
 3004              		.cfi_offset 7, -4
 3005 1112 83B0     		sub	sp, sp, #12
 3006              		.cfi_def_cfa_offset 16
 3007 1114 00AF     		add	r7, sp, #0
 3008              		.cfi_def_cfa_register 7
 3009 1116 7860     		str	r0, [r7, #4]
 3010 1118 3960     		str	r1, [r7]
1292:../tasks/SDMMC/ff.c **** 	ST_WORD(dir+DIR_FstClusLO, cl);
 3011              		.loc 1 1292 0
 3012 111a 7B68     		ldr	r3, [r7, #4]
 3013 111c 1A33     		adds	r3, r3, #26
 3014 111e 3A68     		ldr	r2, [r7]
 3015 1120 D2B2     		uxtb	r2, r2
 3016 1122 1A70     		strb	r2, [r3]
 3017 1124 7B68     		ldr	r3, [r7, #4]
 3018 1126 1B33     		adds	r3, r3, #27
 3019 1128 3A68     		ldr	r2, [r7]
 3020 112a 92B2     		uxth	r2, r2
 3021 112c 120A     		lsrs	r2, r2, #8
 3022 112e 92B2     		uxth	r2, r2
 3023 1130 D2B2     		uxtb	r2, r2
 3024 1132 1A70     		strb	r2, [r3]
1293:../tasks/SDMMC/ff.c **** 	ST_WORD(dir+DIR_FstClusHI, cl >> 16);
 3025              		.loc 1 1293 0
 3026 1134 7B68     		ldr	r3, [r7, #4]
 3027 1136 1433     		adds	r3, r3, #20
 3028 1138 3A68     		ldr	r2, [r7]
 3029 113a 120C     		lsrs	r2, r2, #16
 3030 113c D2B2     		uxtb	r2, r2
 3031 113e 1A70     		strb	r2, [r3]
 3032 1140 7B68     		ldr	r3, [r7, #4]
 3033 1142 1533     		adds	r3, r3, #21
 3034 1144 3A68     		ldr	r2, [r7]
 3035 1146 120C     		lsrs	r2, r2, #16
 3036 1148 92B2     		uxth	r2, r2
 3037 114a 120A     		lsrs	r2, r2, #8
 3038 114c 92B2     		uxth	r2, r2
 3039 114e D2B2     		uxtb	r2, r2
 3040 1150 1A70     		strb	r2, [r3]
1294:../tasks/SDMMC/ff.c **** }
 3041              		.loc 1 1294 0
 3042 1152 0C37     		adds	r7, r7, #12
 3043 1154 BD46     		mov	sp, r7
 3044              		@ sp needed
 3045 1156 5DF8047B 		ldr	r7, [sp], #4
 3046 115a 7047     		bx	lr
 3047              		.cfi_endproc
 3048              	.LFE77:
 3050              		.align	2
 3051              		.thumb
 3052              		.thumb_func
 3054              	dir_find:
 3055              	.LFB78:
1295:../tasks/SDMMC/ff.c **** #endif
1296:../tasks/SDMMC/ff.c **** 
1297:../tasks/SDMMC/ff.c **** 
1298:../tasks/SDMMC/ff.c **** 
1299:../tasks/SDMMC/ff.c **** 
1300:../tasks/SDMMC/ff.c **** /*-----------------------------------------------------------------------*/
1301:../tasks/SDMMC/ff.c **** /* LFN handling - Test/Pick/Fit an LFN segment from/to directory entry   */
1302:../tasks/SDMMC/ff.c **** /*-----------------------------------------------------------------------*/
1303:../tasks/SDMMC/ff.c **** #if _USE_LFN
1304:../tasks/SDMMC/ff.c **** static
1305:../tasks/SDMMC/ff.c **** const BYTE LfnOfs[] = {1,3,5,7,9,14,16,18,20,22,24,28,30};	/* Offset of LFN characters in the direc
1306:../tasks/SDMMC/ff.c **** 
1307:../tasks/SDMMC/ff.c **** 
1308:../tasks/SDMMC/ff.c **** static
1309:../tasks/SDMMC/ff.c **** int cmp_lfn (			/* 1:Matched, 0:Not matched */
1310:../tasks/SDMMC/ff.c **** 	WCHAR* lfnbuf,		/* Pointer to the LFN to be compared */
1311:../tasks/SDMMC/ff.c **** 	BYTE* dir			/* Pointer to the directory entry containing a part of LFN */
1312:../tasks/SDMMC/ff.c **** )
1313:../tasks/SDMMC/ff.c **** {
1314:../tasks/SDMMC/ff.c **** 	UINT i, s;
1315:../tasks/SDMMC/ff.c **** 	WCHAR wc, uc;
1316:../tasks/SDMMC/ff.c **** 
1317:../tasks/SDMMC/ff.c **** 
1318:../tasks/SDMMC/ff.c **** 	i = ((dir[LDIR_Ord] & ~LLE) - 1) * 13;	/* Get offset in the LFN buffer */
1319:../tasks/SDMMC/ff.c **** 	s = 0; wc = 1;
1320:../tasks/SDMMC/ff.c **** 	do {
1321:../tasks/SDMMC/ff.c **** 		uc = LD_WORD(dir+LfnOfs[s]);	/* Pick an LFN character from the entry */
1322:../tasks/SDMMC/ff.c **** 		if (wc) {	/* Last character has not been processed */
1323:../tasks/SDMMC/ff.c **** 			wc = ff_wtoupper(uc);		/* Convert it to upper case */
1324:../tasks/SDMMC/ff.c **** 			if (i >= _MAX_LFN || wc != ff_wtoupper(lfnbuf[i++]))	/* Compare it */
1325:../tasks/SDMMC/ff.c **** 				return 0;				/* Not matched */
1326:../tasks/SDMMC/ff.c **** 		} else {
1327:../tasks/SDMMC/ff.c **** 			if (uc != 0xFFFF) return 0;	/* Check filler */
1328:../tasks/SDMMC/ff.c **** 		}
1329:../tasks/SDMMC/ff.c **** 	} while (++s < 13);				/* Repeat until all characters in the entry are checked */
1330:../tasks/SDMMC/ff.c **** 
1331:../tasks/SDMMC/ff.c **** 	if ((dir[LDIR_Ord] & LLE) && wc && lfnbuf[i])	/* Last segment matched but different length */
1332:../tasks/SDMMC/ff.c **** 		return 0;
1333:../tasks/SDMMC/ff.c **** 
1334:../tasks/SDMMC/ff.c **** 	return 1;						/* The part of LFN matched */
1335:../tasks/SDMMC/ff.c **** }
1336:../tasks/SDMMC/ff.c **** 
1337:../tasks/SDMMC/ff.c **** 
1338:../tasks/SDMMC/ff.c **** 
1339:../tasks/SDMMC/ff.c **** static
1340:../tasks/SDMMC/ff.c **** int pick_lfn (			/* 1:Succeeded, 0:Buffer overflow */
1341:../tasks/SDMMC/ff.c **** 	WCHAR* lfnbuf,		/* Pointer to the Unicode-LFN buffer */
1342:../tasks/SDMMC/ff.c **** 	BYTE* dir			/* Pointer to the directory entry */
1343:../tasks/SDMMC/ff.c **** )
1344:../tasks/SDMMC/ff.c **** {
1345:../tasks/SDMMC/ff.c **** 	UINT i, s;
1346:../tasks/SDMMC/ff.c **** 	WCHAR wc, uc;
1347:../tasks/SDMMC/ff.c **** 
1348:../tasks/SDMMC/ff.c **** 
1349:../tasks/SDMMC/ff.c **** 	i = ((dir[LDIR_Ord] & 0x3F) - 1) * 13;	/* Offset in the LFN buffer */
1350:../tasks/SDMMC/ff.c **** 
1351:../tasks/SDMMC/ff.c **** 	s = 0; wc = 1;
1352:../tasks/SDMMC/ff.c **** 	do {
1353:../tasks/SDMMC/ff.c **** 		uc = LD_WORD(dir+LfnOfs[s]);		/* Pick an LFN character from the entry */
1354:../tasks/SDMMC/ff.c **** 		if (wc) {	/* Last character has not been processed */
1355:../tasks/SDMMC/ff.c **** 			if (i >= _MAX_LFN) return 0;	/* Buffer overflow? */
1356:../tasks/SDMMC/ff.c **** 			lfnbuf[i++] = wc = uc;			/* Store it */
1357:../tasks/SDMMC/ff.c **** 		} else {
1358:../tasks/SDMMC/ff.c **** 			if (uc != 0xFFFF) return 0;		/* Check filler */
1359:../tasks/SDMMC/ff.c **** 		}
1360:../tasks/SDMMC/ff.c **** 	} while (++s < 13);						/* Read all character in the entry */
1361:../tasks/SDMMC/ff.c **** 
1362:../tasks/SDMMC/ff.c **** 	if (dir[LDIR_Ord] & LLE) {				/* Put terminator if it is the last LFN part */
1363:../tasks/SDMMC/ff.c **** 		if (i >= _MAX_LFN) return 0;		/* Buffer overflow? */
1364:../tasks/SDMMC/ff.c **** 		lfnbuf[i] = 0;
1365:../tasks/SDMMC/ff.c **** 	}
1366:../tasks/SDMMC/ff.c **** 
1367:../tasks/SDMMC/ff.c **** 	return 1;
1368:../tasks/SDMMC/ff.c **** }
1369:../tasks/SDMMC/ff.c **** 
1370:../tasks/SDMMC/ff.c **** 
1371:../tasks/SDMMC/ff.c **** #if !_FS_READONLY
1372:../tasks/SDMMC/ff.c **** static
1373:../tasks/SDMMC/ff.c **** void fit_lfn (
1374:../tasks/SDMMC/ff.c **** 	const WCHAR* lfnbuf,	/* Pointer to the LFN buffer */
1375:../tasks/SDMMC/ff.c **** 	BYTE* dir,				/* Pointer to the directory entry */
1376:../tasks/SDMMC/ff.c **** 	BYTE ord,				/* LFN order (1-20) */
1377:../tasks/SDMMC/ff.c **** 	BYTE sum				/* SFN sum */
1378:../tasks/SDMMC/ff.c **** )
1379:../tasks/SDMMC/ff.c **** {
1380:../tasks/SDMMC/ff.c **** 	UINT i, s;
1381:../tasks/SDMMC/ff.c **** 	WCHAR wc;
1382:../tasks/SDMMC/ff.c **** 
1383:../tasks/SDMMC/ff.c **** 
1384:../tasks/SDMMC/ff.c **** 	dir[LDIR_Chksum] = sum;			/* Set check sum */
1385:../tasks/SDMMC/ff.c **** 	dir[LDIR_Attr] = AM_LFN;		/* Set attribute. LFN entry */
1386:../tasks/SDMMC/ff.c **** 	dir[LDIR_Type] = 0;
1387:../tasks/SDMMC/ff.c **** 	ST_WORD(dir+LDIR_FstClusLO, 0);
1388:../tasks/SDMMC/ff.c **** 
1389:../tasks/SDMMC/ff.c **** 	i = (ord - 1) * 13;				/* Get offset in the LFN buffer */
1390:../tasks/SDMMC/ff.c **** 	s = wc = 0;
1391:../tasks/SDMMC/ff.c **** 	do {
1392:../tasks/SDMMC/ff.c **** 		if (wc != 0xFFFF) wc = lfnbuf[i++];	/* Get an effective character */
1393:../tasks/SDMMC/ff.c **** 		ST_WORD(dir+LfnOfs[s], wc);	/* Put it */
1394:../tasks/SDMMC/ff.c **** 		if (!wc) wc = 0xFFFF;		/* Padding characters following last character */
1395:../tasks/SDMMC/ff.c **** 	} while (++s < 13);
1396:../tasks/SDMMC/ff.c **** 	if (wc == 0xFFFF || !lfnbuf[i]) ord |= LLE;	/* Bottom LFN part is the start of LFN sequence */
1397:../tasks/SDMMC/ff.c **** 	dir[LDIR_Ord] = ord;			/* Set the LFN order */
1398:../tasks/SDMMC/ff.c **** }
1399:../tasks/SDMMC/ff.c **** 
1400:../tasks/SDMMC/ff.c **** #endif
1401:../tasks/SDMMC/ff.c **** #endif
1402:../tasks/SDMMC/ff.c **** 
1403:../tasks/SDMMC/ff.c **** 
1404:../tasks/SDMMC/ff.c **** 
1405:../tasks/SDMMC/ff.c **** 
1406:../tasks/SDMMC/ff.c **** /*-----------------------------------------------------------------------*/
1407:../tasks/SDMMC/ff.c **** /* Create numbered name                                                  */
1408:../tasks/SDMMC/ff.c **** /*-----------------------------------------------------------------------*/
1409:../tasks/SDMMC/ff.c **** #if _USE_LFN
1410:../tasks/SDMMC/ff.c **** void gen_numname (
1411:../tasks/SDMMC/ff.c **** 	BYTE* dst,			/* Pointer to generated SFN */
1412:../tasks/SDMMC/ff.c **** 	const BYTE* src,	/* Pointer to source SFN to be modified */
1413:../tasks/SDMMC/ff.c **** 	const WCHAR* lfn,	/* Pointer to LFN */
1414:../tasks/SDMMC/ff.c **** 	WORD seq			/* Sequence number */
1415:../tasks/SDMMC/ff.c **** )
1416:../tasks/SDMMC/ff.c **** {
1417:../tasks/SDMMC/ff.c **** 	BYTE ns[8], c;
1418:../tasks/SDMMC/ff.c **** 	UINT i, j;
1419:../tasks/SDMMC/ff.c **** 
1420:../tasks/SDMMC/ff.c **** 
1421:../tasks/SDMMC/ff.c **** 	mem_cpy(dst, src, 11);
1422:../tasks/SDMMC/ff.c **** 
1423:../tasks/SDMMC/ff.c **** 	if (seq > 5) {	/* On many collisions, generate a hash number instead of sequential number */
1424:../tasks/SDMMC/ff.c **** 		do seq = (seq >> 1) + (seq << 15) + (WORD)*lfn++; while (*lfn);
1425:../tasks/SDMMC/ff.c **** 	}
1426:../tasks/SDMMC/ff.c **** 
1427:../tasks/SDMMC/ff.c **** 	/* itoa (hexdecimal) */
1428:../tasks/SDMMC/ff.c **** 	i = 7;
1429:../tasks/SDMMC/ff.c **** 	do {
1430:../tasks/SDMMC/ff.c **** 		c = (seq % 16) + '0';
1431:../tasks/SDMMC/ff.c **** 		if (c > '9') c += 7;
1432:../tasks/SDMMC/ff.c **** 		ns[i--] = c;
1433:../tasks/SDMMC/ff.c **** 		seq /= 16;
1434:../tasks/SDMMC/ff.c **** 	} while (seq);
1435:../tasks/SDMMC/ff.c **** 	ns[i] = '~';
1436:../tasks/SDMMC/ff.c **** 
1437:../tasks/SDMMC/ff.c **** 	/* Append the number */
1438:../tasks/SDMMC/ff.c **** 	for (j = 0; j < i && dst[j] != ' '; j++) {
1439:../tasks/SDMMC/ff.c **** 		if (IsDBCS1(dst[j])) {
1440:../tasks/SDMMC/ff.c **** 			if (j == i - 1) break;
1441:../tasks/SDMMC/ff.c **** 			j++;
1442:../tasks/SDMMC/ff.c **** 		}
1443:../tasks/SDMMC/ff.c **** 	}
1444:../tasks/SDMMC/ff.c **** 	do {
1445:../tasks/SDMMC/ff.c **** 		dst[j++] = (i < 8) ? ns[i++] : ' ';
1446:../tasks/SDMMC/ff.c **** 	} while (j < 8);
1447:../tasks/SDMMC/ff.c **** }
1448:../tasks/SDMMC/ff.c **** #endif
1449:../tasks/SDMMC/ff.c **** 
1450:../tasks/SDMMC/ff.c **** 
1451:../tasks/SDMMC/ff.c **** 
1452:../tasks/SDMMC/ff.c **** 
1453:../tasks/SDMMC/ff.c **** /*-----------------------------------------------------------------------*/
1454:../tasks/SDMMC/ff.c **** /* Calculate sum of an SFN                                               */
1455:../tasks/SDMMC/ff.c **** /*-----------------------------------------------------------------------*/
1456:../tasks/SDMMC/ff.c **** #if _USE_LFN
1457:../tasks/SDMMC/ff.c **** static
1458:../tasks/SDMMC/ff.c **** BYTE sum_sfn (
1459:../tasks/SDMMC/ff.c **** 	const BYTE* dir		/* Pointer to the SFN entry */
1460:../tasks/SDMMC/ff.c **** )
1461:../tasks/SDMMC/ff.c **** {
1462:../tasks/SDMMC/ff.c **** 	BYTE sum = 0;
1463:../tasks/SDMMC/ff.c **** 	UINT n = 11;
1464:../tasks/SDMMC/ff.c **** 
1465:../tasks/SDMMC/ff.c **** 	do sum = (sum >> 1) + (sum << 7) + *dir++; while (--n);
1466:../tasks/SDMMC/ff.c **** 	return sum;
1467:../tasks/SDMMC/ff.c **** }
1468:../tasks/SDMMC/ff.c **** #endif
1469:../tasks/SDMMC/ff.c **** 
1470:../tasks/SDMMC/ff.c **** 
1471:../tasks/SDMMC/ff.c **** 
1472:../tasks/SDMMC/ff.c **** 
1473:../tasks/SDMMC/ff.c **** /*-----------------------------------------------------------------------*/
1474:../tasks/SDMMC/ff.c **** /* Directory handling - Find an object in the directory                  */
1475:../tasks/SDMMC/ff.c **** /*-----------------------------------------------------------------------*/
1476:../tasks/SDMMC/ff.c **** 
1477:../tasks/SDMMC/ff.c **** static
1478:../tasks/SDMMC/ff.c **** FRESULT dir_find (
1479:../tasks/SDMMC/ff.c **** 	DIR* dp			/* Pointer to the directory object linked to the file name */
1480:../tasks/SDMMC/ff.c **** )
1481:../tasks/SDMMC/ff.c **** {
 3056              		.loc 1 1481 0
 3057              		.cfi_startproc
 3058              		@ args = 0, pretend = 0, frame = 24
 3059              		@ frame_needed = 1, uses_anonymous_args = 0
 3060 115c 80B5     		push	{r7, lr}
 3061              		.cfi_def_cfa_offset 8
 3062              		.cfi_offset 7, -8
 3063              		.cfi_offset 14, -4
 3064 115e 86B0     		sub	sp, sp, #24
 3065              		.cfi_def_cfa_offset 32
 3066 1160 00AF     		add	r7, sp, #0
 3067              		.cfi_def_cfa_register 7
 3068 1162 7860     		str	r0, [r7, #4]
1482:../tasks/SDMMC/ff.c **** 	FRESULT res;
1483:../tasks/SDMMC/ff.c **** 	BYTE c, *dir;
1484:../tasks/SDMMC/ff.c **** #if _USE_LFN
1485:../tasks/SDMMC/ff.c **** 	BYTE a, ord, sum;
1486:../tasks/SDMMC/ff.c **** #endif
1487:../tasks/SDMMC/ff.c **** 
1488:../tasks/SDMMC/ff.c **** 	res = dir_sdi(dp, 0);			/* Rewind directory object */
 3069              		.loc 1 1488 0
 3070 1164 7868     		ldr	r0, [r7, #4]
 3071 1166 0021     		movs	r1, #0
 3072 1168 FFF7CEFD 		bl	dir_sdi
 3073 116c 0346     		mov	r3, r0
 3074 116e FB75     		strb	r3, [r7, #23]
1489:../tasks/SDMMC/ff.c **** 	if (res != FR_OK) return res;
 3075              		.loc 1 1489 0
 3076 1170 FB7D     		ldrb	r3, [r7, #23]	@ zero_extendqisi2
 3077 1172 002B     		cmp	r3, #0
 3078 1174 01D0     		beq	.L196
 3079              		.loc 1 1489 0 is_stmt 0 discriminator 1
 3080 1176 FB7D     		ldrb	r3, [r7, #23]	@ zero_extendqisi2
 3081 1178 39E0     		b	.L197
 3082              	.L196:
1490:../tasks/SDMMC/ff.c **** 
1491:../tasks/SDMMC/ff.c **** #if _USE_LFN
1492:../tasks/SDMMC/ff.c **** 	ord = sum = 0xFF;
1493:../tasks/SDMMC/ff.c **** #endif
1494:../tasks/SDMMC/ff.c **** 	do {
1495:../tasks/SDMMC/ff.c **** 		res = move_window(dp->fs, dp->sect);
 3083              		.loc 1 1495 0 is_stmt 1
 3084 117a 7B68     		ldr	r3, [r7, #4]
 3085 117c D3F80022 		ldr	r2, [r3, #512]
 3086 1180 7B68     		ldr	r3, [r7, #4]
 3087 1182 D3F81032 		ldr	r3, [r3, #528]
 3088 1186 1046     		mov	r0, r2
 3089 1188 1946     		mov	r1, r3
 3090 118a FFF7EDF9 		bl	move_window
 3091 118e 0346     		mov	r3, r0
 3092 1190 FB75     		strb	r3, [r7, #23]
1496:../tasks/SDMMC/ff.c **** 		if (res != FR_OK) break;
 3093              		.loc 1 1496 0
 3094 1192 FB7D     		ldrb	r3, [r7, #23]	@ zero_extendqisi2
 3095 1194 002B     		cmp	r3, #0
 3096 1196 00D0     		beq	.L198
 3097              		.loc 1 1496 0 is_stmt 0 discriminator 1
 3098 1198 28E0     		b	.L199
 3099              	.L198:
1497:../tasks/SDMMC/ff.c **** 		dir = dp->dir;					/* Ptr to the directory entry of current index */
 3100              		.loc 1 1497 0 is_stmt 1
 3101 119a 7B68     		ldr	r3, [r7, #4]
 3102 119c D3F81432 		ldr	r3, [r3, #532]
 3103 11a0 3B61     		str	r3, [r7, #16]
1498:../tasks/SDMMC/ff.c **** 		c = dir[DIR_Name];
 3104              		.loc 1 1498 0
 3105 11a2 3B69     		ldr	r3, [r7, #16]
 3106 11a4 1B78     		ldrb	r3, [r3]
 3107 11a6 FB73     		strb	r3, [r7, #15]
1499:../tasks/SDMMC/ff.c **** 		if (c == 0) { res = FR_NO_FILE; break; }	/* Reached to end of table */
 3108              		.loc 1 1499 0
 3109 11a8 FB7B     		ldrb	r3, [r7, #15]	@ zero_extendqisi2
 3110 11aa 002B     		cmp	r3, #0
 3111 11ac 02D1     		bne	.L200
 3112              		.loc 1 1499 0 is_stmt 0 discriminator 1
 3113 11ae 0423     		movs	r3, #4
 3114 11b0 FB75     		strb	r3, [r7, #23]
 3115 11b2 1BE0     		b	.L199
 3116              	.L200:
1500:../tasks/SDMMC/ff.c **** #if _USE_LFN	/* LFN configuration */
1501:../tasks/SDMMC/ff.c **** 		a = dir[DIR_Attr] & AM_MASK;
1502:../tasks/SDMMC/ff.c **** 		if (c == DDE || ((a & AM_VOL) && a != AM_LFN)) {	/* An entry without valid data */
1503:../tasks/SDMMC/ff.c **** 			ord = 0xFF;
1504:../tasks/SDMMC/ff.c **** 		} else {
1505:../tasks/SDMMC/ff.c **** 			if (a == AM_LFN) {			/* An LFN entry is found */
1506:../tasks/SDMMC/ff.c **** 				if (dp->lfn) {
1507:../tasks/SDMMC/ff.c **** 					if (c & LLE) {		/* Is it start of LFN sequence? */
1508:../tasks/SDMMC/ff.c **** 						sum = dir[LDIR_Chksum];
1509:../tasks/SDMMC/ff.c **** 						c &= ~LLE; ord = c;	/* LFN start order */
1510:../tasks/SDMMC/ff.c **** 						dp->lfn_idx = dp->index;
1511:../tasks/SDMMC/ff.c **** 					}
1512:../tasks/SDMMC/ff.c **** 					/* Check validity of the LFN entry and compare it with given name */
1513:../tasks/SDMMC/ff.c **** 					ord = (c == ord && sum == dir[LDIR_Chksum] && cmp_lfn(dp->lfn, dir)) ? ord - 1 : 0xFF;
1514:../tasks/SDMMC/ff.c **** 				}
1515:../tasks/SDMMC/ff.c **** 			} else {					/* An SFN entry is found */
1516:../tasks/SDMMC/ff.c **** 				if (!ord && sum == sum_sfn(dir)) break;	/* LFN matched? */
1517:../tasks/SDMMC/ff.c **** 				ord = 0xFF; dp->lfn_idx = 0xFFFF;	/* Reset LFN sequence */
1518:../tasks/SDMMC/ff.c **** 				if (!(dp->fn[NS] & NS_LOSS) && !mem_cmp(dir, dp->fn, 11)) break;	/* SFN matched? */
1519:../tasks/SDMMC/ff.c **** 			}
1520:../tasks/SDMMC/ff.c **** 		}
1521:../tasks/SDMMC/ff.c **** #else		/* Non LFN configuration */
1522:../tasks/SDMMC/ff.c **** 		if (!(dir[DIR_Attr] & AM_VOL) && !mem_cmp(dir, dp->fn, 11)) /* Is it a valid entry? */
 3117              		.loc 1 1522 0 is_stmt 1
 3118 11b4 3B69     		ldr	r3, [r7, #16]
 3119 11b6 0B33     		adds	r3, r3, #11
 3120 11b8 1B78     		ldrb	r3, [r3]	@ zero_extendqisi2
 3121 11ba 03F00803 		and	r3, r3, #8
 3122 11be 002B     		cmp	r3, #0
 3123 11c0 0BD1     		bne	.L201
 3124              		.loc 1 1522 0 is_stmt 0 discriminator 1
 3125 11c2 7B68     		ldr	r3, [r7, #4]
 3126 11c4 D3F81832 		ldr	r3, [r3, #536]
 3127 11c8 3869     		ldr	r0, [r7, #16]
 3128 11ca 1946     		mov	r1, r3
 3129 11cc 0B22     		movs	r2, #11
 3130 11ce FEF74FFF 		bl	mem_cmp
 3131 11d2 0346     		mov	r3, r0
 3132 11d4 002B     		cmp	r3, #0
 3133 11d6 00D1     		bne	.L201
1523:../tasks/SDMMC/ff.c **** 			break;
 3134              		.loc 1 1523 0 is_stmt 1
 3135 11d8 08E0     		b	.L199
 3136              	.L201:
1524:../tasks/SDMMC/ff.c **** #endif
1525:../tasks/SDMMC/ff.c **** 		res = dir_next(dp, 0);		/* Next entry */
 3137              		.loc 1 1525 0
 3138 11da 7868     		ldr	r0, [r7, #4]
 3139 11dc 0021     		movs	r1, #0
 3140 11de FFF72BFE 		bl	dir_next
 3141 11e2 0346     		mov	r3, r0
 3142 11e4 FB75     		strb	r3, [r7, #23]
1526:../tasks/SDMMC/ff.c **** 	} while (res == FR_OK);
 3143              		.loc 1 1526 0
 3144 11e6 FB7D     		ldrb	r3, [r7, #23]	@ zero_extendqisi2
 3145 11e8 002B     		cmp	r3, #0
 3146 11ea C6D0     		beq	.L196
 3147              	.L199:
1527:../tasks/SDMMC/ff.c **** 
1528:../tasks/SDMMC/ff.c **** 	return res;
 3148              		.loc 1 1528 0
 3149 11ec FB7D     		ldrb	r3, [r7, #23]	@ zero_extendqisi2
 3150              	.L197:
1529:../tasks/SDMMC/ff.c **** }
 3151              		.loc 1 1529 0
 3152 11ee 1846     		mov	r0, r3
 3153 11f0 1837     		adds	r7, r7, #24
 3154 11f2 BD46     		mov	sp, r7
 3155              		@ sp needed
 3156 11f4 80BD     		pop	{r7, pc}
 3157              		.cfi_endproc
 3158              	.LFE78:
 3160 11f6 00BF     		.align	2
 3161              		.thumb
 3162              		.thumb_func
 3164              	dir_read:
 3165              	.LFB79:
1530:../tasks/SDMMC/ff.c **** 
1531:../tasks/SDMMC/ff.c **** 
1532:../tasks/SDMMC/ff.c **** 
1533:../tasks/SDMMC/ff.c **** 
1534:../tasks/SDMMC/ff.c **** /*-----------------------------------------------------------------------*/
1535:../tasks/SDMMC/ff.c **** /* Read an object from the directory                                     */
1536:../tasks/SDMMC/ff.c **** /*-----------------------------------------------------------------------*/
1537:../tasks/SDMMC/ff.c **** #if _FS_MINIMIZE <= 1 || _USE_LABEL || _FS_RPATH >= 2
1538:../tasks/SDMMC/ff.c **** static
1539:../tasks/SDMMC/ff.c **** FRESULT dir_read (
1540:../tasks/SDMMC/ff.c **** 	DIR* dp,		/* Pointer to the directory object */
1541:../tasks/SDMMC/ff.c **** 	int vol			/* Filtered by 0:file/directory or 1:volume label */
1542:../tasks/SDMMC/ff.c **** )
1543:../tasks/SDMMC/ff.c **** {
 3166              		.loc 1 1543 0
 3167              		.cfi_startproc
 3168              		@ args = 0, pretend = 0, frame = 24
 3169              		@ frame_needed = 1, uses_anonymous_args = 0
 3170 11f8 80B5     		push	{r7, lr}
 3171              		.cfi_def_cfa_offset 8
 3172              		.cfi_offset 7, -8
 3173              		.cfi_offset 14, -4
 3174 11fa 86B0     		sub	sp, sp, #24
 3175              		.cfi_def_cfa_offset 32
 3176 11fc 00AF     		add	r7, sp, #0
 3177              		.cfi_def_cfa_register 7
 3178 11fe 7860     		str	r0, [r7, #4]
 3179 1200 3960     		str	r1, [r7]
1544:../tasks/SDMMC/ff.c **** 	FRESULT res;
1545:../tasks/SDMMC/ff.c **** 	BYTE a, c, *dir;
1546:../tasks/SDMMC/ff.c **** #if _USE_LFN
1547:../tasks/SDMMC/ff.c **** 	BYTE ord = 0xFF, sum = 0xFF;
1548:../tasks/SDMMC/ff.c **** #endif
1549:../tasks/SDMMC/ff.c **** 
1550:../tasks/SDMMC/ff.c **** 	res = FR_NO_FILE;
 3180              		.loc 1 1550 0
 3181 1202 0423     		movs	r3, #4
 3182 1204 FB75     		strb	r3, [r7, #23]
1551:../tasks/SDMMC/ff.c **** 	while (dp->sect) {
 3183              		.loc 1 1551 0
 3184 1206 3DE0     		b	.L203
 3185              	.L208:
1552:../tasks/SDMMC/ff.c **** 		res = move_window(dp->fs, dp->sect);
 3186              		.loc 1 1552 0
 3187 1208 7B68     		ldr	r3, [r7, #4]
 3188 120a D3F80022 		ldr	r2, [r3, #512]
 3189 120e 7B68     		ldr	r3, [r7, #4]
 3190 1210 D3F81032 		ldr	r3, [r3, #528]
 3191 1214 1046     		mov	r0, r2
 3192 1216 1946     		mov	r1, r3
 3193 1218 FFF7A6F9 		bl	move_window
 3194 121c 0346     		mov	r3, r0
 3195 121e FB75     		strb	r3, [r7, #23]
1553:../tasks/SDMMC/ff.c **** 		if (res != FR_OK) break;
 3196              		.loc 1 1553 0
 3197 1220 FB7D     		ldrb	r3, [r7, #23]	@ zero_extendqisi2
 3198 1222 002B     		cmp	r3, #0
 3199 1224 00D0     		beq	.L204
 3200              		.loc 1 1553 0 is_stmt 0 discriminator 1
 3201 1226 32E0     		b	.L205
 3202              	.L204:
1554:../tasks/SDMMC/ff.c **** 		dir = dp->dir;					/* Ptr to the directory entry of current index */
 3203              		.loc 1 1554 0 is_stmt 1
 3204 1228 7B68     		ldr	r3, [r7, #4]
 3205 122a D3F81432 		ldr	r3, [r3, #532]
 3206 122e 3B61     		str	r3, [r7, #16]
1555:../tasks/SDMMC/ff.c **** 		c = dir[DIR_Name];
 3207              		.loc 1 1555 0
 3208 1230 3B69     		ldr	r3, [r7, #16]
 3209 1232 1B78     		ldrb	r3, [r3]
 3210 1234 FB73     		strb	r3, [r7, #15]
1556:../tasks/SDMMC/ff.c **** 		if (c == 0) { res = FR_NO_FILE; break; }	/* Reached to end of table */
 3211              		.loc 1 1556 0
 3212 1236 FB7B     		ldrb	r3, [r7, #15]	@ zero_extendqisi2
 3213 1238 002B     		cmp	r3, #0
 3214 123a 02D1     		bne	.L206
 3215              		.loc 1 1556 0 is_stmt 0 discriminator 1
 3216 123c 0423     		movs	r3, #4
 3217 123e FB75     		strb	r3, [r7, #23]
 3218 1240 25E0     		b	.L205
 3219              	.L206:
1557:../tasks/SDMMC/ff.c **** 		a = dir[DIR_Attr] & AM_MASK;
 3220              		.loc 1 1557 0 is_stmt 1
 3221 1242 3B69     		ldr	r3, [r7, #16]
 3222 1244 0B33     		adds	r3, r3, #11
 3223 1246 1B78     		ldrb	r3, [r3]	@ zero_extendqisi2
 3224 1248 03F03F03 		and	r3, r3, #63
 3225 124c BB73     		strb	r3, [r7, #14]
1558:../tasks/SDMMC/ff.c **** #if _USE_LFN	/* LFN configuration */
1559:../tasks/SDMMC/ff.c **** 		if (c == DDE || (!_FS_RPATH && c == '.') || (int)(a == AM_VOL) != vol) {	/* An entry without vali
1560:../tasks/SDMMC/ff.c **** 			ord = 0xFF;
1561:../tasks/SDMMC/ff.c **** 		} else {
1562:../tasks/SDMMC/ff.c **** 			if (a == AM_LFN) {			/* An LFN entry is found */
1563:../tasks/SDMMC/ff.c **** 				if (c & LLE) {			/* Is it start of LFN sequence? */
1564:../tasks/SDMMC/ff.c **** 					sum = dir[LDIR_Chksum];
1565:../tasks/SDMMC/ff.c **** 					c &= ~LLE; ord = c;
1566:../tasks/SDMMC/ff.c **** 					dp->lfn_idx = dp->index;
1567:../tasks/SDMMC/ff.c **** 				}
1568:../tasks/SDMMC/ff.c **** 				/* Check LFN validity and capture it */
1569:../tasks/SDMMC/ff.c **** 				ord = (c == ord && sum == dir[LDIR_Chksum] && pick_lfn(dp->lfn, dir)) ? ord - 1 : 0xFF;
1570:../tasks/SDMMC/ff.c **** 			} else {					/* An SFN entry is found */
1571:../tasks/SDMMC/ff.c **** 				if (ord || sum != sum_sfn(dir))	/* Is there a valid LFN? */
1572:../tasks/SDMMC/ff.c **** 					dp->lfn_idx = 0xFFFF;		/* It has no LFN. */
1573:../tasks/SDMMC/ff.c **** 				break;
1574:../tasks/SDMMC/ff.c **** 			}
1575:../tasks/SDMMC/ff.c **** 		}
1576:../tasks/SDMMC/ff.c **** #else		/* Non LFN configuration */
1577:../tasks/SDMMC/ff.c **** 		if (c != DDE && (_FS_RPATH || c != '.') && a != AM_LFN && (int)(a == AM_VOL) == vol)	/* Is it a v
 3226              		.loc 1 1577 0
 3227 124e FB7B     		ldrb	r3, [r7, #15]	@ zero_extendqisi2
 3228 1250 E52B     		cmp	r3, #229
 3229 1252 0DD0     		beq	.L207
 3230              		.loc 1 1577 0 is_stmt 0 discriminator 1
 3231 1254 BB7B     		ldrb	r3, [r7, #14]	@ zero_extendqisi2
 3232 1256 0F2B     		cmp	r3, #15
 3233 1258 0AD0     		beq	.L207
 3234 125a BB7B     		ldrb	r3, [r7, #14]	@ zero_extendqisi2
 3235 125c 082B     		cmp	r3, #8
 3236 125e 14BF     		ite	ne
 3237 1260 0023     		movne	r3, #0
 3238 1262 0123     		moveq	r3, #1
 3239 1264 DBB2     		uxtb	r3, r3
 3240 1266 1A46     		mov	r2, r3
 3241 1268 3B68     		ldr	r3, [r7]
 3242 126a 9A42     		cmp	r2, r3
 3243 126c 00D1     		bne	.L207
1578:../tasks/SDMMC/ff.c **** 			break;
 3244              		.loc 1 1578 0 is_stmt 1
 3245 126e 0EE0     		b	.L205
 3246              	.L207:
1579:../tasks/SDMMC/ff.c **** #endif
1580:../tasks/SDMMC/ff.c **** 		res = dir_next(dp, 0);				/* Next entry */
 3247              		.loc 1 1580 0
 3248 1270 7868     		ldr	r0, [r7, #4]
 3249 1272 0021     		movs	r1, #0
 3250 1274 FFF7E0FD 		bl	dir_next
 3251 1278 0346     		mov	r3, r0
 3252 127a FB75     		strb	r3, [r7, #23]
1581:../tasks/SDMMC/ff.c **** 		if (res != FR_OK) break;
 3253              		.loc 1 1581 0
 3254 127c FB7D     		ldrb	r3, [r7, #23]	@ zero_extendqisi2
 3255 127e 002B     		cmp	r3, #0
 3256 1280 00D0     		beq	.L203
 3257              		.loc 1 1581 0 is_stmt 0 discriminator 1
 3258 1282 04E0     		b	.L205
 3259              	.L203:
1551:../tasks/SDMMC/ff.c **** 		res = move_window(dp->fs, dp->sect);
 3260              		.loc 1 1551 0 is_stmt 1 discriminator 1
 3261 1284 7B68     		ldr	r3, [r7, #4]
 3262 1286 D3F81032 		ldr	r3, [r3, #528]
 3263 128a 002B     		cmp	r3, #0
 3264 128c BCD1     		bne	.L208
 3265              	.L205:
1582:../tasks/SDMMC/ff.c **** 	}
1583:../tasks/SDMMC/ff.c **** 
1584:../tasks/SDMMC/ff.c **** 	if (res != FR_OK) dp->sect = 0;
 3266              		.loc 1 1584 0
 3267 128e FB7D     		ldrb	r3, [r7, #23]	@ zero_extendqisi2
 3268 1290 002B     		cmp	r3, #0
 3269 1292 03D0     		beq	.L209
 3270              		.loc 1 1584 0 is_stmt 0 discriminator 1
 3271 1294 7B68     		ldr	r3, [r7, #4]
 3272 1296 0022     		movs	r2, #0
 3273 1298 C3F81022 		str	r2, [r3, #528]
 3274              	.L209:
1585:../tasks/SDMMC/ff.c **** 
1586:../tasks/SDMMC/ff.c **** 	return res;
 3275              		.loc 1 1586 0 is_stmt 1
 3276 129c FB7D     		ldrb	r3, [r7, #23]	@ zero_extendqisi2
1587:../tasks/SDMMC/ff.c **** }
 3277              		.loc 1 1587 0
 3278 129e 1846     		mov	r0, r3
 3279 12a0 1837     		adds	r7, r7, #24
 3280 12a2 BD46     		mov	sp, r7
 3281              		@ sp needed
 3282 12a4 80BD     		pop	{r7, pc}
 3283              		.cfi_endproc
 3284              	.LFE79:
 3286 12a6 00BF     		.align	2
 3287              		.thumb
 3288              		.thumb_func
 3290              	dir_register:
 3291              	.LFB80:
1588:../tasks/SDMMC/ff.c **** #endif	/* _FS_MINIMIZE <= 1 || _USE_LABEL || _FS_RPATH >= 2 */
1589:../tasks/SDMMC/ff.c **** 
1590:../tasks/SDMMC/ff.c **** 
1591:../tasks/SDMMC/ff.c **** 
1592:../tasks/SDMMC/ff.c **** 
1593:../tasks/SDMMC/ff.c **** /*-----------------------------------------------------------------------*/
1594:../tasks/SDMMC/ff.c **** /* Register an object to the directory                                   */
1595:../tasks/SDMMC/ff.c **** /*-----------------------------------------------------------------------*/
1596:../tasks/SDMMC/ff.c **** #if !_FS_READONLY
1597:../tasks/SDMMC/ff.c **** static
1598:../tasks/SDMMC/ff.c **** FRESULT dir_register (	/* FR_OK:Successful, FR_DENIED:No free entry or too many SFN collision, FR_D
1599:../tasks/SDMMC/ff.c **** 	DIR* dp				/* Target directory with object name to be created */
1600:../tasks/SDMMC/ff.c **** )
1601:../tasks/SDMMC/ff.c **** {
 3292              		.loc 1 1601 0
 3293              		.cfi_startproc
 3294              		@ args = 0, pretend = 0, frame = 16
 3295              		@ frame_needed = 1, uses_anonymous_args = 0
 3296 12a8 80B5     		push	{r7, lr}
 3297              		.cfi_def_cfa_offset 8
 3298              		.cfi_offset 7, -8
 3299              		.cfi_offset 14, -4
 3300 12aa 84B0     		sub	sp, sp, #16
 3301              		.cfi_def_cfa_offset 24
 3302 12ac 00AF     		add	r7, sp, #0
 3303              		.cfi_def_cfa_register 7
 3304 12ae 7860     		str	r0, [r7, #4]
1602:../tasks/SDMMC/ff.c **** 	FRESULT res;
1603:../tasks/SDMMC/ff.c **** #if _USE_LFN	/* LFN configuration */
1604:../tasks/SDMMC/ff.c **** 	WORD n, ne;
1605:../tasks/SDMMC/ff.c **** 	BYTE sn[12], *fn, sum;
1606:../tasks/SDMMC/ff.c **** 	WCHAR *lfn;
1607:../tasks/SDMMC/ff.c **** 
1608:../tasks/SDMMC/ff.c **** 
1609:../tasks/SDMMC/ff.c **** 	fn = dp->fn; lfn = dp->lfn;
1610:../tasks/SDMMC/ff.c **** 	mem_cpy(sn, fn, 12);
1611:../tasks/SDMMC/ff.c **** 
1612:../tasks/SDMMC/ff.c **** 	if (_FS_RPATH && (sn[NS] & NS_DOT))		/* Cannot create dot entry */
1613:../tasks/SDMMC/ff.c **** 		return FR_INVALID_NAME;
1614:../tasks/SDMMC/ff.c **** 
1615:../tasks/SDMMC/ff.c **** 	if (sn[NS] & NS_LOSS) {			/* When LFN is out of 8.3 format, generate a numbered name */
1616:../tasks/SDMMC/ff.c **** 		fn[NS] = 0; dp->lfn = 0;			/* Find only SFN */
1617:../tasks/SDMMC/ff.c **** 		for (n = 1; n < 100; n++) {
1618:../tasks/SDMMC/ff.c **** 			gen_numname(fn, sn, lfn, n);	/* Generate a numbered name */
1619:../tasks/SDMMC/ff.c **** 			res = dir_find(dp);				/* Check if the name collides with existing SFN */
1620:../tasks/SDMMC/ff.c **** 			if (res != FR_OK) break;
1621:../tasks/SDMMC/ff.c **** 		}
1622:../tasks/SDMMC/ff.c **** 		if (n == 100) return FR_DENIED;		/* Abort if too many collisions */
1623:../tasks/SDMMC/ff.c **** 		if (res != FR_NO_FILE) return res;	/* Abort if the result is other than 'not collided' */
1624:../tasks/SDMMC/ff.c **** 		fn[NS] = sn[NS]; dp->lfn = lfn;
1625:../tasks/SDMMC/ff.c **** 	}
1626:../tasks/SDMMC/ff.c **** 
1627:../tasks/SDMMC/ff.c **** 	if (sn[NS] & NS_LFN) {			/* When LFN is to be created, allocate entries for an SFN + LFNs. */
1628:../tasks/SDMMC/ff.c **** 		for (n = 0; lfn[n]; n++) ;
1629:../tasks/SDMMC/ff.c **** 		ne = (n + 25) / 13;
1630:../tasks/SDMMC/ff.c **** 	} else {						/* Otherwise allocate an entry for an SFN  */
1631:../tasks/SDMMC/ff.c **** 		ne = 1;
1632:../tasks/SDMMC/ff.c **** 	}
1633:../tasks/SDMMC/ff.c **** 	res = dir_alloc(dp, ne);		/* Allocate entries */
1634:../tasks/SDMMC/ff.c **** 
1635:../tasks/SDMMC/ff.c **** 	if (res == FR_OK && --ne) {		/* Set LFN entry if needed */
1636:../tasks/SDMMC/ff.c **** 		res = dir_sdi(dp, (WORD)(dp->index - ne));
1637:../tasks/SDMMC/ff.c **** 		if (res == FR_OK) {
1638:../tasks/SDMMC/ff.c **** 			sum = sum_sfn(dp->fn);	/* Sum value of the SFN tied to the LFN */
1639:../tasks/SDMMC/ff.c **** 			do {					/* Store LFN entries in bottom first */
1640:../tasks/SDMMC/ff.c **** 				res = move_window(dp->fs, dp->sect);
1641:../tasks/SDMMC/ff.c **** 				if (res != FR_OK) break;
1642:../tasks/SDMMC/ff.c **** 				fit_lfn(dp->lfn, dp->dir, (BYTE)ne, sum);
1643:../tasks/SDMMC/ff.c **** 				dp->fs->wflag = 1;
1644:../tasks/SDMMC/ff.c **** 				res = dir_next(dp, 0);	/* Next entry */
1645:../tasks/SDMMC/ff.c **** 			} while (res == FR_OK && --ne);
1646:../tasks/SDMMC/ff.c **** 		}
1647:../tasks/SDMMC/ff.c **** 	}
1648:../tasks/SDMMC/ff.c **** #else	/* Non LFN configuration */
1649:../tasks/SDMMC/ff.c **** 	res = dir_alloc(dp, 1);		/* Allocate an entry for SFN */
 3305              		.loc 1 1649 0
 3306 12b0 7868     		ldr	r0, [r7, #4]
 3307 12b2 0121     		movs	r1, #1
 3308 12b4 FFF7B6FE 		bl	dir_alloc
 3309 12b8 0346     		mov	r3, r0
 3310 12ba FB73     		strb	r3, [r7, #15]
1650:../tasks/SDMMC/ff.c **** #endif
1651:../tasks/SDMMC/ff.c **** 
1652:../tasks/SDMMC/ff.c **** 	if (res == FR_OK) {				/* Set SFN entry */
 3311              		.loc 1 1652 0
 3312 12bc FB7B     		ldrb	r3, [r7, #15]	@ zero_extendqisi2
 3313 12be 002B     		cmp	r3, #0
 3314 12c0 27D1     		bne	.L212
1653:../tasks/SDMMC/ff.c **** 		res = move_window(dp->fs, dp->sect);
 3315              		.loc 1 1653 0
 3316 12c2 7B68     		ldr	r3, [r7, #4]
 3317 12c4 D3F80022 		ldr	r2, [r3, #512]
 3318 12c8 7B68     		ldr	r3, [r7, #4]
 3319 12ca D3F81032 		ldr	r3, [r3, #528]
 3320 12ce 1046     		mov	r0, r2
 3321 12d0 1946     		mov	r1, r3
 3322 12d2 FFF749F9 		bl	move_window
 3323 12d6 0346     		mov	r3, r0
 3324 12d8 FB73     		strb	r3, [r7, #15]
1654:../tasks/SDMMC/ff.c **** 		if (res == FR_OK) {
 3325              		.loc 1 1654 0
 3326 12da FB7B     		ldrb	r3, [r7, #15]	@ zero_extendqisi2
 3327 12dc 002B     		cmp	r3, #0
 3328 12de 18D1     		bne	.L212
1655:../tasks/SDMMC/ff.c **** 			mem_set(dp->dir, 0, SZ_DIR);	/* Clean the entry */
 3329              		.loc 1 1655 0
 3330 12e0 7B68     		ldr	r3, [r7, #4]
 3331 12e2 D3F81432 		ldr	r3, [r3, #532]
 3332 12e6 1846     		mov	r0, r3
 3333 12e8 0021     		movs	r1, #0
 3334 12ea 2022     		movs	r2, #32
 3335 12ec FEF7A6FE 		bl	mem_set
1656:../tasks/SDMMC/ff.c **** 			mem_cpy(dp->dir, dp->fn, 11);	/* Put SFN */
 3336              		.loc 1 1656 0
 3337 12f0 7B68     		ldr	r3, [r7, #4]
 3338 12f2 D3F81422 		ldr	r2, [r3, #532]
 3339 12f6 7B68     		ldr	r3, [r7, #4]
 3340 12f8 D3F81832 		ldr	r3, [r3, #536]
 3341 12fc 1046     		mov	r0, r2
 3342 12fe 1946     		mov	r1, r3
 3343 1300 0B22     		movs	r2, #11
 3344 1302 FEF77DFE 		bl	mem_cpy
1657:../tasks/SDMMC/ff.c **** #if _USE_LFN
1658:../tasks/SDMMC/ff.c **** 			dp->dir[DIR_NTres] = dp->fn[NS] & (NS_BODY | NS_EXT);	/* Put NT flag */
1659:../tasks/SDMMC/ff.c **** #endif
1660:../tasks/SDMMC/ff.c **** 			dp->fs->wflag = 1;
 3345              		.loc 1 1660 0
 3346 1306 7B68     		ldr	r3, [r7, #4]
 3347 1308 D3F80032 		ldr	r3, [r3, #512]
 3348 130c 0122     		movs	r2, #1
 3349 130e 83F80422 		strb	r2, [r3, #516]
 3350              	.L212:
1661:../tasks/SDMMC/ff.c **** 		}
1662:../tasks/SDMMC/ff.c **** 	}
1663:../tasks/SDMMC/ff.c **** 
1664:../tasks/SDMMC/ff.c **** 	return res;
 3351              		.loc 1 1664 0
 3352 1312 FB7B     		ldrb	r3, [r7, #15]	@ zero_extendqisi2
1665:../tasks/SDMMC/ff.c **** }
 3353              		.loc 1 1665 0
 3354 1314 1846     		mov	r0, r3
 3355 1316 1037     		adds	r7, r7, #16
 3356 1318 BD46     		mov	sp, r7
 3357              		@ sp needed
 3358 131a 80BD     		pop	{r7, pc}
 3359              		.cfi_endproc
 3360              	.LFE80:
 3362              		.align	2
 3363              		.thumb
 3364              		.thumb_func
 3366              	dir_remove:
 3367              	.LFB81:
1666:../tasks/SDMMC/ff.c **** #endif /* !_FS_READONLY */
1667:../tasks/SDMMC/ff.c **** 
1668:../tasks/SDMMC/ff.c **** 
1669:../tasks/SDMMC/ff.c **** 
1670:../tasks/SDMMC/ff.c **** 
1671:../tasks/SDMMC/ff.c **** /*-----------------------------------------------------------------------*/
1672:../tasks/SDMMC/ff.c **** /* Remove an object from the directory                                   */
1673:../tasks/SDMMC/ff.c **** /*-----------------------------------------------------------------------*/
1674:../tasks/SDMMC/ff.c **** #if !_FS_READONLY && !_FS_MINIMIZE
1675:../tasks/SDMMC/ff.c **** static
1676:../tasks/SDMMC/ff.c **** FRESULT dir_remove (	/* FR_OK: Successful, FR_DISK_ERR: A disk error */
1677:../tasks/SDMMC/ff.c **** 	DIR* dp				/* Directory object pointing the entry to be removed */
1678:../tasks/SDMMC/ff.c **** )
1679:../tasks/SDMMC/ff.c **** {
 3368              		.loc 1 1679 0
 3369              		.cfi_startproc
 3370              		@ args = 0, pretend = 0, frame = 16
 3371              		@ frame_needed = 1, uses_anonymous_args = 0
 3372 131c 80B5     		push	{r7, lr}
 3373              		.cfi_def_cfa_offset 8
 3374              		.cfi_offset 7, -8
 3375              		.cfi_offset 14, -4
 3376 131e 84B0     		sub	sp, sp, #16
 3377              		.cfi_def_cfa_offset 24
 3378 1320 00AF     		add	r7, sp, #0
 3379              		.cfi_def_cfa_register 7
 3380 1322 7860     		str	r0, [r7, #4]
1680:../tasks/SDMMC/ff.c **** 	FRESULT res;
1681:../tasks/SDMMC/ff.c **** #if _USE_LFN	/* LFN configuration */
1682:../tasks/SDMMC/ff.c **** 	WORD i;
1683:../tasks/SDMMC/ff.c **** 
1684:../tasks/SDMMC/ff.c **** 	i = dp->index;	/* SFN index */
1685:../tasks/SDMMC/ff.c **** 	res = dir_sdi(dp, (WORD)((dp->lfn_idx == 0xFFFF) ? i : dp->lfn_idx));	/* Goto the SFN or top of th
1686:../tasks/SDMMC/ff.c **** 	if (res == FR_OK) {
1687:../tasks/SDMMC/ff.c **** 		do {
1688:../tasks/SDMMC/ff.c **** 			res = move_window(dp->fs, dp->sect);
1689:../tasks/SDMMC/ff.c **** 			if (res != FR_OK) break;
1690:../tasks/SDMMC/ff.c **** 			*dp->dir = DDE;			/* Mark the entry "deleted" */
1691:../tasks/SDMMC/ff.c **** 			dp->fs->wflag = 1;
1692:../tasks/SDMMC/ff.c **** 			if (dp->index >= i) break;	/* When reached SFN, all entries of the object has been deleted. */
1693:../tasks/SDMMC/ff.c **** 			res = dir_next(dp, 0);		/* Next entry */
1694:../tasks/SDMMC/ff.c **** 		} while (res == FR_OK);
1695:../tasks/SDMMC/ff.c **** 		if (res == FR_NO_FILE) res = FR_INT_ERR;
1696:../tasks/SDMMC/ff.c **** 	}
1697:../tasks/SDMMC/ff.c **** 
1698:../tasks/SDMMC/ff.c **** #else			/* Non LFN configuration */
1699:../tasks/SDMMC/ff.c **** 	res = dir_sdi(dp, dp->index);
 3381              		.loc 1 1699 0
 3382 1324 7B68     		ldr	r3, [r7, #4]
 3383 1326 B3F80632 		ldrh	r3, [r3, #518]
 3384 132a 7868     		ldr	r0, [r7, #4]
 3385 132c 1946     		mov	r1, r3
 3386 132e FFF7EBFC 		bl	dir_sdi
 3387 1332 0346     		mov	r3, r0
 3388 1334 FB73     		strb	r3, [r7, #15]
1700:../tasks/SDMMC/ff.c **** 	if (res == FR_OK) {
 3389              		.loc 1 1700 0
 3390 1336 FB7B     		ldrb	r3, [r7, #15]	@ zero_extendqisi2
 3391 1338 002B     		cmp	r3, #0
 3392 133a 19D1     		bne	.L215
1701:../tasks/SDMMC/ff.c **** 		res = move_window(dp->fs, dp->sect);
 3393              		.loc 1 1701 0
 3394 133c 7B68     		ldr	r3, [r7, #4]
 3395 133e D3F80022 		ldr	r2, [r3, #512]
 3396 1342 7B68     		ldr	r3, [r7, #4]
 3397 1344 D3F81032 		ldr	r3, [r3, #528]
 3398 1348 1046     		mov	r0, r2
 3399 134a 1946     		mov	r1, r3
 3400 134c FFF70CF9 		bl	move_window
 3401 1350 0346     		mov	r3, r0
 3402 1352 FB73     		strb	r3, [r7, #15]
1702:../tasks/SDMMC/ff.c **** 		if (res == FR_OK) {
 3403              		.loc 1 1702 0
 3404 1354 FB7B     		ldrb	r3, [r7, #15]	@ zero_extendqisi2
 3405 1356 002B     		cmp	r3, #0
 3406 1358 0AD1     		bne	.L215
1703:../tasks/SDMMC/ff.c **** 			*dp->dir = DDE;			/* Mark the entry "deleted" */
 3407              		.loc 1 1703 0
 3408 135a 7B68     		ldr	r3, [r7, #4]
 3409 135c D3F81432 		ldr	r3, [r3, #532]
 3410 1360 E522     		movs	r2, #229
 3411 1362 1A70     		strb	r2, [r3]
1704:../tasks/SDMMC/ff.c **** 			dp->fs->wflag = 1;
 3412              		.loc 1 1704 0
 3413 1364 7B68     		ldr	r3, [r7, #4]
 3414 1366 D3F80032 		ldr	r3, [r3, #512]
 3415 136a 0122     		movs	r2, #1
 3416 136c 83F80422 		strb	r2, [r3, #516]
 3417              	.L215:
1705:../tasks/SDMMC/ff.c **** 		}
1706:../tasks/SDMMC/ff.c **** 	}
1707:../tasks/SDMMC/ff.c **** #endif
1708:../tasks/SDMMC/ff.c **** 
1709:../tasks/SDMMC/ff.c **** 	return res;
 3418              		.loc 1 1709 0
 3419 1370 FB7B     		ldrb	r3, [r7, #15]	@ zero_extendqisi2
1710:../tasks/SDMMC/ff.c **** }
 3420              		.loc 1 1710 0
 3421 1372 1846     		mov	r0, r3
 3422 1374 1037     		adds	r7, r7, #16
 3423 1376 BD46     		mov	sp, r7
 3424              		@ sp needed
 3425 1378 80BD     		pop	{r7, pc}
 3426              		.cfi_endproc
 3427              	.LFE81:
 3429              		.section	.rodata
 3430              		.align	2
 3431              	.LC0:
 3432 0080 222A2B2C 		.ascii	"\"*+,:;<=>?[]|\177\000"
 3432      3A3B3C3D 
 3432      3E3F5B5D 
 3432      7C7F00
 3433              		.text
 3434 137a 00BF     		.align	2
 3435              		.thumb
 3436              		.thumb_func
 3438              	create_name:
 3439              	.LFB82:
1711:../tasks/SDMMC/ff.c **** #endif /* !_FS_READONLY */
1712:../tasks/SDMMC/ff.c **** 
1713:../tasks/SDMMC/ff.c **** 
1714:../tasks/SDMMC/ff.c **** 
1715:../tasks/SDMMC/ff.c **** 
1716:../tasks/SDMMC/ff.c **** /*-----------------------------------------------------------------------*/
1717:../tasks/SDMMC/ff.c **** /* Pick a segment and create the object name in directory form           */
1718:../tasks/SDMMC/ff.c **** /*-----------------------------------------------------------------------*/
1719:../tasks/SDMMC/ff.c **** 
1720:../tasks/SDMMC/ff.c **** static
1721:../tasks/SDMMC/ff.c **** FRESULT create_name (
1722:../tasks/SDMMC/ff.c **** 	DIR* dp,			/* Pointer to the directory object */
1723:../tasks/SDMMC/ff.c **** 	const TCHAR** path	/* Pointer to pointer to the segment in the path string */
1724:../tasks/SDMMC/ff.c **** )
1725:../tasks/SDMMC/ff.c **** {
 3440              		.loc 1 1725 0
 3441              		.cfi_startproc
 3442              		@ args = 0, pretend = 0, frame = 32
 3443              		@ frame_needed = 1, uses_anonymous_args = 0
 3444 137c 80B5     		push	{r7, lr}
 3445              		.cfi_def_cfa_offset 8
 3446              		.cfi_offset 7, -8
 3447              		.cfi_offset 14, -4
 3448 137e 88B0     		sub	sp, sp, #32
 3449              		.cfi_def_cfa_offset 40
 3450 1380 00AF     		add	r7, sp, #0
 3451              		.cfi_def_cfa_register 7
 3452 1382 7860     		str	r0, [r7, #4]
 3453 1384 3960     		str	r1, [r7]
1726:../tasks/SDMMC/ff.c **** #if _USE_LFN	/* LFN configuration */
1727:../tasks/SDMMC/ff.c **** 	BYTE b, cf;
1728:../tasks/SDMMC/ff.c **** 	WCHAR w, *lfn;
1729:../tasks/SDMMC/ff.c **** 	UINT i, ni, si, di;
1730:../tasks/SDMMC/ff.c **** 	const TCHAR *p;
1731:../tasks/SDMMC/ff.c **** 
1732:../tasks/SDMMC/ff.c **** 	/* Create LFN in Unicode */
1733:../tasks/SDMMC/ff.c **** 	for (p = *path; *p == '/' || *p == '\\'; p++) ;	/* Strip duplicated separator */
1734:../tasks/SDMMC/ff.c **** 	lfn = dp->lfn;
1735:../tasks/SDMMC/ff.c **** 	si = di = 0;
1736:../tasks/SDMMC/ff.c **** 	for (;;) {
1737:../tasks/SDMMC/ff.c **** 		w = p[si++];					/* Get a character */
1738:../tasks/SDMMC/ff.c **** 		if (w < ' ' || w == '/' || w == '\\') break;	/* Break on end of segment */
1739:../tasks/SDMMC/ff.c **** 		if (di >= _MAX_LFN)				/* Reject too long name */
1740:../tasks/SDMMC/ff.c **** 			return FR_INVALID_NAME;
1741:../tasks/SDMMC/ff.c **** #if !_LFN_UNICODE
1742:../tasks/SDMMC/ff.c **** 		w &= 0xFF;
1743:../tasks/SDMMC/ff.c **** 		if (IsDBCS1(w)) {    /* Check if it is a DBC 1st byte (always false on SBCS cfg) */
1744:../tasks/SDMMC/ff.c ****               
1745:../tasks/SDMMC/ff.c **** #if _DF1S
1746:../tasks/SDMMC/ff.c **** 			b = (BYTE)p[si++];			/* Get 2nd byte */
1747:../tasks/SDMMC/ff.c **** 			if (!IsDBCS2(b))
1748:../tasks/SDMMC/ff.c **** 				return FR_INVALID_NAME;	/* Reject invalid sequence */
1749:../tasks/SDMMC/ff.c **** 			w = (w << 8) + b;			/* Create a DBC */
1750:../tasks/SDMMC/ff.c **** #endif                        
1751:../tasks/SDMMC/ff.c **** 		}
1752:../tasks/SDMMC/ff.c **** 		w = ff_convert(w, 1);			/* Convert ANSI/OEM to Unicode */
1753:../tasks/SDMMC/ff.c **** 		if (!w) return FR_INVALID_NAME;	/* Reject invalid code */
1754:../tasks/SDMMC/ff.c **** #endif
1755:../tasks/SDMMC/ff.c **** 		if (w < 0x80 && chk_chr("\"*:<>\?|\x7F", w)) /* Reject illegal characters for LFN */
1756:../tasks/SDMMC/ff.c **** 			return FR_INVALID_NAME;
1757:../tasks/SDMMC/ff.c **** 		lfn[di++] = w;					/* Store the Unicode character */
1758:../tasks/SDMMC/ff.c **** 	}
1759:../tasks/SDMMC/ff.c **** 	*path = &p[si];						/* Return pointer to the next segment */
1760:../tasks/SDMMC/ff.c **** 	cf = (w < ' ') ? NS_LAST : 0;		/* Set last segment flag if end of path */
1761:../tasks/SDMMC/ff.c **** #if _FS_RPATH
1762:../tasks/SDMMC/ff.c **** 	if ((di == 1 && lfn[di-1] == '.') || /* Is this a dot entry? */
1763:../tasks/SDMMC/ff.c **** 		(di == 2 && lfn[di-1] == '.' && lfn[di-2] == '.')) {
1764:../tasks/SDMMC/ff.c **** 		lfn[di] = 0;
1765:../tasks/SDMMC/ff.c **** 		for (i = 0; i < 11; i++)
1766:../tasks/SDMMC/ff.c **** 			dp->fn[i] = (i < di) ? '.' : ' ';
1767:../tasks/SDMMC/ff.c **** 		dp->fn[i] = cf | NS_DOT;		/* This is a dot entry */
1768:../tasks/SDMMC/ff.c **** 		return FR_OK;
1769:../tasks/SDMMC/ff.c **** 	}
1770:../tasks/SDMMC/ff.c **** #endif
1771:../tasks/SDMMC/ff.c **** 	while (di) {						/* Strip trailing spaces and dots */
1772:../tasks/SDMMC/ff.c **** 		w = lfn[di-1];
1773:../tasks/SDMMC/ff.c **** 		if (w != ' ' && w != '.') break;
1774:../tasks/SDMMC/ff.c **** 		di--;
1775:../tasks/SDMMC/ff.c **** 	}
1776:../tasks/SDMMC/ff.c **** 	if (!di) return FR_INVALID_NAME;	/* Reject nul string */
1777:../tasks/SDMMC/ff.c **** 
1778:../tasks/SDMMC/ff.c **** 	lfn[di] = 0;						/* LFN is created */
1779:../tasks/SDMMC/ff.c **** 
1780:../tasks/SDMMC/ff.c **** 	/* Create SFN in directory form */
1781:../tasks/SDMMC/ff.c **** 	mem_set(dp->fn, ' ', 11);
1782:../tasks/SDMMC/ff.c **** 	for (si = 0; lfn[si] == ' ' || lfn[si] == '.'; si++) ;	/* Strip leading spaces and dots */
1783:../tasks/SDMMC/ff.c **** 	if (si) cf |= NS_LOSS | NS_LFN;
1784:../tasks/SDMMC/ff.c **** 	while (di && lfn[di - 1] != '.') di--;	/* Find extension (di<=si: no extension) */
1785:../tasks/SDMMC/ff.c **** 
1786:../tasks/SDMMC/ff.c **** 	b = i = 0; ni = 8;
1787:../tasks/SDMMC/ff.c **** 	for (;;) {
1788:../tasks/SDMMC/ff.c **** 		w = lfn[si++];					/* Get an LFN character */
1789:../tasks/SDMMC/ff.c **** 		if (!w) break;					/* Break on end of the LFN */
1790:../tasks/SDMMC/ff.c **** 		if (w == ' ' || (w == '.' && si != di)) {	/* Remove spaces and dots */
1791:../tasks/SDMMC/ff.c **** 			cf |= NS_LOSS | NS_LFN; continue;
1792:../tasks/SDMMC/ff.c **** 		}
1793:../tasks/SDMMC/ff.c **** 
1794:../tasks/SDMMC/ff.c **** 		if (i >= ni || si == di) {		/* Extension or end of SFN */
1795:../tasks/SDMMC/ff.c **** 			if (ni == 11) {				/* Long extension */
1796:../tasks/SDMMC/ff.c **** 				cf |= NS_LOSS | NS_LFN; break;
1797:../tasks/SDMMC/ff.c **** 			}
1798:../tasks/SDMMC/ff.c **** 			if (si != di) cf |= NS_LOSS | NS_LFN;	/* Out of 8.3 format */
1799:../tasks/SDMMC/ff.c **** 			if (si > di) break;			/* No extension */
1800:../tasks/SDMMC/ff.c **** 			si = di; i = 8; ni = 11;	/* Enter extension section */
1801:../tasks/SDMMC/ff.c **** 			b <<= 2; continue;
1802:../tasks/SDMMC/ff.c **** 		}
1803:../tasks/SDMMC/ff.c **** 
1804:../tasks/SDMMC/ff.c **** 		if (w >= 0x80) {				/* Non ASCII character */
1805:../tasks/SDMMC/ff.c **** #ifdef _EXCVT
1806:../tasks/SDMMC/ff.c **** 			w = ff_convert(w, 0);		/* Unicode -> OEM code */
1807:../tasks/SDMMC/ff.c **** 			if (w) w = ExCvt[w - 0x80];	/* Convert extended character to upper (SBCS) */
1808:../tasks/SDMMC/ff.c **** #else
1809:../tasks/SDMMC/ff.c **** 			w = ff_convert(ff_wtoupper(w), 0);	/* Upper converted Unicode -> OEM code */
1810:../tasks/SDMMC/ff.c **** #endif
1811:../tasks/SDMMC/ff.c **** 			cf |= NS_LFN;				/* Force create LFN entry */
1812:../tasks/SDMMC/ff.c **** 		}
1813:../tasks/SDMMC/ff.c **** 
1814:../tasks/SDMMC/ff.c **** 		if (_DF1S && w >= 0x100) {		/* Double byte character (always false on SBCS cfg) */
1815:../tasks/SDMMC/ff.c **** 			if (i >= ni - 1) {
1816:../tasks/SDMMC/ff.c **** 				cf |= NS_LOSS | NS_LFN; i = ni; continue;
1817:../tasks/SDMMC/ff.c **** 			}
1818:../tasks/SDMMC/ff.c **** 			dp->fn[i++] = (BYTE)(w >> 8);
1819:../tasks/SDMMC/ff.c **** 		} else {						/* Single byte character */
