   1              		.syntax unified
   2              		.cpu cortex-m3
   3              		.fpu softvfp
   4              		.eabi_attribute 20, 1
   5              		.eabi_attribute 21, 1
   6              		.eabi_attribute 23, 3
   7              		.eabi_attribute 24, 1
   8              		.eabi_attribute 25, 1
   9              		.eabi_attribute 26, 1
  10              		.eabi_attribute 30, 6
  11              		.eabi_attribute 34, 1
  12              		.eabi_attribute 18, 4
  13              		.thumb
  14              		.file	"Board_lcd.c"
  15              		.text
  16              	.Ltext0:
  17              		.cfi_sections	.debug_frame
  18              		.comm	DrawProp,16,4
  19              		.global	FontFrom_SD
  20              		.data
  21              		.align	2
  24              	FontFrom_SD:
  25 0000 00000000 		.word	SDFont_table
  26 0004 00000000 		.word	SDFont_Width
  27 0008 00000000 		.word	SDFont_Height
  28              		.bss
  29              		.align	2
  30              	lcd_drv:
  31 0000 00000000 		.space	4
  32              		.section	.rodata
  33              		.align	2
  34              	.LC0:
  35 0000 636F7572 		.ascii	"cour36b.FBN\000"
  35      3336622E 
  35      46424E00 
  36              		.align	2
  37              	.LC1:
  38 000c 5344466F 		.ascii	"SDFont_table: %d \012\000"
  38      6E745F74 
  38      61626C65 
  38      3A202564 
  38      200A00
  39 001f 00       		.align	2
  40              	.LC2:
  41 0020 5344466F 		.ascii	"SDFont_table error\000"
  41      6E745F74 
  41      61626C65 
  41      20657272 
  41      6F7200
  42              		.text
  43              		.align	2
  44              		.global	SDFont_table
  45              		.thumb
  46              		.thumb_func
  48              	SDFont_table:
  49              	.LFB55:
  50              		.file 1 "../tasks/display/Board_lcd.c"
   1:../tasks/display/Board_lcd.c **** /**
   2:../tasks/display/Board_lcd.c ****   ******************************************************************************
   3:../tasks/display/Board_lcd.c ****   * @file    Board_lcd.c
   4:../tasks/display/Board_lcd.c ****   * @author  MCD Application Team
   5:../tasks/display/Board_lcd.c ****   * @version V6.1.0
   6:../tasks/display/Board_lcd.c ****   * @date    13-March-2014
   7:../tasks/display/Board_lcd.c ****   * @brief   This file includes the driver for Liquid Crystal Display (LCD) module
   8:../tasks/display/Board_lcd.c ****   *          mounted on STM322xG-EVAL evaluation board.
   9:../tasks/display/Board_lcd.c ****   ******************************************************************************
  10:../tasks/display/Board_lcd.c ****   * @attention
  11:../tasks/display/Board_lcd.c ****   *
  12:../tasks/display/Board_lcd.c ****   * <h2><center>&copy; COPYRIGHT(c) 2014 STMicroelectronics</center></h2>
  13:../tasks/display/Board_lcd.c ****   *
  14:../tasks/display/Board_lcd.c ****   * Redistribution and use in source and binary forms, with or without modification,
  15:../tasks/display/Board_lcd.c ****   * are permitted provided that the following conditions are met:
  16:../tasks/display/Board_lcd.c ****   *   1. Redistributions of source code must retain the above copyright notice,
  17:../tasks/display/Board_lcd.c ****   *      this list of conditions and the following disclaimer.
  18:../tasks/display/Board_lcd.c ****   *   2. Redistributions in binary form must reproduce the above copyright notice,
  19:../tasks/display/Board_lcd.c ****   *      this list of conditions and the following disclaimer in the documentation
  20:../tasks/display/Board_lcd.c ****   *      and/or other materials provided with the distribution.
  21:../tasks/display/Board_lcd.c ****   *   3. Neither the name of STMicroelectronics nor the names of its contributors
  22:../tasks/display/Board_lcd.c ****   *      may be used to endorse or promote products derived from this software
  23:../tasks/display/Board_lcd.c ****   *      without specific prior written permission.
  24:../tasks/display/Board_lcd.c ****   *
  25:../tasks/display/Board_lcd.c ****   * THIS SOFTWARE IS PROVIDED BY THE COPYRIGHT HOLDERS AND CONTRIBUTORS "AS IS"
  26:../tasks/display/Board_lcd.c ****   * AND ANY EXPRESS OR IMPLIED WARRANTIES, INCLUDING, BUT NOT LIMITED TO, THE
  27:../tasks/display/Board_lcd.c ****   * IMPLIED WARRANTIES OF MERCHANTABILITY AND FITNESS FOR A PARTICULAR PURPOSE ARE
  28:../tasks/display/Board_lcd.c ****   * DISCLAIMED. IN NO EVENT SHALL THE COPYRIGHT HOLDER OR CONTRIBUTORS BE LIABLE
  29:../tasks/display/Board_lcd.c ****   * FOR ANY DIRECT, INDIRECT, INCIDENTAL, SPECIAL, EXEMPLARY, OR CONSEQUENTIAL
  30:../tasks/display/Board_lcd.c ****   * DAMAGES (INCLUDING, BUT NOT LIMITED TO, PROCUREMENT OF SUBSTITUTE GOODS OR
  31:../tasks/display/Board_lcd.c ****   * SERVICES; LOSS OF USE, DATA, OR PROFITS; OR BUSINESS INTERRUPTION) HOWEVER
  32:../tasks/display/Board_lcd.c ****   * CAUSED AND ON ANY THEORY OF LIABILITY, WHETHER IN CONTRACT, STRICT LIABILITY,
  33:../tasks/display/Board_lcd.c ****   * OR TORT (INCLUDING NEGLIGENCE OR OTHERWISE) ARISING IN ANY WAY OUT OF THE USE
  34:../tasks/display/Board_lcd.c ****   * OF THIS SOFTWARE, EVEN IF ADVISED OF THE POSSIBILITY OF SUCH DAMAGE.
  35:../tasks/display/Board_lcd.c ****   *
  36:../tasks/display/Board_lcd.c ****   ******************************************************************************
  37:../tasks/display/Board_lcd.c ****   */ 
  38:../tasks/display/Board_lcd.c **** 
  39:../tasks/display/Board_lcd.c **** /* File Info : -----------------------------------------------------------------
  40:../tasks/display/Board_lcd.c ****                                    User NOTES
  41:../tasks/display/Board_lcd.c **** 1. How To use this driver:
  42:../tasks/display/Board_lcd.c **** --------------------------
  43:../tasks/display/Board_lcd.c ****    - This driver is used to drive indirectly an LCD TFT.
  44:../tasks/display/Board_lcd.c ****    - This driver supports the ILI9325 LCD mounted on MB785 daughter board 
  45:../tasks/display/Board_lcd.c ****    - The ILI9325 component driver MUST be included with this driver.  
  46:../tasks/display/Board_lcd.c **** 
  47:../tasks/display/Board_lcd.c **** 2. Driver description:
  48:../tasks/display/Board_lcd.c **** ---------------------
  49:../tasks/display/Board_lcd.c ****   + Initialization steps:
  50:../tasks/display/Board_lcd.c ****      o Initialize the LCD using the BSP_LCD_Init() function.
  51:../tasks/display/Board_lcd.c ****   
  52:../tasks/display/Board_lcd.c ****   + Display on LCD
  53:../tasks/display/Board_lcd.c ****      o Clear the hole LCD using yhe BSP_LCD_Clear() function or only one specified 
  54:../tasks/display/Board_lcd.c ****        string line using the BSP_LCD_ClearStringLine() function.
  55:../tasks/display/Board_lcd.c ****      o Display a character on the specified line and column using the BSP_LCD_DisplayChar()
  56:../tasks/display/Board_lcd.c ****        function or a complete string line using the BSP_LCD_DisplayStringAtLine() function.
  57:../tasks/display/Board_lcd.c ****      o Display a string line on the specified position (x,y in pixel) and align mode
  58:../tasks/display/Board_lcd.c ****        using the BSP_LCD_DisplayStringAtLine() function.          
  59:../tasks/display/Board_lcd.c ****      o Draw and fill a basic shapes (dot, line, rectangle, circle, ellipse, .. bitmap, raw picture)
  60:../tasks/display/Board_lcd.c ****        on LCD using a set of functions.    
  61:../tasks/display/Board_lcd.c ****  
  62:../tasks/display/Board_lcd.c **** ------------------------------------------------------------------------------*/
  63:../tasks/display/Board_lcd.c ****     
  64:../tasks/display/Board_lcd.c **** /* Includes ------------------------------------------------------------------*/
  65:../tasks/display/Board_lcd.c **** /* Includes ------------------------------------------------------------------*/
  66:../tasks/display/Board_lcd.c **** #include <stdio.h>
  67:../tasks/display/Board_lcd.c **** #include <stdint.h>
  68:../tasks/display/Board_lcd.c **** 
  69:../tasks/display/Board_lcd.c **** #include "Board_lcd.h"
  70:../tasks/display/Board_lcd.c **** #include "Fonts\fonts.h"
  71:../tasks/display/Board_lcd.c **** 
  72:../tasks/display/Board_lcd.c **** /* FatFs includes component */
  73:../tasks/display/Board_lcd.c **** #include "ff_gen_drv.h"
  74:../tasks/display/Board_lcd.c **** 
  75:../tasks/display/Board_lcd.c **** /** @addtogroup BSP
  76:../tasks/display/Board_lcd.c ****   * @{
  77:../tasks/display/Board_lcd.c ****   */
  78:../tasks/display/Board_lcd.c **** 
  79:../tasks/display/Board_lcd.c **** /** @addtogroup STM322xG_EVAL
  80:../tasks/display/Board_lcd.c ****   * @{
  81:../tasks/display/Board_lcd.c ****   */
  82:../tasks/display/Board_lcd.c ****     
  83:../tasks/display/Board_lcd.c **** /** @addtogroup STM322xG_EVAL_LCD
  84:../tasks/display/Board_lcd.c ****   * @{
  85:../tasks/display/Board_lcd.c ****   */ 
  86:../tasks/display/Board_lcd.c **** 
  87:../tasks/display/Board_lcd.c **** /** @defgroup STM322xG_EVAL_LCD_Private_TypesDefinitions
  88:../tasks/display/Board_lcd.c ****   * @{
  89:../tasks/display/Board_lcd.c ****   */ 
  90:../tasks/display/Board_lcd.c **** 
  91:../tasks/display/Board_lcd.c **** /**
  92:../tasks/display/Board_lcd.c ****   * @}
  93:../tasks/display/Board_lcd.c ****   */ 
  94:../tasks/display/Board_lcd.c **** 
  95:../tasks/display/Board_lcd.c **** /** @defgroup STM322xG_EVAL_LCD_Private_Defines
  96:../tasks/display/Board_lcd.c ****   * @{
  97:../tasks/display/Board_lcd.c ****   */
  98:../tasks/display/Board_lcd.c **** #define POLY_X(Z)              ((int32_t)((Points + (Z))->X))
  99:../tasks/display/Board_lcd.c **** #define POLY_Y(Z)              ((int32_t)((Points + (Z))->Y))
 100:../tasks/display/Board_lcd.c **** 
 101:../tasks/display/Board_lcd.c **** /**
 102:../tasks/display/Board_lcd.c ****   * @}
 103:../tasks/display/Board_lcd.c ****   */ 
 104:../tasks/display/Board_lcd.c **** 
 105:../tasks/display/Board_lcd.c **** /** @defgroup STM322xG_EVAL_LCD_Private_Macros
 106:../tasks/display/Board_lcd.c ****   * @{
 107:../tasks/display/Board_lcd.c ****   */
 108:../tasks/display/Board_lcd.c **** #define ABS(X)  ((X) > 0 ? (X) : -(X)) 
 109:../tasks/display/Board_lcd.c **** 
 110:../tasks/display/Board_lcd.c **** /**
 111:../tasks/display/Board_lcd.c ****   * @}
 112:../tasks/display/Board_lcd.c ****   */ 
 113:../tasks/display/Board_lcd.c ****     
 114:../tasks/display/Board_lcd.c **** /** @defgroup STM322xG_EVAL_LCD_Private_Variables
 115:../tasks/display/Board_lcd.c ****   * @{
 116:../tasks/display/Board_lcd.c ****   */ 
 117:../tasks/display/Board_lcd.c **** //LCD_DrawPropTypeDef 	DrawProp;
 118:../tasks/display/Board_lcd.c **** FileSD_DrawPropTypeDef 	DrawProp;
 119:../tasks/display/Board_lcd.c **** 
 120:../tasks/display/Board_lcd.c **** /* Touch screen driver structure initialization */
 121:../tasks/display/Board_lcd.c **** ffSD_FONT FontFrom_SD =
 122:../tasks/display/Board_lcd.c **** {
 123:../tasks/display/Board_lcd.c **** 		SDFont_table,
 124:../tasks/display/Board_lcd.c **** 		SDFont_Width,
 125:../tasks/display/Board_lcd.c **** 		SDFont_Height
 126:../tasks/display/Board_lcd.c **** };
 127:../tasks/display/Board_lcd.c **** 
 128:../tasks/display/Board_lcd.c **** 
 129:../tasks/display/Board_lcd.c **** static LCD_DrvTypeDef  *lcd_drv; 
 130:../tasks/display/Board_lcd.c **** /**
 131:../tasks/display/Board_lcd.c ****   * @}
 132:../tasks/display/Board_lcd.c ****   */ 
 133:../tasks/display/Board_lcd.c **** 
 134:../tasks/display/Board_lcd.c **** /** @defgroup STM322xG_EVAL_LCD_Private_FunctionPrototypes
 135:../tasks/display/Board_lcd.c ****   * @{
 136:../tasks/display/Board_lcd.c ****   */ 
 137:../tasks/display/Board_lcd.c **** static void DrawChar(uint16_t Xpos, uint16_t Ypos, const uint64_t c);
 138:../tasks/display/Board_lcd.c **** static void SetDisplayWindow(uint16_t Xpos, uint16_t Ypos, uint16_t Width, uint16_t Height);
 139:../tasks/display/Board_lcd.c **** static void FillTriangle(uint16_t x1, uint16_t x2, uint16_t x3, uint16_t y1, uint16_t y2, uint16_t 
 140:../tasks/display/Board_lcd.c **** /**
 141:../tasks/display/Board_lcd.c ****   * @}
 142:../tasks/display/Board_lcd.c ****   */ 
 143:../tasks/display/Board_lcd.c **** 
 144:../tasks/display/Board_lcd.c **** /************************************************************************************
 145:../tasks/display/Board_lcd.c ****  * SDFont_table
 146:../tasks/display/Board_lcd.c **** *************************************************************************************/
 147:../tasks/display/Board_lcd.c **** uint8_t SDFont_table(uint32_t position){
  51              		.loc 1 147 0
  52              		.cfi_startproc
  53              		@ args = 0, pretend = 0, frame = 576
  54              		@ frame_needed = 1, uses_anonymous_args = 0
  55 0000 80B5     		push	{r7, lr}
  56              		.cfi_def_cfa_offset 8
  57              		.cfi_offset 7, -8
  58              		.cfi_offset 14, -4
  59 0002 ADF5107D 		sub	sp, sp, #576
  60              		.cfi_def_cfa_offset 584
  61 0006 00AF     		add	r7, sp, #0
  62              		.cfi_def_cfa_register 7
  63 0008 3B1D     		adds	r3, r7, #4
  64 000a 1860     		str	r0, [r3]
 148:../tasks/display/Board_lcd.c **** 	FIL		FFile;
 149:../tasks/display/Board_lcd.c **** 	uint8_t	DatFromFile;
 150:../tasks/display/Board_lcd.c **** 	uint8_t tmp;
 151:../tasks/display/Board_lcd.c **** 	UINT	rc;
 152:../tasks/display/Board_lcd.c **** 
 153:../tasks/display/Board_lcd.c **** 	if(f_open(&FFile, "cour36b.FBN", FA_READ) == FR_OK)
  65              		.loc 1 153 0
  66 000c 07F11003 		add	r3, r7, #16
  67 0010 1846     		mov	r0, r3
  68 0012 40F20001 		movw	r1, #:lower16:.LC0
  69 0016 C0F20001 		movt	r1, #:upper16:.LC0
  70 001a 0122     		movs	r2, #1
  71 001c FFF7FEFF 		bl	f_open
  72 0020 0346     		mov	r3, r0
  73 0022 002B     		cmp	r3, #0
  74 0024 20D1     		bne	.L2
 154:../tasks/display/Board_lcd.c **** 	{
 155:../tasks/display/Board_lcd.c **** 		f_lseek(&FFile,position);
  75              		.loc 1 155 0
  76 0026 07F11002 		add	r2, r7, #16
  77 002a 3B1D     		adds	r3, r7, #4
  78 002c 1046     		mov	r0, r2
  79 002e 1968     		ldr	r1, [r3]
  80 0030 FFF7FEFF 		bl	f_lseek
 156:../tasks/display/Board_lcd.c **** 		f_read(&FFile, &DatFromFile, 1, &rc);
  81              		.loc 1 156 0
  82 0034 07F11001 		add	r1, r7, #16
  83 0038 07F10F02 		add	r2, r7, #15
  84 003c 07F10803 		add	r3, r7, #8
  85 0040 0846     		mov	r0, r1
  86 0042 1146     		mov	r1, r2
  87 0044 0122     		movs	r2, #1
  88 0046 FFF7FEFF 		bl	f_read
 157:../tasks/display/Board_lcd.c **** 		tmp = DatFromFile;
  89              		.loc 1 157 0
  90 004a 07F10F03 		add	r3, r7, #15
  91 004e 1B78     		ldrb	r3, [r3]
  92 0050 87F83F32 		strb	r3, [r7, #575]
 158:../tasks/display/Board_lcd.c **** 		printf("SDFont_table: %d \n",tmp);
  93              		.loc 1 158 0
  94 0054 97F83F32 		ldrb	r3, [r7, #575]	@ zero_extendqisi2
  95 0058 40F20000 		movw	r0, #:lower16:.LC1
  96 005c C0F20000 		movt	r0, #:upper16:.LC1
  97 0060 1946     		mov	r1, r3
  98 0062 FFF7FEFF 		bl	printf
  99 0066 08E0     		b	.L3
 100              	.L2:
 159:../tasks/display/Board_lcd.c **** 	}else
 160:../tasks/display/Board_lcd.c **** 	{
 161:../tasks/display/Board_lcd.c **** 		tmp = 0;
 101              		.loc 1 161 0
 102 0068 0023     		movs	r3, #0
 103 006a 87F83F32 		strb	r3, [r7, #575]
 162:../tasks/display/Board_lcd.c **** 		printf("SDFont_table error\n");
 104              		.loc 1 162 0
 105 006e 40F20000 		movw	r0, #:lower16:.LC2
 106 0072 C0F20000 		movt	r0, #:upper16:.LC2
 107 0076 FFF7FEFF 		bl	puts
 108              	.L3:
 163:../tasks/display/Board_lcd.c **** 	}
 164:../tasks/display/Board_lcd.c **** 	return	tmp;
 109              		.loc 1 164 0
 110 007a 97F83F32 		ldrb	r3, [r7, #575]	@ zero_extendqisi2
 165:../tasks/display/Board_lcd.c **** }
 111              		.loc 1 165 0
 112 007e 1846     		mov	r0, r3
 113 0080 07F51077 		add	r7, r7, #576
 114 0084 BD46     		mov	sp, r7
 115              		@ sp needed
 116 0086 80BD     		pop	{r7, pc}
 117              		.cfi_endproc
 118              	.LFE55:
 120              		.section	.rodata
 121 0033 00       		.align	2
 122              	.LC3:
 123 0034 636F7572 		.ascii	"cour36b.FFN\000"
 123      3336622E 
 123      46464E00 
 124              		.align	2
 125              	.LC4:
 126 0040 5344466F 		.ascii	"SDFont_Width error\000"
 126      6E745F57 
 126      69647468 
 126      20657272 
 126      6F7200
 127              		.text
 128              		.align	2
 129              		.global	SDFont_Width
 130              		.thumb
 131              		.thumb_func
 133              	SDFont_Width:
 134              	.LFB56:
 166:../tasks/display/Board_lcd.c **** /************************************************************************************
 167:../tasks/display/Board_lcd.c ****  * SDFont_Width
 168:../tasks/display/Board_lcd.c **** *************************************************************************************/
 169:../tasks/display/Board_lcd.c **** uint16_t SDFont_Width(void){
 135              		.loc 1 169 0
 136              		.cfi_startproc
 137              		@ args = 0, pretend = 0, frame = 568
 138              		@ frame_needed = 1, uses_anonymous_args = 0
 139 0088 80B5     		push	{r7, lr}
 140              		.cfi_def_cfa_offset 8
 141              		.cfi_offset 7, -8
 142              		.cfi_offset 14, -4
 143 008a ADF50E7D 		sub	sp, sp, #568
 144              		.cfi_def_cfa_offset 576
 145 008e 00AF     		add	r7, sp, #0
 146              		.cfi_def_cfa_register 7
 170:../tasks/display/Board_lcd.c **** FIL		FFile;
 171:../tasks/display/Board_lcd.c **** uint8_t	DatFromFile[2];
 172:../tasks/display/Board_lcd.c **** UINT	rc;
 173:../tasks/display/Board_lcd.c **** uint16_t tmp;
 174:../tasks/display/Board_lcd.c **** 
 175:../tasks/display/Board_lcd.c **** 	if(f_open(&FFile, "cour36b.FFN", FA_READ) == FR_OK)
 147              		.loc 1 175 0
 148 0090 07F10803 		add	r3, r7, #8
 149 0094 1846     		mov	r0, r3
 150 0096 40F20001 		movw	r1, #:lower16:.LC3
 151 009a C0F20001 		movt	r1, #:upper16:.LC3
 152 009e 0122     		movs	r2, #1
 153 00a0 FFF7FEFF 		bl	f_open
 154 00a4 0346     		mov	r3, r0
 155 00a6 002B     		cmp	r3, #0
 156 00a8 18D1     		bne	.L6
 176:../tasks/display/Board_lcd.c **** 	{
 177:../tasks/display/Board_lcd.c **** 		f_read(&FFile, &DatFromFile, 2, &rc);
 157              		.loc 1 177 0
 158 00aa 07F10801 		add	r1, r7, #8
 159 00ae 3A1D     		adds	r2, r7, #4
 160 00b0 3B46     		mov	r3, r7
 161 00b2 0846     		mov	r0, r1
 162 00b4 1146     		mov	r1, r2
 163 00b6 0222     		movs	r2, #2
 164 00b8 FFF7FEFF 		bl	f_read
 178:../tasks/display/Board_lcd.c **** 		f_close(&FFile);
 165              		.loc 1 178 0
 166 00bc 07F10803 		add	r3, r7, #8
 167 00c0 1846     		mov	r0, r3
 168 00c2 FFF7FEFF 		bl	f_close
 179:../tasks/display/Board_lcd.c **** 		tmp = (uint16_t)DatFromFile[0] << 8 | (uint16_t)DatFromFile[1];
 169              		.loc 1 179 0
 170 00c6 3B1D     		adds	r3, r7, #4
 171 00c8 1B78     		ldrb	r3, [r3]	@ zero_extendqisi2
 172 00ca 1B02     		lsls	r3, r3, #8
 173 00cc 9AB2     		uxth	r2, r3
 174 00ce 3B1D     		adds	r3, r7, #4
 175 00d0 5B78     		ldrb	r3, [r3, #1]	@ zero_extendqisi2
 176 00d2 1343     		orrs	r3, r3, r2
 177 00d4 9BB2     		uxth	r3, r3
 178 00d6 A7F83632 		strh	r3, [r7, #566]	@ movhi
 179 00da 08E0     		b	.L7
 180              	.L6:
 180:../tasks/display/Board_lcd.c **** 	}else {
 181:../tasks/display/Board_lcd.c **** 		tmp = 0;
 181              		.loc 1 181 0
 182 00dc 0023     		movs	r3, #0
 183 00de A7F83632 		strh	r3, [r7, #566]	@ movhi
 182:../tasks/display/Board_lcd.c **** 		printf("SDFont_Width error\n");
 184              		.loc 1 182 0
 185 00e2 40F20000 		movw	r0, #:lower16:.LC4
 186 00e6 C0F20000 		movt	r0, #:upper16:.LC4
 187 00ea FFF7FEFF 		bl	puts
 188              	.L7:
 183:../tasks/display/Board_lcd.c **** 	}
 184:../tasks/display/Board_lcd.c **** 	return	tmp;
 189              		.loc 1 184 0
 190 00ee B7F83632 		ldrh	r3, [r7, #566]
 185:../tasks/display/Board_lcd.c **** }
 191              		.loc 1 185 0
 192 00f2 1846     		mov	r0, r3
 193 00f4 07F50E77 		add	r7, r7, #568
 194 00f8 BD46     		mov	sp, r7
 195              		@ sp needed
 196 00fa 80BD     		pop	{r7, pc}
 197              		.cfi_endproc
 198              	.LFE56:
 200              		.section	.rodata
 201 0053 00       		.align	2
 202              	.LC5:
 203 0054 5344466F 		.ascii	"SDFont_Height error\000"
 203      6E745F48 
 203      65696768 
 203      74206572 
 203      726F7200 
 204              		.text
 205              		.align	2
 206              		.global	SDFont_Height
 207              		.thumb
 208              		.thumb_func
 210              	SDFont_Height:
 211              	.LFB57:
 186:../tasks/display/Board_lcd.c **** /************************************************************************************
 187:../tasks/display/Board_lcd.c ****  * SDFont_Height
 188:../tasks/display/Board_lcd.c **** *************************************************************************************/
 189:../tasks/display/Board_lcd.c **** uint16_t SDFont_Height(void){
 212              		.loc 1 189 0
 213              		.cfi_startproc
 214              		@ args = 0, pretend = 0, frame = 568
 215              		@ frame_needed = 1, uses_anonymous_args = 0
 216 00fc 80B5     		push	{r7, lr}
 217              		.cfi_def_cfa_offset 8
 218              		.cfi_offset 7, -8
 219              		.cfi_offset 14, -4
 220 00fe ADF50E7D 		sub	sp, sp, #568
 221              		.cfi_def_cfa_offset 576
 222 0102 00AF     		add	r7, sp, #0
 223              		.cfi_def_cfa_register 7
 190:../tasks/display/Board_lcd.c **** FIL		FFile;
 191:../tasks/display/Board_lcd.c **** uint8_t	DatFromFile[2];
 192:../tasks/display/Board_lcd.c **** UINT	rc;
 193:../tasks/display/Board_lcd.c **** uint16_t tmp;
 194:../tasks/display/Board_lcd.c **** 
 195:../tasks/display/Board_lcd.c **** 	if(f_open(&FFile, "cour36b.FFN", FA_READ) == FR_OK)
 224              		.loc 1 195 0
 225 0104 07F10803 		add	r3, r7, #8
 226 0108 1846     		mov	r0, r3
 227 010a 40F20001 		movw	r1, #:lower16:.LC3
 228 010e C0F20001 		movt	r1, #:upper16:.LC3
 229 0112 0122     		movs	r2, #1
 230 0114 FFF7FEFF 		bl	f_open
 231 0118 0346     		mov	r3, r0
 232 011a 002B     		cmp	r3, #0
 233 011c 1ED1     		bne	.L10
 196:../tasks/display/Board_lcd.c **** 	{
 197:../tasks/display/Board_lcd.c **** 		f_lseek(&FFile,2);
 234              		.loc 1 197 0
 235 011e 07F10803 		add	r3, r7, #8
 236 0122 1846     		mov	r0, r3
 237 0124 0221     		movs	r1, #2
 238 0126 FFF7FEFF 		bl	f_lseek
 198:../tasks/display/Board_lcd.c **** 		f_read(&FFile, &DatFromFile, 2, &rc);
 239              		.loc 1 198 0
 240 012a 07F10801 		add	r1, r7, #8
 241 012e 3A1D     		adds	r2, r7, #4
 242 0130 3B46     		mov	r3, r7
 243 0132 0846     		mov	r0, r1
 244 0134 1146     		mov	r1, r2
 245 0136 0222     		movs	r2, #2
 246 0138 FFF7FEFF 		bl	f_read
 199:../tasks/display/Board_lcd.c **** 		f_close(&FFile);
 247              		.loc 1 199 0
 248 013c 07F10803 		add	r3, r7, #8
 249 0140 1846     		mov	r0, r3
 250 0142 FFF7FEFF 		bl	f_close
 200:../tasks/display/Board_lcd.c **** 		tmp = (uint16_t)DatFromFile[0] << 8 | (uint16_t)DatFromFile[1];
 251              		.loc 1 200 0
 252 0146 3B1D     		adds	r3, r7, #4
 253 0148 1B78     		ldrb	r3, [r3]	@ zero_extendqisi2
 254 014a 1B02     		lsls	r3, r3, #8
 255 014c 9AB2     		uxth	r2, r3
 256 014e 3B1D     		adds	r3, r7, #4
 257 0150 5B78     		ldrb	r3, [r3, #1]	@ zero_extendqisi2
 258 0152 1343     		orrs	r3, r3, r2
 259 0154 9BB2     		uxth	r3, r3
 260 0156 A7F83632 		strh	r3, [r7, #566]	@ movhi
 261 015a 08E0     		b	.L11
 262              	.L10:
 201:../tasks/display/Board_lcd.c **** 	} else {
 202:../tasks/display/Board_lcd.c **** 		tmp = 0;
 263              		.loc 1 202 0
 264 015c 0023     		movs	r3, #0
 265 015e A7F83632 		strh	r3, [r7, #566]	@ movhi
 203:../tasks/display/Board_lcd.c **** 		printf("SDFont_Height error\n");
 266              		.loc 1 203 0
 267 0162 40F20000 		movw	r0, #:lower16:.LC5
 268 0166 C0F20000 		movt	r0, #:upper16:.LC5
 269 016a FFF7FEFF 		bl	puts
 270              	.L11:
 204:../tasks/display/Board_lcd.c **** 	}
 205:../tasks/display/Board_lcd.c **** 	return	tmp;
 271              		.loc 1 205 0
 272 016e B7F83632 		ldrh	r3, [r7, #566]
 206:../tasks/display/Board_lcd.c **** }
 273              		.loc 1 206 0
 274 0172 1846     		mov	r0, r3
 275 0174 07F50E77 		add	r7, r7, #568
 276 0178 BD46     		mov	sp, r7
 277              		@ sp needed
 278 017a 80BD     		pop	{r7, pc}
 279              		.cfi_endproc
 280              	.LFE57:
 282              		.align	2
 283              		.global	BSP_LCD_Init
 284              		.thumb
 285              		.thumb_func
 287              	BSP_LCD_Init:
 288              	.LFB58:
 207:../tasks/display/Board_lcd.c **** /** @defgroup STM322xG_EVAL_LCD_Private_Functions
 208:../tasks/display/Board_lcd.c ****   * @{
 209:../tasks/display/Board_lcd.c ****   */
 210:../tasks/display/Board_lcd.c **** 
 211:../tasks/display/Board_lcd.c **** /**
 212:../tasks/display/Board_lcd.c ****   * @brief  Initializes the LCD.
 213:../tasks/display/Board_lcd.c ****   * @param  None
 214:../tasks/display/Board_lcd.c ****   * @retval LCD state
 215:../tasks/display/Board_lcd.c ****   */
 216:../tasks/display/Board_lcd.c **** uint8_t BSP_LCD_Init(void)
 217:../tasks/display/Board_lcd.c **** { 
 289              		.loc 1 217 0
 290              		.cfi_startproc
 291              		@ args = 0, pretend = 0, frame = 8
 292              		@ frame_needed = 1, uses_anonymous_args = 0
 293 017c 80B5     		push	{r7, lr}
 294              		.cfi_def_cfa_offset 8
 295              		.cfi_offset 7, -8
 296              		.cfi_offset 14, -4
 297 017e 82B0     		sub	sp, sp, #8
 298              		.cfi_def_cfa_offset 16
 299 0180 00AF     		add	r7, sp, #0
 300              		.cfi_def_cfa_register 7
 218:../tasks/display/Board_lcd.c ****   uint8_t ret = LCD_ERROR;
 301              		.loc 1 218 0
 302 0182 0123     		movs	r3, #1
 303 0184 FB71     		strb	r3, [r7, #7]
 219:../tasks/display/Board_lcd.c ****   
 220:../tasks/display/Board_lcd.c ****   /* Default value for draw propriety */
 221:../tasks/display/Board_lcd.c ****   /* Initialize the font */
 222:../tasks/display/Board_lcd.c ****   DrawProp.FileName  = (uint16_t*)"cour36b.FBN";
 304              		.loc 1 222 0
 305 0186 40F20003 		movw	r3, #:lower16:DrawProp
 306 018a C0F20003 		movt	r3, #:upper16:DrawProp
 307 018e 40F20002 		movw	r2, #:lower16:.LC0
 308 0192 C0F20002 		movt	r2, #:upper16:.LC0
 309 0196 1A60     		str	r2, [r3]
 223:../tasks/display/Board_lcd.c ****   DrawProp.BackColor = 0xFFFF;
 310              		.loc 1 223 0
 311 0198 40F20003 		movw	r3, #:lower16:DrawProp
 312 019c C0F20003 		movt	r3, #:upper16:DrawProp
 313 01a0 4FF6FF72 		movw	r2, #65535
 314 01a4 9A60     		str	r2, [r3, #8]
 224:../tasks/display/Board_lcd.c ****   DrawProp.TextColor = 0x0000;
 315              		.loc 1 224 0
 316 01a6 40F20003 		movw	r3, #:lower16:DrawProp
 317 01aa C0F20003 		movt	r3, #:upper16:DrawProp
 318 01ae 0022     		movs	r2, #0
 319 01b0 5A60     		str	r2, [r3, #4]
 225:../tasks/display/Board_lcd.c ****   DrawProp.pFont = &FontFrom_SD;
 320              		.loc 1 225 0
 321 01b2 40F20003 		movw	r3, #:lower16:DrawProp
 322 01b6 C0F20003 		movt	r3, #:upper16:DrawProp
 323 01ba 40F20002 		movw	r2, #:lower16:FontFrom_SD
 324 01be C0F20002 		movt	r2, #:upper16:FontFrom_SD
 325 01c2 DA60     		str	r2, [r3, #12]
 226:../tasks/display/Board_lcd.c **** 
 227:../tasks/display/Board_lcd.c ****   lcd_drv = &ili9320_drv;
 326              		.loc 1 227 0
 327 01c4 40F20003 		movw	r3, #:lower16:lcd_drv
 328 01c8 C0F20003 		movt	r3, #:upper16:lcd_drv
 329 01cc 40F20002 		movw	r2, #:lower16:ili9320_drv
 330 01d0 C0F20002 		movt	r2, #:upper16:ili9320_drv
 331 01d4 1A60     		str	r2, [r3]
 228:../tasks/display/Board_lcd.c **** 
 229:../tasks/display/Board_lcd.c ****   /* LCD Init */
 230:../tasks/display/Board_lcd.c ****   lcd_drv->Init();
 332              		.loc 1 230 0
 333 01d6 40F20003 		movw	r3, #:lower16:lcd_drv
 334 01da C0F20003 		movt	r3, #:upper16:lcd_drv
 335 01de 1B68     		ldr	r3, [r3]
 336 01e0 1B68     		ldr	r3, [r3]
 337 01e2 9847     		blx	r3
 231:../tasks/display/Board_lcd.c **** 
 232:../tasks/display/Board_lcd.c ****   /* Initialize the font */
 233:../tasks/display/Board_lcd.c **** //  BSP_LCD_SetFont(&LCD_DEFAULT_FONT_SD);			это не нужно т.к. функции читают по  DrawProp.FileName
 234:../tasks/display/Board_lcd.c **** 
 235:../tasks/display/Board_lcd.c ****   ret = LCD_OK;
 338              		.loc 1 235 0
 339 01e4 0023     		movs	r3, #0
 340 01e6 FB71     		strb	r3, [r7, #7]
 236:../tasks/display/Board_lcd.c **** 
 237:../tasks/display/Board_lcd.c ****   return ret;
 341              		.loc 1 237 0
 342 01e8 FB79     		ldrb	r3, [r7, #7]	@ zero_extendqisi2
 238:../tasks/display/Board_lcd.c **** }
 343              		.loc 1 238 0
 344 01ea 1846     		mov	r0, r3
 345 01ec 0837     		adds	r7, r7, #8
 346 01ee BD46     		mov	sp, r7
 347              		@ sp needed
 348 01f0 80BD     		pop	{r7, pc}
 349              		.cfi_endproc
 350              	.LFE58:
 352 01f2 00BF     		.align	2
 353              		.global	BSP_LCD_GetTextWidth
 354              		.thumb
 355              		.thumb_func
 357              	BSP_LCD_GetTextWidth:
 358              	.LFB59:
 239:../tasks/display/Board_lcd.c **** 
 240:../tasks/display/Board_lcd.c **** uint16_t BSP_LCD_GetTextWidth(void)
 241:../tasks/display/Board_lcd.c **** {
 359              		.loc 1 241 0
 360              		.cfi_startproc
 361              		@ args = 0, pretend = 0, frame = 0
 362              		@ frame_needed = 1, uses_anonymous_args = 0
 363 01f4 80B5     		push	{r7, lr}
 364              		.cfi_def_cfa_offset 8
 365              		.cfi_offset 7, -8
 366              		.cfi_offset 14, -4
 367 01f6 00AF     		add	r7, sp, #0
 368              		.cfi_def_cfa_register 7
 242:../tasks/display/Board_lcd.c ****   return DrawProp.pFont->Width()*8;
 369              		.loc 1 242 0
 370 01f8 40F20003 		movw	r3, #:lower16:DrawProp
 371 01fc C0F20003 		movt	r3, #:upper16:DrawProp
 372 0200 DB68     		ldr	r3, [r3, #12]
 373 0202 5B68     		ldr	r3, [r3, #4]
 374 0204 9847     		blx	r3
 375 0206 0346     		mov	r3, r0
 376 0208 DB00     		lsls	r3, r3, #3
 377 020a 9BB2     		uxth	r3, r3
 243:../tasks/display/Board_lcd.c **** }
 378              		.loc 1 243 0
 379 020c 1846     		mov	r0, r3
 380 020e 80BD     		pop	{r7, pc}
 381              		.cfi_endproc
 382              	.LFE59:
 384              		.align	2
 385              		.global	BSP_LCD_GetTextHeight
 386              		.thumb
 387              		.thumb_func
 389              	BSP_LCD_GetTextHeight:
 390              	.LFB60:
 244:../tasks/display/Board_lcd.c **** 
 245:../tasks/display/Board_lcd.c **** uint16_t BSP_LCD_GetTextHeight(void)
 246:../tasks/display/Board_lcd.c **** {
 391              		.loc 1 246 0
 392              		.cfi_startproc
 393              		@ args = 0, pretend = 0, frame = 0
 394              		@ frame_needed = 1, uses_anonymous_args = 0
 395 0210 80B5     		push	{r7, lr}
 396              		.cfi_def_cfa_offset 8
 397              		.cfi_offset 7, -8
 398              		.cfi_offset 14, -4
 399 0212 00AF     		add	r7, sp, #0
 400              		.cfi_def_cfa_register 7
 247:../tasks/display/Board_lcd.c ****   return DrawProp.pFont->Height();
 401              		.loc 1 247 0
 402 0214 40F20003 		movw	r3, #:lower16:DrawProp
 403 0218 C0F20003 		movt	r3, #:upper16:DrawProp
 404 021c DB68     		ldr	r3, [r3, #12]
 405 021e 9B68     		ldr	r3, [r3, #8]
 406 0220 9847     		blx	r3
 407 0222 0346     		mov	r3, r0
 248:../tasks/display/Board_lcd.c **** }
 408              		.loc 1 248 0
 409 0224 1846     		mov	r0, r3
 410 0226 80BD     		pop	{r7, pc}
 411              		.cfi_endproc
 412              	.LFE60:
 414              		.align	2
 415              		.global	BSP_LCD_GetXSize
 416              		.thumb
 417              		.thumb_func
 419              	BSP_LCD_GetXSize:
 420              	.LFB61:
 249:../tasks/display/Board_lcd.c **** /**
 250:../tasks/display/Board_lcd.c ****   * @brief  Gets the LCD X size.
 251:../tasks/display/Board_lcd.c ****   * @param  None    
 252:../tasks/display/Board_lcd.c ****   * @retval Used LCD X size
 253:../tasks/display/Board_lcd.c ****   */
 254:../tasks/display/Board_lcd.c **** uint32_t BSP_LCD_GetXSize(void)
 255:../tasks/display/Board_lcd.c **** {
 421              		.loc 1 255 0
 422              		.cfi_startproc
 423              		@ args = 0, pretend = 0, frame = 0
 424              		@ frame_needed = 1, uses_anonymous_args = 0
 425 0228 80B5     		push	{r7, lr}
 426              		.cfi_def_cfa_offset 8
 427              		.cfi_offset 7, -8
 428              		.cfi_offset 14, -4
 429 022a 00AF     		add	r7, sp, #0
 430              		.cfi_def_cfa_register 7
 256:../tasks/display/Board_lcd.c ****   return(lcd_drv->GetLcdPixelWidth());
 431              		.loc 1 256 0
 432 022c 40F20003 		movw	r3, #:lower16:lcd_drv
 433 0230 C0F20003 		movt	r3, #:upper16:lcd_drv
 434 0234 1B68     		ldr	r3, [r3]
 435 0236 DB6A     		ldr	r3, [r3, #44]
 436 0238 9847     		blx	r3
 437 023a 0346     		mov	r3, r0
 257:../tasks/display/Board_lcd.c **** }
 438              		.loc 1 257 0
 439 023c 1846     		mov	r0, r3
 440 023e 80BD     		pop	{r7, pc}
 441              		.cfi_endproc
 442              	.LFE61:
 444              		.align	2
 445              		.global	BSP_LCD_GetYSize
 446              		.thumb
 447              		.thumb_func
 449              	BSP_LCD_GetYSize:
 450              	.LFB62:
 258:../tasks/display/Board_lcd.c **** 
 259:../tasks/display/Board_lcd.c **** /**
 260:../tasks/display/Board_lcd.c ****   * @brief  Gets the LCD Y size.
 261:../tasks/display/Board_lcd.c ****   * @param  None   
 262:../tasks/display/Board_lcd.c ****   * @retval Used LCD Y size
 263:../tasks/display/Board_lcd.c ****   */
 264:../tasks/display/Board_lcd.c **** uint32_t BSP_LCD_GetYSize(void)
 265:../tasks/display/Board_lcd.c **** {
 451              		.loc 1 265 0
 452              		.cfi_startproc
 453              		@ args = 0, pretend = 0, frame = 0
 454              		@ frame_needed = 1, uses_anonymous_args = 0
 455 0240 80B5     		push	{r7, lr}
 456              		.cfi_def_cfa_offset 8
 457              		.cfi_offset 7, -8
 458              		.cfi_offset 14, -4
 459 0242 00AF     		add	r7, sp, #0
 460              		.cfi_def_cfa_register 7
 266:../tasks/display/Board_lcd.c ****   return(lcd_drv->GetLcdPixelHeight());
 461              		.loc 1 266 0
 462 0244 40F20003 		movw	r3, #:lower16:lcd_drv
 463 0248 C0F20003 		movt	r3, #:upper16:lcd_drv
 464 024c 1B68     		ldr	r3, [r3]
 465 024e 1B6B     		ldr	r3, [r3, #48]
 466 0250 9847     		blx	r3
 467 0252 0346     		mov	r3, r0
 267:../tasks/display/Board_lcd.c **** }
 468              		.loc 1 267 0
 469 0254 1846     		mov	r0, r3
 470 0256 80BD     		pop	{r7, pc}
 471              		.cfi_endproc
 472              	.LFE62:
 474              		.align	2
 475              		.global	BSP_LCD_GetTextColor
 476              		.thumb
 477              		.thumb_func
 479              	BSP_LCD_GetTextColor:
 480              	.LFB63:
 268:../tasks/display/Board_lcd.c **** 
 269:../tasks/display/Board_lcd.c **** /**
 270:../tasks/display/Board_lcd.c ****   * @brief  Gets the LCD text color.
 271:../tasks/display/Board_lcd.c ****   * @param  None 
 272:../tasks/display/Board_lcd.c ****   * @retval Used text color.
 273:../tasks/display/Board_lcd.c ****   */
 274:../tasks/display/Board_lcd.c **** uint16_t BSP_LCD_GetTextColor(void)
 275:../tasks/display/Board_lcd.c **** {
 481              		.loc 1 275 0
 482              		.cfi_startproc
 483              		@ args = 0, pretend = 0, frame = 0
 484              		@ frame_needed = 1, uses_anonymous_args = 0
 485              		@ link register save eliminated.
 486 0258 80B4     		push	{r7}
 487              		.cfi_def_cfa_offset 4
 488              		.cfi_offset 7, -4
 489 025a 00AF     		add	r7, sp, #0
 490              		.cfi_def_cfa_register 7
 276:../tasks/display/Board_lcd.c ****   return DrawProp.TextColor;
 491              		.loc 1 276 0
 492 025c 40F20003 		movw	r3, #:lower16:DrawProp
 493 0260 C0F20003 		movt	r3, #:upper16:DrawProp
 494 0264 5B68     		ldr	r3, [r3, #4]
 495 0266 9BB2     		uxth	r3, r3
 277:../tasks/display/Board_lcd.c **** }
 496              		.loc 1 277 0
 497 0268 1846     		mov	r0, r3
 498 026a BD46     		mov	sp, r7
 499              		@ sp needed
 500 026c 5DF8047B 		ldr	r7, [sp], #4
 501 0270 7047     		bx	lr
 502              		.cfi_endproc
 503              	.LFE63:
 505 0272 00BF     		.align	2
 506              		.global	BSP_LCD_GetBackColor
 507              		.thumb
 508              		.thumb_func
 510              	BSP_LCD_GetBackColor:
 511              	.LFB64:
 278:../tasks/display/Board_lcd.c **** 
 279:../tasks/display/Board_lcd.c **** /**
 280:../tasks/display/Board_lcd.c ****   * @brief  Gets the LCD background color.
 281:../tasks/display/Board_lcd.c ****   * @param  None
 282:../tasks/display/Board_lcd.c ****   * @retval Used background color
 283:../tasks/display/Board_lcd.c ****   */
 284:../tasks/display/Board_lcd.c **** uint16_t BSP_LCD_GetBackColor(void)
 285:../tasks/display/Board_lcd.c **** {
 512              		.loc 1 285 0
 513              		.cfi_startproc
 514              		@ args = 0, pretend = 0, frame = 0
 515              		@ frame_needed = 1, uses_anonymous_args = 0
 516              		@ link register save eliminated.
 517 0274 80B4     		push	{r7}
 518              		.cfi_def_cfa_offset 4
 519              		.cfi_offset 7, -4
 520 0276 00AF     		add	r7, sp, #0
 521              		.cfi_def_cfa_register 7
 286:../tasks/display/Board_lcd.c ****   return DrawProp.BackColor;
 522              		.loc 1 286 0
 523 0278 40F20003 		movw	r3, #:lower16:DrawProp
 524 027c C0F20003 		movt	r3, #:upper16:DrawProp
 525 0280 9B68     		ldr	r3, [r3, #8]
 526 0282 9BB2     		uxth	r3, r3
 287:../tasks/display/Board_lcd.c **** }
 527              		.loc 1 287 0
 528 0284 1846     		mov	r0, r3
 529 0286 BD46     		mov	sp, r7
 530              		@ sp needed
 531 0288 5DF8047B 		ldr	r7, [sp], #4
 532 028c 7047     		bx	lr
 533              		.cfi_endproc
 534              	.LFE64:
 536 028e 00BF     		.align	2
 537              		.global	BSP_LCD_SetTextColor
 538              		.thumb
 539              		.thumb_func
 541              	BSP_LCD_SetTextColor:
 542              	.LFB65:
 288:../tasks/display/Board_lcd.c **** 
 289:../tasks/display/Board_lcd.c **** /**
 290:../tasks/display/Board_lcd.c ****   * @brief  Sets the LCD text color.
 291:../tasks/display/Board_lcd.c ****   * @param  Color: Text color code RGB(5-6-5)
 292:../tasks/display/Board_lcd.c ****   * @retval None
 293:../tasks/display/Board_lcd.c ****   */
 294:../tasks/display/Board_lcd.c **** void BSP_LCD_SetTextColor(uint16_t Color)
 295:../tasks/display/Board_lcd.c **** {
 543              		.loc 1 295 0
 544              		.cfi_startproc
 545              		@ args = 0, pretend = 0, frame = 8
 546              		@ frame_needed = 1, uses_anonymous_args = 0
 547              		@ link register save eliminated.
 548 0290 80B4     		push	{r7}
 549              		.cfi_def_cfa_offset 4
 550              		.cfi_offset 7, -4
 551 0292 83B0     		sub	sp, sp, #12
 552              		.cfi_def_cfa_offset 16
 553 0294 00AF     		add	r7, sp, #0
 554              		.cfi_def_cfa_register 7
 555 0296 0346     		mov	r3, r0
 556 0298 FB80     		strh	r3, [r7, #6]	@ movhi
 296:../tasks/display/Board_lcd.c ****   DrawProp.TextColor = Color;
 557              		.loc 1 296 0
 558 029a FA88     		ldrh	r2, [r7, #6]
 559 029c 40F20003 		movw	r3, #:lower16:DrawProp
 560 02a0 C0F20003 		movt	r3, #:upper16:DrawProp
 561 02a4 5A60     		str	r2, [r3, #4]
 297:../tasks/display/Board_lcd.c **** }
 562              		.loc 1 297 0
 563 02a6 0C37     		adds	r7, r7, #12
 564 02a8 BD46     		mov	sp, r7
 565              		@ sp needed
 566 02aa 5DF8047B 		ldr	r7, [sp], #4
 567 02ae 7047     		bx	lr
 568              		.cfi_endproc
 569              	.LFE65:
 571              		.align	2
 572              		.global	BSP_LCD_SetBackColor
 573              		.thumb
 574              		.thumb_func
 576              	BSP_LCD_SetBackColor:
 577              	.LFB66:
 298:../tasks/display/Board_lcd.c **** 
 299:../tasks/display/Board_lcd.c **** /**
 300:../tasks/display/Board_lcd.c ****   * @brief  Sets the LCD background color.
 301:../tasks/display/Board_lcd.c ****   * @param  Color: Background color code RGB(5-6-5)
 302:../tasks/display/Board_lcd.c ****   * @retval None
 303:../tasks/display/Board_lcd.c ****   */
 304:../tasks/display/Board_lcd.c **** void BSP_LCD_SetBackColor(uint16_t Color)
 305:../tasks/display/Board_lcd.c **** {
 578              		.loc 1 305 0
 579              		.cfi_startproc
 580              		@ args = 0, pretend = 0, frame = 8
 581              		@ frame_needed = 1, uses_anonymous_args = 0
 582              		@ link register save eliminated.
 583 02b0 80B4     		push	{r7}
 584              		.cfi_def_cfa_offset 4
 585              		.cfi_offset 7, -4
 586 02b2 83B0     		sub	sp, sp, #12
 587              		.cfi_def_cfa_offset 16
 588 02b4 00AF     		add	r7, sp, #0
 589              		.cfi_def_cfa_register 7
 590 02b6 0346     		mov	r3, r0
 591 02b8 FB80     		strh	r3, [r7, #6]	@ movhi
 306:../tasks/display/Board_lcd.c ****   DrawProp.BackColor = Color;
 592              		.loc 1 306 0
 593 02ba FA88     		ldrh	r2, [r7, #6]
 594 02bc 40F20003 		movw	r3, #:lower16:DrawProp
 595 02c0 C0F20003 		movt	r3, #:upper16:DrawProp
 596 02c4 9A60     		str	r2, [r3, #8]
 307:../tasks/display/Board_lcd.c **** }
 597              		.loc 1 307 0
 598 02c6 0C37     		adds	r7, r7, #12
 599 02c8 BD46     		mov	sp, r7
 600              		@ sp needed
 601 02ca 5DF8047B 		ldr	r7, [sp], #4
 602 02ce 7047     		bx	lr
 603              		.cfi_endproc
 604              	.LFE66:
 606              		.align	2
 607              		.global	BSP_LCD_SetFont
 608              		.thumb
 609              		.thumb_func
 611              	BSP_LCD_SetFont:
 612              	.LFB67:
 308:../tasks/display/Board_lcd.c **** 
 309:../tasks/display/Board_lcd.c **** /**
 310:../tasks/display/Board_lcd.c ****   * @brief  Sets the LCD text font.
 311:../tasks/display/Board_lcd.c ****   * @param  fonts: Font to be used
 312:../tasks/display/Board_lcd.c ****   * @retval None
 313:../tasks/display/Board_lcd.c ****   */
 314:../tasks/display/Board_lcd.c **** void BSP_LCD_SetFont(uint16_t *fonts)
 315:../tasks/display/Board_lcd.c **** {
 613              		.loc 1 315 0
 614              		.cfi_startproc
 615              		@ args = 0, pretend = 0, frame = 8
 616              		@ frame_needed = 1, uses_anonymous_args = 0
 617              		@ link register save eliminated.
 618 02d0 80B4     		push	{r7}
 619              		.cfi_def_cfa_offset 4
 620              		.cfi_offset 7, -4
 621 02d2 83B0     		sub	sp, sp, #12
 622              		.cfi_def_cfa_offset 16
 623 02d4 00AF     		add	r7, sp, #0
 624              		.cfi_def_cfa_register 7
 625 02d6 7860     		str	r0, [r7, #4]
 316:../tasks/display/Board_lcd.c ****   DrawProp.FileName = fonts;
 626              		.loc 1 316 0
 627 02d8 40F20003 		movw	r3, #:lower16:DrawProp
 628 02dc C0F20003 		movt	r3, #:upper16:DrawProp
 629 02e0 7A68     		ldr	r2, [r7, #4]
 630 02e2 1A60     		str	r2, [r3]
 317:../tasks/display/Board_lcd.c **** }
 631              		.loc 1 317 0
 632 02e4 0C37     		adds	r7, r7, #12
 633 02e6 BD46     		mov	sp, r7
 634              		@ sp needed
 635 02e8 5DF8047B 		ldr	r7, [sp], #4
 636 02ec 7047     		bx	lr
 637              		.cfi_endproc
 638              	.LFE67:
 640 02ee 00BF     		.align	2
 641              		.global	BSP_LCD_GetFont
 642              		.thumb
 643              		.thumb_func
 645              	BSP_LCD_GetFont:
 646              	.LFB68:
 318:../tasks/display/Board_lcd.c **** 
 319:../tasks/display/Board_lcd.c **** 
 320:../tasks/display/Board_lcd.c **** /**
 321:../tasks/display/Board_lcd.c ****   * @brief  Gets the LCD text font.
 322:../tasks/display/Board_lcd.c ****   * @param  None
 323:../tasks/display/Board_lcd.c ****   * @retval Used font
 324:../tasks/display/Board_lcd.c ****   */
 325:../tasks/display/Board_lcd.c **** 
 326:../tasks/display/Board_lcd.c **** uint16_t *BSP_LCD_GetFont(void)
 327:../tasks/display/Board_lcd.c **** {
 647              		.loc 1 327 0
 648              		.cfi_startproc
 649              		@ args = 0, pretend = 0, frame = 0
 650              		@ frame_needed = 1, uses_anonymous_args = 0
 651              		@ link register save eliminated.
 652 02f0 80B4     		push	{r7}
 653              		.cfi_def_cfa_offset 4
 654              		.cfi_offset 7, -4
 655 02f2 00AF     		add	r7, sp, #0
 656              		.cfi_def_cfa_register 7
 328:../tasks/display/Board_lcd.c ****   return DrawProp.FileName;
 657              		.loc 1 328 0
 658 02f4 40F20003 		movw	r3, #:lower16:DrawProp
 659 02f8 C0F20003 		movt	r3, #:upper16:DrawProp
 660 02fc 1B68     		ldr	r3, [r3]
 329:../tasks/display/Board_lcd.c **** }
 661              		.loc 1 329 0
 662 02fe 1846     		mov	r0, r3
 663 0300 BD46     		mov	sp, r7
 664              		@ sp needed
 665 0302 5DF8047B 		ldr	r7, [sp], #4
 666 0306 7047     		bx	lr
 667              		.cfi_endproc
 668              	.LFE68:
 670              		.align	2
 671              		.global	BSP_LCD_Clear
 672              		.thumb
 673              		.thumb_func
 675              	BSP_LCD_Clear:
 676              	.LFB69:
 330:../tasks/display/Board_lcd.c **** 
 331:../tasks/display/Board_lcd.c **** /**
 332:../tasks/display/Board_lcd.c ****   * @brief  Clears the hole LCD.
 333:../tasks/display/Board_lcd.c ****   * @param  Color: Color of the background
 334:../tasks/display/Board_lcd.c ****   * @retval None
 335:../tasks/display/Board_lcd.c ****   */
 336:../tasks/display/Board_lcd.c **** void BSP_LCD_Clear(uint16_t Color)
 337:../tasks/display/Board_lcd.c **** { 
 677              		.loc 1 337 0
 678              		.cfi_startproc
 679              		@ args = 0, pretend = 0, frame = 16
 680              		@ frame_needed = 1, uses_anonymous_args = 0
 681 0308 90B5     		push	{r4, r7, lr}
 682              		.cfi_def_cfa_offset 12
 683              		.cfi_offset 4, -12
 684              		.cfi_offset 7, -8
 685              		.cfi_offset 14, -4
 686 030a 85B0     		sub	sp, sp, #20
 687              		.cfi_def_cfa_offset 32
 688 030c 00AF     		add	r7, sp, #0
 689              		.cfi_def_cfa_register 7
 690 030e 0346     		mov	r3, r0
 691 0310 FB80     		strh	r3, [r7, #6]	@ movhi
 338:../tasks/display/Board_lcd.c ****   uint32_t counter = 0;
 692              		.loc 1 338 0
 693 0312 0023     		movs	r3, #0
 694 0314 FB60     		str	r3, [r7, #12]
 339:../tasks/display/Board_lcd.c ****   uint32_t color_backup = DrawProp.TextColor; 
 695              		.loc 1 339 0
 696 0316 40F20003 		movw	r3, #:lower16:DrawProp
 697 031a C0F20003 		movt	r3, #:upper16:DrawProp
 698 031e 5B68     		ldr	r3, [r3, #4]
 699 0320 BB60     		str	r3, [r7, #8]
 340:../tasks/display/Board_lcd.c ****   DrawProp.TextColor = Color;
 700              		.loc 1 340 0
 701 0322 FA88     		ldrh	r2, [r7, #6]
 702 0324 40F20003 		movw	r3, #:lower16:DrawProp
 703 0328 C0F20003 		movt	r3, #:upper16:DrawProp
 704 032c 5A60     		str	r2, [r3, #4]
 341:../tasks/display/Board_lcd.c ****   
 342:../tasks/display/Board_lcd.c ****   for(counter = 0; counter < BSP_LCD_GetYSize(); counter++)
 705              		.loc 1 342 0
 706 032e 0023     		movs	r3, #0
 707 0330 FB60     		str	r3, [r7, #12]
 708 0332 0DE0     		b	.L33
 709              	.L34:
 343:../tasks/display/Board_lcd.c ****   {
 344:../tasks/display/Board_lcd.c ****     BSP_LCD_DrawHLine(0, counter, BSP_LCD_GetXSize());
 710              		.loc 1 344 0 discriminator 2
 711 0334 FB68     		ldr	r3, [r7, #12]
 712 0336 9CB2     		uxth	r4, r3
 713 0338 FFF7FEFF 		bl	BSP_LCD_GetXSize
 714 033c 0346     		mov	r3, r0
 715 033e 9BB2     		uxth	r3, r3
 716 0340 0020     		movs	r0, #0
 717 0342 2146     		mov	r1, r4
 718 0344 1A46     		mov	r2, r3
 719 0346 FFF7FEFF 		bl	BSP_LCD_DrawHLine
 342:../tasks/display/Board_lcd.c ****   {
 720              		.loc 1 342 0 discriminator 2
 721 034a FB68     		ldr	r3, [r7, #12]
 722 034c 0133     		adds	r3, r3, #1
 723 034e FB60     		str	r3, [r7, #12]
 724              	.L33:
 342:../tasks/display/Board_lcd.c ****   {
 725              		.loc 1 342 0 is_stmt 0 discriminator 1
 726 0350 FFF7FEFF 		bl	BSP_LCD_GetYSize
 727 0354 0246     		mov	r2, r0
 728 0356 FB68     		ldr	r3, [r7, #12]
 729 0358 9A42     		cmp	r2, r3
 730 035a EBD8     		bhi	.L34
 345:../tasks/display/Board_lcd.c ****   }
 346:../tasks/display/Board_lcd.c ****   DrawProp.TextColor = color_backup; 
 731              		.loc 1 346 0 is_stmt 1
 732 035c 40F20003 		movw	r3, #:lower16:DrawProp
 733 0360 C0F20003 		movt	r3, #:upper16:DrawProp
 734 0364 BA68     		ldr	r2, [r7, #8]
 735 0366 5A60     		str	r2, [r3, #4]
 347:../tasks/display/Board_lcd.c ****   BSP_LCD_SetTextColor(DrawProp.TextColor);
 736              		.loc 1 347 0
 737 0368 40F20003 		movw	r3, #:lower16:DrawProp
 738 036c C0F20003 		movt	r3, #:upper16:DrawProp
 739 0370 5B68     		ldr	r3, [r3, #4]
 740 0372 9BB2     		uxth	r3, r3
 741 0374 1846     		mov	r0, r3
 742 0376 FFF7FEFF 		bl	BSP_LCD_SetTextColor
 348:../tasks/display/Board_lcd.c **** }
 743              		.loc 1 348 0
 744 037a 1437     		adds	r7, r7, #20
 745 037c BD46     		mov	sp, r7
 746              		@ sp needed
 747 037e 90BD     		pop	{r4, r7, pc}
 748              		.cfi_endproc
 749              	.LFE69:
 751              		.align	2
 752              		.global	BSP_LCD_ClearStringLine
 753              		.thumb
 754              		.thumb_func
 756              	BSP_LCD_ClearStringLine:
 757              	.LFB70:
 349:../tasks/display/Board_lcd.c **** 
 350:../tasks/display/Board_lcd.c **** /**
 351:../tasks/display/Board_lcd.c ****   * @brief  Clears the selected line.
 352:../tasks/display/Board_lcd.c ****   * @param  Line: Line to be cleared
 353:../tasks/display/Board_lcd.c ****   *          This parameter can be one of the following values:
 354:../tasks/display/Board_lcd.c ****   *            @arg  0..9: if the Current fonts is Font16x24
 355:../tasks/display/Board_lcd.c ****   *            @arg  0..19: if the Current fonts is Font12x12 or Font8x12
 356:../tasks/display/Board_lcd.c ****   *            @arg  0..29: if the Current fonts is Font8x8
 357:../tasks/display/Board_lcd.c ****   * @retval None
 358:../tasks/display/Board_lcd.c ****   */
 359:../tasks/display/Board_lcd.c **** void BSP_LCD_ClearStringLine(uint16_t Line)
 360:../tasks/display/Board_lcd.c **** { 
 758              		.loc 1 360 0
 759              		.cfi_startproc
 760              		@ args = 0, pretend = 0, frame = 16
 761              		@ frame_needed = 1, uses_anonymous_args = 0
 762 0380 B0B5     		push	{r4, r5, r7, lr}
 763              		.cfi_def_cfa_offset 16
 764              		.cfi_offset 4, -16
 765              		.cfi_offset 5, -12
 766              		.cfi_offset 7, -8
 767              		.cfi_offset 14, -4
 768 0382 84B0     		sub	sp, sp, #16
 769              		.cfi_def_cfa_offset 32
 770 0384 00AF     		add	r7, sp, #0
 771              		.cfi_def_cfa_register 7
 772 0386 0346     		mov	r3, r0
 773 0388 FB80     		strh	r3, [r7, #6]	@ movhi
 361:../tasks/display/Board_lcd.c ****   uint32_t color_backup = DrawProp.TextColor; 
 774              		.loc 1 361 0
 775 038a 40F20003 		movw	r3, #:lower16:DrawProp
 776 038e C0F20003 		movt	r3, #:upper16:DrawProp
 777 0392 5B68     		ldr	r3, [r3, #4]
 778 0394 FB60     		str	r3, [r7, #12]
 362:../tasks/display/Board_lcd.c ****   DrawProp.TextColor = DrawProp.BackColor;
 779              		.loc 1 362 0
 780 0396 40F20003 		movw	r3, #:lower16:DrawProp
 781 039a C0F20003 		movt	r3, #:upper16:DrawProp
 782 039e 9A68     		ldr	r2, [r3, #8]
 783 03a0 40F20003 		movw	r3, #:lower16:DrawProp
 784 03a4 C0F20003 		movt	r3, #:upper16:DrawProp
 785 03a8 5A60     		str	r2, [r3, #4]
 363:../tasks/display/Board_lcd.c ****     
 364:../tasks/display/Board_lcd.c ****   /* Draw a rectangle with background color */
 365:../tasks/display/Board_lcd.c ****   BSP_LCD_FillRect(0, (Line * DrawProp.pFont->Height()), BSP_LCD_GetXSize(), DrawProp.pFont->Height
 786              		.loc 1 365 0
 787 03aa 40F20003 		movw	r3, #:lower16:DrawProp
 788 03ae C0F20003 		movt	r3, #:upper16:DrawProp
 789 03b2 DB68     		ldr	r3, [r3, #12]
 790 03b4 9B68     		ldr	r3, [r3, #8]
 791 03b6 9847     		blx	r3
 792 03b8 0346     		mov	r3, r0
 793 03ba FA88     		ldrh	r2, [r7, #6]	@ movhi
 794 03bc 02FB03F3 		mul	r3, r2, r3
 795 03c0 9DB2     		uxth	r5, r3
 796 03c2 FFF7FEFF 		bl	BSP_LCD_GetXSize
 797 03c6 0346     		mov	r3, r0
 798 03c8 9CB2     		uxth	r4, r3
 799 03ca 40F20003 		movw	r3, #:lower16:DrawProp
 800 03ce C0F20003 		movt	r3, #:upper16:DrawProp
 801 03d2 DB68     		ldr	r3, [r3, #12]
 802 03d4 9B68     		ldr	r3, [r3, #8]
 803 03d6 9847     		blx	r3
 804 03d8 0346     		mov	r3, r0
 805 03da 0020     		movs	r0, #0
 806 03dc 2946     		mov	r1, r5
 807 03de 2246     		mov	r2, r4
 808 03e0 FFF7FEFF 		bl	BSP_LCD_FillRect
 366:../tasks/display/Board_lcd.c ****   
 367:../tasks/display/Board_lcd.c ****   DrawProp.TextColor = color_backup;
 809              		.loc 1 367 0
 810 03e4 40F20003 		movw	r3, #:lower16:DrawProp
 811 03e8 C0F20003 		movt	r3, #:upper16:DrawProp
 812 03ec FA68     		ldr	r2, [r7, #12]
 813 03ee 5A60     		str	r2, [r3, #4]
 368:../tasks/display/Board_lcd.c ****   BSP_LCD_SetTextColor(DrawProp.TextColor);
 814              		.loc 1 368 0
 815 03f0 40F20003 		movw	r3, #:lower16:DrawProp
 816 03f4 C0F20003 		movt	r3, #:upper16:DrawProp
 817 03f8 5B68     		ldr	r3, [r3, #4]
 818 03fa 9BB2     		uxth	r3, r3
 819 03fc 1846     		mov	r0, r3
 820 03fe FFF7FEFF 		bl	BSP_LCD_SetTextColor
 369:../tasks/display/Board_lcd.c **** }
 821              		.loc 1 369 0
 822 0402 1037     		adds	r7, r7, #16
 823 0404 BD46     		mov	sp, r7
 824              		@ sp needed
 825 0406 B0BD     		pop	{r4, r5, r7, pc}
 826              		.cfi_endproc
 827              	.LFE70:
 829              		.section	.rodata
 830              		.align	2
 831              	.LC6:
 832 0068 636F7572 		.ascii	"cour36b.FBN f_open error: %d \012\000"
 832      3336622E 
 832      46424E20 
 832      665F6F70 
 832      656E2065 
 833              		.text
 834              		.align	2
 835              		.global	BSP_LCD_DisplayChar
 836              		.thumb
 837              		.thumb_func
 839              	BSP_LCD_DisplayChar:
 840              	.LFB71:
 370:../tasks/display/Board_lcd.c **** 
 371:../tasks/display/Board_lcd.c **** /**
 372:../tasks/display/Board_lcd.c ****   * @brief  Displays one character.
 373:../tasks/display/Board_lcd.c ****   * @param  Xpos: Start column address
 374:../tasks/display/Board_lcd.c ****   * @param  Ypos: Line where to display the character shape.
 375:../tasks/display/Board_lcd.c ****   * @param  Ascii: Character ascii code
 376:../tasks/display/Board_lcd.c ****   *           This parameter must be a number between Min_Data = 0x20 and Max_Data = 0x7E 
 377:../tasks/display/Board_lcd.c ****   * @retval None
 378:../tasks/display/Board_lcd.c ****   */
 379:../tasks/display/Board_lcd.c **** void BSP_LCD_DisplayChar(FIL* FFile, uint16_t Xpos, uint16_t Ypos, uint8_t Ascii)
 380:../tasks/display/Board_lcd.c **** {
 841              		.loc 1 380 0
 842              		.cfi_startproc
 843              		@ args = 0, pretend = 0, frame = 48
 844              		@ frame_needed = 1, uses_anonymous_args = 0
 845 0408 80B5     		push	{r7, lr}
 846              		.cfi_def_cfa_offset 8
 847              		.cfi_offset 7, -8
 848              		.cfi_offset 14, -4
 849 040a 8CB0     		sub	sp, sp, #48
 850              		.cfi_def_cfa_offset 56
 851 040c 00AF     		add	r7, sp, #0
 852              		.cfi_def_cfa_register 7
 853 040e F860     		str	r0, [r7, #12]
 854 0410 7981     		strh	r1, [r7, #10]	@ movhi
 855 0412 3A81     		strh	r2, [r7, #8]	@ movhi
 856 0414 FB71     		strb	r3, [r7, #7]
 381:../tasks/display/Board_lcd.c **** //	extern FIL		FFile;
 382:../tasks/display/Board_lcd.c **** //	uint8_t lineDraw[16];
 383:../tasks/display/Board_lcd.c **** 	uint8_t	DatFromFile[2];
 384:../tasks/display/Board_lcd.c **** 	uint32_t i = 0, j = 0, k = 0;
 857              		.loc 1 384 0
 858 0416 0023     		movs	r3, #0
 859 0418 FB62     		str	r3, [r7, #44]
 860 041a 0023     		movs	r3, #0
 861 041c BB62     		str	r3, [r7, #40]
 862 041e 0023     		movs	r3, #0
 863 0420 7B62     		str	r3, [r7, #36]
 385:../tasks/display/Board_lcd.c **** 	uint16_t height, width,widthpixel;
 386:../tasks/display/Board_lcd.c **** 	UINT	rc;
 387:../tasks/display/Board_lcd.c **** 	uint32_t position;
 388:../tasks/display/Board_lcd.c **** //	uint8_t line;
 389:../tasks/display/Board_lcd.c **** 	FRESULT		error;
 390:../tasks/display/Board_lcd.c **** 
 391:../tasks/display/Board_lcd.c **** 	height = DrawProp.pFont->Height()+1;				// читаем размер символа высота
 864              		.loc 1 391 0
 865 0422 40F20003 		movw	r3, #:lower16:DrawProp
 866 0426 C0F20003 		movt	r3, #:upper16:DrawProp
 867 042a DB68     		ldr	r3, [r3, #12]
 868 042c 9B68     		ldr	r3, [r3, #8]
 869 042e 9847     		blx	r3
 870 0430 0346     		mov	r3, r0
 871 0432 0133     		adds	r3, r3, #1
 872 0434 FB83     		strh	r3, [r7, #30]	@ movhi
 392:../tasks/display/Board_lcd.c **** 	width  = DrawProp.pFont->Width();					// читаем размер символа ширина
 873              		.loc 1 392 0
 874 0436 40F20003 		movw	r3, #:lower16:DrawProp
 875 043a C0F20003 		movt	r3, #:upper16:DrawProp
 876 043e DB68     		ldr	r3, [r3, #12]
 877 0440 5B68     		ldr	r3, [r3, #4]
 878 0442 9847     		blx	r3
 879 0444 0346     		mov	r3, r0
 880 0446 BB83     		strh	r3, [r7, #28]	@ movhi
 393:../tasks/display/Board_lcd.c **** 	widthpixel = width*8;
 881              		.loc 1 393 0
 882 0448 BB8B     		ldrh	r3, [r7, #28]	@ movhi
 883 044a DB00     		lsls	r3, r3, #3
 884 044c 7B83     		strh	r3, [r7, #26]	@ movhi
 394:../tasks/display/Board_lcd.c **** 
 395:../tasks/display/Board_lcd.c **** //	printf("height: %u, width: %u \n",height,width);
 396:../tasks/display/Board_lcd.c **** 
 397:../tasks/display/Board_lcd.c **** 	GFTM070_SetDisplayWindow(Xpos, Ypos, widthpixel,height);			// установим размер окна
 885              		.loc 1 397 0
 886 044e 7889     		ldrh	r0, [r7, #10]
 887 0450 3989     		ldrh	r1, [r7, #8]
 888 0452 7A8B     		ldrh	r2, [r7, #26]
 889 0454 FB8B     		ldrh	r3, [r7, #30]
 890 0456 FFF7FEFF 		bl	GFTM070_SetDisplayWindow
 398:../tasks/display/Board_lcd.c **** 
 399:../tasks/display/Board_lcd.c **** 	if       (Ascii<128) {position = (Ascii-' ') * height * width;}
 891              		.loc 1 399 0
 892 045a FB79     		ldrb	r3, [r7, #7]	@ zero_extendqisi2
 893 045c 5BB2     		sxtb	r3, r3
 894 045e 002B     		cmp	r3, #0
 895 0460 09DB     		blt	.L37
 896              		.loc 1 399 0 is_stmt 0 discriminator 1
 897 0462 FB79     		ldrb	r3, [r7, #7]	@ zero_extendqisi2
 898 0464 203B     		subs	r3, r3, #32
 899 0466 FA8B     		ldrh	r2, [r7, #30]
 900 0468 02FB03F3 		mul	r3, r2, r3
 901 046c BA8B     		ldrh	r2, [r7, #28]
 902 046e 02FB03F3 		mul	r3, r2, r3
 903 0472 3B62     		str	r3, [r7, #32]
 904 0474 0BE0     		b	.L38
 905              	.L37:
 400:../tasks/display/Board_lcd.c **** 	else if ((Ascii>191)) {position = (Ascii-' '-64) * height * width;}
 906              		.loc 1 400 0 is_stmt 1
 907 0476 FB79     		ldrb	r3, [r7, #7]	@ zero_extendqisi2
 908 0478 BF2B     		cmp	r3, #191
 909 047a 08D9     		bls	.L38
 910              		.loc 1 400 0 is_stmt 0 discriminator 1
 911 047c FB79     		ldrb	r3, [r7, #7]	@ zero_extendqisi2
 912 047e 603B     		subs	r3, r3, #96
 913 0480 FA8B     		ldrh	r2, [r7, #30]
 914 0482 02FB03F3 		mul	r3, r2, r3
 915 0486 BA8B     		ldrh	r2, [r7, #28]
 916 0488 02FB03F3 		mul	r3, r2, r3
 917 048c 3B62     		str	r3, [r7, #32]
 918              	.L38:
 401:../tasks/display/Board_lcd.c **** //    printf("ASCII: %u, DrawChar: %u.%u \n",Ascii,(uint16_t)(position>>16),(uint16_t)position);// 
 402:../tasks/display/Board_lcd.c **** 
 403:../tasks/display/Board_lcd.c **** //	error = f_open(&FFile, "Arial72B.FBN", FA_READ);
 404:../tasks/display/Board_lcd.c **** 	error = FR_OK;
 919              		.loc 1 404 0 is_stmt 1
 920 048e 0023     		movs	r3, #0
 921 0490 7B76     		strb	r3, [r7, #25]
 405:../tasks/display/Board_lcd.c **** // с выводом целой строки без пикселей
 406:../tasks/display/Board_lcd.c **** 	if(error == FR_OK)
 922              		.loc 1 406 0
 923 0492 7B7E     		ldrb	r3, [r7, #25]	@ zero_extendqisi2
 924 0494 002B     		cmp	r3, #0
 925 0496 50D1     		bne	.L39
 407:../tasks/display/Board_lcd.c **** 	{
 408:../tasks/display/Board_lcd.c **** 		f_lseek(FFile,position++);			// перейдём в начало символа в файле
 926              		.loc 1 408 0
 927 0498 3B6A     		ldr	r3, [r7, #32]
 928 049a 5A1C     		adds	r2, r3, #1
 929 049c 3A62     		str	r2, [r7, #32]
 930 049e F868     		ldr	r0, [r7, #12]
 931 04a0 1946     		mov	r1, r3
 932 04a2 FFF7FEFF 		bl	f_lseek
 409:../tasks/display/Board_lcd.c **** 
 410:../tasks/display/Board_lcd.c **** 		for(i = 0; i < height; i++)
 933              		.loc 1 410 0
 934 04a6 0023     		movs	r3, #0
 935 04a8 FB62     		str	r3, [r7, #44]
 936 04aa 41E0     		b	.L40
 937              	.L47:
 411:../tasks/display/Board_lcd.c **** 		{
 412:../tasks/display/Board_lcd.c **** 			for (j = 0; j < width; j++)				// читаем всю строку в lineDraw
 938              		.loc 1 412 0
 939 04ac 0023     		movs	r3, #0
 940 04ae BB62     		str	r3, [r7, #40]
 941 04b0 34E0     		b	.L41
 942              	.L46:
 413:../tasks/display/Board_lcd.c **** 		    {
 414:../tasks/display/Board_lcd.c **** 				error = f_read(FFile, &DatFromFile, 1, &rc);
 943              		.loc 1 414 0
 944 04b2 07F11402 		add	r2, r7, #20
 945 04b6 07F11003 		add	r3, r7, #16
 946 04ba F868     		ldr	r0, [r7, #12]
 947 04bc 1146     		mov	r1, r2
 948 04be 0122     		movs	r2, #1
 949 04c0 FFF7FEFF 		bl	f_read
 950 04c4 0346     		mov	r3, r0
 951 04c6 7B76     		strb	r3, [r7, #25]
 415:../tasks/display/Board_lcd.c **** 
 416:../tasks/display/Board_lcd.c **** 			    for (k = 0; k < 8; k++)			// сканим побитно каждый байт			x = x + k + j*8
 952              		.loc 1 416 0
 953 04c8 0023     		movs	r3, #0
 954 04ca 7B62     		str	r3, [r7, #36]
 955 04cc 20E0     		b	.L42
 956              	.L45:
 417:../tasks/display/Board_lcd.c **** 			    {
 418:../tasks/display/Board_lcd.c **** 			    	//if ((!i) && (!j) && (!k)) k+=3;
 419:../tasks/display/Board_lcd.c **** 					 if(DatFromFile[0] & (1 << (7-k))){
 957              		.loc 1 419 0
 958 04ce 3B7D     		ldrb	r3, [r7, #20]	@ zero_extendqisi2
 959 04d0 1A46     		mov	r2, r3
 960 04d2 7B6A     		ldr	r3, [r7, #36]
 961 04d4 C3F10703 		rsb	r3, r3, #7
 962 04d8 42FA03F3 		asr	r3, r2, r3
 963 04dc 03F00103 		and	r3, r3, #1
 964 04e0 002B     		cmp	r3, #0
 965 04e2 09D0     		beq	.L43
 420:../tasks/display/Board_lcd.c **** 						 GFTM070_WriteNextWindowPixel(DrawProp.TextColor);
 966              		.loc 1 420 0
 967 04e4 40F20003 		movw	r3, #:lower16:DrawProp
 968 04e8 C0F20003 		movt	r3, #:upper16:DrawProp
 969 04ec 5B68     		ldr	r3, [r3, #4]
 970 04ee 9BB2     		uxth	r3, r3
 971 04f0 1846     		mov	r0, r3
 972 04f2 FFF7FEFF 		bl	GFTM070_WriteNextWindowPixel
 973 04f6 08E0     		b	.L44
 974              	.L43:
 421:../tasks/display/Board_lcd.c **** 					 } else {
 422:../tasks/display/Board_lcd.c **** 						 GFTM070_WriteNextWindowPixel(DrawProp.BackColor);
 975              		.loc 1 422 0
 976 04f8 40F20003 		movw	r3, #:lower16:DrawProp
 977 04fc C0F20003 		movt	r3, #:upper16:DrawProp
 978 0500 9B68     		ldr	r3, [r3, #8]
 979 0502 9BB2     		uxth	r3, r3
 980 0504 1846     		mov	r0, r3
 981 0506 FFF7FEFF 		bl	GFTM070_WriteNextWindowPixel
 982              	.L44:
 416:../tasks/display/Board_lcd.c **** 			    {
 983              		.loc 1 416 0
 984 050a 7B6A     		ldr	r3, [r7, #36]
 985 050c 0133     		adds	r3, r3, #1
 986 050e 7B62     		str	r3, [r7, #36]
 987              	.L42:
 416:../tasks/display/Board_lcd.c **** 			    {
 988              		.loc 1 416 0 is_stmt 0 discriminator 1
 989 0510 7B6A     		ldr	r3, [r7, #36]
 990 0512 072B     		cmp	r3, #7
 991 0514 DBD9     		bls	.L45
 412:../tasks/display/Board_lcd.c **** 		    {
 992              		.loc 1 412 0 is_stmt 1
 993 0516 BB6A     		ldr	r3, [r7, #40]
 994 0518 0133     		adds	r3, r3, #1
 995 051a BB62     		str	r3, [r7, #40]
 996              	.L41:
 412:../tasks/display/Board_lcd.c **** 		    {
 997              		.loc 1 412 0 is_stmt 0 discriminator 1
 998 051c BA8B     		ldrh	r2, [r7, #28]
 999 051e BB6A     		ldr	r3, [r7, #40]
 1000 0520 9A42     		cmp	r2, r3
 1001 0522 C6D8     		bhi	.L46
 423:../tasks/display/Board_lcd.c **** 					 }
 424:../tasks/display/Board_lcd.c **** 				   //	if ((i==height-1) && (j == width-1) && (k == 3)) k=7;
 425:../tasks/display/Board_lcd.c **** 			    }
 426:../tasks/display/Board_lcd.c **** 
 427:../tasks/display/Board_lcd.c **** 		    }
 428:../tasks/display/Board_lcd.c **** 			//lcd_drv->DrawHDataLine(DrawProp.TextColor,DrawProp.BackColor,Xpos,Ypos+height,&lineDraw[0],wid
 429:../tasks/display/Board_lcd.c **** 
 430:../tasks/display/Board_lcd.c **** 		    Ypos--;
 1002              		.loc 1 430 0 is_stmt 1
 1003 0524 3B89     		ldrh	r3, [r7, #8]
 1004 0526 013B     		subs	r3, r3, #1
 1005 0528 3B81     		strh	r3, [r7, #8]	@ movhi
 410:../tasks/display/Board_lcd.c **** 		{
 1006              		.loc 1 410 0
 1007 052a FB6A     		ldr	r3, [r7, #44]
 1008 052c 0133     		adds	r3, r3, #1
 1009 052e FB62     		str	r3, [r7, #44]
 1010              	.L40:
 410:../tasks/display/Board_lcd.c **** 		{
 1011              		.loc 1 410 0 is_stmt 0 discriminator 1
 1012 0530 FA8B     		ldrh	r2, [r7, #30]
 1013 0532 FB6A     		ldr	r3, [r7, #44]
 1014 0534 9A42     		cmp	r2, r3
 1015 0536 B9D8     		bhi	.L47
 1016 0538 07E0     		b	.L36
 1017              	.L39:
 431:../tasks/display/Board_lcd.c **** 		}
 432:../tasks/display/Board_lcd.c **** 	}else
 433:../tasks/display/Board_lcd.c **** 	{
 434:../tasks/display/Board_lcd.c **** 		printf("cour36b.FBN f_open error: %d \n",error);
 1018              		.loc 1 434 0 is_stmt 1
 1019 053a 7B7E     		ldrb	r3, [r7, #25]	@ zero_extendqisi2
 1020 053c 40F20000 		movw	r0, #:lower16:.LC6
 1021 0540 C0F20000 		movt	r0, #:upper16:.LC6
 1022 0544 1946     		mov	r1, r3
 1023 0546 FFF7FEFF 		bl	printf
 1024              	.L36:
 435:../tasks/display/Board_lcd.c **** 	}
 436:../tasks/display/Board_lcd.c **** 
 437:../tasks/display/Board_lcd.c **** /*
 438:../tasks/display/Board_lcd.c **** 	if(error == FR_OK)
 439:../tasks/display/Board_lcd.c **** 	{
 440:../tasks/display/Board_lcd.c **** 		for(i = 0; i < height; i++)
 441:../tasks/display/Board_lcd.c **** 		{
 442:../tasks/display/Board_lcd.c **** 			for (j = 0; j < width; j++)
 443:../tasks/display/Board_lcd.c **** 		    {
 444:../tasks/display/Board_lcd.c **** 				f_lseek(&FFile,position++);						// переходим на позицию
 445:../tasks/display/Board_lcd.c **** 				f_read(&FFile, &DatFromFile, 1, &rc);			// читаем байт
 446:../tasks/display/Board_lcd.c **** 
 447:../tasks/display/Board_lcd.c **** 		    	line =  DatFromFile;
 448:../tasks/display/Board_lcd.c **** //		  	    printf("%d ",line);
 449:../tasks/display/Board_lcd.c **** 			    for (k = 0; k < 8; k++)			// сканим побитно каждый байт			x = x + k + j*8
 450:../tasks/display/Board_lcd.c **** 			    {
 451:../tasks/display/Board_lcd.c **** 		    	 if(line & (1 << (7-k)))
 452:../tasks/display/Board_lcd.c **** 		    	      {
 453:../tasks/display/Board_lcd.c **** 		    	        BSP_LCD_DrawPixel((Xpos + k + j*8), Ypos+height, DrawProp.TextColor);
 454:../tasks/display/Board_lcd.c **** 		    	      }
 455:../tasks/display/Board_lcd.c **** 		    	      else
 456:../tasks/display/Board_lcd.c **** 		    	      {
 457:../tasks/display/Board_lcd.c **** 		    	        BSP_LCD_DrawPixel((Xpos + k + j*8), Ypos+height, DrawProp.BackColor);
 458:../tasks/display/Board_lcd.c **** 		    	      }
 459:../tasks/display/Board_lcd.c **** 			    }
 460:../tasks/display/Board_lcd.c **** 		    }
 461:../tasks/display/Board_lcd.c **** //			printf("\n");
 462:../tasks/display/Board_lcd.c **** 		    Ypos--;
 463:../tasks/display/Board_lcd.c **** 		}
 464:../tasks/display/Board_lcd.c **** 	}else
 465:../tasks/display/Board_lcd.c **** 	{
 466:../tasks/display/Board_lcd.c **** 		printf("SDFont_table f_open error: %d \n",error);
 467:../tasks/display/Board_lcd.c **** 	}
 468:../tasks/display/Board_lcd.c **** */
 469:../tasks/display/Board_lcd.c **** // f_close(&FFile);
 470:../tasks/display/Board_lcd.c **** }
 1025              		.loc 1 470 0
 1026 054a 3037     		adds	r7, r7, #48
 1027 054c BD46     		mov	sp, r7
 1028              		@ sp needed
 1029 054e 80BD     		pop	{r7, pc}
 1030              		.cfi_endproc
 1031              	.LFE71:
 1033              		.align	2
 1034              		.global	BSP_LCD_DisplayStringAt
 1035              		.thumb
 1036              		.thumb_func
 1038              	BSP_LCD_DisplayStringAt:
 1039              	.LFB72:
 471:../tasks/display/Board_lcd.c **** 
 472:../tasks/display/Board_lcd.c **** /**
 473:../tasks/display/Board_lcd.c ****   * @brief  Displays characters on the LCD.
 474:../tasks/display/Board_lcd.c ****   * @param  Xpos: X position (in pixel)
 475:../tasks/display/Board_lcd.c ****   * @param  Ypos: Y position (in pixel)   
 476:../tasks/display/Board_lcd.c ****   * @param  Text: Pointer to string to display on LCD
 477:../tasks/display/Board_lcd.c ****   * @param  Mode: Display mode
 478:../tasks/display/Board_lcd.c ****   *          This parameter can be one of the following values:
 479:../tasks/display/Board_lcd.c ****   *            @arg  CENTER_MODE
 480:../tasks/display/Board_lcd.c ****   *            @arg  RIGHT_MODE
 481:../tasks/display/Board_lcd.c ****   *            @arg  LEFT_MODE   
 482:../tasks/display/Board_lcd.c ****   * @retval None
 483:../tasks/display/Board_lcd.c ****   */
 484:../tasks/display/Board_lcd.c **** void BSP_LCD_DisplayStringAt(FIL* FFile, uint16_t Xpos, uint16_t Ypos, uint8_t *Text, Line_ModeTypd
 485:../tasks/display/Board_lcd.c **** {
 1040              		.loc 1 485 0
 1041              		.cfi_startproc
 1042              		@ args = 4, pretend = 0, frame = 40
 1043              		@ frame_needed = 1, uses_anonymous_args = 0
 1044 0550 90B5     		push	{r4, r7, lr}
 1045              		.cfi_def_cfa_offset 12
 1046              		.cfi_offset 4, -12
 1047              		.cfi_offset 7, -8
 1048              		.cfi_offset 14, -4
 1049 0552 8BB0     		sub	sp, sp, #44
 1050              		.cfi_def_cfa_offset 56
 1051 0554 00AF     		add	r7, sp, #0
 1052              		.cfi_def_cfa_register 7
 1053 0556 F860     		str	r0, [r7, #12]
 1054 0558 7B60     		str	r3, [r7, #4]
 1055 055a 0B46     		mov	r3, r1	@ movhi
 1056 055c 7B81     		strh	r3, [r7, #10]	@ movhi
 1057 055e 1346     		mov	r3, r2	@ movhi
 1058 0560 3B81     		strh	r3, [r7, #8]	@ movhi
 486:../tasks/display/Board_lcd.c **** //  FIL 	FFile;
 487:../tasks/display/Board_lcd.c ****   uint16_t refcolumn = 1, i = 0;
 1059              		.loc 1 487 0
 1060 0562 0123     		movs	r3, #1
 1061 0564 FB84     		strh	r3, [r7, #38]	@ movhi
 1062 0566 0023     		movs	r3, #0
 1063 0568 BB84     		strh	r3, [r7, #36]	@ movhi
 488:../tasks/display/Board_lcd.c ****   uint32_t size = 0, xsize = 0; 
 1064              		.loc 1 488 0
 1065 056a 0023     		movs	r3, #0
 1066 056c 3B62     		str	r3, [r7, #32]
 1067 056e 0023     		movs	r3, #0
 1068 0570 BB61     		str	r3, [r7, #24]
 489:../tasks/display/Board_lcd.c ****   uint8_t  *ptr = Text;
 1069              		.loc 1 489 0
 1070 0572 7B68     		ldr	r3, [r7, #4]
 1071 0574 FB61     		str	r3, [r7, #28]
 490:../tasks/display/Board_lcd.c ****   uint16_t	sWidth,sHeight;
 491:../tasks/display/Board_lcd.c **** 
 492:../tasks/display/Board_lcd.c ****   sWidth = DrawProp.pFont->Width();
 1072              		.loc 1 492 0
 1073 0576 40F20003 		movw	r3, #:lower16:DrawProp
 1074 057a C0F20003 		movt	r3, #:upper16:DrawProp
 1075 057e DB68     		ldr	r3, [r3, #12]
 1076 0580 5B68     		ldr	r3, [r3, #4]
 1077 0582 9847     		blx	r3
 1078 0584 0346     		mov	r3, r0
 1079 0586 FB82     		strh	r3, [r7, #22]	@ movhi
 493:../tasks/display/Board_lcd.c ****   sHeight = BSP_LCD_GetTextHeight();
 1080              		.loc 1 493 0
 1081 0588 FFF7FEFF 		bl	BSP_LCD_GetTextHeight
 1082 058c 0346     		mov	r3, r0
 1083 058e BB82     		strh	r3, [r7, #20]	@ movhi
 494:../tasks/display/Board_lcd.c **** 
 495:../tasks/display/Board_lcd.c ****    /* размер текста */
 496:../tasks/display/Board_lcd.c ****   while (*ptr++) size ++ ;
 1084              		.loc 1 496 0
 1085 0590 02E0     		b	.L50
 1086              	.L51:
 1087              		.loc 1 496 0 is_stmt 0 discriminator 2
 1088 0592 3B6A     		ldr	r3, [r7, #32]
 1089 0594 0133     		adds	r3, r3, #1
 1090 0596 3B62     		str	r3, [r7, #32]
 1091              	.L50:
 1092              		.loc 1 496 0 discriminator 1
 1093 0598 FB69     		ldr	r3, [r7, #28]
 1094 059a 5A1C     		adds	r2, r3, #1
 1095 059c FA61     		str	r2, [r7, #28]
 1096 059e 1B78     		ldrb	r3, [r3]	@ zero_extendqisi2
 1097 05a0 002B     		cmp	r3, #0
 1098 05a2 F6D1     		bne	.L51
 497:../tasks/display/Board_lcd.c ****   
 498:../tasks/display/Board_lcd.c ****   /* Количество вмещающихся символов в строке с учетом ширины */
 499:../tasks/display/Board_lcd.c ****   xsize = (BSP_LCD_GetXSize()/sWidth);
 1099              		.loc 1 499 0 is_stmt 1
 1100 05a4 FFF7FEFF 		bl	BSP_LCD_GetXSize
 1101 05a8 0246     		mov	r2, r0
 1102 05aa FB8A     		ldrh	r3, [r7, #22]
 1103 05ac B2FBF3F3 		udiv	r3, r2, r3
 1104 05b0 BB61     		str	r3, [r7, #24]
 500:../tasks/display/Board_lcd.c ****   
 501:../tasks/display/Board_lcd.c ****   switch (Mode)
 1105              		.loc 1 501 0
 1106 05b2 97F83830 		ldrb	r3, [r7, #56]	@ zero_extendqisi2
 1107 05b6 022B     		cmp	r3, #2
 1108 05b8 13D0     		beq	.L53
 1109 05ba 032B     		cmp	r3, #3
 1110 05bc 0ED0     		beq	.L54
 1111 05be 012B     		cmp	r3, #1
 1112 05c0 1DD1     		bne	.L60
 502:../tasks/display/Board_lcd.c ****   {
 503:../tasks/display/Board_lcd.c ****   case CENTER_MODE:
 504:../tasks/display/Board_lcd.c ****     {
 505:../tasks/display/Board_lcd.c ****      //  refcolumn = Xpos + ((xsize - size)* DrawProp.pFont->Width) / 2;
 506:../tasks/display/Board_lcd.c ****       refcolumn = Xpos - size/2* sWidth*8;
 1113              		.loc 1 506 0
 1114 05c2 3B6A     		ldr	r3, [r7, #32]
 1115 05c4 5B08     		lsrs	r3, r3, #1
 1116 05c6 9BB2     		uxth	r3, r3
 1117 05c8 FA8A     		ldrh	r2, [r7, #22]	@ movhi
 1118 05ca 02FB03F3 		mul	r3, r2, r3
 1119 05ce 9BB2     		uxth	r3, r3
 1120 05d0 DB00     		lsls	r3, r3, #3
 1121 05d2 9BB2     		uxth	r3, r3
 1122 05d4 7A89     		ldrh	r2, [r7, #10]	@ movhi
 1123 05d6 D31A     		subs	r3, r2, r3
 1124 05d8 FB84     		strh	r3, [r7, #38]	@ movhi
 507:../tasks/display/Board_lcd.c ****       break;
 1125              		.loc 1 507 0
 1126 05da 13E0     		b	.L56
 1127              	.L54:
 508:../tasks/display/Board_lcd.c ****     }
 509:../tasks/display/Board_lcd.c ****   case LEFT_MODE:
 510:../tasks/display/Board_lcd.c ****     {
 511:../tasks/display/Board_lcd.c ****       refcolumn = Xpos;
 1128              		.loc 1 511 0
 1129 05dc 7B89     		ldrh	r3, [r7, #10]	@ movhi
 1130 05de FB84     		strh	r3, [r7, #38]	@ movhi
 512:../tasks/display/Board_lcd.c ****       break;
 1131              		.loc 1 512 0
 1132 05e0 10E0     		b	.L56
 1133              	.L53:
 513:../tasks/display/Board_lcd.c ****     }
 514:../tasks/display/Board_lcd.c ****   case RIGHT_MODE:
 515:../tasks/display/Board_lcd.c ****     {
 516:../tasks/display/Board_lcd.c ****       refcolumn =  - Xpos + ((xsize - size)*sWidth*8);
 1134              		.loc 1 516 0
 1135 05e2 BA69     		ldr	r2, [r7, #24]
 1136 05e4 3B6A     		ldr	r3, [r7, #32]
 1137 05e6 D31A     		subs	r3, r2, r3
 1138 05e8 9BB2     		uxth	r3, r3
 1139 05ea FA8A     		ldrh	r2, [r7, #22]	@ movhi
 1140 05ec 02FB03F3 		mul	r3, r2, r3
 1141 05f0 9BB2     		uxth	r3, r3
 1142 05f2 DB00     		lsls	r3, r3, #3
 1143 05f4 9AB2     		uxth	r2, r3
 1144 05f6 7B89     		ldrh	r3, [r7, #10]	@ movhi
 1145 05f8 D31A     		subs	r3, r2, r3
 1146 05fa FB84     		strh	r3, [r7, #38]	@ movhi
 517:../tasks/display/Board_lcd.c ****       break;
 1147              		.loc 1 517 0
 1148 05fc 02E0     		b	.L56
 1149              	.L60:
 518:../tasks/display/Board_lcd.c ****     }    
 519:../tasks/display/Board_lcd.c ****   default:
 520:../tasks/display/Board_lcd.c ****     {
 521:../tasks/display/Board_lcd.c ****       refcolumn = Xpos;
 1150              		.loc 1 521 0
 1151 05fe 7B89     		ldrh	r3, [r7, #10]	@ movhi
 1152 0600 FB84     		strh	r3, [r7, #38]	@ movhi
 522:../tasks/display/Board_lcd.c ****       break;
 1153              		.loc 1 522 0
 1154 0602 00BF     		nop
 1155              	.L56:
 523:../tasks/display/Board_lcd.c ****     }
 524:../tasks/display/Board_lcd.c ****   }
 525:../tasks/display/Board_lcd.c **** 
 526:../tasks/display/Board_lcd.c ****   // Send the string character by character on lCD
 527:../tasks/display/Board_lcd.c ****   while ((*Text != 0) & (((BSP_LCD_GetXSize() - (i*sWidth)) & 0xFFFF) >= sWidth))
 1156              		.loc 1 527 0
 1157 0604 24E0     		b	.L57
 1158              	.L59:
 528:../tasks/display/Board_lcd.c ****   {
 529:../tasks/display/Board_lcd.c ****    // Display one character on LCD
 530:../tasks/display/Board_lcd.c ****     if (refcolumn > (BSP_LCD_GetXSize()-sWidth*8)) {refcolumn = Xpos;Ypos += sHeight;}
 1159              		.loc 1 530 0
 1160 0606 FC8C     		ldrh	r4, [r7, #38]
 1161 0608 FFF7FEFF 		bl	BSP_LCD_GetXSize
 1162 060c 0146     		mov	r1, r0
 1163 060e FA8A     		ldrh	r2, [r7, #22]
 1164 0610 1346     		mov	r3, r2
 1165 0612 5B07     		lsls	r3, r3, #29
 1166 0614 9B1A     		subs	r3, r3, r2
 1167 0616 DB00     		lsls	r3, r3, #3
 1168 0618 0B44     		add	r3, r3, r1
 1169 061a 9C42     		cmp	r4, r3
 1170 061c 05D9     		bls	.L58
 1171              		.loc 1 530 0 is_stmt 0 discriminator 1
 1172 061e 7B89     		ldrh	r3, [r7, #10]	@ movhi
 1173 0620 FB84     		strh	r3, [r7, #38]	@ movhi
 1174 0622 3A89     		ldrh	r2, [r7, #8]	@ movhi
 1175 0624 BB8A     		ldrh	r3, [r7, #20]	@ movhi
 1176 0626 1344     		add	r3, r3, r2
 1177 0628 3B81     		strh	r3, [r7, #8]	@ movhi
 1178              	.L58:
 531:../tasks/display/Board_lcd.c **** 
 532:../tasks/display/Board_lcd.c ****     	BSP_LCD_DisplayChar(FFile, refcolumn, Ypos, *Text);
 1179              		.loc 1 532 0 is_stmt 1
 1180 062a 7B68     		ldr	r3, [r7, #4]
 1181 062c 1B78     		ldrb	r3, [r3]	@ zero_extendqisi2
 1182 062e F98C     		ldrh	r1, [r7, #38]
 1183 0630 3A89     		ldrh	r2, [r7, #8]
 1184 0632 F868     		ldr	r0, [r7, #12]
 1185 0634 FFF7FEFF 		bl	BSP_LCD_DisplayChar
 533:../tasks/display/Board_lcd.c **** 
 534:../tasks/display/Board_lcd.c ****     // Decrement the column position by 16
 535:../tasks/display/Board_lcd.c ****     refcolumn += ((sWidth-0)*8);
 1186              		.loc 1 535 0
 1187 0638 FB8A     		ldrh	r3, [r7, #22]	@ movhi
 1188 063a DB00     		lsls	r3, r3, #3
 1189 063c 9AB2     		uxth	r2, r3
 1190 063e FB8C     		ldrh	r3, [r7, #38]	@ movhi
 1191 0640 1344     		add	r3, r3, r2
 1192 0642 FB84     		strh	r3, [r7, #38]	@ movhi
 536:../tasks/display/Board_lcd.c **** 
 537:../tasks/display/Board_lcd.c ****     // Point on the next character
 538:../tasks/display/Board_lcd.c ****     Text++;
 1193              		.loc 1 538 0
 1194 0644 7B68     		ldr	r3, [r7, #4]
 1195 0646 0133     		adds	r3, r3, #1
 1196 0648 7B60     		str	r3, [r7, #4]
 539:../tasks/display/Board_lcd.c ****     i++;
 1197              		.loc 1 539 0
 1198 064a BB8C     		ldrh	r3, [r7, #36]
 1199 064c 0133     		adds	r3, r3, #1
 1200 064e BB84     		strh	r3, [r7, #36]	@ movhi
 1201              	.L57:
 527:../tasks/display/Board_lcd.c ****   {
 1202              		.loc 1 527 0 discriminator 1
 1203 0650 7B68     		ldr	r3, [r7, #4]
 1204 0652 1B78     		ldrb	r3, [r3]	@ zero_extendqisi2
 1205 0654 002B     		cmp	r3, #0
 1206 0656 0CBF     		ite	eq
 1207 0658 0023     		moveq	r3, #0
 1208 065a 0123     		movne	r3, #1
 1209 065c DCB2     		uxtb	r4, r3
 1210 065e FFF7FEFF 		bl	BSP_LCD_GetXSize
 1211 0662 0246     		mov	r2, r0
 1212 0664 BB8C     		ldrh	r3, [r7, #36]
 1213 0666 F98A     		ldrh	r1, [r7, #22]
 1214 0668 01FB03F3 		mul	r3, r1, r3
 1215 066c D31A     		subs	r3, r2, r3
 1216 066e 9AB2     		uxth	r2, r3
 1217 0670 FB8A     		ldrh	r3, [r7, #22]
 1218 0672 9A42     		cmp	r2, r3
 1219 0674 34BF     		ite	cc
 1220 0676 0023     		movcc	r3, #0
 1221 0678 0123     		movcs	r3, #1
 1222 067a DBB2     		uxtb	r3, r3
 1223 067c 2340     		ands	r3, r3, r4
 1224 067e DBB2     		uxtb	r3, r3
 1225 0680 002B     		cmp	r3, #0
 1226 0682 C0D1     		bne	.L59
 540:../tasks/display/Board_lcd.c ****   }
 541:../tasks/display/Board_lcd.c **** 
 542:../tasks/display/Board_lcd.c **** //  f_close(&FFile);
 543:../tasks/display/Board_lcd.c **** }
 1227              		.loc 1 543 0
 1228 0684 2C37     		adds	r7, r7, #44
 1229 0686 BD46     		mov	sp, r7
 1230              		@ sp needed
 1231 0688 90BD     		pop	{r4, r7, pc}
 1232              		.cfi_endproc
 1233              	.LFE72:
 1235 068a 00BF     		.align	2
 1236              		.global	BSP_LCD_DisplayStringAtLine
 1237              		.thumb
 1238              		.thumb_func
 1240              	BSP_LCD_DisplayStringAtLine:
 1241              	.LFB73:
 544:../tasks/display/Board_lcd.c **** 
 545:../tasks/display/Board_lcd.c **** /**
 546:../tasks/display/Board_lcd.c ****   * @brief  Displays a character on the LCD.
 547:../tasks/display/Board_lcd.c ****   * @param  Line: Line where to display the character shape
 548:../tasks/display/Board_lcd.c ****   *          This parameter can be one of the following values:
 549:../tasks/display/Board_lcd.c ****   *            @arg  0..9: if the Current fonts is Font16x24  
 550:../tasks/display/Board_lcd.c ****   *            @arg  0..19: if the Current fonts is Font12x12 or Font8x12
 551:../tasks/display/Board_lcd.c ****   *            @arg  0..29: if the Current fonts is Font8x8
 552:../tasks/display/Board_lcd.c ****   * @param  ptr: Pointer to string to display on LCD
 553:../tasks/display/Board_lcd.c ****   * @retval None
 554:../tasks/display/Board_lcd.c ****   */
 555:../tasks/display/Board_lcd.c **** void BSP_LCD_DisplayStringAtLine(uint16_t Line, uint8_t *ptr)
 556:../tasks/display/Board_lcd.c **** {
 1242              		.loc 1 556 0
 1243              		.cfi_startproc
 1244              		@ args = 0, pretend = 0, frame = 8
 1245              		@ frame_needed = 1, uses_anonymous_args = 0
 1246              		@ link register save eliminated.
 1247 068c 80B4     		push	{r7}
 1248              		.cfi_def_cfa_offset 4
 1249              		.cfi_offset 7, -4
 1250 068e 83B0     		sub	sp, sp, #12
 1251              		.cfi_def_cfa_offset 16
 1252 0690 00AF     		add	r7, sp, #0
 1253              		.cfi_def_cfa_register 7
 1254 0692 0346     		mov	r3, r0
 1255 0694 3960     		str	r1, [r7]
 1256 0696 FB80     		strh	r3, [r7, #6]	@ movhi
 557:../tasks/display/Board_lcd.c **** //  BSP_LCD_DisplayStringAt(0, LINE(Line), ptr, LEFT_MODE);
 558:../tasks/display/Board_lcd.c **** }
 1257              		.loc 1 558 0
 1258 0698 0C37     		adds	r7, r7, #12
 1259 069a BD46     		mov	sp, r7
 1260              		@ sp needed
 1261 069c 5DF8047B 		ldr	r7, [sp], #4
 1262 06a0 7047     		bx	lr
 1263              		.cfi_endproc
 1264              	.LFE73:
 1266 06a2 00BF     		.align	2
 1267              		.global	BSP_LCD_ReadPixel
 1268              		.thumb
 1269              		.thumb_func
 1271              	BSP_LCD_ReadPixel:
 1272              	.LFB74:
 559:../tasks/display/Board_lcd.c **** 
 560:../tasks/display/Board_lcd.c **** /**
 561:../tasks/display/Board_lcd.c ****   * @brief  Reads an LCD pixel.
 562:../tasks/display/Board_lcd.c ****   * @param  Xpos: X position 
 563:../tasks/display/Board_lcd.c ****   * @param  Ypos: Y position 
 564:../tasks/display/Board_lcd.c ****   * @retval RGB pixel color
 565:../tasks/display/Board_lcd.c ****   */
 566:../tasks/display/Board_lcd.c **** uint16_t BSP_LCD_ReadPixel(uint16_t Xpos, uint16_t Ypos)
 567:../tasks/display/Board_lcd.c **** {
 1273              		.loc 1 567 0
 1274              		.cfi_startproc
 1275              		@ args = 0, pretend = 0, frame = 16
 1276              		@ frame_needed = 1, uses_anonymous_args = 0
 1277 06a4 80B5     		push	{r7, lr}
 1278              		.cfi_def_cfa_offset 8
 1279              		.cfi_offset 7, -8
 1280              		.cfi_offset 14, -4
 1281 06a6 84B0     		sub	sp, sp, #16
 1282              		.cfi_def_cfa_offset 24
 1283 06a8 00AF     		add	r7, sp, #0
 1284              		.cfi_def_cfa_register 7
 1285 06aa 0246     		mov	r2, r0
 1286 06ac 0B46     		mov	r3, r1
 1287 06ae FA80     		strh	r2, [r7, #6]	@ movhi
 1288 06b0 BB80     		strh	r3, [r7, #4]	@ movhi
 568:../tasks/display/Board_lcd.c ****   uint16_t ret = 0;
 1289              		.loc 1 568 0
 1290 06b2 0023     		movs	r3, #0
 1291 06b4 FB81     		strh	r3, [r7, #14]	@ movhi
 569:../tasks/display/Board_lcd.c ****   
 570:../tasks/display/Board_lcd.c ****   if(lcd_drv->ReadPixel != NULL)
 1292              		.loc 1 570 0
 1293 06b6 40F20003 		movw	r3, #:lower16:lcd_drv
 1294 06ba C0F20003 		movt	r3, #:upper16:lcd_drv
 1295 06be 1B68     		ldr	r3, [r3]
 1296 06c0 DB69     		ldr	r3, [r3, #28]
 1297 06c2 002B     		cmp	r3, #0
 1298 06c4 0CD0     		beq	.L63
 571:../tasks/display/Board_lcd.c ****   {
 572:../tasks/display/Board_lcd.c ****     ret = lcd_drv->ReadPixel(Xpos, Ypos);
 1299              		.loc 1 572 0
 1300 06c6 40F20003 		movw	r3, #:lower16:lcd_drv
 1301 06ca C0F20003 		movt	r3, #:upper16:lcd_drv
 1302 06ce 1B68     		ldr	r3, [r3]
 1303 06d0 DB69     		ldr	r3, [r3, #28]
 1304 06d2 F988     		ldrh	r1, [r7, #6]
 1305 06d4 BA88     		ldrh	r2, [r7, #4]
 1306 06d6 0846     		mov	r0, r1
 1307 06d8 1146     		mov	r1, r2
 1308 06da 9847     		blx	r3
 1309 06dc 0346     		mov	r3, r0
 1310 06de FB81     		strh	r3, [r7, #14]	@ movhi
 1311              	.L63:
 573:../tasks/display/Board_lcd.c ****   }
 574:../tasks/display/Board_lcd.c ****     
 575:../tasks/display/Board_lcd.c ****   return ret;
 1312              		.loc 1 575 0
 1313 06e0 FB89     		ldrh	r3, [r7, #14]
 576:../tasks/display/Board_lcd.c **** }
 1314              		.loc 1 576 0
 1315 06e2 1846     		mov	r0, r3
 1316 06e4 1037     		adds	r7, r7, #16
 1317 06e6 BD46     		mov	sp, r7
 1318              		@ sp needed
 1319 06e8 80BD     		pop	{r7, pc}
 1320              		.cfi_endproc
 1321              	.LFE74:
 1323 06ea 00BF     		.align	2
 1324              		.global	BSP_LCD_DrawPixel
 1325              		.thumb
 1326              		.thumb_func
 1328              	BSP_LCD_DrawPixel:
 1329              	.LFB75:
 577:../tasks/display/Board_lcd.c **** 
 578:../tasks/display/Board_lcd.c **** /**
 579:../tasks/display/Board_lcd.c ****   * @brief  Draws a pixel on LCD.
 580:../tasks/display/Board_lcd.c ****   * @param  Xpos: X position 
 581:../tasks/display/Board_lcd.c ****   * @param  Ypos: Y position
 582:../tasks/display/Board_lcd.c ****   * @param  RGB_Code: Pixel color in RGB mode (5-6-5)  
 583:../tasks/display/Board_lcd.c ****   * @retval None
 584:../tasks/display/Board_lcd.c ****   */
 585:../tasks/display/Board_lcd.c **** void BSP_LCD_DrawPixel(uint16_t Xpos, uint16_t Ypos, uint16_t RGB_Code)
 586:../tasks/display/Board_lcd.c **** {
 1330              		.loc 1 586 0
 1331              		.cfi_startproc
 1332              		@ args = 0, pretend = 0, frame = 8
 1333              		@ frame_needed = 1, uses_anonymous_args = 0
 1334 06ec 80B5     		push	{r7, lr}
 1335              		.cfi_def_cfa_offset 8
 1336              		.cfi_offset 7, -8
 1337              		.cfi_offset 14, -4
 1338 06ee 82B0     		sub	sp, sp, #8
 1339              		.cfi_def_cfa_offset 16
 1340 06f0 00AF     		add	r7, sp, #0
 1341              		.cfi_def_cfa_register 7
 1342 06f2 1346     		mov	r3, r2
 1343 06f4 0246     		mov	r2, r0	@ movhi
 1344 06f6 FA80     		strh	r2, [r7, #6]	@ movhi
 1345 06f8 0A46     		mov	r2, r1	@ movhi
 1346 06fa BA80     		strh	r2, [r7, #4]	@ movhi
 1347 06fc 7B80     		strh	r3, [r7, #2]	@ movhi
 587:../tasks/display/Board_lcd.c ****   if(lcd_drv->WritePixel != NULL)
 1348              		.loc 1 587 0
 1349 06fe 40F20003 		movw	r3, #:lower16:lcd_drv
 1350 0702 C0F20003 		movt	r3, #:upper16:lcd_drv
 1351 0706 1B68     		ldr	r3, [r3]
 1352 0708 5B69     		ldr	r3, [r3, #20]
 1353 070a 002B     		cmp	r3, #0
 1354 070c 09D0     		beq	.L65
 588:../tasks/display/Board_lcd.c ****   {
 589:../tasks/display/Board_lcd.c ****     lcd_drv->WritePixel(Xpos, Ypos, RGB_Code);
 1355              		.loc 1 589 0
 1356 070e 40F20003 		movw	r3, #:lower16:lcd_drv
 1357 0712 C0F20003 		movt	r3, #:upper16:lcd_drv
 1358 0716 1B68     		ldr	r3, [r3]
 1359 0718 5B69     		ldr	r3, [r3, #20]
 1360 071a F888     		ldrh	r0, [r7, #6]
 1361 071c B988     		ldrh	r1, [r7, #4]
 1362 071e 7A88     		ldrh	r2, [r7, #2]
 1363 0720 9847     		blx	r3
 1364              	.L65:
 590:../tasks/display/Board_lcd.c ****   }
 591:../tasks/display/Board_lcd.c **** }
 1365              		.loc 1 591 0
 1366 0722 0837     		adds	r7, r7, #8
 1367 0724 BD46     		mov	sp, r7
 1368              		@ sp needed
 1369 0726 80BD     		pop	{r7, pc}
 1370              		.cfi_endproc
 1371              	.LFE75:
 1373              		.align	2
 1374              		.global	BSP_LCD_DrawHLine
 1375              		.thumb
 1376              		.thumb_func
 1378              	BSP_LCD_DrawHLine:
 1379              	.LFB76:
 592:../tasks/display/Board_lcd.c ****   
 593:../tasks/display/Board_lcd.c **** /**
 594:../tasks/display/Board_lcd.c ****   * @brief  Draws an horizontal line.
 595:../tasks/display/Board_lcd.c ****   * @param  Xpos: X position
 596:../tasks/display/Board_lcd.c ****   * @param  Ypos: Y position
 597:../tasks/display/Board_lcd.c ****   * @param  Length: Line length
 598:../tasks/display/Board_lcd.c ****   * @retval None
 599:../tasks/display/Board_lcd.c ****   */
 600:../tasks/display/Board_lcd.c **** void BSP_LCD_DrawHLine(uint16_t Xpos, uint16_t Ypos, uint16_t Length)
 601:../tasks/display/Board_lcd.c **** {
 1380              		.loc 1 601 0
 1381              		.cfi_startproc
 1382              		@ args = 0, pretend = 0, frame = 16
 1383              		@ frame_needed = 1, uses_anonymous_args = 0
 1384 0728 90B5     		push	{r4, r7, lr}
 1385              		.cfi_def_cfa_offset 12
 1386              		.cfi_offset 4, -12
 1387              		.cfi_offset 7, -8
 1388              		.cfi_offset 14, -4
 1389 072a 85B0     		sub	sp, sp, #20
 1390              		.cfi_def_cfa_offset 32
 1391 072c 00AF     		add	r7, sp, #0
 1392              		.cfi_def_cfa_register 7
 1393 072e 1346     		mov	r3, r2
 1394 0730 0246     		mov	r2, r0	@ movhi
 1395 0732 FA80     		strh	r2, [r7, #6]	@ movhi
 1396 0734 0A46     		mov	r2, r1	@ movhi
 1397 0736 BA80     		strh	r2, [r7, #4]	@ movhi
 1398 0738 7B80     		strh	r3, [r7, #2]	@ movhi
 602:../tasks/display/Board_lcd.c ****   uint32_t index = 0;
 1399              		.loc 1 602 0
 1400 073a 0023     		movs	r3, #0
 1401 073c FB60     		str	r3, [r7, #12]
 603:../tasks/display/Board_lcd.c ****   
 604:../tasks/display/Board_lcd.c ****   if(lcd_drv->DrawHLine != NULL)
 1402              		.loc 1 604 0
 1403 073e 40F20003 		movw	r3, #:lower16:lcd_drv
 1404 0742 C0F20003 		movt	r3, #:upper16:lcd_drv
 1405 0746 1B68     		ldr	r3, [r3]
 1406 0748 5B6A     		ldr	r3, [r3, #36]
 1407 074a 002B     		cmp	r3, #0
 1408 074c 10D0     		beq	.L68
 605:../tasks/display/Board_lcd.c ****   {
 606:../tasks/display/Board_lcd.c ****     lcd_drv->DrawHLine(DrawProp.TextColor, Xpos, Ypos, Length);
 1409              		.loc 1 606 0
 1410 074e 40F20003 		movw	r3, #:lower16:lcd_drv
 1411 0752 C0F20003 		movt	r3, #:upper16:lcd_drv
 1412 0756 1B68     		ldr	r3, [r3]
 1413 0758 5C6A     		ldr	r4, [r3, #36]
 1414 075a 40F20003 		movw	r3, #:lower16:DrawProp
 1415 075e C0F20003 		movt	r3, #:upper16:DrawProp
 1416 0762 5B68     		ldr	r3, [r3, #4]
 1417 0764 98B2     		uxth	r0, r3
 1418 0766 F988     		ldrh	r1, [r7, #6]
 1419 0768 BA88     		ldrh	r2, [r7, #4]
 1420 076a 7B88     		ldrh	r3, [r7, #2]
 1421 076c A047     		blx	r4
 1422 076e 1AE0     		b	.L67
 1423              	.L68:
 607:../tasks/display/Board_lcd.c ****   }
 608:../tasks/display/Board_lcd.c ****   else
 609:../tasks/display/Board_lcd.c ****   {
 610:../tasks/display/Board_lcd.c ****     for(index = 0; index < Length; index++)
 1424              		.loc 1 610 0
 1425 0770 0023     		movs	r3, #0
 1426 0772 FB60     		str	r3, [r7, #12]
 1427 0774 13E0     		b	.L70
 1428              	.L71:
 611:../tasks/display/Board_lcd.c ****     {
 612:../tasks/display/Board_lcd.c ****       BSP_LCD_DrawPixel((Xpos + index), Ypos, DrawProp.TextColor);
 1429              		.loc 1 612 0 discriminator 2
 1430 0776 FB68     		ldr	r3, [r7, #12]
 1431 0778 9AB2     		uxth	r2, r3
 1432 077a FB88     		ldrh	r3, [r7, #6]	@ movhi
 1433 077c 1344     		add	r3, r3, r2
 1434 077e 99B2     		uxth	r1, r3
 1435 0780 40F20003 		movw	r3, #:lower16:DrawProp
 1436 0784 C0F20003 		movt	r3, #:upper16:DrawProp
 1437 0788 5B68     		ldr	r3, [r3, #4]
 1438 078a 9BB2     		uxth	r3, r3
 1439 078c BA88     		ldrh	r2, [r7, #4]
 1440 078e 0846     		mov	r0, r1
 1441 0790 1146     		mov	r1, r2
 1442 0792 1A46     		mov	r2, r3
 1443 0794 FFF7FEFF 		bl	BSP_LCD_DrawPixel
 610:../tasks/display/Board_lcd.c ****     {
 1444              		.loc 1 610 0 discriminator 2
 1445 0798 FB68     		ldr	r3, [r7, #12]
 1446 079a 0133     		adds	r3, r3, #1
 1447 079c FB60     		str	r3, [r7, #12]
 1448              	.L70:
 610:../tasks/display/Board_lcd.c ****     {
 1449              		.loc 1 610 0 is_stmt 0 discriminator 1
 1450 079e 7A88     		ldrh	r2, [r7, #2]
 1451 07a0 FB68     		ldr	r3, [r7, #12]
 1452 07a2 9A42     		cmp	r2, r3
 1453 07a4 E7D8     		bhi	.L71
 1454              	.L67:
 613:../tasks/display/Board_lcd.c ****     }
 614:../tasks/display/Board_lcd.c ****   }
 615:../tasks/display/Board_lcd.c **** }
 1455              		.loc 1 615 0 is_stmt 1
 1456 07a6 1437     		adds	r7, r7, #20
 1457 07a8 BD46     		mov	sp, r7
 1458              		@ sp needed
 1459 07aa 90BD     		pop	{r4, r7, pc}
 1460              		.cfi_endproc
 1461              	.LFE76:
 1463              		.align	2
 1464              		.global	BSP_LCD_DrawVLine
 1465              		.thumb
 1466              		.thumb_func
 1468              	BSP_LCD_DrawVLine:
 1469              	.LFB77:
 616:../tasks/display/Board_lcd.c **** 
 617:../tasks/display/Board_lcd.c **** /**
 618:../tasks/display/Board_lcd.c ****   * @brief  Draws a vertical line.
 619:../tasks/display/Board_lcd.c ****   * @param  Xpos: X position
 620:../tasks/display/Board_lcd.c ****   * @param  Ypos: Y position
 621:../tasks/display/Board_lcd.c ****   * @param  Length: Line length
 622:../tasks/display/Board_lcd.c ****   * @retval None
 623:../tasks/display/Board_lcd.c ****   */
 624:../tasks/display/Board_lcd.c **** void BSP_LCD_DrawVLine(uint16_t Xpos, uint16_t Ypos, uint16_t Length)
 625:../tasks/display/Board_lcd.c **** {
 1470              		.loc 1 625 0
 1471              		.cfi_startproc
 1472              		@ args = 0, pretend = 0, frame = 16
 1473              		@ frame_needed = 1, uses_anonymous_args = 0
 1474 07ac 90B5     		push	{r4, r7, lr}
 1475              		.cfi_def_cfa_offset 12
 1476              		.cfi_offset 4, -12
 1477              		.cfi_offset 7, -8
 1478              		.cfi_offset 14, -4
 1479 07ae 85B0     		sub	sp, sp, #20
 1480              		.cfi_def_cfa_offset 32
 1481 07b0 00AF     		add	r7, sp, #0
 1482              		.cfi_def_cfa_register 7
 1483 07b2 1346     		mov	r3, r2
 1484 07b4 0246     		mov	r2, r0	@ movhi
 1485 07b6 FA80     		strh	r2, [r7, #6]	@ movhi
 1486 07b8 0A46     		mov	r2, r1	@ movhi
 1487 07ba BA80     		strh	r2, [r7, #4]	@ movhi
 1488 07bc 7B80     		strh	r3, [r7, #2]	@ movhi
 626:../tasks/display/Board_lcd.c ****   uint32_t index = 0;
 1489              		.loc 1 626 0
 1490 07be 0023     		movs	r3, #0
 1491 07c0 FB60     		str	r3, [r7, #12]
 627:../tasks/display/Board_lcd.c ****   
 628:../tasks/display/Board_lcd.c ****   if(lcd_drv->DrawVLine != NULL)
 1492              		.loc 1 628 0
 1493 07c2 40F20003 		movw	r3, #:lower16:lcd_drv
 1494 07c6 C0F20003 		movt	r3, #:upper16:lcd_drv
 1495 07ca 1B68     		ldr	r3, [r3]
 1496 07cc 9B6A     		ldr	r3, [r3, #40]
 1497 07ce 002B     		cmp	r3, #0
 1498 07d0 10D0     		beq	.L73
 629:../tasks/display/Board_lcd.c ****   {
 630:../tasks/display/Board_lcd.c ****     lcd_drv->DrawVLine(DrawProp.TextColor, Xpos, Ypos, Length);
 1499              		.loc 1 630 0
 1500 07d2 40F20003 		movw	r3, #:lower16:lcd_drv
 1501 07d6 C0F20003 		movt	r3, #:upper16:lcd_drv
 1502 07da 1B68     		ldr	r3, [r3]
 1503 07dc 9C6A     		ldr	r4, [r3, #40]
 1504 07de 40F20003 		movw	r3, #:lower16:DrawProp
 1505 07e2 C0F20003 		movt	r3, #:upper16:DrawProp
 1506 07e6 5B68     		ldr	r3, [r3, #4]
 1507 07e8 98B2     		uxth	r0, r3
 1508 07ea F988     		ldrh	r1, [r7, #6]
 1509 07ec BA88     		ldrh	r2, [r7, #4]
 1510 07ee 7B88     		ldrh	r3, [r7, #2]
 1511 07f0 A047     		blx	r4
 1512 07f2 1AE0     		b	.L72
 1513              	.L73:
 631:../tasks/display/Board_lcd.c ****   }
 632:../tasks/display/Board_lcd.c ****   else
 633:../tasks/display/Board_lcd.c ****   {
 634:../tasks/display/Board_lcd.c ****     for(index = 0; index < Length; index++)
 1514              		.loc 1 634 0
 1515 07f4 0023     		movs	r3, #0
 1516 07f6 FB60     		str	r3, [r7, #12]
 1517 07f8 13E0     		b	.L75
 1518              	.L76:
 635:../tasks/display/Board_lcd.c ****     {
 636:../tasks/display/Board_lcd.c ****       BSP_LCD_DrawPixel(Xpos, Ypos + index, DrawProp.TextColor);
 1519              		.loc 1 636 0 discriminator 2
 1520 07fa FB68     		ldr	r3, [r7, #12]
 1521 07fc 9AB2     		uxth	r2, r3
 1522 07fe BB88     		ldrh	r3, [r7, #4]	@ movhi
 1523 0800 1344     		add	r3, r3, r2
 1524 0802 9AB2     		uxth	r2, r3
 1525 0804 40F20003 		movw	r3, #:lower16:DrawProp
 1526 0808 C0F20003 		movt	r3, #:upper16:DrawProp
 1527 080c 5B68     		ldr	r3, [r3, #4]
 1528 080e 9BB2     		uxth	r3, r3
 1529 0810 F988     		ldrh	r1, [r7, #6]
 1530 0812 0846     		mov	r0, r1
 1531 0814 1146     		mov	r1, r2
 1532 0816 1A46     		mov	r2, r3
 1533 0818 FFF7FEFF 		bl	BSP_LCD_DrawPixel
 634:../tasks/display/Board_lcd.c ****     {
 1534              		.loc 1 634 0 discriminator 2
 1535 081c FB68     		ldr	r3, [r7, #12]
 1536 081e 0133     		adds	r3, r3, #1
 1537 0820 FB60     		str	r3, [r7, #12]
 1538              	.L75:
 634:../tasks/display/Board_lcd.c ****     {
 1539              		.loc 1 634 0 is_stmt 0 discriminator 1
 1540 0822 7A88     		ldrh	r2, [r7, #2]
 1541 0824 FB68     		ldr	r3, [r7, #12]
 1542 0826 9A42     		cmp	r2, r3
 1543 0828 E7D8     		bhi	.L76
 1544              	.L72:
 637:../tasks/display/Board_lcd.c ****     }
 638:../tasks/display/Board_lcd.c ****   }
 639:../tasks/display/Board_lcd.c **** }
 1545              		.loc 1 639 0 is_stmt 1
 1546 082a 1437     		adds	r7, r7, #20
 1547 082c BD46     		mov	sp, r7
 1548              		@ sp needed
 1549 082e 90BD     		pop	{r4, r7, pc}
 1550              		.cfi_endproc
 1551              	.LFE77:
 1553              		.align	2
 1554              		.global	BSP_LCD_DrawLine
 1555              		.thumb
 1556              		.thumb_func
 1558              	BSP_LCD_DrawLine:
 1559              	.LFB78:
 640:../tasks/display/Board_lcd.c **** 
 641:../tasks/display/Board_lcd.c **** /**
 642:../tasks/display/Board_lcd.c ****   * @brief  Draws an uni-line (between two points).
 643:../tasks/display/Board_lcd.c ****   * @param  x1: Point 1 X position
 644:../tasks/display/Board_lcd.c ****   * @param  y1: Point 1 Y position
 645:../tasks/display/Board_lcd.c ****   * @param  x2: Point 2 X position
 646:../tasks/display/Board_lcd.c ****   * @param  y2: Point 2 Y position
 647:../tasks/display/Board_lcd.c ****   * @retval None
 648:../tasks/display/Board_lcd.c ****   */
 649:../tasks/display/Board_lcd.c **** void BSP_LCD_DrawLine(uint16_t x1, uint16_t y1, uint16_t x2, uint16_t y2)
 650:../tasks/display/Board_lcd.c **** {
 1560              		.loc 1 650 0
 1561              		.cfi_startproc
 1562              		@ args = 0, pretend = 0, frame = 40
 1563              		@ frame_needed = 1, uses_anonymous_args = 0
 1564 0830 80B5     		push	{r7, lr}
 1565              		.cfi_def_cfa_offset 8
 1566              		.cfi_offset 7, -8
 1567              		.cfi_offset 14, -4
 1568 0832 8AB0     		sub	sp, sp, #40
 1569              		.cfi_def_cfa_offset 48
 1570 0834 00AF     		add	r7, sp, #0
 1571              		.cfi_def_cfa_register 7
 1572 0836 F880     		strh	r0, [r7, #6]	@ movhi
 1573 0838 B980     		strh	r1, [r7, #4]	@ movhi
 1574 083a 7A80     		strh	r2, [r7, #2]	@ movhi
 1575 083c 3B80     		strh	r3, [r7]	@ movhi
 651:../tasks/display/Board_lcd.c ****   int16_t deltax = 0, deltay = 0, x = 0, y = 0, xinc1 = 0, xinc2 = 0, 
 1576              		.loc 1 651 0
 1577 083e 0023     		movs	r3, #0
 1578 0840 3B82     		strh	r3, [r7, #16]	@ movhi
 1579 0842 0023     		movs	r3, #0
 1580 0844 FB81     		strh	r3, [r7, #14]	@ movhi
 1581 0846 0023     		movs	r3, #0
 1582 0848 FB84     		strh	r3, [r7, #38]	@ movhi
 1583 084a 0023     		movs	r3, #0
 1584 084c BB84     		strh	r3, [r7, #36]	@ movhi
 1585 084e 0023     		movs	r3, #0
 1586 0850 7B84     		strh	r3, [r7, #34]	@ movhi
 1587 0852 0023     		movs	r3, #0
 1588 0854 3B84     		strh	r3, [r7, #32]	@ movhi
 652:../tasks/display/Board_lcd.c ****   yinc1 = 0, yinc2 = 0, den = 0, num = 0, numadd = 0, numpixels = 0, 
 1589              		.loc 1 652 0
 1590 0856 0023     		movs	r3, #0
 1591 0858 FB83     		strh	r3, [r7, #30]	@ movhi
 1592 085a 0023     		movs	r3, #0
 1593 085c BB83     		strh	r3, [r7, #28]	@ movhi
 1594 085e 0023     		movs	r3, #0
 1595 0860 7B83     		strh	r3, [r7, #26]	@ movhi
 1596 0862 0023     		movs	r3, #0
 1597 0864 3B83     		strh	r3, [r7, #24]	@ movhi
 1598 0866 0023     		movs	r3, #0
 1599 0868 FB82     		strh	r3, [r7, #22]	@ movhi
 1600 086a 0023     		movs	r3, #0
 1601 086c BB82     		strh	r3, [r7, #20]	@ movhi
 653:../tasks/display/Board_lcd.c ****   curpixel = 0;
 1602              		.loc 1 653 0
 1603 086e 0023     		movs	r3, #0
 1604 0870 7B82     		strh	r3, [r7, #18]	@ movhi
 654:../tasks/display/Board_lcd.c ****   
 655:../tasks/display/Board_lcd.c ****   deltax = ABS(x2 - x1);        /* The difference between the x's */
 1605              		.loc 1 655 0
 1606 0872 7A88     		ldrh	r2, [r7, #2]
 1607 0874 FB88     		ldrh	r3, [r7, #6]
 1608 0876 D31A     		subs	r3, r2, r3
 1609 0878 002B     		cmp	r3, #0
 1610 087a B8BF     		it	lt
 1611 087c 5B42     		rsblt	r3, r3, #0
 1612 087e 3B82     		strh	r3, [r7, #16]	@ movhi
 656:../tasks/display/Board_lcd.c ****   deltay = ABS(y2 - y1);        /* The difference between the y's */
 1613              		.loc 1 656 0
 1614 0880 3A88     		ldrh	r2, [r7]
 1615 0882 BB88     		ldrh	r3, [r7, #4]
 1616 0884 D31A     		subs	r3, r2, r3
 1617 0886 002B     		cmp	r3, #0
 1618 0888 B8BF     		it	lt
 1619 088a 5B42     		rsblt	r3, r3, #0
 1620 088c FB81     		strh	r3, [r7, #14]	@ movhi
 657:../tasks/display/Board_lcd.c ****   x = x1;                       /* Start x off at the first pixel */
 1621              		.loc 1 657 0
 1622 088e FB88     		ldrh	r3, [r7, #6]	@ movhi
 1623 0890 FB84     		strh	r3, [r7, #38]	@ movhi
 658:../tasks/display/Board_lcd.c ****   y = y1;                       /* Start y off at the first pixel */
 1624              		.loc 1 658 0
 1625 0892 BB88     		ldrh	r3, [r7, #4]	@ movhi
 1626 0894 BB84     		strh	r3, [r7, #36]	@ movhi
 659:../tasks/display/Board_lcd.c ****   
 660:../tasks/display/Board_lcd.c ****   if (x2 >= x1)                 /* The x-values are increasing */
 1627              		.loc 1 660 0
 1628 0896 7A88     		ldrh	r2, [r7, #2]
 1629 0898 FB88     		ldrh	r3, [r7, #6]
 1630 089a 9A42     		cmp	r2, r3
 1631 089c 04D3     		bcc	.L78
 661:../tasks/display/Board_lcd.c ****   {
 662:../tasks/display/Board_lcd.c ****     xinc1 = 1;
 1632              		.loc 1 662 0
 1633 089e 0123     		movs	r3, #1
 1634 08a0 7B84     		strh	r3, [r7, #34]	@ movhi
 663:../tasks/display/Board_lcd.c ****     xinc2 = 1;
 1635              		.loc 1 663 0
 1636 08a2 0123     		movs	r3, #1
 1637 08a4 3B84     		strh	r3, [r7, #32]	@ movhi
 1638 08a6 05E0     		b	.L79
 1639              	.L78:
 664:../tasks/display/Board_lcd.c ****   }
 665:../tasks/display/Board_lcd.c ****   else                          /* The x-values are decreasing */
 666:../tasks/display/Board_lcd.c ****   {
 667:../tasks/display/Board_lcd.c ****     xinc1 = -1;
 1640              		.loc 1 667 0
 1641 08a8 4FF6FF73 		movw	r3, #65535
 1642 08ac 7B84     		strh	r3, [r7, #34]	@ movhi
 668:../tasks/display/Board_lcd.c ****     xinc2 = -1;
 1643              		.loc 1 668 0
 1644 08ae 4FF6FF73 		movw	r3, #65535
 1645 08b2 3B84     		strh	r3, [r7, #32]	@ movhi
 1646              	.L79:
 669:../tasks/display/Board_lcd.c ****   }
 670:../tasks/display/Board_lcd.c ****   
 671:../tasks/display/Board_lcd.c ****   if (y2 >= y1)                 /* The y-values are increasing */
 1647              		.loc 1 671 0
 1648 08b4 3A88     		ldrh	r2, [r7]
 1649 08b6 BB88     		ldrh	r3, [r7, #4]
 1650 08b8 9A42     		cmp	r2, r3
 1651 08ba 04D3     		bcc	.L80
 672:../tasks/display/Board_lcd.c ****   {
 673:../tasks/display/Board_lcd.c ****     yinc1 = 1;
 1652              		.loc 1 673 0
 1653 08bc 0123     		movs	r3, #1
 1654 08be FB83     		strh	r3, [r7, #30]	@ movhi
 674:../tasks/display/Board_lcd.c ****     yinc2 = 1;
 1655              		.loc 1 674 0
 1656 08c0 0123     		movs	r3, #1
 1657 08c2 BB83     		strh	r3, [r7, #28]	@ movhi
 1658 08c4 05E0     		b	.L81
 1659              	.L80:
 675:../tasks/display/Board_lcd.c ****   }
 676:../tasks/display/Board_lcd.c ****   else                          /* The y-values are decreasing */
 677:../tasks/display/Board_lcd.c ****   {
 678:../tasks/display/Board_lcd.c ****     yinc1 = -1;
 1660              		.loc 1 678 0
 1661 08c6 4FF6FF73 		movw	r3, #65535
 1662 08ca FB83     		strh	r3, [r7, #30]	@ movhi
 679:../tasks/display/Board_lcd.c ****     yinc2 = -1;
 1663              		.loc 1 679 0
 1664 08cc 4FF6FF73 		movw	r3, #65535
 1665 08d0 BB83     		strh	r3, [r7, #28]	@ movhi
 1666              	.L81:
 680:../tasks/display/Board_lcd.c ****   }
 681:../tasks/display/Board_lcd.c ****   
 682:../tasks/display/Board_lcd.c ****   if (deltax >= deltay)         /* There is at least one x-value for every y-value */
 1667              		.loc 1 682 0
 1668 08d2 B7F91020 		ldrsh	r2, [r7, #16]
 1669 08d6 B7F90E30 		ldrsh	r3, [r7, #14]
 1670 08da 9A42     		cmp	r2, r3
 1671 08dc 10DB     		blt	.L82
 683:../tasks/display/Board_lcd.c ****   {
 684:../tasks/display/Board_lcd.c ****     xinc1 = 0;                  /* Don't change the x when numerator >= denominator */
 1672              		.loc 1 684 0
 1673 08de 0023     		movs	r3, #0
 1674 08e0 7B84     		strh	r3, [r7, #34]	@ movhi
 685:../tasks/display/Board_lcd.c ****     yinc2 = 0;                  /* Don't change the y for every iteration */
 1675              		.loc 1 685 0
 1676 08e2 0023     		movs	r3, #0
 1677 08e4 BB83     		strh	r3, [r7, #28]	@ movhi
 686:../tasks/display/Board_lcd.c ****     den = deltax;
 1678              		.loc 1 686 0
 1679 08e6 3B8A     		ldrh	r3, [r7, #16]	@ movhi
 1680 08e8 7B83     		strh	r3, [r7, #26]	@ movhi
 687:../tasks/display/Board_lcd.c ****     num = deltax / 2;
 1681              		.loc 1 687 0
 1682 08ea B7F91030 		ldrsh	r3, [r7, #16]
 1683 08ee DA0F     		lsrs	r2, r3, #31
 1684 08f0 1344     		add	r3, r3, r2
 1685 08f2 5B10     		asrs	r3, r3, #1
 1686 08f4 3B83     		strh	r3, [r7, #24]	@ movhi
 688:../tasks/display/Board_lcd.c ****     numadd = deltay;
 1687              		.loc 1 688 0
 1688 08f6 FB89     		ldrh	r3, [r7, #14]	@ movhi
 1689 08f8 FB82     		strh	r3, [r7, #22]	@ movhi
 689:../tasks/display/Board_lcd.c ****     numpixels = deltax;         /* There are more x-values than y-values */
 1690              		.loc 1 689 0
 1691 08fa 3B8A     		ldrh	r3, [r7, #16]	@ movhi
 1692 08fc BB82     		strh	r3, [r7, #20]	@ movhi
 1693 08fe 0FE0     		b	.L83
 1694              	.L82:
 690:../tasks/display/Board_lcd.c ****   }
 691:../tasks/display/Board_lcd.c ****   else                          /* There is at least one y-value for every x-value */
 692:../tasks/display/Board_lcd.c ****   {
 693:../tasks/display/Board_lcd.c ****     xinc2 = 0;                  /* Don't change the x for every iteration */
 1695              		.loc 1 693 0
 1696 0900 0023     		movs	r3, #0
 1697 0902 3B84     		strh	r3, [r7, #32]	@ movhi
 694:../tasks/display/Board_lcd.c ****     yinc1 = 0;                  /* Don't change the y when numerator >= denominator */
 1698              		.loc 1 694 0
 1699 0904 0023     		movs	r3, #0
 1700 0906 FB83     		strh	r3, [r7, #30]	@ movhi
 695:../tasks/display/Board_lcd.c ****     den = deltay;
 1701              		.loc 1 695 0
 1702 0908 FB89     		ldrh	r3, [r7, #14]	@ movhi
 1703 090a 7B83     		strh	r3, [r7, #26]	@ movhi
 696:../tasks/display/Board_lcd.c ****     num = deltay / 2;
 1704              		.loc 1 696 0
 1705 090c B7F90E30 		ldrsh	r3, [r7, #14]
 1706 0910 DA0F     		lsrs	r2, r3, #31
 1707 0912 1344     		add	r3, r3, r2
 1708 0914 5B10     		asrs	r3, r3, #1
 1709 0916 3B83     		strh	r3, [r7, #24]	@ movhi
 697:../tasks/display/Board_lcd.c ****     numadd = deltax;
 1710              		.loc 1 697 0
 1711 0918 3B8A     		ldrh	r3, [r7, #16]	@ movhi
 1712 091a FB82     		strh	r3, [r7, #22]	@ movhi
 698:../tasks/display/Board_lcd.c ****     numpixels = deltay;         /* There are more y-values than x-values */
 1713              		.loc 1 698 0
 1714 091c FB89     		ldrh	r3, [r7, #14]	@ movhi
 1715 091e BB82     		strh	r3, [r7, #20]	@ movhi
 1716              	.L83:
 699:../tasks/display/Board_lcd.c ****   }
 700:../tasks/display/Board_lcd.c ****   
 701:../tasks/display/Board_lcd.c ****   for (curpixel = 0; curpixel <= numpixels; curpixel++)
 1717              		.loc 1 701 0
 1718 0920 0023     		movs	r3, #0
 1719 0922 7B82     		strh	r3, [r7, #18]	@ movhi
 1720 0924 33E0     		b	.L84
 1721              	.L86:
 702:../tasks/display/Board_lcd.c ****   {
 703:../tasks/display/Board_lcd.c ****     BSP_LCD_DrawPixel(x, y, DrawProp.TextColor);  /* Draw the current pixel */
 1722              		.loc 1 703 0
 1723 0926 F98C     		ldrh	r1, [r7, #38]
 1724 0928 BA8C     		ldrh	r2, [r7, #36]
 1725 092a 40F20003 		movw	r3, #:lower16:DrawProp
 1726 092e C0F20003 		movt	r3, #:upper16:DrawProp
 1727 0932 5B68     		ldr	r3, [r3, #4]
 1728 0934 9BB2     		uxth	r3, r3
 1729 0936 0846     		mov	r0, r1
 1730 0938 1146     		mov	r1, r2
 1731 093a 1A46     		mov	r2, r3
 1732 093c FFF7FEFF 		bl	BSP_LCD_DrawPixel
 704:../tasks/display/Board_lcd.c ****     num += numadd;                            /* Increase the numerator by the top of the fraction 
 1733              		.loc 1 704 0
 1734 0940 3A8B     		ldrh	r2, [r7, #24]
 1735 0942 FB8A     		ldrh	r3, [r7, #22]
 1736 0944 1344     		add	r3, r3, r2
 1737 0946 9BB2     		uxth	r3, r3
 1738 0948 3B83     		strh	r3, [r7, #24]	@ movhi
 705:../tasks/display/Board_lcd.c ****     if (num >= den)                           /* Check if numerator >= denominator */
 1739              		.loc 1 705 0
 1740 094a B7F91820 		ldrsh	r2, [r7, #24]
 1741 094e B7F91A30 		ldrsh	r3, [r7, #26]
 1742 0952 9A42     		cmp	r2, r3
 1743 0954 0EDB     		blt	.L85
 706:../tasks/display/Board_lcd.c ****     {
 707:../tasks/display/Board_lcd.c ****       num -= den;                             /* Calculate the new numerator value */
 1744              		.loc 1 707 0
 1745 0956 3A8B     		ldrh	r2, [r7, #24]
 1746 0958 7B8B     		ldrh	r3, [r7, #26]
 1747 095a D31A     		subs	r3, r2, r3
 1748 095c 9BB2     		uxth	r3, r3
 1749 095e 3B83     		strh	r3, [r7, #24]	@ movhi
 708:../tasks/display/Board_lcd.c ****       x += xinc1;                             /* Change the x as appropriate */
 1750              		.loc 1 708 0
 1751 0960 FA8C     		ldrh	r2, [r7, #38]
 1752 0962 7B8C     		ldrh	r3, [r7, #34]
 1753 0964 1344     		add	r3, r3, r2
 1754 0966 9BB2     		uxth	r3, r3
 1755 0968 FB84     		strh	r3, [r7, #38]	@ movhi
 709:../tasks/display/Board_lcd.c ****       y += yinc1;                             /* Change the y as appropriate */
 1756              		.loc 1 709 0
 1757 096a BA8C     		ldrh	r2, [r7, #36]
 1758 096c FB8B     		ldrh	r3, [r7, #30]
 1759 096e 1344     		add	r3, r3, r2
 1760 0970 9BB2     		uxth	r3, r3
 1761 0972 BB84     		strh	r3, [r7, #36]	@ movhi
 1762              	.L85:
 710:../tasks/display/Board_lcd.c ****     }
 711:../tasks/display/Board_lcd.c ****     x += xinc2;                               /* Change the x as appropriate */
 1763              		.loc 1 711 0
 1764 0974 FA8C     		ldrh	r2, [r7, #38]
 1765 0976 3B8C     		ldrh	r3, [r7, #32]
 1766 0978 1344     		add	r3, r3, r2
 1767 097a 9BB2     		uxth	r3, r3
 1768 097c FB84     		strh	r3, [r7, #38]	@ movhi
 712:../tasks/display/Board_lcd.c ****     y += yinc2;                               /* Change the y as appropriate */
 1769              		.loc 1 712 0
 1770 097e BA8C     		ldrh	r2, [r7, #36]
 1771 0980 BB8B     		ldrh	r3, [r7, #28]
 1772 0982 1344     		add	r3, r3, r2
 1773 0984 9BB2     		uxth	r3, r3
 1774 0986 BB84     		strh	r3, [r7, #36]	@ movhi
 701:../tasks/display/Board_lcd.c ****   {
 1775              		.loc 1 701 0
 1776 0988 7B8A     		ldrh	r3, [r7, #18]
 1777 098a 0133     		adds	r3, r3, #1
 1778 098c 7B82     		strh	r3, [r7, #18]	@ movhi
 1779              	.L84:
 701:../tasks/display/Board_lcd.c ****   {
 1780              		.loc 1 701 0 is_stmt 0 discriminator 1
 1781 098e B7F91220 		ldrsh	r2, [r7, #18]
 1782 0992 B7F91430 		ldrsh	r3, [r7, #20]
 1783 0996 9A42     		cmp	r2, r3
 1784 0998 C5DD     		ble	.L86
 713:../tasks/display/Board_lcd.c ****   }
 714:../tasks/display/Board_lcd.c **** }
 1785              		.loc 1 714 0 is_stmt 1
 1786 099a 2837     		adds	r7, r7, #40
 1787 099c BD46     		mov	sp, r7
 1788              		@ sp needed
 1789 099e 80BD     		pop	{r7, pc}
 1790              		.cfi_endproc
 1791              	.LFE78:
 1793              		.align	2
 1794              		.global	BSP_LCD_DrawRect
 1795              		.thumb
 1796              		.thumb_func
 1798              	BSP_LCD_DrawRect:
 1799              	.LFB79:
 715:../tasks/display/Board_lcd.c **** 
 716:../tasks/display/Board_lcd.c **** /**
 717:../tasks/display/Board_lcd.c ****   * @brief  Draws a rectangle.
 718:../tasks/display/Board_lcd.c ****   * @param  Xpos: X position
 719:../tasks/display/Board_lcd.c ****   * @param  Ypos: Y position
 720:../tasks/display/Board_lcd.c ****   * @param  Width: Rectangle width  
 721:../tasks/display/Board_lcd.c ****   * @param  Height: Rectangle height
 722:../tasks/display/Board_lcd.c ****   * @retval None
 723:../tasks/display/Board_lcd.c ****   */
 724:../tasks/display/Board_lcd.c **** void BSP_LCD_DrawRect(uint16_t Xpos, uint16_t Ypos, uint16_t Width, uint16_t Height)
 725:../tasks/display/Board_lcd.c **** {
 1800              		.loc 1 725 0
 1801              		.cfi_startproc
 1802              		@ args = 0, pretend = 0, frame = 8
 1803              		@ frame_needed = 1, uses_anonymous_args = 0
 1804 09a0 80B5     		push	{r7, lr}
 1805              		.cfi_def_cfa_offset 8
 1806              		.cfi_offset 7, -8
 1807              		.cfi_offset 14, -4
 1808 09a2 82B0     		sub	sp, sp, #8
 1809              		.cfi_def_cfa_offset 16
 1810 09a4 00AF     		add	r7, sp, #0
 1811              		.cfi_def_cfa_register 7
 1812 09a6 F880     		strh	r0, [r7, #6]	@ movhi
 1813 09a8 B980     		strh	r1, [r7, #4]	@ movhi
 1814 09aa 7A80     		strh	r2, [r7, #2]	@ movhi
 1815 09ac 3B80     		strh	r3, [r7]	@ movhi
 726:../tasks/display/Board_lcd.c ****   /* Draw horizontal lines */
 727:../tasks/display/Board_lcd.c ****   BSP_LCD_DrawHLine(Xpos, Ypos, Width);
 1816              		.loc 1 727 0
 1817 09ae F988     		ldrh	r1, [r7, #6]
 1818 09b0 BA88     		ldrh	r2, [r7, #4]
 1819 09b2 7B88     		ldrh	r3, [r7, #2]
 1820 09b4 0846     		mov	r0, r1
 1821 09b6 1146     		mov	r1, r2
 1822 09b8 1A46     		mov	r2, r3
 1823 09ba FFF7FEFF 		bl	BSP_LCD_DrawHLine
 728:../tasks/display/Board_lcd.c ****   BSP_LCD_DrawHLine(Xpos, (Ypos+ Height), Width);
 1824              		.loc 1 728 0
 1825 09be BA88     		ldrh	r2, [r7, #4]	@ movhi
 1826 09c0 3B88     		ldrh	r3, [r7]	@ movhi
 1827 09c2 1344     		add	r3, r3, r2
 1828 09c4 9AB2     		uxth	r2, r3
 1829 09c6 F988     		ldrh	r1, [r7, #6]
 1830 09c8 7B88     		ldrh	r3, [r7, #2]
 1831 09ca 0846     		mov	r0, r1
 1832 09cc 1146     		mov	r1, r2
 1833 09ce 1A46     		mov	r2, r3
 1834 09d0 FFF7FEFF 		bl	BSP_LCD_DrawHLine
 729:../tasks/display/Board_lcd.c ****   
 730:../tasks/display/Board_lcd.c ****   /* Draw vertical lines */
 731:../tasks/display/Board_lcd.c ****   BSP_LCD_DrawVLine(Xpos, Ypos, Height);
 1835              		.loc 1 731 0
 1836 09d4 F988     		ldrh	r1, [r7, #6]
 1837 09d6 BA88     		ldrh	r2, [r7, #4]
 1838 09d8 3B88     		ldrh	r3, [r7]
 1839 09da 0846     		mov	r0, r1
 1840 09dc 1146     		mov	r1, r2
 1841 09de 1A46     		mov	r2, r3
 1842 09e0 FFF7FEFF 		bl	BSP_LCD_DrawVLine
 732:../tasks/display/Board_lcd.c ****   BSP_LCD_DrawVLine((Xpos + Width), Ypos, Height);
 1843              		.loc 1 732 0
 1844 09e4 FA88     		ldrh	r2, [r7, #6]	@ movhi
 1845 09e6 7B88     		ldrh	r3, [r7, #2]	@ movhi
 1846 09e8 1344     		add	r3, r3, r2
 1847 09ea 99B2     		uxth	r1, r3
 1848 09ec BA88     		ldrh	r2, [r7, #4]
 1849 09ee 3B88     		ldrh	r3, [r7]
 1850 09f0 0846     		mov	r0, r1
 1851 09f2 1146     		mov	r1, r2
 1852 09f4 1A46     		mov	r2, r3
 1853 09f6 FFF7FEFF 		bl	BSP_LCD_DrawVLine
 733:../tasks/display/Board_lcd.c **** }
 1854              		.loc 1 733 0
 1855 09fa 0837     		adds	r7, r7, #8
 1856 09fc BD46     		mov	sp, r7
 1857              		@ sp needed
 1858 09fe 80BD     		pop	{r7, pc}
 1859              		.cfi_endproc
 1860              	.LFE79:
 1862              		.align	2
 1863              		.global	BSP_LCD_DrawCircle
 1864              		.thumb
 1865              		.thumb_func
 1867              	BSP_LCD_DrawCircle:
 1868              	.LFB80:
 734:../tasks/display/Board_lcd.c ****                             
 735:../tasks/display/Board_lcd.c **** /**
 736:../tasks/display/Board_lcd.c ****   * @brief  Draws a circle.
 737:../tasks/display/Board_lcd.c ****   * @param  Xpos: X position
 738:../tasks/display/Board_lcd.c ****   * @param  Ypos: Y position
 739:../tasks/display/Board_lcd.c ****   * @param  Radius: Circle radius
 740:../tasks/display/Board_lcd.c ****   * @retval None
 741:../tasks/display/Board_lcd.c ****   */
 742:../tasks/display/Board_lcd.c **** void BSP_LCD_DrawCircle(uint16_t Xpos, uint16_t Ypos, uint16_t Radius)
 743:../tasks/display/Board_lcd.c **** {
 1869              		.loc 1 743 0
 1870              		.cfi_startproc
 1871              		@ args = 0, pretend = 0, frame = 24
 1872              		@ frame_needed = 1, uses_anonymous_args = 0
 1873 0a00 80B5     		push	{r7, lr}
 1874              		.cfi_def_cfa_offset 8
 1875              		.cfi_offset 7, -8
 1876              		.cfi_offset 14, -4
 1877 0a02 86B0     		sub	sp, sp, #24
 1878              		.cfi_def_cfa_offset 32
 1879 0a04 00AF     		add	r7, sp, #0
 1880              		.cfi_def_cfa_register 7
 1881 0a06 1346     		mov	r3, r2
 1882 0a08 0246     		mov	r2, r0	@ movhi
 1883 0a0a FA80     		strh	r2, [r7, #6]	@ movhi
 1884 0a0c 0A46     		mov	r2, r1	@ movhi
 1885 0a0e BA80     		strh	r2, [r7, #4]	@ movhi
 1886 0a10 7B80     		strh	r3, [r7, #2]	@ movhi
 744:../tasks/display/Board_lcd.c ****   int32_t  D;       /* Decision Variable */ 
 745:../tasks/display/Board_lcd.c ****   uint32_t  CurX;   /* Current X Value */
 746:../tasks/display/Board_lcd.c ****   uint32_t  CurY;   /* Current Y Value */ 
 747:../tasks/display/Board_lcd.c ****   
 748:../tasks/display/Board_lcd.c ****   D = 3 - (Radius << 1);
 1887              		.loc 1 748 0
 1888 0a12 7B88     		ldrh	r3, [r7, #2]
 1889 0a14 5B00     		lsls	r3, r3, #1
 1890 0a16 C3F10303 		rsb	r3, r3, #3
 1891 0a1a 7B61     		str	r3, [r7, #20]
 749:../tasks/display/Board_lcd.c ****   CurX = 0;
 1892              		.loc 1 749 0
 1893 0a1c 0023     		movs	r3, #0
 1894 0a1e 3B61     		str	r3, [r7, #16]
 750:../tasks/display/Board_lcd.c ****   CurY = Radius;
 1895              		.loc 1 750 0
 1896 0a20 7B88     		ldrh	r3, [r7, #2]
 1897 0a22 FB60     		str	r3, [r7, #12]
 751:../tasks/display/Board_lcd.c ****   
 752:../tasks/display/Board_lcd.c ****   while (CurX <= CurY)
 1898              		.loc 1 752 0
 1899 0a24 C5E0     		b	.L89
 1900              	.L92:
 753:../tasks/display/Board_lcd.c ****   {
 754:../tasks/display/Board_lcd.c ****     BSP_LCD_DrawPixel((Xpos + CurX), (Ypos - CurY), DrawProp.TextColor);
 1901              		.loc 1 754 0
 1902 0a26 3B69     		ldr	r3, [r7, #16]
 1903 0a28 9AB2     		uxth	r2, r3
 1904 0a2a FB88     		ldrh	r3, [r7, #6]	@ movhi
 1905 0a2c 1344     		add	r3, r3, r2
 1906 0a2e 99B2     		uxth	r1, r3
 1907 0a30 FB68     		ldr	r3, [r7, #12]
 1908 0a32 9BB2     		uxth	r3, r3
 1909 0a34 BA88     		ldrh	r2, [r7, #4]	@ movhi
 1910 0a36 D31A     		subs	r3, r2, r3
 1911 0a38 9AB2     		uxth	r2, r3
 1912 0a3a 40F20003 		movw	r3, #:lower16:DrawProp
 1913 0a3e C0F20003 		movt	r3, #:upper16:DrawProp
 1914 0a42 5B68     		ldr	r3, [r3, #4]
 1915 0a44 9BB2     		uxth	r3, r3
 1916 0a46 0846     		mov	r0, r1
 1917 0a48 1146     		mov	r1, r2
 1918 0a4a 1A46     		mov	r2, r3
 1919 0a4c FFF7FEFF 		bl	BSP_LCD_DrawPixel
 755:../tasks/display/Board_lcd.c **** 
 756:../tasks/display/Board_lcd.c ****     BSP_LCD_DrawPixel((Xpos - CurX), (Ypos - CurY), DrawProp.TextColor);
 1920              		.loc 1 756 0
 1921 0a50 3B69     		ldr	r3, [r7, #16]
 1922 0a52 9BB2     		uxth	r3, r3
 1923 0a54 FA88     		ldrh	r2, [r7, #6]	@ movhi
 1924 0a56 D31A     		subs	r3, r2, r3
 1925 0a58 99B2     		uxth	r1, r3
 1926 0a5a FB68     		ldr	r3, [r7, #12]
 1927 0a5c 9BB2     		uxth	r3, r3
 1928 0a5e BA88     		ldrh	r2, [r7, #4]	@ movhi
 1929 0a60 D31A     		subs	r3, r2, r3
 1930 0a62 9AB2     		uxth	r2, r3
 1931 0a64 40F20003 		movw	r3, #:lower16:DrawProp
 1932 0a68 C0F20003 		movt	r3, #:upper16:DrawProp
 1933 0a6c 5B68     		ldr	r3, [r3, #4]
 1934 0a6e 9BB2     		uxth	r3, r3
 1935 0a70 0846     		mov	r0, r1
 1936 0a72 1146     		mov	r1, r2
 1937 0a74 1A46     		mov	r2, r3
 1938 0a76 FFF7FEFF 		bl	BSP_LCD_DrawPixel
 757:../tasks/display/Board_lcd.c **** 
 758:../tasks/display/Board_lcd.c ****     BSP_LCD_DrawPixel((Xpos + CurY), (Ypos - CurX), DrawProp.TextColor);
 1939              		.loc 1 758 0
 1940 0a7a FB68     		ldr	r3, [r7, #12]
 1941 0a7c 9AB2     		uxth	r2, r3
 1942 0a7e FB88     		ldrh	r3, [r7, #6]	@ movhi
 1943 0a80 1344     		add	r3, r3, r2
 1944 0a82 99B2     		uxth	r1, r3
 1945 0a84 3B69     		ldr	r3, [r7, #16]
 1946 0a86 9BB2     		uxth	r3, r3
 1947 0a88 BA88     		ldrh	r2, [r7, #4]	@ movhi
 1948 0a8a D31A     		subs	r3, r2, r3
 1949 0a8c 9AB2     		uxth	r2, r3
 1950 0a8e 40F20003 		movw	r3, #:lower16:DrawProp
 1951 0a92 C0F20003 		movt	r3, #:upper16:DrawProp
 1952 0a96 5B68     		ldr	r3, [r3, #4]
 1953 0a98 9BB2     		uxth	r3, r3
 1954 0a9a 0846     		mov	r0, r1
 1955 0a9c 1146     		mov	r1, r2
 1956 0a9e 1A46     		mov	r2, r3
 1957 0aa0 FFF7FEFF 		bl	BSP_LCD_DrawPixel
 759:../tasks/display/Board_lcd.c **** 
 760:../tasks/display/Board_lcd.c ****     BSP_LCD_DrawPixel((Xpos - CurY), (Ypos - CurX), DrawProp.TextColor);
 1958              		.loc 1 760 0
 1959 0aa4 FB68     		ldr	r3, [r7, #12]
 1960 0aa6 9BB2     		uxth	r3, r3
 1961 0aa8 FA88     		ldrh	r2, [r7, #6]	@ movhi
 1962 0aaa D31A     		subs	r3, r2, r3
 1963 0aac 99B2     		uxth	r1, r3
 1964 0aae 3B69     		ldr	r3, [r7, #16]
 1965 0ab0 9BB2     		uxth	r3, r3
 1966 0ab2 BA88     		ldrh	r2, [r7, #4]	@ movhi
 1967 0ab4 D31A     		subs	r3, r2, r3
 1968 0ab6 9AB2     		uxth	r2, r3
 1969 0ab8 40F20003 		movw	r3, #:lower16:DrawProp
 1970 0abc C0F20003 		movt	r3, #:upper16:DrawProp
 1971 0ac0 5B68     		ldr	r3, [r3, #4]
 1972 0ac2 9BB2     		uxth	r3, r3
 1973 0ac4 0846     		mov	r0, r1
 1974 0ac6 1146     		mov	r1, r2
 1975 0ac8 1A46     		mov	r2, r3
 1976 0aca FFF7FEFF 		bl	BSP_LCD_DrawPixel
 761:../tasks/display/Board_lcd.c **** 
 762:../tasks/display/Board_lcd.c ****     BSP_LCD_DrawPixel((Xpos + CurX), (Ypos + CurY), DrawProp.TextColor);
 1977              		.loc 1 762 0
 1978 0ace 3B69     		ldr	r3, [r7, #16]
 1979 0ad0 9AB2     		uxth	r2, r3
 1980 0ad2 FB88     		ldrh	r3, [r7, #6]	@ movhi
 1981 0ad4 1344     		add	r3, r3, r2
 1982 0ad6 99B2     		uxth	r1, r3
 1983 0ad8 FB68     		ldr	r3, [r7, #12]
 1984 0ada 9AB2     		uxth	r2, r3
 1985 0adc BB88     		ldrh	r3, [r7, #4]	@ movhi
 1986 0ade 1344     		add	r3, r3, r2
 1987 0ae0 9AB2     		uxth	r2, r3
 1988 0ae2 40F20003 		movw	r3, #:lower16:DrawProp
 1989 0ae6 C0F20003 		movt	r3, #:upper16:DrawProp
 1990 0aea 5B68     		ldr	r3, [r3, #4]
 1991 0aec 9BB2     		uxth	r3, r3
 1992 0aee 0846     		mov	r0, r1
 1993 0af0 1146     		mov	r1, r2
 1994 0af2 1A46     		mov	r2, r3
 1995 0af4 FFF7FEFF 		bl	BSP_LCD_DrawPixel
 763:../tasks/display/Board_lcd.c **** 
 764:../tasks/display/Board_lcd.c ****     BSP_LCD_DrawPixel((Xpos - CurX), (Ypos + CurY), DrawProp.TextColor);
 1996              		.loc 1 764 0
 1997 0af8 3B69     		ldr	r3, [r7, #16]
 1998 0afa 9BB2     		uxth	r3, r3
 1999 0afc FA88     		ldrh	r2, [r7, #6]	@ movhi
 2000 0afe D31A     		subs	r3, r2, r3
 2001 0b00 99B2     		uxth	r1, r3
 2002 0b02 FB68     		ldr	r3, [r7, #12]
 2003 0b04 9AB2     		uxth	r2, r3
 2004 0b06 BB88     		ldrh	r3, [r7, #4]	@ movhi
 2005 0b08 1344     		add	r3, r3, r2
 2006 0b0a 9AB2     		uxth	r2, r3
 2007 0b0c 40F20003 		movw	r3, #:lower16:DrawProp
 2008 0b10 C0F20003 		movt	r3, #:upper16:DrawProp
 2009 0b14 5B68     		ldr	r3, [r3, #4]
 2010 0b16 9BB2     		uxth	r3, r3
 2011 0b18 0846     		mov	r0, r1
 2012 0b1a 1146     		mov	r1, r2
 2013 0b1c 1A46     		mov	r2, r3
 2014 0b1e FFF7FEFF 		bl	BSP_LCD_DrawPixel
 765:../tasks/display/Board_lcd.c **** 
 766:../tasks/display/Board_lcd.c ****     BSP_LCD_DrawPixel((Xpos + CurY), (Ypos + CurX), DrawProp.TextColor);
 2015              		.loc 1 766 0
 2016 0b22 FB68     		ldr	r3, [r7, #12]
 2017 0b24 9AB2     		uxth	r2, r3
 2018 0b26 FB88     		ldrh	r3, [r7, #6]	@ movhi
 2019 0b28 1344     		add	r3, r3, r2
 2020 0b2a 99B2     		uxth	r1, r3
 2021 0b2c 3B69     		ldr	r3, [r7, #16]
 2022 0b2e 9AB2     		uxth	r2, r3
 2023 0b30 BB88     		ldrh	r3, [r7, #4]	@ movhi
 2024 0b32 1344     		add	r3, r3, r2
 2025 0b34 9AB2     		uxth	r2, r3
 2026 0b36 40F20003 		movw	r3, #:lower16:DrawProp
 2027 0b3a C0F20003 		movt	r3, #:upper16:DrawProp
 2028 0b3e 5B68     		ldr	r3, [r3, #4]
 2029 0b40 9BB2     		uxth	r3, r3
 2030 0b42 0846     		mov	r0, r1
 2031 0b44 1146     		mov	r1, r2
 2032 0b46 1A46     		mov	r2, r3
 2033 0b48 FFF7FEFF 		bl	BSP_LCD_DrawPixel
 767:../tasks/display/Board_lcd.c **** 
 768:../tasks/display/Board_lcd.c ****     BSP_LCD_DrawPixel((Xpos - CurY), (Ypos + CurX), DrawProp.TextColor);   
 2034              		.loc 1 768 0
 2035 0b4c FB68     		ldr	r3, [r7, #12]
 2036 0b4e 9BB2     		uxth	r3, r3
 2037 0b50 FA88     		ldrh	r2, [r7, #6]	@ movhi
 2038 0b52 D31A     		subs	r3, r2, r3
 2039 0b54 99B2     		uxth	r1, r3
 2040 0b56 3B69     		ldr	r3, [r7, #16]
 2041 0b58 9AB2     		uxth	r2, r3
 2042 0b5a BB88     		ldrh	r3, [r7, #4]	@ movhi
 2043 0b5c 1344     		add	r3, r3, r2
 2044 0b5e 9AB2     		uxth	r2, r3
 2045 0b60 40F20003 		movw	r3, #:lower16:DrawProp
 2046 0b64 C0F20003 		movt	r3, #:upper16:DrawProp
 2047 0b68 5B68     		ldr	r3, [r3, #4]
 2048 0b6a 9BB2     		uxth	r3, r3
 2049 0b6c 0846     		mov	r0, r1
 2050 0b6e 1146     		mov	r1, r2
 2051 0b70 1A46     		mov	r2, r3
 2052 0b72 FFF7FEFF 		bl	BSP_LCD_DrawPixel
 769:../tasks/display/Board_lcd.c **** 
 770:../tasks/display/Board_lcd.c ****     /* Initialize the font */
 771:../tasks/display/Board_lcd.c ****     BSP_LCD_SetFont(&LCD_DEFAULT_FONT);
 2053              		.loc 1 771 0
 2054 0b76 40F20000 		movw	r0, #:lower16:Font24
 2055 0b7a C0F20000 		movt	r0, #:upper16:Font24
 2056 0b7e FFF7FEFF 		bl	BSP_LCD_SetFont
 772:../tasks/display/Board_lcd.c **** 
 773:../tasks/display/Board_lcd.c ****     if (D < 0)
 2057              		.loc 1 773 0
 2058 0b82 7B69     		ldr	r3, [r7, #20]
 2059 0b84 002B     		cmp	r3, #0
 2060 0b86 06DA     		bge	.L90
 774:../tasks/display/Board_lcd.c ****     { 
 775:../tasks/display/Board_lcd.c ****       D += (CurX << 2) + 6;
 2061              		.loc 1 775 0
 2062 0b88 3B69     		ldr	r3, [r7, #16]
 2063 0b8a 9A00     		lsls	r2, r3, #2
 2064 0b8c 7B69     		ldr	r3, [r7, #20]
 2065 0b8e 1344     		add	r3, r3, r2
 2066 0b90 0633     		adds	r3, r3, #6
 2067 0b92 7B61     		str	r3, [r7, #20]
 2068 0b94 0AE0     		b	.L91
 2069              	.L90:
 776:../tasks/display/Board_lcd.c ****     }
 777:../tasks/display/Board_lcd.c ****     else
 778:../tasks/display/Board_lcd.c ****     {
 779:../tasks/display/Board_lcd.c ****       D += ((CurX - CurY) << 2) + 10;
 2070              		.loc 1 779 0
 2071 0b96 3A69     		ldr	r2, [r7, #16]
 2072 0b98 FB68     		ldr	r3, [r7, #12]
 2073 0b9a D31A     		subs	r3, r2, r3
 2074 0b9c 9A00     		lsls	r2, r3, #2
 2075 0b9e 7B69     		ldr	r3, [r7, #20]
 2076 0ba0 1344     		add	r3, r3, r2
 2077 0ba2 0A33     		adds	r3, r3, #10
 2078 0ba4 7B61     		str	r3, [r7, #20]
 780:../tasks/display/Board_lcd.c ****       CurY--;
 2079              		.loc 1 780 0
 2080 0ba6 FB68     		ldr	r3, [r7, #12]
 2081 0ba8 013B     		subs	r3, r3, #1
 2082 0baa FB60     		str	r3, [r7, #12]
 2083              	.L91:
 781:../tasks/display/Board_lcd.c ****     }
 782:../tasks/display/Board_lcd.c ****     CurX++;
 2084              		.loc 1 782 0
 2085 0bac 3B69     		ldr	r3, [r7, #16]
 2086 0bae 0133     		adds	r3, r3, #1
 2087 0bb0 3B61     		str	r3, [r7, #16]
 2088              	.L89:
 752:../tasks/display/Board_lcd.c ****   {
 2089              		.loc 1 752 0 discriminator 1
 2090 0bb2 3A69     		ldr	r2, [r7, #16]
 2091 0bb4 FB68     		ldr	r3, [r7, #12]
 2092 0bb6 9A42     		cmp	r2, r3
 2093 0bb8 7FF635AF 		bls	.L92
 783:../tasks/display/Board_lcd.c ****   } 
 784:../tasks/display/Board_lcd.c **** }
 2094              		.loc 1 784 0
 2095 0bbc 1837     		adds	r7, r7, #24
 2096 0bbe BD46     		mov	sp, r7
 2097              		@ sp needed
 2098 0bc0 80BD     		pop	{r7, pc}
 2099              		.cfi_endproc
 2100              	.LFE80:
 2102 0bc2 00BF     		.align	2
 2103              		.global	BSP_LCD_DrawPolygon
 2104              		.thumb
 2105              		.thumb_func
 2107              	BSP_LCD_DrawPolygon:
 2108              	.LFB81:
 785:../tasks/display/Board_lcd.c **** 
 786:../tasks/display/Board_lcd.c **** /**
 787:../tasks/display/Board_lcd.c ****   * @brief  Draws an poly-line (between many points).
 788:../tasks/display/Board_lcd.c ****   * @param  Points: Pointer to the points array
 789:../tasks/display/Board_lcd.c ****   * @param  PointCount: Number of points
 790:../tasks/display/Board_lcd.c ****   * @retval None
 791:../tasks/display/Board_lcd.c ****   */
 792:../tasks/display/Board_lcd.c **** void BSP_LCD_DrawPolygon(pPoint Points, uint16_t PointCount)
 793:../tasks/display/Board_lcd.c **** {
 2109              		.loc 1 793 0
 2110              		.cfi_startproc
 2111              		@ args = 0, pretend = 0, frame = 16
 2112              		@ frame_needed = 1, uses_anonymous_args = 0
 2113 0bc4 90B5     		push	{r4, r7, lr}
 2114              		.cfi_def_cfa_offset 12
 2115              		.cfi_offset 4, -12
 2116              		.cfi_offset 7, -8
 2117              		.cfi_offset 14, -4
 2118 0bc6 85B0     		sub	sp, sp, #20
 2119              		.cfi_def_cfa_offset 32
 2120 0bc8 00AF     		add	r7, sp, #0
 2121              		.cfi_def_cfa_register 7
 2122 0bca 7860     		str	r0, [r7, #4]
 2123 0bcc 0B46     		mov	r3, r1
 2124 0bce 7B80     		strh	r3, [r7, #2]	@ movhi
 794:../tasks/display/Board_lcd.c ****   int16_t X = 0, Y = 0;
 2125              		.loc 1 794 0
 2126 0bd0 0023     		movs	r3, #0
 2127 0bd2 FB81     		strh	r3, [r7, #14]	@ movhi
 2128 0bd4 0023     		movs	r3, #0
 2129 0bd6 BB81     		strh	r3, [r7, #12]	@ movhi
 795:../tasks/display/Board_lcd.c **** 
 796:../tasks/display/Board_lcd.c ****   if(PointCount < 2)
 2130              		.loc 1 796 0
 2131 0bd8 7B88     		ldrh	r3, [r7, #2]
 2132 0bda 012B     		cmp	r3, #1
 2133 0bdc 00D8     		bhi	.L94
 797:../tasks/display/Board_lcd.c ****   {
 798:../tasks/display/Board_lcd.c ****     return;
 2134              		.loc 1 798 0
 2135 0bde 33E0     		b	.L93
 2136              	.L94:
 799:../tasks/display/Board_lcd.c ****   }
 800:../tasks/display/Board_lcd.c **** 
 801:../tasks/display/Board_lcd.c ****   BSP_LCD_DrawLine(Points->X, Points->Y, (Points+PointCount-1)->X, (Points+PointCount-1)->Y);
 2137              		.loc 1 801 0
 2138 0be0 7B68     		ldr	r3, [r7, #4]
 2139 0be2 1B88     		ldrh	r3, [r3]
 2140 0be4 98B2     		uxth	r0, r3
 2141 0be6 7B68     		ldr	r3, [r7, #4]
 2142 0be8 5B88     		ldrh	r3, [r3, #2]
 2143 0bea 99B2     		uxth	r1, r3
 2144 0bec 7B88     		ldrh	r3, [r7, #2]
 2145 0bee 03F18043 		add	r3, r3, #1073741824
 2146 0bf2 013B     		subs	r3, r3, #1
 2147 0bf4 9B00     		lsls	r3, r3, #2
 2148 0bf6 7A68     		ldr	r2, [r7, #4]
 2149 0bf8 1344     		add	r3, r3, r2
 2150 0bfa 1B88     		ldrh	r3, [r3]
 2151 0bfc 9AB2     		uxth	r2, r3
 2152 0bfe 7B88     		ldrh	r3, [r7, #2]
 2153 0c00 03F18043 		add	r3, r3, #1073741824
 2154 0c04 013B     		subs	r3, r3, #1
 2155 0c06 9B00     		lsls	r3, r3, #2
 2156 0c08 7C68     		ldr	r4, [r7, #4]
 2157 0c0a 2344     		add	r3, r3, r4
 2158 0c0c 5B88     		ldrh	r3, [r3, #2]
 2159 0c0e 9BB2     		uxth	r3, r3
 2160 0c10 FFF7FEFF 		bl	BSP_LCD_DrawLine
 802:../tasks/display/Board_lcd.c ****   
 803:../tasks/display/Board_lcd.c ****   while(--PointCount)
 2161              		.loc 1 803 0
 2162 0c14 12E0     		b	.L96
 2163              	.L97:
 804:../tasks/display/Board_lcd.c ****   {
 805:../tasks/display/Board_lcd.c ****     X = Points->X;
 2164              		.loc 1 805 0
 2165 0c16 7B68     		ldr	r3, [r7, #4]
 2166 0c18 1B88     		ldrh	r3, [r3]	@ movhi
 2167 0c1a FB81     		strh	r3, [r7, #14]	@ movhi
 806:../tasks/display/Board_lcd.c ****     Y = Points->Y;
 2168              		.loc 1 806 0
 2169 0c1c 7B68     		ldr	r3, [r7, #4]
 2170 0c1e 5B88     		ldrh	r3, [r3, #2]	@ movhi
 2171 0c20 BB81     		strh	r3, [r7, #12]	@ movhi
 807:../tasks/display/Board_lcd.c ****     Points++;
 2172              		.loc 1 807 0
 2173 0c22 7B68     		ldr	r3, [r7, #4]
 2174 0c24 0433     		adds	r3, r3, #4
 2175 0c26 7B60     		str	r3, [r7, #4]
 808:../tasks/display/Board_lcd.c ****     BSP_LCD_DrawLine(X, Y, Points->X, Points->Y);
 2176              		.loc 1 808 0
 2177 0c28 F889     		ldrh	r0, [r7, #14]
 2178 0c2a B989     		ldrh	r1, [r7, #12]
 2179 0c2c 7B68     		ldr	r3, [r7, #4]
 2180 0c2e 1B88     		ldrh	r3, [r3]
 2181 0c30 9AB2     		uxth	r2, r3
 2182 0c32 7B68     		ldr	r3, [r7, #4]
 2183 0c34 5B88     		ldrh	r3, [r3, #2]
 2184 0c36 9BB2     		uxth	r3, r3
 2185 0c38 FFF7FEFF 		bl	BSP_LCD_DrawLine
 2186              	.L96:
 803:../tasks/display/Board_lcd.c ****   {
 2187              		.loc 1 803 0 discriminator 1
 2188 0c3c 7B88     		ldrh	r3, [r7, #2]	@ movhi
 2189 0c3e 013B     		subs	r3, r3, #1
 2190 0c40 7B80     		strh	r3, [r7, #2]	@ movhi
 2191 0c42 7B88     		ldrh	r3, [r7, #2]
 2192 0c44 002B     		cmp	r3, #0
 2193 0c46 E6D1     		bne	.L97
 2194              	.L93:
 809:../tasks/display/Board_lcd.c ****   }
 810:../tasks/display/Board_lcd.c ****   
 811:../tasks/display/Board_lcd.c **** }
 2195              		.loc 1 811 0
 2196 0c48 1437     		adds	r7, r7, #20
 2197 0c4a BD46     		mov	sp, r7
 2198              		@ sp needed
 2199 0c4c 90BD     		pop	{r4, r7, pc}
 2200              		.cfi_endproc
 2201              	.LFE81:
 2203              		.global	__aeabi_i2f
 2204              		.global	__aeabi_fdiv
 2205              		.global	__aeabi_f2uiz
 2206 0c4e 00BF     		.align	2
 2207              		.global	BSP_LCD_DrawEllipse
 2208              		.thumb
 2209              		.thumb_func
 2211              	BSP_LCD_DrawEllipse:
 2212              	.LFB82:
 812:../tasks/display/Board_lcd.c **** 
 813:../tasks/display/Board_lcd.c **** /**
 814:../tasks/display/Board_lcd.c ****   * @brief  Draws an ellipse on LCD.
 815:../tasks/display/Board_lcd.c ****   * @param  Xpos: X position
 816:../tasks/display/Board_lcd.c ****   * @param  Ypos: Y position
 817:../tasks/display/Board_lcd.c ****   * @param  XRadius: Ellipse X radius
 818:../tasks/display/Board_lcd.c ****   * @param  YRadius: Ellipse Y radius
 819:../tasks/display/Board_lcd.c ****   * @retval None
 820:../tasks/display/Board_lcd.c ****   */
 821:../tasks/display/Board_lcd.c **** void BSP_LCD_DrawEllipse(int Xpos, int Ypos, int XRadius, int YRadius)
 822:../tasks/display/Board_lcd.c **** {
 2213              		.loc 1 822 0
 2214              		.cfi_startproc
 2215              		@ args = 0, pretend = 0, frame = 48
 2216              		@ frame_needed = 1, uses_anonymous_args = 0
 2217 0c50 90B5     		push	{r4, r7, lr}
 2218              		.cfi_def_cfa_offset 12
 2219              		.cfi_offset 4, -12
 2220              		.cfi_offset 7, -8
 2221              		.cfi_offset 14, -4
 2222 0c52 8DB0     		sub	sp, sp, #52
 2223              		.cfi_def_cfa_offset 64
 2224 0c54 00AF     		add	r7, sp, #0
 2225              		.cfi_def_cfa_register 7
 2226 0c56 F860     		str	r0, [r7, #12]
 2227 0c58 B960     		str	r1, [r7, #8]
 2228 0c5a 7A60     		str	r2, [r7, #4]
 2229 0c5c 3B60     		str	r3, [r7]
 823:../tasks/display/Board_lcd.c ****   int x = 0, y = -YRadius, err = 2-2*XRadius, e2;
 2230              		.loc 1 823 0
 2231 0c5e 0023     		movs	r3, #0
 2232 0c60 FB62     		str	r3, [r7, #44]
 2233 0c62 3B68     		ldr	r3, [r7]
 2234 0c64 5B42     		negs	r3, r3
 2235 0c66 BB62     		str	r3, [r7, #40]
 2236 0c68 7A68     		ldr	r2, [r7, #4]
 2237 0c6a 1346     		mov	r3, r2
 2238 0c6c DB07     		lsls	r3, r3, #31
 2239 0c6e 9B1A     		subs	r3, r3, r2
 2240 0c70 5B00     		lsls	r3, r3, #1
 2241 0c72 0233     		adds	r3, r3, #2
 2242 0c74 7B62     		str	r3, [r7, #36]
 824:../tasks/display/Board_lcd.c ****   float K = 0, rad1 = 0, rad2 = 0;
 2243              		.loc 1 824 0
 2244 0c76 4FF00003 		mov	r3, #0
 2245 0c7a FB61     		str	r3, [r7, #28]	@ float
 2246 0c7c 4FF00003 		mov	r3, #0
 2247 0c80 BB61     		str	r3, [r7, #24]	@ float
 2248 0c82 4FF00003 		mov	r3, #0
 2249 0c86 7B61     		str	r3, [r7, #20]	@ float
 825:../tasks/display/Board_lcd.c ****   
 826:../tasks/display/Board_lcd.c ****   rad1 = XRadius;
 2250              		.loc 1 826 0
 2251 0c88 7868     		ldr	r0, [r7, #4]
 2252 0c8a FFF7FEFF 		bl	__aeabi_i2f
 2253 0c8e 0346     		mov	r3, r0
 2254 0c90 BB61     		str	r3, [r7, #24]	@ float
 827:../tasks/display/Board_lcd.c ****   rad2 = YRadius;
 2255              		.loc 1 827 0
 2256 0c92 3868     		ldr	r0, [r7]
 2257 0c94 FFF7FEFF 		bl	__aeabi_i2f
 2258 0c98 0346     		mov	r3, r0
 2259 0c9a 7B61     		str	r3, [r7, #20]	@ float
 828:../tasks/display/Board_lcd.c ****   
 829:../tasks/display/Board_lcd.c ****   K = (float)(rad2/rad1);
 2260              		.loc 1 829 0
 2261 0c9c 7869     		ldr	r0, [r7, #20]	@ float
 2262 0c9e B969     		ldr	r1, [r7, #24]	@ float
 2263 0ca0 FFF7FEFF 		bl	__aeabi_fdiv
 2264 0ca4 0346     		mov	r3, r0
 2265 0ca6 FB61     		str	r3, [r7, #28]	@ float
 2266              	.L101:
 830:../tasks/display/Board_lcd.c ****   
 831:../tasks/display/Board_lcd.c ****   do {      
 832:../tasks/display/Board_lcd.c ****     BSP_LCD_DrawPixel((Xpos-(uint16_t)(x/K)), (Ypos+y), DrawProp.TextColor);
 2267              		.loc 1 832 0
 2268 0ca8 FB68     		ldr	r3, [r7, #12]
 2269 0caa 9CB2     		uxth	r4, r3
 2270 0cac F86A     		ldr	r0, [r7, #44]
 2271 0cae FFF7FEFF 		bl	__aeabi_i2f
 2272 0cb2 0346     		mov	r3, r0
 2273 0cb4 1846     		mov	r0, r3
 2274 0cb6 F969     		ldr	r1, [r7, #28]	@ float
 2275 0cb8 FFF7FEFF 		bl	__aeabi_fdiv
 2276 0cbc 0346     		mov	r3, r0
 2277 0cbe 1846     		mov	r0, r3
 2278 0cc0 FFF7FEFF 		bl	__aeabi_f2uiz
 2279 0cc4 0346     		mov	r3, r0
 2280 0cc6 9BB2     		uxth	r3, r3
 2281 0cc8 E31A     		subs	r3, r4, r3
 2282 0cca 99B2     		uxth	r1, r3
 2283 0ccc BB68     		ldr	r3, [r7, #8]
 2284 0cce 9AB2     		uxth	r2, r3
 2285 0cd0 BB6A     		ldr	r3, [r7, #40]
 2286 0cd2 9BB2     		uxth	r3, r3
 2287 0cd4 1344     		add	r3, r3, r2
 2288 0cd6 9AB2     		uxth	r2, r3
 2289 0cd8 40F20003 		movw	r3, #:lower16:DrawProp
 2290 0cdc C0F20003 		movt	r3, #:upper16:DrawProp
 2291 0ce0 5B68     		ldr	r3, [r3, #4]
 2292 0ce2 9BB2     		uxth	r3, r3
 2293 0ce4 0846     		mov	r0, r1
 2294 0ce6 1146     		mov	r1, r2
 2295 0ce8 1A46     		mov	r2, r3
 2296 0cea FFF7FEFF 		bl	BSP_LCD_DrawPixel
 833:../tasks/display/Board_lcd.c ****     BSP_LCD_DrawPixel((Xpos+(uint16_t)(x/K)), (Ypos+y), DrawProp.TextColor);
 2297              		.loc 1 833 0
 2298 0cee F86A     		ldr	r0, [r7, #44]
 2299 0cf0 FFF7FEFF 		bl	__aeabi_i2f
 2300 0cf4 0346     		mov	r3, r0
 2301 0cf6 1846     		mov	r0, r3
 2302 0cf8 F969     		ldr	r1, [r7, #28]	@ float
 2303 0cfa FFF7FEFF 		bl	__aeabi_fdiv
 2304 0cfe 0346     		mov	r3, r0
 2305 0d00 1846     		mov	r0, r3
 2306 0d02 FFF7FEFF 		bl	__aeabi_f2uiz
 2307 0d06 0346     		mov	r3, r0
 2308 0d08 9AB2     		uxth	r2, r3
 2309 0d0a FB68     		ldr	r3, [r7, #12]
 2310 0d0c 9BB2     		uxth	r3, r3
 2311 0d0e 1344     		add	r3, r3, r2
 2312 0d10 99B2     		uxth	r1, r3
 2313 0d12 BB68     		ldr	r3, [r7, #8]
 2314 0d14 9AB2     		uxth	r2, r3
 2315 0d16 BB6A     		ldr	r3, [r7, #40]
 2316 0d18 9BB2     		uxth	r3, r3
 2317 0d1a 1344     		add	r3, r3, r2
 2318 0d1c 9AB2     		uxth	r2, r3
 2319 0d1e 40F20003 		movw	r3, #:lower16:DrawProp
 2320 0d22 C0F20003 		movt	r3, #:upper16:DrawProp
 2321 0d26 5B68     		ldr	r3, [r3, #4]
 2322 0d28 9BB2     		uxth	r3, r3
 2323 0d2a 0846     		mov	r0, r1
 2324 0d2c 1146     		mov	r1, r2
 2325 0d2e 1A46     		mov	r2, r3
 2326 0d30 FFF7FEFF 		bl	BSP_LCD_DrawPixel
 834:../tasks/display/Board_lcd.c ****     BSP_LCD_DrawPixel((Xpos+(uint16_t)(x/K)), (Ypos-y), DrawProp.TextColor);
 2327              		.loc 1 834 0
 2328 0d34 F86A     		ldr	r0, [r7, #44]
 2329 0d36 FFF7FEFF 		bl	__aeabi_i2f
 2330 0d3a 0346     		mov	r3, r0
 2331 0d3c 1846     		mov	r0, r3
 2332 0d3e F969     		ldr	r1, [r7, #28]	@ float
 2333 0d40 FFF7FEFF 		bl	__aeabi_fdiv
 2334 0d44 0346     		mov	r3, r0
 2335 0d46 1846     		mov	r0, r3
 2336 0d48 FFF7FEFF 		bl	__aeabi_f2uiz
 2337 0d4c 0346     		mov	r3, r0
 2338 0d4e 9AB2     		uxth	r2, r3
 2339 0d50 FB68     		ldr	r3, [r7, #12]
 2340 0d52 9BB2     		uxth	r3, r3
 2341 0d54 1344     		add	r3, r3, r2
 2342 0d56 99B2     		uxth	r1, r3
 2343 0d58 BB68     		ldr	r3, [r7, #8]
 2344 0d5a 9AB2     		uxth	r2, r3
 2345 0d5c BB6A     		ldr	r3, [r7, #40]
 2346 0d5e 9BB2     		uxth	r3, r3
 2347 0d60 D31A     		subs	r3, r2, r3
 2348 0d62 9AB2     		uxth	r2, r3
 2349 0d64 40F20003 		movw	r3, #:lower16:DrawProp
 2350 0d68 C0F20003 		movt	r3, #:upper16:DrawProp
 2351 0d6c 5B68     		ldr	r3, [r3, #4]
 2352 0d6e 9BB2     		uxth	r3, r3
 2353 0d70 0846     		mov	r0, r1
 2354 0d72 1146     		mov	r1, r2
 2355 0d74 1A46     		mov	r2, r3
 2356 0d76 FFF7FEFF 		bl	BSP_LCD_DrawPixel
 835:../tasks/display/Board_lcd.c ****     BSP_LCD_DrawPixel((Xpos-(uint16_t)(x/K)), (Ypos-y), DrawProp.TextColor);      
 2357              		.loc 1 835 0
 2358 0d7a FB68     		ldr	r3, [r7, #12]
 2359 0d7c 9CB2     		uxth	r4, r3
 2360 0d7e F86A     		ldr	r0, [r7, #44]
 2361 0d80 FFF7FEFF 		bl	__aeabi_i2f
 2362 0d84 0346     		mov	r3, r0
 2363 0d86 1846     		mov	r0, r3
 2364 0d88 F969     		ldr	r1, [r7, #28]	@ float
 2365 0d8a FFF7FEFF 		bl	__aeabi_fdiv
 2366 0d8e 0346     		mov	r3, r0
 2367 0d90 1846     		mov	r0, r3
 2368 0d92 FFF7FEFF 		bl	__aeabi_f2uiz
 2369 0d96 0346     		mov	r3, r0
 2370 0d98 9BB2     		uxth	r3, r3
 2371 0d9a E31A     		subs	r3, r4, r3
 2372 0d9c 99B2     		uxth	r1, r3
 2373 0d9e BB68     		ldr	r3, [r7, #8]
 2374 0da0 9AB2     		uxth	r2, r3
 2375 0da2 BB6A     		ldr	r3, [r7, #40]
 2376 0da4 9BB2     		uxth	r3, r3
 2377 0da6 D31A     		subs	r3, r2, r3
 2378 0da8 9AB2     		uxth	r2, r3
 2379 0daa 40F20003 		movw	r3, #:lower16:DrawProp
 2380 0dae C0F20003 		movt	r3, #:upper16:DrawProp
 2381 0db2 5B68     		ldr	r3, [r3, #4]
 2382 0db4 9BB2     		uxth	r3, r3
 2383 0db6 0846     		mov	r0, r1
 2384 0db8 1146     		mov	r1, r2
 2385 0dba 1A46     		mov	r2, r3
 2386 0dbc FFF7FEFF 		bl	BSP_LCD_DrawPixel
 836:../tasks/display/Board_lcd.c ****     
 837:../tasks/display/Board_lcd.c ****     e2 = err;
 2387              		.loc 1 837 0
 2388 0dc0 7B6A     		ldr	r3, [r7, #36]
 2389 0dc2 3B62     		str	r3, [r7, #32]
 838:../tasks/display/Board_lcd.c ****     if (e2 <= x) {
 2390              		.loc 1 838 0
 2391 0dc4 3A6A     		ldr	r2, [r7, #32]
 2392 0dc6 FB6A     		ldr	r3, [r7, #44]
 2393 0dc8 9A42     		cmp	r2, r3
 2394 0dca 13DC     		bgt	.L99
 839:../tasks/display/Board_lcd.c ****       err += ++x*2+1;
 2395              		.loc 1 839 0
 2396 0dcc FB6A     		ldr	r3, [r7, #44]
 2397 0dce 0133     		adds	r3, r3, #1
 2398 0dd0 FB62     		str	r3, [r7, #44]
 2399 0dd2 FB6A     		ldr	r3, [r7, #44]
 2400 0dd4 5B00     		lsls	r3, r3, #1
 2401 0dd6 0133     		adds	r3, r3, #1
 2402 0dd8 7A6A     		ldr	r2, [r7, #36]
 2403 0dda 1344     		add	r3, r3, r2
 2404 0ddc 7B62     		str	r3, [r7, #36]
 840:../tasks/display/Board_lcd.c ****       if (-y == x && e2 <= y) e2 = 0;
 2405              		.loc 1 840 0
 2406 0dde BB6A     		ldr	r3, [r7, #40]
 2407 0de0 5A42     		negs	r2, r3
 2408 0de2 FB6A     		ldr	r3, [r7, #44]
 2409 0de4 9A42     		cmp	r2, r3
 2410 0de6 05D1     		bne	.L99
 2411              		.loc 1 840 0 is_stmt 0 discriminator 1
 2412 0de8 3A6A     		ldr	r2, [r7, #32]
 2413 0dea BB6A     		ldr	r3, [r7, #40]
 2414 0dec 9A42     		cmp	r2, r3
 2415 0dee 01DC     		bgt	.L99
 2416 0df0 0023     		movs	r3, #0
 2417 0df2 3B62     		str	r3, [r7, #32]
 2418              	.L99:
 841:../tasks/display/Board_lcd.c ****     }
 842:../tasks/display/Board_lcd.c ****     if (e2 > y) err += ++y*2+1;     
 2419              		.loc 1 842 0 is_stmt 1
 2420 0df4 3A6A     		ldr	r2, [r7, #32]
 2421 0df6 BB6A     		ldr	r3, [r7, #40]
 2422 0df8 9A42     		cmp	r2, r3
 2423 0dfa 08DD     		ble	.L100
 2424              		.loc 1 842 0 is_stmt 0 discriminator 1
 2425 0dfc BB6A     		ldr	r3, [r7, #40]
 2426 0dfe 0133     		adds	r3, r3, #1
 2427 0e00 BB62     		str	r3, [r7, #40]
 2428 0e02 BB6A     		ldr	r3, [r7, #40]
 2429 0e04 5B00     		lsls	r3, r3, #1
 2430 0e06 0133     		adds	r3, r3, #1
 2431 0e08 7A6A     		ldr	r2, [r7, #36]
 2432 0e0a 1344     		add	r3, r3, r2
 2433 0e0c 7B62     		str	r3, [r7, #36]
 2434              	.L100:
 843:../tasks/display/Board_lcd.c ****   }
 844:../tasks/display/Board_lcd.c ****   while (y <= 0);
 2435              		.loc 1 844 0 is_stmt 1
 2436 0e0e BB6A     		ldr	r3, [r7, #40]
 2437 0e10 002B     		cmp	r3, #0
 2438 0e12 7FF749AF 		ble	.L101
 845:../tasks/display/Board_lcd.c **** }
 2439              		.loc 1 845 0
 2440 0e16 3437     		adds	r7, r7, #52
 2441 0e18 BD46     		mov	sp, r7
 2442              		@ sp needed
 2443 0e1a 90BD     		pop	{r4, r7, pc}
 2444              		.cfi_endproc
 2445              	.LFE82:
 2447              		.align	2
 2448              		.global	BSP_LCD_DrawBitmap
 2449              		.thumb
 2450              		.thumb_func
 2452              	BSP_LCD_DrawBitmap:
 2453              	.LFB83:
 846:../tasks/display/Board_lcd.c **** 
 847:../tasks/display/Board_lcd.c **** /**
 848:../tasks/display/Board_lcd.c ****   * @brief  Draws a bitmap picture (16 bpp).
 849:../tasks/display/Board_lcd.c ****   * @param  Xpos: Bmp X position in the LCD
 850:../tasks/display/Board_lcd.c ****   * @param  Ypos: Bmp Y position in the LCD
 851:../tasks/display/Board_lcd.c ****   * @param  pbmp: Pointer to Bmp picture address.
 852:../tasks/display/Board_lcd.c ****   * @retval None
 853:../tasks/display/Board_lcd.c ****   */
 854:../tasks/display/Board_lcd.c **** void BSP_LCD_DrawBitmap(uint16_t Xpos, uint16_t Ypos, uint8_t *pbmp)
 855:../tasks/display/Board_lcd.c **** {
 2454              		.loc 1 855 0
 2455              		.cfi_startproc
 2456              		@ args = 0, pretend = 0, frame = 16
 2457              		@ frame_needed = 1, uses_anonymous_args = 0
 2458 0e1c 90B5     		push	{r4, r7, lr}
 2459              		.cfi_def_cfa_offset 12
 2460              		.cfi_offset 4, -12
 2461              		.cfi_offset 7, -8
 2462              		.cfi_offset 14, -4
 2463 0e1e 85B0     		sub	sp, sp, #20
 2464              		.cfi_def_cfa_offset 32
 2465 0e20 00AF     		add	r7, sp, #0
 2466              		.cfi_def_cfa_register 7
 2467 0e22 0B46     		mov	r3, r1
 2468 0e24 3A60     		str	r2, [r7]
 2469 0e26 0246     		mov	r2, r0	@ movhi
 2470 0e28 FA80     		strh	r2, [r7, #6]	@ movhi
 2471 0e2a BB80     		strh	r3, [r7, #4]	@ movhi
 856:../tasks/display/Board_lcd.c ****   uint32_t height = 0;
 2472              		.loc 1 856 0
 2473 0e2c 0023     		movs	r3, #0
 2474 0e2e FB60     		str	r3, [r7, #12]
 857:../tasks/display/Board_lcd.c ****   uint32_t width  = 0;
 2475              		.loc 1 857 0
 2476 0e30 0023     		movs	r3, #0
 2477 0e32 BB60     		str	r3, [r7, #8]
 858:../tasks/display/Board_lcd.c ****   
 859:../tasks/display/Board_lcd.c ****   
 860:../tasks/display/Board_lcd.c ****   /* Read bitmap width */
 861:../tasks/display/Board_lcd.c ****   width = *(uint16_t *) (pbmp + 18);
 2478              		.loc 1 861 0
 2479 0e34 3B68     		ldr	r3, [r7]
 2480 0e36 1233     		adds	r3, r3, #18
 2481 0e38 1B88     		ldrh	r3, [r3]
 2482 0e3a BB60     		str	r3, [r7, #8]
 862:../tasks/display/Board_lcd.c ****   width |= (*(uint16_t *) (pbmp + 20)) << 16;
 2483              		.loc 1 862 0
 2484 0e3c 3B68     		ldr	r3, [r7]
 2485 0e3e 1433     		adds	r3, r3, #20
 2486 0e40 1B88     		ldrh	r3, [r3]
 2487 0e42 1B04     		lsls	r3, r3, #16
 2488 0e44 BA68     		ldr	r2, [r7, #8]
 2489 0e46 1343     		orrs	r3, r3, r2
 2490 0e48 BB60     		str	r3, [r7, #8]
 863:../tasks/display/Board_lcd.c ****   
 864:../tasks/display/Board_lcd.c ****   /* Read bitmap height */
 865:../tasks/display/Board_lcd.c ****   height = *(uint16_t *) (pbmp + 22);
 2491              		.loc 1 865 0
 2492 0e4a 3B68     		ldr	r3, [r7]
 2493 0e4c 1633     		adds	r3, r3, #22
 2494 0e4e 1B88     		ldrh	r3, [r3]
 2495 0e50 FB60     		str	r3, [r7, #12]
 866:../tasks/display/Board_lcd.c ****   height |= (*(uint16_t *) (pbmp + 24)) << 16; 
 2496              		.loc 1 866 0
 2497 0e52 3B68     		ldr	r3, [r7]
 2498 0e54 1833     		adds	r3, r3, #24
 2499 0e56 1B88     		ldrh	r3, [r3]
 2500 0e58 1B04     		lsls	r3, r3, #16
 2501 0e5a FA68     		ldr	r2, [r7, #12]
 2502 0e5c 1343     		orrs	r3, r3, r2
 2503 0e5e FB60     		str	r3, [r7, #12]
 867:../tasks/display/Board_lcd.c ****   
 868:../tasks/display/Board_lcd.c ****   SetDisplayWindow(Xpos, Ypos, width, height);
 2504              		.loc 1 868 0
 2505 0e60 BB68     		ldr	r3, [r7, #8]
 2506 0e62 9AB2     		uxth	r2, r3
 2507 0e64 FB68     		ldr	r3, [r7, #12]
 2508 0e66 9BB2     		uxth	r3, r3
 2509 0e68 F888     		ldrh	r0, [r7, #6]
 2510 0e6a B988     		ldrh	r1, [r7, #4]
 2511 0e6c 00F04EFB 		bl	SetDisplayWindow
 869:../tasks/display/Board_lcd.c ****   
 870:../tasks/display/Board_lcd.c ****   if(lcd_drv->DrawBitmap != NULL)
 2512              		.loc 1 870 0
 2513 0e70 40F20003 		movw	r3, #:lower16:lcd_drv
 2514 0e74 C0F20003 		movt	r3, #:upper16:lcd_drv
 2515 0e78 1B68     		ldr	r3, [r3]
 2516 0e7a 5B6B     		ldr	r3, [r3, #52]
 2517 0e7c 002B     		cmp	r3, #0
 2518 0e7e 0BD0     		beq	.L103
 871:../tasks/display/Board_lcd.c ****   {
 872:../tasks/display/Board_lcd.c ****     lcd_drv->DrawBitmap(Xpos, Ypos, pbmp);
 2519              		.loc 1 872 0
 2520 0e80 40F20003 		movw	r3, #:lower16:lcd_drv
 2521 0e84 C0F20003 		movt	r3, #:upper16:lcd_drv
 2522 0e88 1B68     		ldr	r3, [r3]
 2523 0e8a 5B6B     		ldr	r3, [r3, #52]
 2524 0e8c F988     		ldrh	r1, [r7, #6]
 2525 0e8e BA88     		ldrh	r2, [r7, #4]
 2526 0e90 0846     		mov	r0, r1
 2527 0e92 1146     		mov	r1, r2
 2528 0e94 3A68     		ldr	r2, [r7]
 2529 0e96 9847     		blx	r3
 2530              	.L103:
 873:../tasks/display/Board_lcd.c ****   } 
 874:../tasks/display/Board_lcd.c ****   SetDisplayWindow(0, 0, BSP_LCD_GetXSize(), BSP_LCD_GetYSize());
 2531              		.loc 1 874 0
 2532 0e98 FFF7FEFF 		bl	BSP_LCD_GetXSize
 2533 0e9c 0346     		mov	r3, r0
 2534 0e9e 9CB2     		uxth	r4, r3
 2535 0ea0 FFF7FEFF 		bl	BSP_LCD_GetYSize
 2536 0ea4 0346     		mov	r3, r0
 2537 0ea6 9BB2     		uxth	r3, r3
 2538 0ea8 0020     		movs	r0, #0
 2539 0eaa 0021     		movs	r1, #0
 2540 0eac 2246     		mov	r2, r4
 2541 0eae 00F02DFB 		bl	SetDisplayWindow
 875:../tasks/display/Board_lcd.c **** }
 2542              		.loc 1 875 0
 2543 0eb2 1437     		adds	r7, r7, #20
 2544 0eb4 BD46     		mov	sp, r7
 2545              		@ sp needed
 2546 0eb6 90BD     		pop	{r4, r7, pc}
 2547              		.cfi_endproc
 2548              	.LFE83:
 2550              		.align	2
 2551              		.global	BSP_LCD_DrawRGBImage
 2552              		.thumb
 2553              		.thumb_func
 2555              	BSP_LCD_DrawRGBImage:
 2556              	.LFB84:
 876:../tasks/display/Board_lcd.c **** 
 877:../tasks/display/Board_lcd.c **** /**
 878:../tasks/display/Board_lcd.c ****   * @brief  Draws RGB Image (16 bpp).
 879:../tasks/display/Board_lcd.c ****   * @param  Xpos:  X position in the LCD
 880:../tasks/display/Board_lcd.c ****   * @param  Ypos:  Y position in the LCD
 881:../tasks/display/Board_lcd.c ****   * @param  Xsize: X size in the LCD
 882:../tasks/display/Board_lcd.c ****   * @param  Ysize: Y size in the LCD
 883:../tasks/display/Board_lcd.c ****   * @param  pdata: Pointer to the RGB Image address.
 884:../tasks/display/Board_lcd.c ****   * @retval None
 885:../tasks/display/Board_lcd.c ****   */
 886:../tasks/display/Board_lcd.c **** void BSP_LCD_DrawRGBImage(uint16_t Xpos, uint16_t Ypos, uint16_t Xsize, uint16_t Ysize, uint8_t *pd
 887:../tasks/display/Board_lcd.c **** {
 2557              		.loc 1 887 0
 2558              		.cfi_startproc
 2559              		@ args = 4, pretend = 0, frame = 8
 2560              		@ frame_needed = 1, uses_anonymous_args = 0
 2561 0eb8 B0B5     		push	{r4, r5, r7, lr}
 2562              		.cfi_def_cfa_offset 16
 2563              		.cfi_offset 4, -16
 2564              		.cfi_offset 5, -12
 2565              		.cfi_offset 7, -8
 2566              		.cfi_offset 14, -4
 2567 0eba 84B0     		sub	sp, sp, #16
 2568              		.cfi_def_cfa_offset 32
 2569 0ebc 02AF     		add	r7, sp, #8
 2570              		.cfi_def_cfa 7, 24
 2571 0ebe F880     		strh	r0, [r7, #6]	@ movhi
 2572 0ec0 B980     		strh	r1, [r7, #4]	@ movhi
 2573 0ec2 7A80     		strh	r2, [r7, #2]	@ movhi
 2574 0ec4 3B80     		strh	r3, [r7]	@ movhi
 888:../tasks/display/Board_lcd.c ****   
 889:../tasks/display/Board_lcd.c ****   SetDisplayWindow(Xpos, Ypos, Xsize, Ysize);
 2575              		.loc 1 889 0
 2576 0ec6 F888     		ldrh	r0, [r7, #6]
 2577 0ec8 B988     		ldrh	r1, [r7, #4]
 2578 0eca 7A88     		ldrh	r2, [r7, #2]
 2579 0ecc 3B88     		ldrh	r3, [r7]
 2580 0ece 00F01DFB 		bl	SetDisplayWindow
 890:../tasks/display/Board_lcd.c ****   
 891:../tasks/display/Board_lcd.c ****   if(lcd_drv->DrawRGBImage != NULL)
 2581              		.loc 1 891 0
 2582 0ed2 40F20003 		movw	r3, #:lower16:lcd_drv
 2583 0ed6 C0F20003 		movt	r3, #:upper16:lcd_drv
 2584 0eda 1B68     		ldr	r3, [r3]
 2585 0edc 9B6B     		ldr	r3, [r3, #56]
 2586 0ede 002B     		cmp	r3, #0
 2587 0ee0 0CD0     		beq	.L105
 892:../tasks/display/Board_lcd.c ****   {
 893:../tasks/display/Board_lcd.c ****     lcd_drv->DrawRGBImage(Xpos, Ypos, Xsize, Ysize, pdata);
 2588              		.loc 1 893 0
 2589 0ee2 40F20003 		movw	r3, #:lower16:lcd_drv
 2590 0ee6 C0F20003 		movt	r3, #:upper16:lcd_drv
 2591 0eea 1B68     		ldr	r3, [r3]
 2592 0eec 9C6B     		ldr	r4, [r3, #56]
 2593 0eee F888     		ldrh	r0, [r7, #6]
 2594 0ef0 B988     		ldrh	r1, [r7, #4]
 2595 0ef2 7A88     		ldrh	r2, [r7, #2]
 2596 0ef4 3B88     		ldrh	r3, [r7]
 2597 0ef6 BD69     		ldr	r5, [r7, #24]
 2598 0ef8 0095     		str	r5, [sp]
 2599 0efa A047     		blx	r4
 2600              	.L105:
 894:../tasks/display/Board_lcd.c ****   } 
 895:../tasks/display/Board_lcd.c ****   SetDisplayWindow(0, 0, BSP_LCD_GetXSize(), BSP_LCD_GetYSize());
 2601              		.loc 1 895 0
 2602 0efc FFF7FEFF 		bl	BSP_LCD_GetXSize
 2603 0f00 0346     		mov	r3, r0
 2604 0f02 9CB2     		uxth	r4, r3
 2605 0f04 FFF7FEFF 		bl	BSP_LCD_GetYSize
 2606 0f08 0346     		mov	r3, r0
 2607 0f0a 9BB2     		uxth	r3, r3
 2608 0f0c 0020     		movs	r0, #0
 2609 0f0e 0021     		movs	r1, #0
 2610 0f10 2246     		mov	r2, r4
 2611 0f12 00F0FBFA 		bl	SetDisplayWindow
 896:../tasks/display/Board_lcd.c **** }
 2612              		.loc 1 896 0
 2613 0f16 0837     		adds	r7, r7, #8
 2614 0f18 BD46     		mov	sp, r7
 2615              		@ sp needed
 2616 0f1a B0BD     		pop	{r4, r5, r7, pc}
 2617              		.cfi_endproc
 2618              	.LFE84:
 2620              		.align	2
 2621              		.global	BSP_LCD_FillRect
 2622              		.thumb
 2623              		.thumb_func
 2625              	BSP_LCD_FillRect:
 2626              	.LFB85:
 897:../tasks/display/Board_lcd.c **** 
 898:../tasks/display/Board_lcd.c **** /**
 899:../tasks/display/Board_lcd.c ****   * @brief  Draws a full rectangle.
 900:../tasks/display/Board_lcd.c ****   * @param  Xpos: X position
 901:../tasks/display/Board_lcd.c ****   * @param  Ypos: Y position
 902:../tasks/display/Board_lcd.c ****   * @param  Width: Rectangle width  
 903:../tasks/display/Board_lcd.c ****   * @param  Height: Rectangle height
 904:../tasks/display/Board_lcd.c ****   * @retval None
 905:../tasks/display/Board_lcd.c ****   */
 906:../tasks/display/Board_lcd.c **** void BSP_LCD_FillRect(uint16_t Xpos, uint16_t Ypos, uint16_t Width, uint16_t Height)
 907:../tasks/display/Board_lcd.c **** {
 2627              		.loc 1 907 0
 2628              		.cfi_startproc
 2629              		@ args = 0, pretend = 0, frame = 8
 2630              		@ frame_needed = 1, uses_anonymous_args = 0
 2631 0f1c 80B5     		push	{r7, lr}
 2632              		.cfi_def_cfa_offset 8
 2633              		.cfi_offset 7, -8
 2634              		.cfi_offset 14, -4
 2635 0f1e 82B0     		sub	sp, sp, #8
 2636              		.cfi_def_cfa_offset 16
 2637 0f20 00AF     		add	r7, sp, #0
 2638              		.cfi_def_cfa_register 7
 2639 0f22 F880     		strh	r0, [r7, #6]	@ movhi
 2640 0f24 B980     		strh	r1, [r7, #4]	@ movhi
 2641 0f26 7A80     		strh	r2, [r7, #2]	@ movhi
 2642 0f28 3B80     		strh	r3, [r7]	@ movhi
 908:../tasks/display/Board_lcd.c ****   BSP_LCD_SetTextColor(DrawProp.TextColor);
 2643              		.loc 1 908 0
 2644 0f2a 40F20003 		movw	r3, #:lower16:DrawProp
 2645 0f2e C0F20003 		movt	r3, #:upper16:DrawProp
 2646 0f32 5B68     		ldr	r3, [r3, #4]
 2647 0f34 9BB2     		uxth	r3, r3
 2648 0f36 1846     		mov	r0, r3
 2649 0f38 FFF7FEFF 		bl	BSP_LCD_SetTextColor
 2650              	.L107:
 909:../tasks/display/Board_lcd.c ****   do
 910:../tasks/display/Board_lcd.c ****   {
 911:../tasks/display/Board_lcd.c ****     BSP_LCD_DrawHLine(Xpos, Ypos++, Width);    
 2651              		.loc 1 911 0 discriminator 1
 2652 0f3c BB88     		ldrh	r3, [r7, #4]
 2653 0f3e 5A1C     		adds	r2, r3, #1
 2654 0f40 BA80     		strh	r2, [r7, #4]	@ movhi
 2655 0f42 F988     		ldrh	r1, [r7, #6]
 2656 0f44 7A88     		ldrh	r2, [r7, #2]
 2657 0f46 0846     		mov	r0, r1
 2658 0f48 1946     		mov	r1, r3
 2659 0f4a FFF7FEFF 		bl	BSP_LCD_DrawHLine
 912:../tasks/display/Board_lcd.c ****   }
 913:../tasks/display/Board_lcd.c ****   while(Height--);
 2660              		.loc 1 913 0 discriminator 1
 2661 0f4e 3B88     		ldrh	r3, [r7]
 2662 0f50 5A1E     		subs	r2, r3, #1
 2663 0f52 3A80     		strh	r2, [r7]	@ movhi
 2664 0f54 002B     		cmp	r3, #0
 2665 0f56 F1D1     		bne	.L107
 914:../tasks/display/Board_lcd.c **** }
 2666              		.loc 1 914 0
 2667 0f58 0837     		adds	r7, r7, #8
 2668 0f5a BD46     		mov	sp, r7
 2669              		@ sp needed
 2670 0f5c 80BD     		pop	{r7, pc}
 2671              		.cfi_endproc
 2672              	.LFE85:
 2674 0f5e 00BF     		.align	2
 2675              		.global	BSP_LCD_FillCircle
 2676              		.thumb
 2677              		.thumb_func
 2679              	BSP_LCD_FillCircle:
 2680              	.LFB86:
 915:../tasks/display/Board_lcd.c **** 
 916:../tasks/display/Board_lcd.c **** /**
 917:../tasks/display/Board_lcd.c ****   * @brief  Draws a full circle.
 918:../tasks/display/Board_lcd.c ****   * @param  Xpos: X position
 919:../tasks/display/Board_lcd.c ****   * @param  Ypos: Y position
 920:../tasks/display/Board_lcd.c ****   * @param  Radius: Circle radius
 921:../tasks/display/Board_lcd.c ****   * @retval None
 922:../tasks/display/Board_lcd.c ****   */
 923:../tasks/display/Board_lcd.c **** void BSP_LCD_FillCircle(uint16_t Xpos, uint16_t Ypos, uint16_t Radius)
 924:../tasks/display/Board_lcd.c **** {
 2681              		.loc 1 924 0
 2682              		.cfi_startproc
 2683              		@ args = 0, pretend = 0, frame = 24
 2684              		@ frame_needed = 1, uses_anonymous_args = 0
 2685 0f60 80B5     		push	{r7, lr}
 2686              		.cfi_def_cfa_offset 8
 2687              		.cfi_offset 7, -8
 2688              		.cfi_offset 14, -4
 2689 0f62 86B0     		sub	sp, sp, #24
 2690              		.cfi_def_cfa_offset 32
 2691 0f64 00AF     		add	r7, sp, #0
 2692              		.cfi_def_cfa_register 7
 2693 0f66 1346     		mov	r3, r2
 2694 0f68 0246     		mov	r2, r0	@ movhi
 2695 0f6a FA80     		strh	r2, [r7, #6]	@ movhi
 2696 0f6c 0A46     		mov	r2, r1	@ movhi
 2697 0f6e BA80     		strh	r2, [r7, #4]	@ movhi
 2698 0f70 7B80     		strh	r3, [r7, #2]	@ movhi
 925:../tasks/display/Board_lcd.c ****   int32_t  D;        /* Decision Variable */ 
 926:../tasks/display/Board_lcd.c ****   uint32_t  CurX;    /* Current X Value */
 927:../tasks/display/Board_lcd.c ****   uint32_t  CurY;    /* Current Y Value */ 
 928:../tasks/display/Board_lcd.c ****   
 929:../tasks/display/Board_lcd.c ****   D = 3 - (Radius << 1);
 2699              		.loc 1 929 0
 2700 0f72 7B88     		ldrh	r3, [r7, #2]
 2701 0f74 5B00     		lsls	r3, r3, #1
 2702 0f76 C3F10303 		rsb	r3, r3, #3
 2703 0f7a 7B61     		str	r3, [r7, #20]
 930:../tasks/display/Board_lcd.c **** 
 931:../tasks/display/Board_lcd.c ****   CurX = 0;
 2704              		.loc 1 931 0
 2705 0f7c 0023     		movs	r3, #0
 2706 0f7e 3B61     		str	r3, [r7, #16]
 932:../tasks/display/Board_lcd.c ****   CurY = Radius;
 2707              		.loc 1 932 0
 2708 0f80 7B88     		ldrh	r3, [r7, #2]
 2709 0f82 FB60     		str	r3, [r7, #12]
 933:../tasks/display/Board_lcd.c ****   
 934:../tasks/display/Board_lcd.c ****   BSP_LCD_SetTextColor(DrawProp.TextColor);
 2710              		.loc 1 934 0
 2711 0f84 40F20003 		movw	r3, #:lower16:DrawProp
 2712 0f88 C0F20003 		movt	r3, #:upper16:DrawProp
 2713 0f8c 5B68     		ldr	r3, [r3, #4]
 2714 0f8e 9BB2     		uxth	r3, r3
 2715 0f90 1846     		mov	r0, r3
 2716 0f92 FFF7FEFF 		bl	BSP_LCD_SetTextColor
 935:../tasks/display/Board_lcd.c **** 
 936:../tasks/display/Board_lcd.c ****   while (CurX <= CurY)
 2717              		.loc 1 936 0
 2718 0f96 69E0     		b	.L109
 2719              	.L114:
 937:../tasks/display/Board_lcd.c ****   {
 938:../tasks/display/Board_lcd.c ****     if(CurY > 0) 
 2720              		.loc 1 938 0
 2721 0f98 FB68     		ldr	r3, [r7, #12]
 2722 0f9a 002B     		cmp	r3, #0
 2723 0f9c 25D0     		beq	.L110
 939:../tasks/display/Board_lcd.c ****     {
 940:../tasks/display/Board_lcd.c ****       BSP_LCD_DrawHLine(Xpos - CurY, Ypos + CurX, 2*CurY);
 2724              		.loc 1 940 0
 2725 0f9e FB68     		ldr	r3, [r7, #12]
 2726 0fa0 9BB2     		uxth	r3, r3
 2727 0fa2 FA88     		ldrh	r2, [r7, #6]	@ movhi
 2728 0fa4 D31A     		subs	r3, r2, r3
 2729 0fa6 99B2     		uxth	r1, r3
 2730 0fa8 3B69     		ldr	r3, [r7, #16]
 2731 0faa 9AB2     		uxth	r2, r3
 2732 0fac BB88     		ldrh	r3, [r7, #4]	@ movhi
 2733 0fae 1344     		add	r3, r3, r2
 2734 0fb0 9AB2     		uxth	r2, r3
 2735 0fb2 FB68     		ldr	r3, [r7, #12]
 2736 0fb4 9BB2     		uxth	r3, r3
 2737 0fb6 5B00     		lsls	r3, r3, #1
 2738 0fb8 9BB2     		uxth	r3, r3
 2739 0fba 0846     		mov	r0, r1
 2740 0fbc 1146     		mov	r1, r2
 2741 0fbe 1A46     		mov	r2, r3
 2742 0fc0 FFF7FEFF 		bl	BSP_LCD_DrawHLine
 941:../tasks/display/Board_lcd.c ****       BSP_LCD_DrawHLine(Xpos - CurY, Ypos - CurX, 2*CurY);
 2743              		.loc 1 941 0
 2744 0fc4 FB68     		ldr	r3, [r7, #12]
 2745 0fc6 9BB2     		uxth	r3, r3
 2746 0fc8 FA88     		ldrh	r2, [r7, #6]	@ movhi
 2747 0fca D31A     		subs	r3, r2, r3
 2748 0fcc 99B2     		uxth	r1, r3
 2749 0fce 3B69     		ldr	r3, [r7, #16]
 2750 0fd0 9BB2     		uxth	r3, r3
 2751 0fd2 BA88     		ldrh	r2, [r7, #4]	@ movhi
 2752 0fd4 D31A     		subs	r3, r2, r3
 2753 0fd6 9AB2     		uxth	r2, r3
 2754 0fd8 FB68     		ldr	r3, [r7, #12]
 2755 0fda 9BB2     		uxth	r3, r3
 2756 0fdc 5B00     		lsls	r3, r3, #1
 2757 0fde 9BB2     		uxth	r3, r3
 2758 0fe0 0846     		mov	r0, r1
 2759 0fe2 1146     		mov	r1, r2
 2760 0fe4 1A46     		mov	r2, r3
 2761 0fe6 FFF7FEFF 		bl	BSP_LCD_DrawHLine
 2762              	.L110:
 942:../tasks/display/Board_lcd.c ****     }
 943:../tasks/display/Board_lcd.c **** 
 944:../tasks/display/Board_lcd.c ****     if(CurX > 0) 
 2763              		.loc 1 944 0
 2764 0fea 3B69     		ldr	r3, [r7, #16]
 2765 0fec 002B     		cmp	r3, #0
 2766 0fee 25D0     		beq	.L111
 945:../tasks/display/Board_lcd.c ****     {
 946:../tasks/display/Board_lcd.c ****       BSP_LCD_DrawHLine(Xpos - CurX, Ypos - CurY, 2*CurX);
 2767              		.loc 1 946 0
 2768 0ff0 3B69     		ldr	r3, [r7, #16]
 2769 0ff2 9BB2     		uxth	r3, r3
 2770 0ff4 FA88     		ldrh	r2, [r7, #6]	@ movhi
 2771 0ff6 D31A     		subs	r3, r2, r3
 2772 0ff8 99B2     		uxth	r1, r3
 2773 0ffa FB68     		ldr	r3, [r7, #12]
 2774 0ffc 9BB2     		uxth	r3, r3
 2775 0ffe BA88     		ldrh	r2, [r7, #4]	@ movhi
 2776 1000 D31A     		subs	r3, r2, r3
 2777 1002 9AB2     		uxth	r2, r3
 2778 1004 3B69     		ldr	r3, [r7, #16]
 2779 1006 9BB2     		uxth	r3, r3
 2780 1008 5B00     		lsls	r3, r3, #1
 2781 100a 9BB2     		uxth	r3, r3
 2782 100c 0846     		mov	r0, r1
 2783 100e 1146     		mov	r1, r2
 2784 1010 1A46     		mov	r2, r3
 2785 1012 FFF7FEFF 		bl	BSP_LCD_DrawHLine
 947:../tasks/display/Board_lcd.c ****       BSP_LCD_DrawHLine(Xpos - CurX, Ypos + CurY, 2*CurX);
 2786              		.loc 1 947 0
 2787 1016 3B69     		ldr	r3, [r7, #16]
 2788 1018 9BB2     		uxth	r3, r3
 2789 101a FA88     		ldrh	r2, [r7, #6]	@ movhi
 2790 101c D31A     		subs	r3, r2, r3
 2791 101e 99B2     		uxth	r1, r3
 2792 1020 FB68     		ldr	r3, [r7, #12]
 2793 1022 9AB2     		uxth	r2, r3
 2794 1024 BB88     		ldrh	r3, [r7, #4]	@ movhi
 2795 1026 1344     		add	r3, r3, r2
 2796 1028 9AB2     		uxth	r2, r3
 2797 102a 3B69     		ldr	r3, [r7, #16]
 2798 102c 9BB2     		uxth	r3, r3
 2799 102e 5B00     		lsls	r3, r3, #1
 2800 1030 9BB2     		uxth	r3, r3
 2801 1032 0846     		mov	r0, r1
 2802 1034 1146     		mov	r1, r2
 2803 1036 1A46     		mov	r2, r3
 2804 1038 FFF7FEFF 		bl	BSP_LCD_DrawHLine
 2805              	.L111:
 948:../tasks/display/Board_lcd.c ****     }
 949:../tasks/display/Board_lcd.c ****     if (D < 0)
 2806              		.loc 1 949 0
 2807 103c 7B69     		ldr	r3, [r7, #20]
 2808 103e 002B     		cmp	r3, #0
 2809 1040 06DA     		bge	.L112
 950:../tasks/display/Board_lcd.c ****     { 
 951:../tasks/display/Board_lcd.c ****       D += (CurX << 2) + 6;
 2810              		.loc 1 951 0
 2811 1042 3B69     		ldr	r3, [r7, #16]
 2812 1044 9A00     		lsls	r2, r3, #2
 2813 1046 7B69     		ldr	r3, [r7, #20]
 2814 1048 1344     		add	r3, r3, r2
 2815 104a 0633     		adds	r3, r3, #6
 2816 104c 7B61     		str	r3, [r7, #20]
 2817 104e 0AE0     		b	.L113
 2818              	.L112:
 952:../tasks/display/Board_lcd.c ****     }
 953:../tasks/display/Board_lcd.c ****     else
 954:../tasks/display/Board_lcd.c ****     {
 955:../tasks/display/Board_lcd.c ****       D += ((CurX - CurY) << 2) + 10;
 2819              		.loc 1 955 0
 2820 1050 3A69     		ldr	r2, [r7, #16]
 2821 1052 FB68     		ldr	r3, [r7, #12]
 2822 1054 D31A     		subs	r3, r2, r3
 2823 1056 9A00     		lsls	r2, r3, #2
 2824 1058 7B69     		ldr	r3, [r7, #20]
 2825 105a 1344     		add	r3, r3, r2
 2826 105c 0A33     		adds	r3, r3, #10
 2827 105e 7B61     		str	r3, [r7, #20]
 956:../tasks/display/Board_lcd.c ****       CurY--;
 2828              		.loc 1 956 0
 2829 1060 FB68     		ldr	r3, [r7, #12]
 2830 1062 013B     		subs	r3, r3, #1
 2831 1064 FB60     		str	r3, [r7, #12]
 2832              	.L113:
 957:../tasks/display/Board_lcd.c ****     }
 958:../tasks/display/Board_lcd.c ****     CurX++;
 2833              		.loc 1 958 0
 2834 1066 3B69     		ldr	r3, [r7, #16]
 2835 1068 0133     		adds	r3, r3, #1
 2836 106a 3B61     		str	r3, [r7, #16]
 2837              	.L109:
 936:../tasks/display/Board_lcd.c ****   {
 2838              		.loc 1 936 0 discriminator 1
 2839 106c 3A69     		ldr	r2, [r7, #16]
 2840 106e FB68     		ldr	r3, [r7, #12]
 2841 1070 9A42     		cmp	r2, r3
 2842 1072 91D9     		bls	.L114
 959:../tasks/display/Board_lcd.c ****   }
 960:../tasks/display/Board_lcd.c **** 
 961:../tasks/display/Board_lcd.c ****   BSP_LCD_SetTextColor(DrawProp.TextColor);
 2843              		.loc 1 961 0
 2844 1074 40F20003 		movw	r3, #:lower16:DrawProp
 2845 1078 C0F20003 		movt	r3, #:upper16:DrawProp
 2846 107c 5B68     		ldr	r3, [r3, #4]
 2847 107e 9BB2     		uxth	r3, r3
 2848 1080 1846     		mov	r0, r3
 2849 1082 FFF7FEFF 		bl	BSP_LCD_SetTextColor
 962:../tasks/display/Board_lcd.c **** //  BSP_LCD_DrawCircle(Xpos, Ypos, Radius);
 963:../tasks/display/Board_lcd.c **** }
 2850              		.loc 1 963 0
 2851 1086 1837     		adds	r7, r7, #24
 2852 1088 BD46     		mov	sp, r7
 2853              		@ sp needed
 2854 108a 80BD     		pop	{r7, pc}
 2855              		.cfi_endproc
 2856              	.LFE86:
 2858              		.align	2
 2859              		.global	BSP_LCD_FillPolygon
 2860              		.thumb
 2861              		.thumb_func
 2863              	BSP_LCD_FillPolygon:
 2864              	.LFB87:
 964:../tasks/display/Board_lcd.c **** 
 965:../tasks/display/Board_lcd.c **** /**
 966:../tasks/display/Board_lcd.c ****   * @brief  Draws a full poly-line (between many points).
 967:../tasks/display/Board_lcd.c ****   * @param  Points: Pointer to the points array
 968:../tasks/display/Board_lcd.c ****   * @param  PointCount: Number of points
 969:../tasks/display/Board_lcd.c ****   * @retval None
 970:../tasks/display/Board_lcd.c ****   */
 971:../tasks/display/Board_lcd.c **** void BSP_LCD_FillPolygon(pPoint Points, uint16_t PointCount)
 972:../tasks/display/Board_lcd.c **** {
 2865              		.loc 1 972 0
 2866              		.cfi_startproc
 2867              		@ args = 0, pretend = 0, frame = 40
 2868              		@ frame_needed = 1, uses_anonymous_args = 0
 2869 108c B0B5     		push	{r4, r5, r7, lr}
 2870              		.cfi_def_cfa_offset 16
 2871              		.cfi_offset 4, -16
 2872              		.cfi_offset 5, -12
 2873              		.cfi_offset 7, -8
 2874              		.cfi_offset 14, -4
 2875 108e 8CB0     		sub	sp, sp, #48
 2876              		.cfi_def_cfa_offset 64
 2877 1090 02AF     		add	r7, sp, #8
 2878              		.cfi_def_cfa 7, 56
 2879 1092 7860     		str	r0, [r7, #4]
 2880 1094 0B46     		mov	r3, r1
 2881 1096 7B80     		strh	r3, [r7, #2]	@ movhi
 973:../tasks/display/Board_lcd.c ****   
 974:../tasks/display/Board_lcd.c ****   int16_t X = 0, Y = 0, X2 = 0, Y2 = 0, X_center = 0, Y_center = 0, X_first = 0, Y_first = 0, pixel
 2882              		.loc 1 974 0
 2883 1098 0023     		movs	r3, #0
 2884 109a 3B83     		strh	r3, [r7, #24]	@ movhi
 2885 109c 0023     		movs	r3, #0
 2886 109e FB82     		strh	r3, [r7, #22]	@ movhi
 2887 10a0 0023     		movs	r3, #0
 2888 10a2 FB84     		strh	r3, [r7, #38]	@ movhi
 2889 10a4 0023     		movs	r3, #0
 2890 10a6 BB84     		strh	r3, [r7, #36]	@ movhi
 2891 10a8 0023     		movs	r3, #0
 2892 10aa BB82     		strh	r3, [r7, #20]	@ movhi
 2893 10ac 0023     		movs	r3, #0
 2894 10ae 7B82     		strh	r3, [r7, #18]	@ movhi
 2895 10b0 0023     		movs	r3, #0
 2896 10b2 3B82     		strh	r3, [r7, #16]	@ movhi
 2897 10b4 0023     		movs	r3, #0
 2898 10b6 FB81     		strh	r3, [r7, #14]	@ movhi
 2899 10b8 0023     		movs	r3, #0
 2900 10ba BB81     		strh	r3, [r7, #12]	@ movhi
 2901 10bc 0023     		movs	r3, #0
 2902 10be 7B81     		strh	r3, [r7, #10]	@ movhi
 2903 10c0 0023     		movs	r3, #0
 2904 10c2 7B84     		strh	r3, [r7, #34]	@ movhi
 975:../tasks/display/Board_lcd.c ****   uint16_t  IMAGE_LEFT = 0, IMAGE_RIGHT = 0, IMAGE_TOP = 0, IMAGE_BOTTOM = 0;  
 2905              		.loc 1 975 0
 2906 10c4 0023     		movs	r3, #0
 2907 10c6 3B84     		strh	r3, [r7, #32]	@ movhi
 2908 10c8 0023     		movs	r3, #0
 2909 10ca FB83     		strh	r3, [r7, #30]	@ movhi
 2910 10cc 0023     		movs	r3, #0
 2911 10ce BB83     		strh	r3, [r7, #28]	@ movhi
 2912 10d0 0023     		movs	r3, #0
 2913 10d2 7B83     		strh	r3, [r7, #26]	@ movhi
 976:../tasks/display/Board_lcd.c ****   
 977:../tasks/display/Board_lcd.c ****   IMAGE_LEFT = IMAGE_RIGHT = Points->X;
 2914              		.loc 1 977 0
 2915 10d4 7B68     		ldr	r3, [r7, #4]
 2916 10d6 1B88     		ldrh	r3, [r3]
 2917 10d8 FB83     		strh	r3, [r7, #30]	@ movhi
 2918 10da FB8B     		ldrh	r3, [r7, #30]	@ movhi
 2919 10dc 3B84     		strh	r3, [r7, #32]	@ movhi
 978:../tasks/display/Board_lcd.c ****   IMAGE_TOP= IMAGE_BOTTOM = Points->Y;
 2920              		.loc 1 978 0
 2921 10de 7B68     		ldr	r3, [r7, #4]
 2922 10e0 5B88     		ldrh	r3, [r3, #2]
 2923 10e2 7B83     		strh	r3, [r7, #26]	@ movhi
 2924 10e4 7B8B     		ldrh	r3, [r7, #26]	@ movhi
 2925 10e6 BB83     		strh	r3, [r7, #28]	@ movhi
 979:../tasks/display/Board_lcd.c ****   
 980:../tasks/display/Board_lcd.c ****   for(counter = 1; counter < PointCount; counter++)
 2926              		.loc 1 980 0
 2927 10e8 0123     		movs	r3, #1
 2928 10ea 7B84     		strh	r3, [r7, #34]	@ movhi
 2929 10ec 2CE0     		b	.L116
 2930              	.L121:
 981:../tasks/display/Board_lcd.c ****   {
 982:../tasks/display/Board_lcd.c ****     pixelX = POLY_X(counter);
 2931              		.loc 1 982 0
 2932 10ee B7F92230 		ldrsh	r3, [r7, #34]
 2933 10f2 9B00     		lsls	r3, r3, #2
 2934 10f4 7A68     		ldr	r2, [r7, #4]
 2935 10f6 1344     		add	r3, r3, r2
 2936 10f8 1B88     		ldrh	r3, [r3]	@ movhi
 2937 10fa BB81     		strh	r3, [r7, #12]	@ movhi
 983:../tasks/display/Board_lcd.c ****     if(pixelX < IMAGE_LEFT)
 2938              		.loc 1 983 0
 2939 10fc B7F90C20 		ldrsh	r2, [r7, #12]
 2940 1100 3B8C     		ldrh	r3, [r7, #32]
 2941 1102 9A42     		cmp	r2, r3
 2942 1104 01DA     		bge	.L117
 984:../tasks/display/Board_lcd.c ****     {
 985:../tasks/display/Board_lcd.c ****       IMAGE_LEFT = pixelX;
 2943              		.loc 1 985 0
 2944 1106 BB89     		ldrh	r3, [r7, #12]	@ movhi
 2945 1108 3B84     		strh	r3, [r7, #32]	@ movhi
 2946              	.L117:
 986:../tasks/display/Board_lcd.c ****     }
 987:../tasks/display/Board_lcd.c ****     if(pixelX > IMAGE_RIGHT)
 2947              		.loc 1 987 0
 2948 110a B7F90C20 		ldrsh	r2, [r7, #12]
 2949 110e FB8B     		ldrh	r3, [r7, #30]
 2950 1110 9A42     		cmp	r2, r3
 2951 1112 01DD     		ble	.L118
 988:../tasks/display/Board_lcd.c ****     {
 989:../tasks/display/Board_lcd.c ****       IMAGE_RIGHT = pixelX;
 2952              		.loc 1 989 0
 2953 1114 BB89     		ldrh	r3, [r7, #12]	@ movhi
 2954 1116 FB83     		strh	r3, [r7, #30]	@ movhi
 2955              	.L118:
 990:../tasks/display/Board_lcd.c ****     }
 991:../tasks/display/Board_lcd.c ****     
 992:../tasks/display/Board_lcd.c ****     pixelY = POLY_Y(counter);
 2956              		.loc 1 992 0
 2957 1118 B7F92230 		ldrsh	r3, [r7, #34]
 2958 111c 9B00     		lsls	r3, r3, #2
 2959 111e 7A68     		ldr	r2, [r7, #4]
 2960 1120 1344     		add	r3, r3, r2
 2961 1122 5B88     		ldrh	r3, [r3, #2]	@ movhi
 2962 1124 7B81     		strh	r3, [r7, #10]	@ movhi
 993:../tasks/display/Board_lcd.c ****     if(pixelY < IMAGE_TOP)
 2963              		.loc 1 993 0
 2964 1126 B7F90A20 		ldrsh	r2, [r7, #10]
 2965 112a BB8B     		ldrh	r3, [r7, #28]
 2966 112c 9A42     		cmp	r2, r3
 2967 112e 01DA     		bge	.L119
 994:../tasks/display/Board_lcd.c ****     { 
 995:../tasks/display/Board_lcd.c ****       IMAGE_TOP = pixelY;
 2968              		.loc 1 995 0
 2969 1130 7B89     		ldrh	r3, [r7, #10]	@ movhi
 2970 1132 BB83     		strh	r3, [r7, #28]	@ movhi
 2971              	.L119:
 996:../tasks/display/Board_lcd.c ****     }
 997:../tasks/display/Board_lcd.c ****     if(pixelY > IMAGE_BOTTOM)
 2972              		.loc 1 997 0
 2973 1134 B7F90A20 		ldrsh	r2, [r7, #10]
 2974 1138 7B8B     		ldrh	r3, [r7, #26]
 2975 113a 9A42     		cmp	r2, r3
 2976 113c 01DD     		ble	.L120
 998:../tasks/display/Board_lcd.c ****     {
 999:../tasks/display/Board_lcd.c ****       IMAGE_BOTTOM = pixelY;
 2977              		.loc 1 999 0
 2978 113e 7B89     		ldrh	r3, [r7, #10]	@ movhi
 2979 1140 7B83     		strh	r3, [r7, #26]	@ movhi
 2980              	.L120:
 980:../tasks/display/Board_lcd.c ****   {
 2981              		.loc 1 980 0
 2982 1142 7B8C     		ldrh	r3, [r7, #34]
 2983 1144 0133     		adds	r3, r3, #1
 2984 1146 7B84     		strh	r3, [r7, #34]	@ movhi
 2985              	.L116:
 980:../tasks/display/Board_lcd.c ****   {
 2986              		.loc 1 980 0 is_stmt 0 discriminator 1
 2987 1148 B7F92220 		ldrsh	r2, [r7, #34]
 2988 114c 7B88     		ldrh	r3, [r7, #2]
 2989 114e 9A42     		cmp	r2, r3
 2990 1150 CDDB     		blt	.L121
1000:../tasks/display/Board_lcd.c ****     }
1001:../tasks/display/Board_lcd.c ****   }  
1002:../tasks/display/Board_lcd.c ****   
1003:../tasks/display/Board_lcd.c ****   if(PointCount < 2)
 2991              		.loc 1 1003 0 is_stmt 1
 2992 1152 7B88     		ldrh	r3, [r7, #2]
 2993 1154 012B     		cmp	r3, #1
 2994 1156 00D8     		bhi	.L122
1004:../tasks/display/Board_lcd.c ****   {
1005:../tasks/display/Board_lcd.c ****     return;
 2995              		.loc 1 1005 0
 2996 1158 65E0     		b	.L115
 2997              	.L122:
1006:../tasks/display/Board_lcd.c ****   }
1007:../tasks/display/Board_lcd.c ****   
1008:../tasks/display/Board_lcd.c ****   X_center = (IMAGE_LEFT + IMAGE_RIGHT)/2;
 2998              		.loc 1 1008 0
 2999 115a 3A8C     		ldrh	r2, [r7, #32]
 3000 115c FB8B     		ldrh	r3, [r7, #30]
 3001 115e 1344     		add	r3, r3, r2
 3002 1160 DA0F     		lsrs	r2, r3, #31
 3003 1162 1344     		add	r3, r3, r2
 3004 1164 5B10     		asrs	r3, r3, #1
 3005 1166 BB82     		strh	r3, [r7, #20]	@ movhi
1009:../tasks/display/Board_lcd.c ****   Y_center = (IMAGE_BOTTOM + IMAGE_TOP)/2;
 3006              		.loc 1 1009 0
 3007 1168 7A8B     		ldrh	r2, [r7, #26]
 3008 116a BB8B     		ldrh	r3, [r7, #28]
 3009 116c 1344     		add	r3, r3, r2
 3010 116e DA0F     		lsrs	r2, r3, #31
 3011 1170 1344     		add	r3, r3, r2
 3012 1172 5B10     		asrs	r3, r3, #1
 3013 1174 7B82     		strh	r3, [r7, #18]	@ movhi
1010:../tasks/display/Board_lcd.c ****   
1011:../tasks/display/Board_lcd.c ****   X_first = Points->X;
 3014              		.loc 1 1011 0
 3015 1176 7B68     		ldr	r3, [r7, #4]
 3016 1178 1B88     		ldrh	r3, [r3]	@ movhi
 3017 117a 3B82     		strh	r3, [r7, #16]	@ movhi
1012:../tasks/display/Board_lcd.c ****   Y_first = Points->Y;
 3018              		.loc 1 1012 0
 3019 117c 7B68     		ldr	r3, [r7, #4]
 3020 117e 5B88     		ldrh	r3, [r3, #2]	@ movhi
 3021 1180 FB81     		strh	r3, [r7, #14]	@ movhi
1013:../tasks/display/Board_lcd.c ****   
1014:../tasks/display/Board_lcd.c ****   while(--PointCount)
 3022              		.loc 1 1014 0
 3023 1182 2CE0     		b	.L124
 3024              	.L125:
1015:../tasks/display/Board_lcd.c ****   {
1016:../tasks/display/Board_lcd.c ****     X = Points->X;
 3025              		.loc 1 1016 0
 3026 1184 7B68     		ldr	r3, [r7, #4]
 3027 1186 1B88     		ldrh	r3, [r3]	@ movhi
 3028 1188 3B83     		strh	r3, [r7, #24]	@ movhi
1017:../tasks/display/Board_lcd.c ****     Y = Points->Y;
 3029              		.loc 1 1017 0
 3030 118a 7B68     		ldr	r3, [r7, #4]
 3031 118c 5B88     		ldrh	r3, [r3, #2]	@ movhi
 3032 118e FB82     		strh	r3, [r7, #22]	@ movhi
1018:../tasks/display/Board_lcd.c ****     Points++;
 3033              		.loc 1 1018 0
 3034 1190 7B68     		ldr	r3, [r7, #4]
 3035 1192 0433     		adds	r3, r3, #4
 3036 1194 7B60     		str	r3, [r7, #4]
1019:../tasks/display/Board_lcd.c ****     X2 = Points->X;
 3037              		.loc 1 1019 0
 3038 1196 7B68     		ldr	r3, [r7, #4]
 3039 1198 1B88     		ldrh	r3, [r3]	@ movhi
 3040 119a FB84     		strh	r3, [r7, #38]	@ movhi
1020:../tasks/display/Board_lcd.c ****     Y2 = Points->Y;    
 3041              		.loc 1 1020 0
 3042 119c 7B68     		ldr	r3, [r7, #4]
 3043 119e 5B88     		ldrh	r3, [r3, #2]	@ movhi
 3044 11a0 BB84     		strh	r3, [r7, #36]	@ movhi
1021:../tasks/display/Board_lcd.c ****     
1022:../tasks/display/Board_lcd.c ****     FillTriangle(X, X2, X_center, Y, Y2, Y_center);
 3045              		.loc 1 1022 0
 3046 11a2 388B     		ldrh	r0, [r7, #24]
 3047 11a4 F98C     		ldrh	r1, [r7, #38]
 3048 11a6 BA8A     		ldrh	r2, [r7, #20]
 3049 11a8 FB8A     		ldrh	r3, [r7, #22]
 3050 11aa BD8C     		ldrh	r5, [r7, #36]
 3051 11ac 7C8A     		ldrh	r4, [r7, #18]
 3052 11ae 0095     		str	r5, [sp]
 3053 11b0 0194     		str	r4, [sp, #4]
 3054 11b2 00F0C9F9 		bl	FillTriangle
1023:../tasks/display/Board_lcd.c ****     FillTriangle(X, X_center, X2, Y, Y_center, Y2);
 3055              		.loc 1 1023 0
 3056 11b6 388B     		ldrh	r0, [r7, #24]
 3057 11b8 B98A     		ldrh	r1, [r7, #20]
 3058 11ba FA8C     		ldrh	r2, [r7, #38]
 3059 11bc FB8A     		ldrh	r3, [r7, #22]
 3060 11be 7D8A     		ldrh	r5, [r7, #18]
 3061 11c0 BC8C     		ldrh	r4, [r7, #36]
 3062 11c2 0095     		str	r5, [sp]
 3063 11c4 0194     		str	r4, [sp, #4]
 3064 11c6 00F0BFF9 		bl	FillTriangle
1024:../tasks/display/Board_lcd.c ****     FillTriangle(X_center, X2, X, Y_center, Y2, Y);   
 3065              		.loc 1 1024 0
 3066 11ca B88A     		ldrh	r0, [r7, #20]
 3067 11cc F98C     		ldrh	r1, [r7, #38]
 3068 11ce 3A8B     		ldrh	r2, [r7, #24]
 3069 11d0 7B8A     		ldrh	r3, [r7, #18]
 3070 11d2 BD8C     		ldrh	r5, [r7, #36]
 3071 11d4 FC8A     		ldrh	r4, [r7, #22]
 3072 11d6 0095     		str	r5, [sp]
 3073 11d8 0194     		str	r4, [sp, #4]
 3074 11da 00F0B5F9 		bl	FillTriangle
 3075              	.L124:
1014:../tasks/display/Board_lcd.c ****   {
 3076              		.loc 1 1014 0 discriminator 1
 3077 11de 7B88     		ldrh	r3, [r7, #2]	@ movhi
 3078 11e0 013B     		subs	r3, r3, #1
 3079 11e2 7B80     		strh	r3, [r7, #2]	@ movhi
 3080 11e4 7B88     		ldrh	r3, [r7, #2]
 3081 11e6 002B     		cmp	r3, #0
 3082 11e8 CCD1     		bne	.L125
1025:../tasks/display/Board_lcd.c ****   }
1026:../tasks/display/Board_lcd.c ****   
1027:../tasks/display/Board_lcd.c ****   FillTriangle(X_first, X2, X_center, Y_first, Y2, Y_center);
 3083              		.loc 1 1027 0
 3084 11ea 388A     		ldrh	r0, [r7, #16]
 3085 11ec F98C     		ldrh	r1, [r7, #38]
 3086 11ee BA8A     		ldrh	r2, [r7, #20]
 3087 11f0 FB89     		ldrh	r3, [r7, #14]
 3088 11f2 BD8C     		ldrh	r5, [r7, #36]
 3089 11f4 7C8A     		ldrh	r4, [r7, #18]
 3090 11f6 0095     		str	r5, [sp]
 3091 11f8 0194     		str	r4, [sp, #4]
 3092 11fa 00F0A5F9 		bl	FillTriangle
1028:../tasks/display/Board_lcd.c ****   FillTriangle(X_first, X_center, X2, Y_first, Y_center, Y2);
 3093              		.loc 1 1028 0
 3094 11fe 388A     		ldrh	r0, [r7, #16]
 3095 1200 B98A     		ldrh	r1, [r7, #20]
 3096 1202 FA8C     		ldrh	r2, [r7, #38]
 3097 1204 FB89     		ldrh	r3, [r7, #14]
 3098 1206 7D8A     		ldrh	r5, [r7, #18]
 3099 1208 BC8C     		ldrh	r4, [r7, #36]
 3100 120a 0095     		str	r5, [sp]
 3101 120c 0194     		str	r4, [sp, #4]
 3102 120e 00F09BF9 		bl	FillTriangle
1029:../tasks/display/Board_lcd.c ****   FillTriangle(X_center, X2, X_first, Y_center, Y2, Y_first);   
 3103              		.loc 1 1029 0
 3104 1212 B88A     		ldrh	r0, [r7, #20]
 3105 1214 F98C     		ldrh	r1, [r7, #38]
 3106 1216 3A8A     		ldrh	r2, [r7, #16]
 3107 1218 7B8A     		ldrh	r3, [r7, #18]
 3108 121a BD8C     		ldrh	r5, [r7, #36]
 3109 121c FC89     		ldrh	r4, [r7, #14]
 3110 121e 0095     		str	r5, [sp]
 3111 1220 0194     		str	r4, [sp, #4]
 3112 1222 00F091F9 		bl	FillTriangle
 3113              	.L115:
1030:../tasks/display/Board_lcd.c **** }
 3114              		.loc 1 1030 0
 3115 1226 2837     		adds	r7, r7, #40
 3116 1228 BD46     		mov	sp, r7
 3117              		@ sp needed
 3118 122a B0BD     		pop	{r4, r5, r7, pc}
 3119              		.cfi_endproc
 3120              	.LFE87:
 3122              		.align	2
 3123              		.global	BSP_LCD_FillEllipse
 3124              		.thumb
 3125              		.thumb_func
 3127              	BSP_LCD_FillEllipse:
 3128              	.LFB88:
1031:../tasks/display/Board_lcd.c **** 
1032:../tasks/display/Board_lcd.c **** /**
1033:../tasks/display/Board_lcd.c ****   * @brief  Draws a full ellipse.
1034:../tasks/display/Board_lcd.c ****   * @param  Xpos: X position
1035:../tasks/display/Board_lcd.c ****   * @param  Ypos: Y position
1036:../tasks/display/Board_lcd.c ****   * @param  XRadius: Ellipse X radius
1037:../tasks/display/Board_lcd.c ****   * @param  YRadius: Ellipse Y radius  
1038:../tasks/display/Board_lcd.c ****   * @retval None
1039:../tasks/display/Board_lcd.c ****   */
1040:../tasks/display/Board_lcd.c **** void BSP_LCD_FillEllipse(int Xpos, int Ypos, int XRadius, int YRadius)
1041:../tasks/display/Board_lcd.c **** {
 3129              		.loc 1 1041 0
 3130              		.cfi_startproc
 3131              		@ args = 0, pretend = 0, frame = 48
 3132              		@ frame_needed = 1, uses_anonymous_args = 0
 3133 122c B0B5     		push	{r4, r5, r7, lr}
 3134              		.cfi_def_cfa_offset 16
 3135              		.cfi_offset 4, -16
 3136              		.cfi_offset 5, -12
 3137              		.cfi_offset 7, -8
 3138              		.cfi_offset 14, -4
 3139 122e 8CB0     		sub	sp, sp, #48
 3140              		.cfi_def_cfa_offset 64
 3141 1230 00AF     		add	r7, sp, #0
 3142              		.cfi_def_cfa_register 7
 3143 1232 F860     		str	r0, [r7, #12]
 3144 1234 B960     		str	r1, [r7, #8]
 3145 1236 7A60     		str	r2, [r7, #4]
 3146 1238 3B60     		str	r3, [r7]
1042:../tasks/display/Board_lcd.c ****   int x = 0, y = -YRadius, err = 2-2*XRadius, e2;
 3147              		.loc 1 1042 0
 3148 123a 0023     		movs	r3, #0
 3149 123c FB62     		str	r3, [r7, #44]
 3150 123e 3B68     		ldr	r3, [r7]
 3151 1240 5B42     		negs	r3, r3
 3152 1242 BB62     		str	r3, [r7, #40]
 3153 1244 7A68     		ldr	r2, [r7, #4]
 3154 1246 1346     		mov	r3, r2
 3155 1248 DB07     		lsls	r3, r3, #31
 3156 124a 9B1A     		subs	r3, r3, r2
 3157 124c 5B00     		lsls	r3, r3, #1
 3158 124e 0233     		adds	r3, r3, #2
 3159 1250 7B62     		str	r3, [r7, #36]
1043:../tasks/display/Board_lcd.c ****   float K = 0, rad1 = 0, rad2 = 0;
 3160              		.loc 1 1043 0
 3161 1252 4FF00003 		mov	r3, #0
 3162 1256 FB61     		str	r3, [r7, #28]	@ float
 3163 1258 4FF00003 		mov	r3, #0
 3164 125c BB61     		str	r3, [r7, #24]	@ float
 3165 125e 4FF00003 		mov	r3, #0
 3166 1262 7B61     		str	r3, [r7, #20]	@ float
1044:../tasks/display/Board_lcd.c ****   
1045:../tasks/display/Board_lcd.c ****   rad1 = XRadius;
 3167              		.loc 1 1045 0
 3168 1264 7868     		ldr	r0, [r7, #4]
 3169 1266 FFF7FEFF 		bl	__aeabi_i2f
 3170 126a 0346     		mov	r3, r0
 3171 126c BB61     		str	r3, [r7, #24]	@ float
1046:../tasks/display/Board_lcd.c ****   rad2 = YRadius;
 3172              		.loc 1 1046 0
 3173 126e 3868     		ldr	r0, [r7]
 3174 1270 FFF7FEFF 		bl	__aeabi_i2f
 3175 1274 0346     		mov	r3, r0
 3176 1276 7B61     		str	r3, [r7, #20]	@ float
1047:../tasks/display/Board_lcd.c ****   
1048:../tasks/display/Board_lcd.c ****   K = (float)(rad2/rad1);    
 3177              		.loc 1 1048 0
 3178 1278 7869     		ldr	r0, [r7, #20]	@ float
 3179 127a B969     		ldr	r1, [r7, #24]	@ float
 3180 127c FFF7FEFF 		bl	__aeabi_fdiv
 3181 1280 0346     		mov	r3, r0
 3182 1282 FB61     		str	r3, [r7, #28]	@ float
 3183              	.L129:
1049:../tasks/display/Board_lcd.c ****   
1050:../tasks/display/Board_lcd.c ****   do 
1051:../tasks/display/Board_lcd.c ****   { 
1052:../tasks/display/Board_lcd.c ****     BSP_LCD_DrawHLine((Xpos-(uint16_t)(x/K)), (Ypos+y), (2*(uint16_t)(x/K) + 1));
 3184              		.loc 1 1052 0
 3185 1284 FB68     		ldr	r3, [r7, #12]
 3186 1286 9CB2     		uxth	r4, r3
 3187 1288 F86A     		ldr	r0, [r7, #44]
 3188 128a FFF7FEFF 		bl	__aeabi_i2f
 3189 128e 0346     		mov	r3, r0
 3190 1290 1846     		mov	r0, r3
 3191 1292 F969     		ldr	r1, [r7, #28]	@ float
 3192 1294 FFF7FEFF 		bl	__aeabi_fdiv
 3193 1298 0346     		mov	r3, r0
 3194 129a 1846     		mov	r0, r3
 3195 129c FFF7FEFF 		bl	__aeabi_f2uiz
 3196 12a0 0346     		mov	r3, r0
 3197 12a2 9BB2     		uxth	r3, r3
 3198 12a4 E31A     		subs	r3, r4, r3
 3199 12a6 9DB2     		uxth	r5, r3
 3200 12a8 BB68     		ldr	r3, [r7, #8]
 3201 12aa 9AB2     		uxth	r2, r3
 3202 12ac BB6A     		ldr	r3, [r7, #40]
 3203 12ae 9BB2     		uxth	r3, r3
 3204 12b0 1344     		add	r3, r3, r2
 3205 12b2 9CB2     		uxth	r4, r3
 3206 12b4 F86A     		ldr	r0, [r7, #44]
 3207 12b6 FFF7FEFF 		bl	__aeabi_i2f
 3208 12ba 0346     		mov	r3, r0
 3209 12bc 1846     		mov	r0, r3
 3210 12be F969     		ldr	r1, [r7, #28]	@ float
 3211 12c0 FFF7FEFF 		bl	__aeabi_fdiv
 3212 12c4 0346     		mov	r3, r0
 3213 12c6 1846     		mov	r0, r3
 3214 12c8 FFF7FEFF 		bl	__aeabi_f2uiz
 3215 12cc 0346     		mov	r3, r0
 3216 12ce 9BB2     		uxth	r3, r3
 3217 12d0 5B00     		lsls	r3, r3, #1
 3218 12d2 9BB2     		uxth	r3, r3
 3219 12d4 0133     		adds	r3, r3, #1
 3220 12d6 9BB2     		uxth	r3, r3
 3221 12d8 2846     		mov	r0, r5
 3222 12da 2146     		mov	r1, r4
 3223 12dc 1A46     		mov	r2, r3
 3224 12de FFF7FEFF 		bl	BSP_LCD_DrawHLine
1053:../tasks/display/Board_lcd.c ****     BSP_LCD_DrawHLine((Xpos-(uint16_t)(x/K)), (Ypos-y), (2*(uint16_t)(x/K) + 1));
 3225              		.loc 1 1053 0
 3226 12e2 FB68     		ldr	r3, [r7, #12]
 3227 12e4 9CB2     		uxth	r4, r3
 3228 12e6 F86A     		ldr	r0, [r7, #44]
 3229 12e8 FFF7FEFF 		bl	__aeabi_i2f
 3230 12ec 0346     		mov	r3, r0
 3231 12ee 1846     		mov	r0, r3
 3232 12f0 F969     		ldr	r1, [r7, #28]	@ float
 3233 12f2 FFF7FEFF 		bl	__aeabi_fdiv
 3234 12f6 0346     		mov	r3, r0
 3235 12f8 1846     		mov	r0, r3
 3236 12fa FFF7FEFF 		bl	__aeabi_f2uiz
 3237 12fe 0346     		mov	r3, r0
 3238 1300 9BB2     		uxth	r3, r3
 3239 1302 E31A     		subs	r3, r4, r3
 3240 1304 9DB2     		uxth	r5, r3
 3241 1306 BB68     		ldr	r3, [r7, #8]
 3242 1308 9AB2     		uxth	r2, r3
 3243 130a BB6A     		ldr	r3, [r7, #40]
 3244 130c 9BB2     		uxth	r3, r3
 3245 130e D31A     		subs	r3, r2, r3
 3246 1310 9CB2     		uxth	r4, r3
 3247 1312 F86A     		ldr	r0, [r7, #44]
 3248 1314 FFF7FEFF 		bl	__aeabi_i2f
 3249 1318 0346     		mov	r3, r0
 3250 131a 1846     		mov	r0, r3
 3251 131c F969     		ldr	r1, [r7, #28]	@ float
 3252 131e FFF7FEFF 		bl	__aeabi_fdiv
 3253 1322 0346     		mov	r3, r0
 3254 1324 1846     		mov	r0, r3
 3255 1326 FFF7FEFF 		bl	__aeabi_f2uiz
 3256 132a 0346     		mov	r3, r0
 3257 132c 9BB2     		uxth	r3, r3
 3258 132e 5B00     		lsls	r3, r3, #1
 3259 1330 9BB2     		uxth	r3, r3
 3260 1332 0133     		adds	r3, r3, #1
 3261 1334 9BB2     		uxth	r3, r3
 3262 1336 2846     		mov	r0, r5
 3263 1338 2146     		mov	r1, r4
 3264 133a 1A46     		mov	r2, r3
 3265 133c FFF7FEFF 		bl	BSP_LCD_DrawHLine
1054:../tasks/display/Board_lcd.c ****     
1055:../tasks/display/Board_lcd.c ****     e2 = err;
 3266              		.loc 1 1055 0
 3267 1340 7B6A     		ldr	r3, [r7, #36]
 3268 1342 3B62     		str	r3, [r7, #32]
1056:../tasks/display/Board_lcd.c ****     if (e2 <= x) 
 3269              		.loc 1 1056 0
 3270 1344 3A6A     		ldr	r2, [r7, #32]
 3271 1346 FB6A     		ldr	r3, [r7, #44]
 3272 1348 9A42     		cmp	r2, r3
 3273 134a 13DC     		bgt	.L127
1057:../tasks/display/Board_lcd.c ****     {
1058:../tasks/display/Board_lcd.c ****       err += ++x*2+1;
 3274              		.loc 1 1058 0
 3275 134c FB6A     		ldr	r3, [r7, #44]
 3276 134e 0133     		adds	r3, r3, #1
 3277 1350 FB62     		str	r3, [r7, #44]
 3278 1352 FB6A     		ldr	r3, [r7, #44]
 3279 1354 5B00     		lsls	r3, r3, #1
 3280 1356 0133     		adds	r3, r3, #1
 3281 1358 7A6A     		ldr	r2, [r7, #36]
 3282 135a 1344     		add	r3, r3, r2
 3283 135c 7B62     		str	r3, [r7, #36]
1059:../tasks/display/Board_lcd.c ****       if (-y == x && e2 <= y) e2 = 0;
 3284              		.loc 1 1059 0
 3285 135e BB6A     		ldr	r3, [r7, #40]
 3286 1360 5A42     		negs	r2, r3
 3287 1362 FB6A     		ldr	r3, [r7, #44]
 3288 1364 9A42     		cmp	r2, r3
 3289 1366 05D1     		bne	.L127
 3290              		.loc 1 1059 0 is_stmt 0 discriminator 1
 3291 1368 3A6A     		ldr	r2, [r7, #32]
 3292 136a BB6A     		ldr	r3, [r7, #40]
 3293 136c 9A42     		cmp	r2, r3
 3294 136e 01DC     		bgt	.L127
 3295 1370 0023     		movs	r3, #0
 3296 1372 3B62     		str	r3, [r7, #32]
 3297              	.L127:
1060:../tasks/display/Board_lcd.c ****     }
1061:../tasks/display/Board_lcd.c ****     if (e2 > y) err += ++y*2+1;
 3298              		.loc 1 1061 0 is_stmt 1
 3299 1374 3A6A     		ldr	r2, [r7, #32]
 3300 1376 BB6A     		ldr	r3, [r7, #40]
 3301 1378 9A42     		cmp	r2, r3
 3302 137a 08DD     		ble	.L128
 3303              		.loc 1 1061 0 is_stmt 0 discriminator 1
 3304 137c BB6A     		ldr	r3, [r7, #40]
 3305 137e 0133     		adds	r3, r3, #1
 3306 1380 BB62     		str	r3, [r7, #40]
 3307 1382 BB6A     		ldr	r3, [r7, #40]
 3308 1384 5B00     		lsls	r3, r3, #1
 3309 1386 0133     		adds	r3, r3, #1
 3310 1388 7A6A     		ldr	r2, [r7, #36]
 3311 138a 1344     		add	r3, r3, r2
 3312 138c 7B62     		str	r3, [r7, #36]
 3313              	.L128:
1062:../tasks/display/Board_lcd.c ****   }
1063:../tasks/display/Board_lcd.c ****   while (y <= 0);
 3314              		.loc 1 1063 0 is_stmt 1
 3315 138e BB6A     		ldr	r3, [r7, #40]
 3316 1390 002B     		cmp	r3, #0
 3317 1392 7FF777AF 		ble	.L129
1064:../tasks/display/Board_lcd.c **** }
 3318              		.loc 1 1064 0
 3319 1396 3037     		adds	r7, r7, #48
 3320 1398 BD46     		mov	sp, r7
 3321              		@ sp needed
 3322 139a B0BD     		pop	{r4, r5, r7, pc}
 3323              		.cfi_endproc
 3324              	.LFE88:
 3326              		.align	2
 3327              		.global	BSP_LCD_DisplayOn
 3328              		.thumb
 3329              		.thumb_func
 3331              	BSP_LCD_DisplayOn:
 3332              	.LFB89:
1065:../tasks/display/Board_lcd.c **** 
1066:../tasks/display/Board_lcd.c **** /**
1067:../tasks/display/Board_lcd.c ****   * @brief  Enables the display.
1068:../tasks/display/Board_lcd.c ****   * @param  None
1069:../tasks/display/Board_lcd.c ****   * @retval None
1070:../tasks/display/Board_lcd.c ****   */
1071:../tasks/display/Board_lcd.c **** void BSP_LCD_DisplayOn(void)
1072:../tasks/display/Board_lcd.c **** {
 3333              		.loc 1 1072 0
 3334              		.cfi_startproc
 3335              		@ args = 0, pretend = 0, frame = 0
 3336              		@ frame_needed = 1, uses_anonymous_args = 0
 3337 139c 80B5     		push	{r7, lr}
 3338              		.cfi_def_cfa_offset 8
 3339              		.cfi_offset 7, -8
 3340              		.cfi_offset 14, -4
 3341 139e 00AF     		add	r7, sp, #0
 3342              		.cfi_def_cfa_register 7
1073:../tasks/display/Board_lcd.c ****   lcd_drv->DisplayOn();
 3343              		.loc 1 1073 0
 3344 13a0 40F20003 		movw	r3, #:lower16:lcd_drv
 3345 13a4 C0F20003 		movt	r3, #:upper16:lcd_drv
 3346 13a8 1B68     		ldr	r3, [r3]
 3347 13aa 9B68     		ldr	r3, [r3, #8]
 3348 13ac 9847     		blx	r3
1074:../tasks/display/Board_lcd.c **** }
 3349              		.loc 1 1074 0
 3350 13ae 80BD     		pop	{r7, pc}
 3351              		.cfi_endproc
 3352              	.LFE89:
 3354              		.align	2
 3355              		.global	BSP_LCD_DisplayOff
 3356              		.thumb
 3357              		.thumb_func
 3359              	BSP_LCD_DisplayOff:
 3360              	.LFB90:
1075:../tasks/display/Board_lcd.c **** 
1076:../tasks/display/Board_lcd.c **** /**
1077:../tasks/display/Board_lcd.c ****   * @brief  Disables the display.
1078:../tasks/display/Board_lcd.c ****   * @param  None
1079:../tasks/display/Board_lcd.c ****   * @retval None
1080:../tasks/display/Board_lcd.c ****   */
1081:../tasks/display/Board_lcd.c **** void BSP_LCD_DisplayOff(void)
1082:../tasks/display/Board_lcd.c **** {
 3361              		.loc 1 1082 0
 3362              		.cfi_startproc
 3363              		@ args = 0, pretend = 0, frame = 0
 3364              		@ frame_needed = 1, uses_anonymous_args = 0
 3365 13b0 80B5     		push	{r7, lr}
 3366              		.cfi_def_cfa_offset 8
 3367              		.cfi_offset 7, -8
 3368              		.cfi_offset 14, -4
 3369 13b2 00AF     		add	r7, sp, #0
 3370              		.cfi_def_cfa_register 7
1083:../tasks/display/Board_lcd.c ****   lcd_drv->DisplayOff();
 3371              		.loc 1 1083 0
 3372 13b4 40F20003 		movw	r3, #:lower16:lcd_drv
 3373 13b8 C0F20003 		movt	r3, #:upper16:lcd_drv
 3374 13bc 1B68     		ldr	r3, [r3]
 3375 13be DB68     		ldr	r3, [r3, #12]
 3376 13c0 9847     		blx	r3
1084:../tasks/display/Board_lcd.c **** }
 3377              		.loc 1 1084 0
 3378 13c2 80BD     		pop	{r7, pc}
 3379              		.cfi_endproc
 3380              	.LFE90:
 3382              		.section	.rodata
 3383 0087 00       		.align	2
 3384              	.LC7:
 3385 0088 0A53796D 		.ascii	"\012Symb: \000"
 3385      623A2000 
 3386              		.align	2
 3387              	.LC8:
 3388 0090 25642000 		.ascii	"%d \000"
 3389              		.text
 3390              		.align	2
 3391              		.thumb
 3392              		.thumb_func
 3394              	DrawChar:
 3395              	.LFB91:
1085:../tasks/display/Board_lcd.c **** 
1086:../tasks/display/Board_lcd.c **** /******************************************************************************
1087:../tasks/display/Board_lcd.c ****                             Static Function
1088:../tasks/display/Board_lcd.c **** *******************************************************************************/
1089:../tasks/display/Board_lcd.c **** 
1090:../tasks/display/Board_lcd.c **** /**
1091:../tasks/display/Board_lcd.c ****   * @brief  Draws a character on LCD.
1092:../tasks/display/Board_lcd.c ****   * @param  Xpos: Line where to display the character shape
1093:../tasks/display/Board_lcd.c ****   * @param  Ypos: Start column address
1094:../tasks/display/Board_lcd.c ****   * @param  c: Pointer to the character data
1095:../tasks/display/Board_lcd.c ****   * @retval None
1096:../tasks/display/Board_lcd.c ****   */
1097:../tasks/display/Board_lcd.c **** static void DrawChar(uint16_t Xpos, uint16_t Ypos, uint64_t c)
1098:../tasks/display/Board_lcd.c **** {
 3396              		.loc 1 1098 0
 3397              		.cfi_startproc
 3398              		@ args = 0, pretend = 0, frame = 48
 3399              		@ frame_needed = 1, uses_anonymous_args = 0
 3400 13c4 80B5     		push	{r7, lr}
 3401              		.cfi_def_cfa_offset 8
 3402              		.cfi_offset 7, -8
 3403              		.cfi_offset 14, -4
 3404 13c6 8CB0     		sub	sp, sp, #48
 3405              		.cfi_def_cfa_offset 56
 3406 13c8 00AF     		add	r7, sp, #0
 3407              		.cfi_def_cfa_register 7
 3408 13ca C7E90023 		strd	r2, [r7]
 3409 13ce 0346     		mov	r3, r0	@ movhi
 3410 13d0 FB81     		strh	r3, [r7, #14]	@ movhi
 3411 13d2 0B46     		mov	r3, r1	@ movhi
 3412 13d4 BB81     		strh	r3, [r7, #12]	@ movhi
1099:../tasks/display/Board_lcd.c ****   uint32_t i = 0, j = 0, k = 0;
 3413              		.loc 1 1099 0
 3414 13d6 0023     		movs	r3, #0
 3415 13d8 FB62     		str	r3, [r7, #44]
 3416 13da 0023     		movs	r3, #0
 3417 13dc BB62     		str	r3, [r7, #40]
 3418 13de 0023     		movs	r3, #0
 3419 13e0 7B62     		str	r3, [r7, #36]
1100:../tasks/display/Board_lcd.c ****   uint16_t height, width,widthpixel;
1101:../tasks/display/Board_lcd.c ****   uint8_t offset;
1102:../tasks/display/Board_lcd.c ****   uint8_t *pchar;
1103:../tasks/display/Board_lcd.c ****   uint8_t line;
1104:../tasks/display/Board_lcd.c ****   
1105:../tasks/display/Board_lcd.c ****   height = DrawProp.pFont->Height();			// читаем размер символа
 3420              		.loc 1 1105 0
 3421 13e2 40F20003 		movw	r3, #:lower16:DrawProp
 3422 13e6 C0F20003 		movt	r3, #:upper16:DrawProp
 3423 13ea DB68     		ldr	r3, [r3, #12]
 3424 13ec 9B68     		ldr	r3, [r3, #8]
 3425 13ee 9847     		blx	r3
 3426 13f0 0346     		mov	r3, r0
 3427 13f2 7B84     		strh	r3, [r7, #34]	@ movhi
1106:../tasks/display/Board_lcd.c ****   width  = DrawProp.pFont->Width();				// читаем размер символа
 3428              		.loc 1 1106 0
 3429 13f4 40F20003 		movw	r3, #:lower16:DrawProp
 3430 13f8 C0F20003 		movt	r3, #:upper16:DrawProp
 3431 13fc DB68     		ldr	r3, [r3, #12]
 3432 13fe 5B68     		ldr	r3, [r3, #4]
 3433 1400 9847     		blx	r3
 3434 1402 0346     		mov	r3, r0
 3435 1404 3B84     		strh	r3, [r7, #32]	@ movhi
1107:../tasks/display/Board_lcd.c **** 
1108:../tasks/display/Board_lcd.c ****   widthpixel = width*8;
 3436              		.loc 1 1108 0
 3437 1406 3B8C     		ldrh	r3, [r7, #32]	@ movhi
 3438 1408 DB00     		lsls	r3, r3, #3
 3439 140a FB83     		strh	r3, [r7, #30]	@ movhi
1109:../tasks/display/Board_lcd.c **** 
1110:../tasks/display/Board_lcd.c **** 	printf("\nSymb: \n");
 3440              		.loc 1 1110 0
 3441 140c 40F20000 		movw	r0, #:lower16:.LC7
 3442 1410 C0F20000 		movt	r0, #:upper16:.LC7
 3443 1414 FFF7FEFF 		bl	puts
1111:../tasks/display/Board_lcd.c **** 
1112:../tasks/display/Board_lcd.c ****   for(i = 0; i < height; i++)
 3444              		.loc 1 1112 0
 3445 1418 0023     		movs	r3, #0
 3446 141a FB62     		str	r3, [r7, #44]
 3447 141c 6EE0     		b	.L133
 3448              	.L140:
1113:../tasks/display/Board_lcd.c ****   {
1114:../tasks/display/Board_lcd.c ****   	pchar = (uint8_t *)c + width*i;
 3449              		.loc 1 1114 0
 3450 141e 3B8C     		ldrh	r3, [r7, #32]
 3451 1420 FA6A     		ldr	r2, [r7, #44]
 3452 1422 02FB03F2 		mul	r2, r2, r3
 3453 1426 3B68     		ldr	r3, [r7]
 3454 1428 1344     		add	r3, r3, r2
 3455 142a BB61     		str	r3, [r7, #24]
1115:../tasks/display/Board_lcd.c **** 	    for (j = 0; j < width; j++)
 3456              		.loc 1 1115 0
 3457 142c 0023     		movs	r3, #0
 3458 142e BB62     		str	r3, [r7, #40]
 3459 1430 57E0     		b	.L134
 3460              	.L139:
1116:../tasks/display/Board_lcd.c **** 	    {
1117:../tasks/display/Board_lcd.c **** 	    	line =  pchar[j];
 3461              		.loc 1 1117 0
 3462 1432 BA69     		ldr	r2, [r7, #24]
 3463 1434 BB6A     		ldr	r3, [r7, #40]
 3464 1436 1344     		add	r3, r3, r2
 3465 1438 1B78     		ldrb	r3, [r3]
 3466 143a FB75     		strb	r3, [r7, #23]
1118:../tasks/display/Board_lcd.c **** 
1119:../tasks/display/Board_lcd.c **** 	  	    printf("%d ",line);
 3467              		.loc 1 1119 0
 3468 143c FB7D     		ldrb	r3, [r7, #23]	@ zero_extendqisi2
 3469 143e 40F20000 		movw	r0, #:lower16:.LC8
 3470 1442 C0F20000 		movt	r0, #:upper16:.LC8
 3471 1446 1946     		mov	r1, r3
 3472 1448 FFF7FEFF 		bl	printf
1120:../tasks/display/Board_lcd.c **** 
1121:../tasks/display/Board_lcd.c **** //	    	widthpixel -= 8;
1122:../tasks/display/Board_lcd.c **** 		    for (k = 0; k < 8; k++)			// сканим побитно каждый байт			x = x + k + j*8
 3473              		.loc 1 1122 0
 3474 144c 0023     		movs	r3, #0
 3475 144e 7B62     		str	r3, [r7, #36]
 3476 1450 41E0     		b	.L135
 3477              	.L138:
1123:../tasks/display/Board_lcd.c **** 		    {
1124:../tasks/display/Board_lcd.c **** 	    	 if(line & (1 << (7-k)))
 3478              		.loc 1 1124 0
 3479 1452 FA7D     		ldrb	r2, [r7, #23]	@ zero_extendqisi2
 3480 1454 7B6A     		ldr	r3, [r7, #36]
 3481 1456 C3F10703 		rsb	r3, r3, #7
 3482 145a 42FA03F3 		asr	r3, r2, r3
 3483 145e 03F00103 		and	r3, r3, #1
 3484 1462 002B     		cmp	r3, #0
 3485 1464 1AD0     		beq	.L136
1125:../tasks/display/Board_lcd.c **** 	    	      {
1126:../tasks/display/Board_lcd.c **** 	    	        BSP_LCD_DrawPixel((Xpos + k + j*8), Ypos+height, DrawProp.TextColor);
 3486              		.loc 1 1126 0
 3487 1466 7B6A     		ldr	r3, [r7, #36]
 3488 1468 9AB2     		uxth	r2, r3
 3489 146a FB89     		ldrh	r3, [r7, #14]	@ movhi
 3490 146c 1344     		add	r3, r3, r2
 3491 146e 9AB2     		uxth	r2, r3
 3492 1470 BB6A     		ldr	r3, [r7, #40]
 3493 1472 9BB2     		uxth	r3, r3
 3494 1474 DB00     		lsls	r3, r3, #3
 3495 1476 9BB2     		uxth	r3, r3
 3496 1478 1344     		add	r3, r3, r2
 3497 147a 99B2     		uxth	r1, r3
 3498 147c BA89     		ldrh	r2, [r7, #12]	@ movhi
 3499 147e 7B8C     		ldrh	r3, [r7, #34]	@ movhi
 3500 1480 1344     		add	r3, r3, r2
 3501 1482 9AB2     		uxth	r2, r3
 3502 1484 40F20003 		movw	r3, #:lower16:DrawProp
 3503 1488 C0F20003 		movt	r3, #:upper16:DrawProp
 3504 148c 5B68     		ldr	r3, [r3, #4]
 3505 148e 9BB2     		uxth	r3, r3
 3506 1490 0846     		mov	r0, r1
 3507 1492 1146     		mov	r1, r2
 3508 1494 1A46     		mov	r2, r3
 3509 1496 FFF7FEFF 		bl	BSP_LCD_DrawPixel
 3510 149a 19E0     		b	.L137
 3511              	.L136:
1127:../tasks/display/Board_lcd.c **** 	    	      }
1128:../tasks/display/Board_lcd.c **** 	    	      else
1129:../tasks/display/Board_lcd.c **** 	    	      {
1130:../tasks/display/Board_lcd.c **** 	    	        BSP_LCD_DrawPixel((Xpos + k + j*8), Ypos+height, DrawProp.BackColor);
 3512              		.loc 1 1130 0
 3513 149c 7B6A     		ldr	r3, [r7, #36]
 3514 149e 9AB2     		uxth	r2, r3
 3515 14a0 FB89     		ldrh	r3, [r7, #14]	@ movhi
 3516 14a2 1344     		add	r3, r3, r2
 3517 14a4 9AB2     		uxth	r2, r3
 3518 14a6 BB6A     		ldr	r3, [r7, #40]
 3519 14a8 9BB2     		uxth	r3, r3
 3520 14aa DB00     		lsls	r3, r3, #3
 3521 14ac 9BB2     		uxth	r3, r3
 3522 14ae 1344     		add	r3, r3, r2
 3523 14b0 99B2     		uxth	r1, r3
 3524 14b2 BA89     		ldrh	r2, [r7, #12]	@ movhi
 3525 14b4 7B8C     		ldrh	r3, [r7, #34]	@ movhi
 3526 14b6 1344     		add	r3, r3, r2
 3527 14b8 9AB2     		uxth	r2, r3
 3528 14ba 40F20003 		movw	r3, #:lower16:DrawProp
 3529 14be C0F20003 		movt	r3, #:upper16:DrawProp
 3530 14c2 9B68     		ldr	r3, [r3, #8]
 3531 14c4 9BB2     		uxth	r3, r3
 3532 14c6 0846     		mov	r0, r1
 3533 14c8 1146     		mov	r1, r2
 3534 14ca 1A46     		mov	r2, r3
 3535 14cc FFF7FEFF 		bl	BSP_LCD_DrawPixel
 3536              	.L137:
1122:../tasks/display/Board_lcd.c **** 		    {
 3537              		.loc 1 1122 0
 3538 14d0 7B6A     		ldr	r3, [r7, #36]
 3539 14d2 0133     		adds	r3, r3, #1
 3540 14d4 7B62     		str	r3, [r7, #36]
 3541              	.L135:
1122:../tasks/display/Board_lcd.c **** 		    {
 3542              		.loc 1 1122 0 is_stmt 0 discriminator 1
 3543 14d6 7B6A     		ldr	r3, [r7, #36]
 3544 14d8 072B     		cmp	r3, #7
 3545 14da BAD9     		bls	.L138
1115:../tasks/display/Board_lcd.c **** 	    {
 3546              		.loc 1 1115 0 is_stmt 1
 3547 14dc BB6A     		ldr	r3, [r7, #40]
 3548 14de 0133     		adds	r3, r3, #1
 3549 14e0 BB62     		str	r3, [r7, #40]
 3550              	.L134:
1115:../tasks/display/Board_lcd.c **** 	    {
 3551              		.loc 1 1115 0 is_stmt 0 discriminator 1
 3552 14e2 3A8C     		ldrh	r2, [r7, #32]
 3553 14e4 BB6A     		ldr	r3, [r7, #40]
 3554 14e6 9A42     		cmp	r2, r3
 3555 14e8 A3D8     		bhi	.L139
1131:../tasks/display/Board_lcd.c **** 	    	      }
1132:../tasks/display/Board_lcd.c **** 		    }
1133:../tasks/display/Board_lcd.c **** 	    }
1134:../tasks/display/Board_lcd.c **** 		printf("\n");
 3556              		.loc 1 1134 0 is_stmt 1
 3557 14ea 0A20     		movs	r0, #10
 3558 14ec FFF7FEFF 		bl	putchar
1135:../tasks/display/Board_lcd.c **** 	    Ypos--;
 3559              		.loc 1 1135 0
 3560 14f0 BB89     		ldrh	r3, [r7, #12]
 3561 14f2 013B     		subs	r3, r3, #1
 3562 14f4 BB81     		strh	r3, [r7, #12]	@ movhi
1112:../tasks/display/Board_lcd.c ****   {
 3563              		.loc 1 1112 0
 3564 14f6 FB6A     		ldr	r3, [r7, #44]
 3565 14f8 0133     		adds	r3, r3, #1
 3566 14fa FB62     		str	r3, [r7, #44]
 3567              	.L133:
1112:../tasks/display/Board_lcd.c ****   {
 3568              		.loc 1 1112 0 is_stmt 0 discriminator 1
 3569 14fc 7A8C     		ldrh	r2, [r7, #34]
 3570 14fe FB6A     		ldr	r3, [r7, #44]
 3571 1500 9A42     		cmp	r2, r3
 3572 1502 8CD8     		bhi	.L140
1136:../tasks/display/Board_lcd.c ****   }
1137:../tasks/display/Board_lcd.c ****   // пересчитаем из ширины символа количество слов(16бит) и читаем сразу стороками по несколько бай
1138:../tasks/display/Board_lcd.c ****   //
1139:../tasks/display/Board_lcd.c **** 
1140:../tasks/display/Board_lcd.c **** /*
1141:../tasks/display/Board_lcd.c ****   offset =  8 *((width + 7)/8) -  width ;
1142:../tasks/display/Board_lcd.c ****   
1143:../tasks/display/Board_lcd.c ****   for(i = 0; i < height; i++)
1144:../tasks/display/Board_lcd.c ****   {
1145:../tasks/display/Board_lcd.c ****     pchar = ((uint8_t *)c + (width + 7)/8 * i);
1146:../tasks/display/Board_lcd.c ****     
1147:../tasks/display/Board_lcd.c ****     switch(((width + 7)/8))
1148:../tasks/display/Board_lcd.c ****     {
1149:../tasks/display/Board_lcd.c ****     case 1:
1150:../tasks/display/Board_lcd.c ****       line =  pchar[0];
1151:../tasks/display/Board_lcd.c ****       break;    
1152:../tasks/display/Board_lcd.c **** 
1153:../tasks/display/Board_lcd.c ****     case 2:
1154:../tasks/display/Board_lcd.c ****       line =  (pchar[0]<< 8) | pchar[1];
1155:../tasks/display/Board_lcd.c ****       break;
1156:../tasks/display/Board_lcd.c ****       
1157:../tasks/display/Board_lcd.c ****     case 3:
1158:../tasks/display/Board_lcd.c ****     default:
1159:../tasks/display/Board_lcd.c ****       line =  (pchar[0]<< 16) | (pchar[1]<< 8) | pchar[2];
1160:../tasks/display/Board_lcd.c ****       break;
1161:../tasks/display/Board_lcd.c ****     }  
1162:../tasks/display/Board_lcd.c ****     
1163:../tasks/display/Board_lcd.c ****     for (j = 0; j < width; j++)
1164:../tasks/display/Board_lcd.c ****     {
1165:../tasks/display/Board_lcd.c ****       if(line & (1 << (width- j + offset- 1))) 
1166:../tasks/display/Board_lcd.c ****       {
1167:../tasks/display/Board_lcd.c ****         BSP_LCD_DrawPixel((Xpos + j), Ypos+height, DrawProp.TextColor);
1168:../tasks/display/Board_lcd.c ****       }
1169:../tasks/display/Board_lcd.c ****       else
1170:../tasks/display/Board_lcd.c ****       {
1171:../tasks/display/Board_lcd.c ****         BSP_LCD_DrawPixel((Xpos + j), Ypos+height, DrawProp.BackColor);
1172:../tasks/display/Board_lcd.c ****       } 
1173:../tasks/display/Board_lcd.c ****     }
1174:../tasks/display/Board_lcd.c ****  //   Ypos++;
1175:../tasks/display/Board_lcd.c ****     Ypos--;
1176:../tasks/display/Board_lcd.c ****   }
1177:../tasks/display/Board_lcd.c **** */
1178:../tasks/display/Board_lcd.c **** 
1179:../tasks/display/Board_lcd.c **** }
 3573              		.loc 1 1179 0 is_stmt 1
 3574 1504 3037     		adds	r7, r7, #48
 3575 1506 BD46     		mov	sp, r7
 3576              		@ sp needed
 3577 1508 80BD     		pop	{r7, pc}
 3578              		.cfi_endproc
 3579              	.LFE91:
 3581 150a 00BF     		.align	2
 3582              		.thumb
 3583              		.thumb_func
 3585              	SetDisplayWindow:
 3586              	.LFB92:
1180:../tasks/display/Board_lcd.c **** 
1181:../tasks/display/Board_lcd.c **** /**
1182:../tasks/display/Board_lcd.c ****   * @brief  Sets display window.
1183:../tasks/display/Board_lcd.c ****   * @param  LayerIndex: layer index
1184:../tasks/display/Board_lcd.c ****   * @param  Xpos: LCD X position
1185:../tasks/display/Board_lcd.c ****   * @param  Ypos: LCD Y position
1186:../tasks/display/Board_lcd.c ****   * @param  Width: LCD window width
1187:../tasks/display/Board_lcd.c ****   * @param  Height: LCD window height  
1188:../tasks/display/Board_lcd.c ****   * @retval None
1189:../tasks/display/Board_lcd.c ****   */
1190:../tasks/display/Board_lcd.c **** static void SetDisplayWindow(uint16_t Xpos, uint16_t Ypos, uint16_t Width, uint16_t Height)
1191:../tasks/display/Board_lcd.c **** {
 3587              		.loc 1 1191 0
 3588              		.cfi_startproc
 3589              		@ args = 0, pretend = 0, frame = 8
 3590              		@ frame_needed = 1, uses_anonymous_args = 0
 3591 150c 90B5     		push	{r4, r7, lr}
 3592              		.cfi_def_cfa_offset 12
 3593              		.cfi_offset 4, -12
 3594              		.cfi_offset 7, -8
 3595              		.cfi_offset 14, -4
 3596 150e 83B0     		sub	sp, sp, #12
 3597              		.cfi_def_cfa_offset 24
 3598 1510 00AF     		add	r7, sp, #0
 3599              		.cfi_def_cfa_register 7
 3600 1512 F880     		strh	r0, [r7, #6]	@ movhi
 3601 1514 B980     		strh	r1, [r7, #4]	@ movhi
 3602 1516 7A80     		strh	r2, [r7, #2]	@ movhi
 3603 1518 3B80     		strh	r3, [r7]	@ movhi
1192:../tasks/display/Board_lcd.c ****   if(lcd_drv->SetDisplayWindow != NULL)
 3604              		.loc 1 1192 0
 3605 151a 40F20003 		movw	r3, #:lower16:lcd_drv
 3606 151e C0F20003 		movt	r3, #:upper16:lcd_drv
 3607 1522 1B68     		ldr	r3, [r3]
 3608 1524 1B6A     		ldr	r3, [r3, #32]
 3609 1526 002B     		cmp	r3, #0
 3610 1528 0AD0     		beq	.L141
1193:../tasks/display/Board_lcd.c ****   {
1194:../tasks/display/Board_lcd.c ****     lcd_drv->SetDisplayWindow(Xpos, Ypos, Width, Height);
 3611              		.loc 1 1194 0
 3612 152a 40F20003 		movw	r3, #:lower16:lcd_drv
 3613 152e C0F20003 		movt	r3, #:upper16:lcd_drv
 3614 1532 1B68     		ldr	r3, [r3]
 3615 1534 1C6A     		ldr	r4, [r3, #32]
 3616 1536 F888     		ldrh	r0, [r7, #6]
 3617 1538 B988     		ldrh	r1, [r7, #4]
 3618 153a 7A88     		ldrh	r2, [r7, #2]
 3619 153c 3B88     		ldrh	r3, [r7]
 3620 153e A047     		blx	r4
 3621              	.L141:
1195:../tasks/display/Board_lcd.c ****   }  
1196:../tasks/display/Board_lcd.c **** }
 3622              		.loc 1 1196 0
 3623 1540 0C37     		adds	r7, r7, #12
 3624 1542 BD46     		mov	sp, r7
 3625              		@ sp needed
 3626 1544 90BD     		pop	{r4, r7, pc}
 3627              		.cfi_endproc
 3628              	.LFE92:
 3630 1546 00BF     		.align	2
 3631              		.thumb
 3632              		.thumb_func
 3634              	FillTriangle:
 3635              	.LFB93:
1197:../tasks/display/Board_lcd.c **** 
1198:../tasks/display/Board_lcd.c **** /**
1199:../tasks/display/Board_lcd.c ****   * @brief  Fills a triangle (between 3 points).
1200:../tasks/display/Board_lcd.c ****   * @param  Points: Pointer to the points array
1201:../tasks/display/Board_lcd.c ****   * @param  x1: Point 1 X position
1202:../tasks/display/Board_lcd.c ****   * @param  y1: Point 1 Y position
1203:../tasks/display/Board_lcd.c ****   * @param  x2: Point 2 X position
1204:../tasks/display/Board_lcd.c ****   * @param  y2: Point 2 Y position
1205:../tasks/display/Board_lcd.c ****   * @param  x3: Point 3 X position
1206:../tasks/display/Board_lcd.c ****   * @param  y3: Point 3 Y position
1207:../tasks/display/Board_lcd.c ****   * @retval None
1208:../tasks/display/Board_lcd.c ****   */
1209:../tasks/display/Board_lcd.c **** static void FillTriangle(uint16_t x1, uint16_t x2, uint16_t x3, uint16_t y1, uint16_t y2, uint16_t 
1210:../tasks/display/Board_lcd.c **** { 
 3636              		.loc 1 1210 0
 3637              		.cfi_startproc
 3638              		@ args = 8, pretend = 0, frame = 40
 3639              		@ frame_needed = 1, uses_anonymous_args = 0
 3640 1548 80B5     		push	{r7, lr}
 3641              		.cfi_def_cfa_offset 8
 3642              		.cfi_offset 7, -8
 3643              		.cfi_offset 14, -4
 3644 154a 8AB0     		sub	sp, sp, #40
 3645              		.cfi_def_cfa_offset 48
 3646 154c 00AF     		add	r7, sp, #0
 3647              		.cfi_def_cfa_register 7
 3648 154e F880     		strh	r0, [r7, #6]	@ movhi
 3649 1550 B980     		strh	r1, [r7, #4]	@ movhi
 3650 1552 7A80     		strh	r2, [r7, #2]	@ movhi
 3651 1554 3B80     		strh	r3, [r7]	@ movhi
1211:../tasks/display/Board_lcd.c ****   int16_t deltax = 0, deltay = 0, x = 0, y = 0, xinc1 = 0, xinc2 = 0, 
 3652              		.loc 1 1211 0
 3653 1556 0023     		movs	r3, #0
 3654 1558 3B82     		strh	r3, [r7, #16]	@ movhi
 3655 155a 0023     		movs	r3, #0
 3656 155c FB81     		strh	r3, [r7, #14]	@ movhi
 3657 155e 0023     		movs	r3, #0
 3658 1560 FB84     		strh	r3, [r7, #38]	@ movhi
 3659 1562 0023     		movs	r3, #0
 3660 1564 BB84     		strh	r3, [r7, #36]	@ movhi
 3661 1566 0023     		movs	r3, #0
 3662 1568 7B84     		strh	r3, [r7, #34]	@ movhi
 3663 156a 0023     		movs	r3, #0
 3664 156c 3B84     		strh	r3, [r7, #32]	@ movhi
1212:../tasks/display/Board_lcd.c ****   yinc1 = 0, yinc2 = 0, den = 0, num = 0, numadd = 0, numpixels = 0, 
 3665              		.loc 1 1212 0
 3666 156e 0023     		movs	r3, #0
 3667 1570 FB83     		strh	r3, [r7, #30]	@ movhi
 3668 1572 0023     		movs	r3, #0
 3669 1574 BB83     		strh	r3, [r7, #28]	@ movhi
 3670 1576 0023     		movs	r3, #0
 3671 1578 7B83     		strh	r3, [r7, #26]	@ movhi
 3672 157a 0023     		movs	r3, #0
 3673 157c 3B83     		strh	r3, [r7, #24]	@ movhi
 3674 157e 0023     		movs	r3, #0
 3675 1580 FB82     		strh	r3, [r7, #22]	@ movhi
 3676 1582 0023     		movs	r3, #0
 3677 1584 BB82     		strh	r3, [r7, #20]	@ movhi
1213:../tasks/display/Board_lcd.c ****   curpixel = 0;
 3678              		.loc 1 1213 0
 3679 1586 0023     		movs	r3, #0
 3680 1588 7B82     		strh	r3, [r7, #18]	@ movhi
1214:../tasks/display/Board_lcd.c ****   
1215:../tasks/display/Board_lcd.c ****   deltax = ABS(x2 - x1);        /* The difference between the x's */
 3681              		.loc 1 1215 0
 3682 158a BA88     		ldrh	r2, [r7, #4]
 3683 158c FB88     		ldrh	r3, [r7, #6]
 3684 158e D31A     		subs	r3, r2, r3
 3685 1590 002B     		cmp	r3, #0
 3686 1592 B8BF     		it	lt
 3687 1594 5B42     		rsblt	r3, r3, #0
 3688 1596 3B82     		strh	r3, [r7, #16]	@ movhi
1216:../tasks/display/Board_lcd.c ****   deltay = ABS(y2 - y1);        /* The difference between the y's */
 3689              		.loc 1 1216 0
 3690 1598 3A8E     		ldrh	r2, [r7, #48]
 3691 159a 3B88     		ldrh	r3, [r7]
 3692 159c D31A     		subs	r3, r2, r3
 3693 159e 002B     		cmp	r3, #0
 3694 15a0 B8BF     		it	lt
 3695 15a2 5B42     		rsblt	r3, r3, #0
 3696 15a4 FB81     		strh	r3, [r7, #14]	@ movhi
1217:../tasks/display/Board_lcd.c ****   x = x1;                       /* Start x off at the first pixel */
 3697              		.loc 1 1217 0
 3698 15a6 FB88     		ldrh	r3, [r7, #6]	@ movhi
 3699 15a8 FB84     		strh	r3, [r7, #38]	@ movhi
1218:../tasks/display/Board_lcd.c ****   y = y1;                       /* Start y off at the first pixel */
 3700              		.loc 1 1218 0
 3701 15aa 3B88     		ldrh	r3, [r7]	@ movhi
 3702 15ac BB84     		strh	r3, [r7, #36]	@ movhi
1219:../tasks/display/Board_lcd.c ****   
1220:../tasks/display/Board_lcd.c ****   if (x2 >= x1)                 /* The x-values are increasing */
 3703              		.loc 1 1220 0
 3704 15ae BA88     		ldrh	r2, [r7, #4]
 3705 15b0 FB88     		ldrh	r3, [r7, #6]
 3706 15b2 9A42     		cmp	r2, r3
 3707 15b4 04D3     		bcc	.L144
1221:../tasks/display/Board_lcd.c ****   {
1222:../tasks/display/Board_lcd.c ****     xinc1 = 1;
 3708              		.loc 1 1222 0
 3709 15b6 0123     		movs	r3, #1
 3710 15b8 7B84     		strh	r3, [r7, #34]	@ movhi
1223:../tasks/display/Board_lcd.c ****     xinc2 = 1;
 3711              		.loc 1 1223 0
 3712 15ba 0123     		movs	r3, #1
 3713 15bc 3B84     		strh	r3, [r7, #32]	@ movhi
 3714 15be 05E0     		b	.L145
 3715              	.L144:
1224:../tasks/display/Board_lcd.c ****   }
1225:../tasks/display/Board_lcd.c ****   else                          /* The x-values are decreasing */
1226:../tasks/display/Board_lcd.c ****   {
1227:../tasks/display/Board_lcd.c ****     xinc1 = -1;
 3716              		.loc 1 1227 0
 3717 15c0 4FF6FF73 		movw	r3, #65535
 3718 15c4 7B84     		strh	r3, [r7, #34]	@ movhi
1228:../tasks/display/Board_lcd.c ****     xinc2 = -1;
 3719              		.loc 1 1228 0
 3720 15c6 4FF6FF73 		movw	r3, #65535
 3721 15ca 3B84     		strh	r3, [r7, #32]	@ movhi
 3722              	.L145:
1229:../tasks/display/Board_lcd.c ****   }
1230:../tasks/display/Board_lcd.c ****   
1231:../tasks/display/Board_lcd.c ****   if (y2 >= y1)                 /* The y-values are increasing */
 3723              		.loc 1 1231 0
 3724 15cc 3A8E     		ldrh	r2, [r7, #48]
 3725 15ce 3B88     		ldrh	r3, [r7]
 3726 15d0 9A42     		cmp	r2, r3
 3727 15d2 04D3     		bcc	.L146
1232:../tasks/display/Board_lcd.c ****   {
1233:../tasks/display/Board_lcd.c ****     yinc1 = 1;
 3728              		.loc 1 1233 0
 3729 15d4 0123     		movs	r3, #1
 3730 15d6 FB83     		strh	r3, [r7, #30]	@ movhi
1234:../tasks/display/Board_lcd.c ****     yinc2 = 1;
 3731              		.loc 1 1234 0
 3732 15d8 0123     		movs	r3, #1
 3733 15da BB83     		strh	r3, [r7, #28]	@ movhi
 3734 15dc 05E0     		b	.L147
 3735              	.L146:
1235:../tasks/display/Board_lcd.c ****   }
1236:../tasks/display/Board_lcd.c ****   else                          /* The y-values are decreasing */
1237:../tasks/display/Board_lcd.c ****   {
1238:../tasks/display/Board_lcd.c ****     yinc1 = -1;
 3736              		.loc 1 1238 0
 3737 15de 4FF6FF73 		movw	r3, #65535
 3738 15e2 FB83     		strh	r3, [r7, #30]	@ movhi
1239:../tasks/display/Board_lcd.c ****     yinc2 = -1;
 3739              		.loc 1 1239 0
 3740 15e4 4FF6FF73 		movw	r3, #65535
 3741 15e8 BB83     		strh	r3, [r7, #28]	@ movhi
 3742              	.L147:
1240:../tasks/display/Board_lcd.c ****   }
1241:../tasks/display/Board_lcd.c ****   
1242:../tasks/display/Board_lcd.c ****   if (deltax >= deltay)         /* There is at least one x-value for every y-value */
 3743              		.loc 1 1242 0
 3744 15ea B7F91020 		ldrsh	r2, [r7, #16]
 3745 15ee B7F90E30 		ldrsh	r3, [r7, #14]
 3746 15f2 9A42     		cmp	r2, r3
 3747 15f4 10DB     		blt	.L148
1243:../tasks/display/Board_lcd.c ****   {
1244:../tasks/display/Board_lcd.c ****     xinc1 = 0;                  /* Don't change the x when numerator >= denominator */
 3748              		.loc 1 1244 0
 3749 15f6 0023     		movs	r3, #0
 3750 15f8 7B84     		strh	r3, [r7, #34]	@ movhi
1245:../tasks/display/Board_lcd.c ****     yinc2 = 0;                  /* Don't change the y for every iteration */
 3751              		.loc 1 1245 0
 3752 15fa 0023     		movs	r3, #0
 3753 15fc BB83     		strh	r3, [r7, #28]	@ movhi
1246:../tasks/display/Board_lcd.c ****     den = deltax;
 3754              		.loc 1 1246 0
 3755 15fe 3B8A     		ldrh	r3, [r7, #16]	@ movhi
 3756 1600 7B83     		strh	r3, [r7, #26]	@ movhi
1247:../tasks/display/Board_lcd.c ****     num = deltax / 2;
 3757              		.loc 1 1247 0
 3758 1602 B7F91030 		ldrsh	r3, [r7, #16]
 3759 1606 DA0F     		lsrs	r2, r3, #31
 3760 1608 1344     		add	r3, r3, r2
 3761 160a 5B10     		asrs	r3, r3, #1
 3762 160c 3B83     		strh	r3, [r7, #24]	@ movhi
1248:../tasks/display/Board_lcd.c ****     numadd = deltay;
 3763              		.loc 1 1248 0
 3764 160e FB89     		ldrh	r3, [r7, #14]	@ movhi
 3765 1610 FB82     		strh	r3, [r7, #22]	@ movhi
1249:../tasks/display/Board_lcd.c ****     numpixels = deltax;         /* There are more x-values than y-values */
 3766              		.loc 1 1249 0
 3767 1612 3B8A     		ldrh	r3, [r7, #16]	@ movhi
 3768 1614 BB82     		strh	r3, [r7, #20]	@ movhi
 3769 1616 0FE0     		b	.L149
 3770              	.L148:
1250:../tasks/display/Board_lcd.c ****   }
1251:../tasks/display/Board_lcd.c ****   else                          /* There is at least one y-value for every x-value */
1252:../tasks/display/Board_lcd.c ****   {
1253:../tasks/display/Board_lcd.c ****     xinc2 = 0;                  /* Don't change the x for every iteration */
 3771              		.loc 1 1253 0
 3772 1618 0023     		movs	r3, #0
 3773 161a 3B84     		strh	r3, [r7, #32]	@ movhi
1254:../tasks/display/Board_lcd.c ****     yinc1 = 0;                  /* Don't change the y when numerator >= denominator */
 3774              		.loc 1 1254 0
 3775 161c 0023     		movs	r3, #0
 3776 161e FB83     		strh	r3, [r7, #30]	@ movhi
1255:../tasks/display/Board_lcd.c ****     den = deltay;
 3777              		.loc 1 1255 0
 3778 1620 FB89     		ldrh	r3, [r7, #14]	@ movhi
 3779 1622 7B83     		strh	r3, [r7, #26]	@ movhi
1256:../tasks/display/Board_lcd.c ****     num = deltay / 2;
 3780              		.loc 1 1256 0
 3781 1624 B7F90E30 		ldrsh	r3, [r7, #14]
 3782 1628 DA0F     		lsrs	r2, r3, #31
 3783 162a 1344     		add	r3, r3, r2
 3784 162c 5B10     		asrs	r3, r3, #1
 3785 162e 3B83     		strh	r3, [r7, #24]	@ movhi
1257:../tasks/display/Board_lcd.c ****     numadd = deltax;
 3786              		.loc 1 1257 0
 3787 1630 3B8A     		ldrh	r3, [r7, #16]	@ movhi
 3788 1632 FB82     		strh	r3, [r7, #22]	@ movhi
1258:../tasks/display/Board_lcd.c ****     numpixels = deltay;         /* There are more y-values than x-values */
 3789              		.loc 1 1258 0
 3790 1634 FB89     		ldrh	r3, [r7, #14]	@ movhi
 3791 1636 BB82     		strh	r3, [r7, #20]	@ movhi
 3792              	.L149:
1259:../tasks/display/Board_lcd.c ****   }
1260:../tasks/display/Board_lcd.c ****   
1261:../tasks/display/Board_lcd.c ****   for (curpixel = 0; curpixel <= numpixels; curpixel++)
 3793              		.loc 1 1261 0
 3794 1638 0023     		movs	r3, #0
 3795 163a 7B82     		strh	r3, [r7, #18]	@ movhi
 3796 163c 2CE0     		b	.L150
 3797              	.L152:
1262:../tasks/display/Board_lcd.c ****   {
1263:../tasks/display/Board_lcd.c ****     BSP_LCD_DrawLine(x, y, x3, y3);
 3798              		.loc 1 1263 0
 3799 163e F88C     		ldrh	r0, [r7, #38]
 3800 1640 B98C     		ldrh	r1, [r7, #36]
 3801 1642 7A88     		ldrh	r2, [r7, #2]
 3802 1644 BB8E     		ldrh	r3, [r7, #52]
 3803 1646 FFF7FEFF 		bl	BSP_LCD_DrawLine
1264:../tasks/display/Board_lcd.c ****     
1265:../tasks/display/Board_lcd.c ****     num += numadd;              /* Increase the numerator by the top of the fraction */
 3804              		.loc 1 1265 0
 3805 164a 3A8B     		ldrh	r2, [r7, #24]
 3806 164c FB8A     		ldrh	r3, [r7, #22]
 3807 164e 1344     		add	r3, r3, r2
 3808 1650 9BB2     		uxth	r3, r3
 3809 1652 3B83     		strh	r3, [r7, #24]	@ movhi
1266:../tasks/display/Board_lcd.c ****     if (num >= den)             /* Check if numerator >= denominator */
 3810              		.loc 1 1266 0
 3811 1654 B7F91820 		ldrsh	r2, [r7, #24]
 3812 1658 B7F91A30 		ldrsh	r3, [r7, #26]
 3813 165c 9A42     		cmp	r2, r3
 3814 165e 0EDB     		blt	.L151
1267:../tasks/display/Board_lcd.c ****     {
1268:../tasks/display/Board_lcd.c ****       num -= den;               /* Calculate the new numerator value */
 3815              		.loc 1 1268 0
 3816 1660 3A8B     		ldrh	r2, [r7, #24]
 3817 1662 7B8B     		ldrh	r3, [r7, #26]
 3818 1664 D31A     		subs	r3, r2, r3
 3819 1666 9BB2     		uxth	r3, r3
 3820 1668 3B83     		strh	r3, [r7, #24]	@ movhi
1269:../tasks/display/Board_lcd.c ****       x += xinc1;               /* Change the x as appropriate */
 3821              		.loc 1 1269 0
 3822 166a FA8C     		ldrh	r2, [r7, #38]
 3823 166c 7B8C     		ldrh	r3, [r7, #34]
 3824 166e 1344     		add	r3, r3, r2
 3825 1670 9BB2     		uxth	r3, r3
 3826 1672 FB84     		strh	r3, [r7, #38]	@ movhi
1270:../tasks/display/Board_lcd.c ****       y += yinc1;               /* Change the y as appropriate */
 3827              		.loc 1 1270 0
 3828 1674 BA8C     		ldrh	r2, [r7, #36]
 3829 1676 FB8B     		ldrh	r3, [r7, #30]
 3830 1678 1344     		add	r3, r3, r2
 3831 167a 9BB2     		uxth	r3, r3
 3832 167c BB84     		strh	r3, [r7, #36]	@ movhi
 3833              	.L151:
1271:../tasks/display/Board_lcd.c ****     }
1272:../tasks/display/Board_lcd.c ****     x += xinc2;                 /* Change the x as appropriate */
 3834              		.loc 1 1272 0
 3835 167e FA8C     		ldrh	r2, [r7, #38]
 3836 1680 3B8C     		ldrh	r3, [r7, #32]
 3837 1682 1344     		add	r3, r3, r2
 3838 1684 9BB2     		uxth	r3, r3
 3839 1686 FB84     		strh	r3, [r7, #38]	@ movhi
1273:../tasks/display/Board_lcd.c ****     y += yinc2;                 /* Change the y as appropriate */
 3840              		.loc 1 1273 0
 3841 1688 BA8C     		ldrh	r2, [r7, #36]
 3842 168a BB8B     		ldrh	r3, [r7, #28]
 3843 168c 1344     		add	r3, r3, r2
 3844 168e 9BB2     		uxth	r3, r3
 3845 1690 BB84     		strh	r3, [r7, #36]	@ movhi
1261:../tasks/display/Board_lcd.c ****   {
 3846              		.loc 1 1261 0
 3847 1692 7B8A     		ldrh	r3, [r7, #18]
 3848 1694 0133     		adds	r3, r3, #1
 3849 1696 7B82     		strh	r3, [r7, #18]	@ movhi
 3850              	.L150:
1261:../tasks/display/Board_lcd.c ****   {
 3851              		.loc 1 1261 0 is_stmt 0 discriminator 1
 3852 1698 B7F91220 		ldrsh	r2, [r7, #18]
 3853 169c B7F91430 		ldrsh	r3, [r7, #20]
 3854 16a0 9A42     		cmp	r2, r3
 3855 16a2 CCDD     		ble	.L152
1274:../tasks/display/Board_lcd.c ****   } 
1275:../tasks/display/Board_lcd.c **** }
 3856              		.loc 1 1275 0 is_stmt 1
 3857 16a4 2837     		adds	r7, r7, #40
 3858 16a6 BD46     		mov	sp, r7
 3859              		@ sp needed
 3860 16a8 80BD     		pop	{r7, pc}
 3861              		.cfi_endproc
 3862              	.LFE93:
 3864              	.Letext0:
 3865              		.file 2 "c:\\program files (x86)\\codesourcery\\arm-none-eabi\\include\\stdint.h"
 3866              		.file 3 "D:\\workspace\\console800480\\tasks\\display/lcd.h"
 3867              		.file 4 "../tasks/display/Fonts\\fonts.h"
 3868              		.file 5 "D:\\workspace\\console800480\\tasks\\SDMMC/integer.h"
 3869              		.file 6 "D:\\workspace\\console800480\\tasks\\SDMMC/ff.h"
 3870              		.file 7 "../tasks/display/Board_lcd.h"
 3871              		.file 8 "D:\\workspace\\console800480\\system/core_cm3.h"
 3872              		.file 9 "../tasks/display/ili9320\\ili9320.h"