   1              		.syntax unified
   2              		.cpu cortex-m3
   3              		.fpu softvfp
   4              		.eabi_attribute 20, 1
   5              		.eabi_attribute 21, 1
   6              		.eabi_attribute 23, 3
   7              		.eabi_attribute 24, 1
   8              		.eabi_attribute 25, 1
   9              		.eabi_attribute 26, 1
  10              		.eabi_attribute 30, 6
  11              		.eabi_attribute 34, 1
  12              		.eabi_attribute 18, 4
  13              		.thumb
  14              		.file	"stm32f2xx_it.c"
  15              		.text
  16              	.Ltext0:
  17              		.cfi_sections	.debug_frame
  18              		.comm	uSdHandle,96,4
  19              		.comm	SD_CardInfo,88,8
  20              		.align	2
  21              		.global	NMI_Handler
  22              		.thumb
  23              		.thumb_func
  25              	NMI_Handler:
  26              	.LFB55:
  27              		.file 1 "../src/stm32f2xx_it.c"
   1:../src/stm32f2xx_it.c **** /**
   2:../src/stm32f2xx_it.c ****   ******************************************************************************
   3:../src/stm32f2xx_it.c ****   * @file    GPIO/GPIO_IOToggle/Src/stm32f2xx_it.c 
   4:../src/stm32f2xx_it.c ****   * @author  MCD Application Team
   5:../src/stm32f2xx_it.c ****   * @version V1.1.0
   6:../src/stm32f2xx_it.c ****   * @date    13-March-2014
   7:../src/stm32f2xx_it.c ****   * @brief   Main Interrupt Service Routines.
   8:../src/stm32f2xx_it.c ****   *          This file provides template for all exceptions handler and 
   9:../src/stm32f2xx_it.c ****   *          peripherals interrupt service routine.
  10:../src/stm32f2xx_it.c ****   ******************************************************************************
  11:../src/stm32f2xx_it.c ****   * @attention
  12:../src/stm32f2xx_it.c ****   *
  13:../src/stm32f2xx_it.c ****   * <h2><center>&copy; COPYRIGHT(c) 2014 STMicroelectronics</center></h2>
  14:../src/stm32f2xx_it.c ****   *
  15:../src/stm32f2xx_it.c ****   * Redistribution and use in source and binary forms, with or without modification,
  16:../src/stm32f2xx_it.c ****   * are permitted provided that the following conditions are met:
  17:../src/stm32f2xx_it.c ****   *   1. Redistributions of source code must retain the above copyright notice,
  18:../src/stm32f2xx_it.c ****   *      this list of conditions and the following disclaimer.
  19:../src/stm32f2xx_it.c ****   *   2. Redistributions in binary form must reproduce the above copyright notice,
  20:../src/stm32f2xx_it.c ****   *      this list of conditions and the following disclaimer in the documentation
  21:../src/stm32f2xx_it.c ****   *      and/or other materials provided with the distribution.
  22:../src/stm32f2xx_it.c ****   *   3. Neither the name of STMicroelectronics nor the names of its contributors
  23:../src/stm32f2xx_it.c ****   *      may be used to endorse or promote products derived from this software
  24:../src/stm32f2xx_it.c ****   *      without specific prior written permission.
  25:../src/stm32f2xx_it.c ****   *
  26:../src/stm32f2xx_it.c ****   * THIS SOFTWARE IS PROVIDED BY THE COPYRIGHT HOLDERS AND CONTRIBUTORS "AS IS"
  27:../src/stm32f2xx_it.c ****   * AND ANY EXPRESS OR IMPLIED WARRANTIES, INCLUDING, BUT NOT LIMITED TO, THE
  28:../src/stm32f2xx_it.c ****   * IMPLIED WARRANTIES OF MERCHANTABILITY AND FITNESS FOR A PARTICULAR PURPOSE ARE
  29:../src/stm32f2xx_it.c ****   * DISCLAIMED. IN NO EVENT SHALL THE COPYRIGHT HOLDER OR CONTRIBUTORS BE LIABLE
  30:../src/stm32f2xx_it.c ****   * FOR ANY DIRECT, INDIRECT, INCIDENTAL, SPECIAL, EXEMPLARY, OR CONSEQUENTIAL
  31:../src/stm32f2xx_it.c ****   * DAMAGES (INCLUDING, BUT NOT LIMITED TO, PROCUREMENT OF SUBSTITUTE GOODS OR
  32:../src/stm32f2xx_it.c ****   * SERVICES; LOSS OF USE, DATA, OR PROFITS; OR BUSINESS INTERRUPTION) HOWEVER
  33:../src/stm32f2xx_it.c ****   * CAUSED AND ON ANY THEORY OF LIABILITY, WHETHER IN CONTRACT, STRICT LIABILITY,
  34:../src/stm32f2xx_it.c ****   * OR TORT (INCLUDING NEGLIGENCE OR OTHERWISE) ARISING IN ANY WAY OUT OF THE USE
  35:../src/stm32f2xx_it.c ****   * OF THIS SOFTWARE, EVEN IF ADVISED OF THE POSSIBILITY OF SUCH DAMAGE.
  36:../src/stm32f2xx_it.c ****   *
  37:../src/stm32f2xx_it.c ****   ******************************************************************************
  38:../src/stm32f2xx_it.c ****   */
  39:../src/stm32f2xx_it.c **** 
  40:../src/stm32f2xx_it.c **** /* Includes ------------------------------------------------------------------*/
  41:../src/stm32f2xx_it.c **** #include "stm32f2xx_it.h"
  42:../src/stm32f2xx_it.c **** #include "main.h"
  43:../src/stm32f2xx_it.c **** #include "LEDs.h"
  44:../src/stm32f2xx_it.c **** //#include "sd_diskio.h"
  45:../src/stm32f2xx_it.c **** 
  46:../src/stm32f2xx_it.c **** /* Scheduler includes. */
  47:../src/stm32f2xx_it.c **** #include "FreeRTOS.h"
  48:../src/stm32f2xx_it.c **** #include "task.h"
  49:../src/stm32f2xx_it.c **** #include "queue.h"
  50:../src/stm32f2xx_it.c **** #include "semphr.h"
  51:../src/stm32f2xx_it.c **** 
  52:../src/stm32f2xx_it.c **** /** @addtogroup STM32F2xx_HAL_Examples
  53:../src/stm32f2xx_it.c ****   * @{
  54:../src/stm32f2xx_it.c ****   */
  55:../src/stm32f2xx_it.c **** 
  56:../src/stm32f2xx_it.c **** /** @addtogroup GPIO_IOToggle
  57:../src/stm32f2xx_it.c ****   * @{
  58:../src/stm32f2xx_it.c ****   */
  59:../src/stm32f2xx_it.c **** 
  60:../src/stm32f2xx_it.c **** /* Private typedef -----------------------------------------------------------*/
  61:../src/stm32f2xx_it.c **** /* Private define ------------------------------------------------------------*/
  62:../src/stm32f2xx_it.c **** /* Private macro -------------------------------------------------------------*/
  63:../src/stm32f2xx_it.c **** /* Private variables ---------------------------------------------------------*/
  64:../src/stm32f2xx_it.c **** extern PCD_HandleTypeDef hpcd;
  65:../src/stm32f2xx_it.c **** extern HCD_HandleTypeDef hhcd;
  66:../src/stm32f2xx_it.c **** 
  67:../src/stm32f2xx_it.c **** /* UART handler declared in "usbd_cdc_interface.c" file */
  68:../src/stm32f2xx_it.c **** extern UART_HandleTypeDef 	UartHandle;
  69:../src/stm32f2xx_it.c **** extern SD_HandleTypeDef 	uSdHandle;
  70:../src/stm32f2xx_it.c **** //extern SPI_HandleTypeDef 	SpiHandle;
  71:../src/stm32f2xx_it.c **** extern ADC_HandleTypeDef    AdcHandle;
  72:../src/stm32f2xx_it.c **** 
  73:../src/stm32f2xx_it.c **** 
  74:../src/stm32f2xx_it.c **** extern xSemaphoreHandle 	xSemaphore_USBInt;			//
  75:../src/stm32f2xx_it.c **** 
  76:../src/stm32f2xx_it.c **** /* Private function prototypes -----------------------------------------------*/
  77:../src/stm32f2xx_it.c **** /* Private functions ---------------------------------------------------------*/
  78:../src/stm32f2xx_it.c **** 
  79:../src/stm32f2xx_it.c **** /******************************************************************************/
  80:../src/stm32f2xx_it.c **** /*            Cortex-M3 Processor Exceptions Handlers                         */
  81:../src/stm32f2xx_it.c **** /******************************************************************************/
  82:../src/stm32f2xx_it.c **** 
  83:../src/stm32f2xx_it.c **** /**
  84:../src/stm32f2xx_it.c ****   * @brief   This function handles NMI exception.
  85:../src/stm32f2xx_it.c ****   * @param  None
  86:../src/stm32f2xx_it.c ****   * @retval None
  87:../src/stm32f2xx_it.c ****   */
  88:../src/stm32f2xx_it.c **** void NMI_Handler(void)
  89:../src/stm32f2xx_it.c **** {
  28              		.loc 1 89 0
  29              		.cfi_startproc
  30              		@ args = 0, pretend = 0, frame = 0
  31              		@ frame_needed = 1, uses_anonymous_args = 0
  32              		@ link register save eliminated.
  33 0000 80B4     		push	{r7}
  34              		.cfi_def_cfa_offset 4
  35              		.cfi_offset 7, -4
  36 0002 00AF     		add	r7, sp, #0
  37              		.cfi_def_cfa_register 7
  90:../src/stm32f2xx_it.c **** }
  38              		.loc 1 90 0
  39 0004 BD46     		mov	sp, r7
  40              		@ sp needed
  41 0006 5DF8047B 		ldr	r7, [sp], #4
  42 000a 7047     		bx	lr
  43              		.cfi_endproc
  44              	.LFE55:
  46              		.align	2
  47              		.global	HardFault_Handler
  48              		.thumb
  49              		.thumb_func
  51              	HardFault_Handler:
  52              	.LFB56:
  91:../src/stm32f2xx_it.c **** 
  92:../src/stm32f2xx_it.c **** /**
  93:../src/stm32f2xx_it.c ****   * @brief  This function handles Hard Fault exception.
  94:../src/stm32f2xx_it.c ****   * @param  None
  95:../src/stm32f2xx_it.c ****   * @retval None
  96:../src/stm32f2xx_it.c ****   */
  97:../src/stm32f2xx_it.c **** void HardFault_Handler(void)
  98:../src/stm32f2xx_it.c **** {
  53              		.loc 1 98 0
  54              		.cfi_startproc
  55              		@ args = 0, pretend = 0, frame = 0
  56              		@ frame_needed = 1, uses_anonymous_args = 0
  57              		@ link register save eliminated.
  58 000c 80B4     		push	{r7}
  59              		.cfi_def_cfa_offset 4
  60              		.cfi_offset 7, -4
  61 000e 00AF     		add	r7, sp, #0
  62              		.cfi_def_cfa_register 7
  63              	.L3:
  99:../src/stm32f2xx_it.c ****   /* Go to infinite loop when Hard Fault exception occurs */
 100:../src/stm32f2xx_it.c ****   while (1)
 101:../src/stm32f2xx_it.c ****   {
 102:../src/stm32f2xx_it.c ****   }
  64              		.loc 1 102 0 discriminator 1
  65 0010 FEE7     		b	.L3
  66              		.cfi_endproc
  67              	.LFE56:
  69 0012 00BF     		.align	2
  70              		.global	MemManage_Handler
  71              		.thumb
  72              		.thumb_func
  74              	MemManage_Handler:
  75              	.LFB57:
 103:../src/stm32f2xx_it.c **** }
 104:../src/stm32f2xx_it.c **** 
 105:../src/stm32f2xx_it.c **** /**
 106:../src/stm32f2xx_it.c ****   * @brief  This function handles Memory Manage exception.
 107:../src/stm32f2xx_it.c ****   * @param  None
 108:../src/stm32f2xx_it.c ****   * @retval None
 109:../src/stm32f2xx_it.c ****   */
 110:../src/stm32f2xx_it.c **** void MemManage_Handler(void)
 111:../src/stm32f2xx_it.c **** {
  76              		.loc 1 111 0
  77              		.cfi_startproc
  78              		@ args = 0, pretend = 0, frame = 0
  79              		@ frame_needed = 1, uses_anonymous_args = 0
  80              		@ link register save eliminated.
  81 0014 80B4     		push	{r7}
  82              		.cfi_def_cfa_offset 4
  83              		.cfi_offset 7, -4
  84 0016 00AF     		add	r7, sp, #0
  85              		.cfi_def_cfa_register 7
  86              	.L5:
 112:../src/stm32f2xx_it.c ****   /* Go to infinite loop when Memory Manage exception occurs */
 113:../src/stm32f2xx_it.c ****   while (1)
 114:../src/stm32f2xx_it.c ****   {
 115:../src/stm32f2xx_it.c ****   }
  87              		.loc 1 115 0 discriminator 1
  88 0018 FEE7     		b	.L5
  89              		.cfi_endproc
  90              	.LFE57:
  92 001a 00BF     		.align	2
  93              		.global	BusFault_Handler
  94              		.thumb
  95              		.thumb_func
  97              	BusFault_Handler:
  98              	.LFB58:
 116:../src/stm32f2xx_it.c **** }
 117:../src/stm32f2xx_it.c **** 
 118:../src/stm32f2xx_it.c **** /**
 119:../src/stm32f2xx_it.c ****   * @brief  This function handles Bus Fault exception.
 120:../src/stm32f2xx_it.c ****   * @param  None
 121:../src/stm32f2xx_it.c ****   * @retval None
 122:../src/stm32f2xx_it.c ****   */
 123:../src/stm32f2xx_it.c **** void BusFault_Handler(void)
 124:../src/stm32f2xx_it.c **** {
  99              		.loc 1 124 0
 100              		.cfi_startproc
 101              		@ args = 0, pretend = 0, frame = 0
 102              		@ frame_needed = 1, uses_anonymous_args = 0
 103              		@ link register save eliminated.
 104 001c 80B4     		push	{r7}
 105              		.cfi_def_cfa_offset 4
 106              		.cfi_offset 7, -4
 107 001e 00AF     		add	r7, sp, #0
 108              		.cfi_def_cfa_register 7
 109              	.L7:
 125:../src/stm32f2xx_it.c ****   /* Go to infinite loop when Bus Fault exception occurs */
 126:../src/stm32f2xx_it.c ****   while (1)
 127:../src/stm32f2xx_it.c ****   {
 128:../src/stm32f2xx_it.c ****   }
 110              		.loc 1 128 0 discriminator 1
 111 0020 FEE7     		b	.L7
 112              		.cfi_endproc
 113              	.LFE58:
 115 0022 00BF     		.align	2
 116              		.global	UsageFault_Handler
 117              		.thumb
 118              		.thumb_func
 120              	UsageFault_Handler:
 121              	.LFB59:
 129:../src/stm32f2xx_it.c **** }
 130:../src/stm32f2xx_it.c **** 
 131:../src/stm32f2xx_it.c **** /**
 132:../src/stm32f2xx_it.c ****   * @brief  This function handles Usage Fault exception.
 133:../src/stm32f2xx_it.c ****   * @param  None
 134:../src/stm32f2xx_it.c ****   * @retval None
 135:../src/stm32f2xx_it.c ****   */
 136:../src/stm32f2xx_it.c **** void UsageFault_Handler(void)
 137:../src/stm32f2xx_it.c **** {
 122              		.loc 1 137 0
 123              		.cfi_startproc
 124              		@ args = 0, pretend = 0, frame = 0
 125              		@ frame_needed = 1, uses_anonymous_args = 0
 126              		@ link register save eliminated.
 127 0024 80B4     		push	{r7}
 128              		.cfi_def_cfa_offset 4
 129              		.cfi_offset 7, -4
 130 0026 00AF     		add	r7, sp, #0
 131              		.cfi_def_cfa_register 7
 132              	.L9:
 138:../src/stm32f2xx_it.c ****   /* Go to infinite loop when Usage Fault exception occurs */
 139:../src/stm32f2xx_it.c ****   while (1)
 140:../src/stm32f2xx_it.c ****   {
 141:../src/stm32f2xx_it.c ****   }
 133              		.loc 1 141 0 discriminator 1
 134 0028 FEE7     		b	.L9
 135              		.cfi_endproc
 136              	.LFE59:
 138 002a 00BF     		.align	2
 139              		.global	DebugMon_Handler
 140              		.thumb
 141              		.thumb_func
 143              	DebugMon_Handler:
 144              	.LFB60:
 142:../src/stm32f2xx_it.c **** }
 143:../src/stm32f2xx_it.c **** 
 144:../src/stm32f2xx_it.c **** /**
 145:../src/stm32f2xx_it.c ****   * @brief  This function handles Debug Monitor exception.
 146:../src/stm32f2xx_it.c ****   * @param  None
 147:../src/stm32f2xx_it.c ****   * @retval None
 148:../src/stm32f2xx_it.c ****   */
 149:../src/stm32f2xx_it.c **** void DebugMon_Handler(void)
 150:../src/stm32f2xx_it.c **** {
 145              		.loc 1 150 0
 146              		.cfi_startproc
 147              		@ args = 0, pretend = 0, frame = 0
 148              		@ frame_needed = 1, uses_anonymous_args = 0
 149              		@ link register save eliminated.
 150 002c 80B4     		push	{r7}
 151              		.cfi_def_cfa_offset 4
 152              		.cfi_offset 7, -4
 153 002e 00AF     		add	r7, sp, #0
 154              		.cfi_def_cfa_register 7
 151:../src/stm32f2xx_it.c **** }
 155              		.loc 1 151 0
 156 0030 BD46     		mov	sp, r7
 157              		@ sp needed
 158 0032 5DF8047B 		ldr	r7, [sp], #4
 159 0036 7047     		bx	lr
 160              		.cfi_endproc
 161              	.LFE60:
 163              		.align	2
 164              		.global	OTG_FS_IRQHandler
 165              		.thumb
 166              		.thumb_func
 168              	OTG_FS_IRQHandler:
 169              	.LFB61:
 152:../src/stm32f2xx_it.c **** /**
 153:../src/stm32f2xx_it.c ****   * @bri
 154:../src/stm32f2xx_it.c ****   * @param  None
 155:../src/stm32f2xx_it.c ****   * @retval None
 156:../src/stm32f2xx_it.c ****   */
 157:../src/stm32f2xx_it.c **** 
 158:../src/stm32f2xx_it.c **** 
 159:../src/stm32f2xx_it.c **** /******************************************************************************/
 160:../src/stm32f2xx_it.c **** /*                 STM32F2xx Peripherals Interrupt Handlers                   */
 161:../src/stm32f2xx_it.c **** /*  Add here the Interrupt Handler for the used peripheral(s) (PPP), for the  */
 162:../src/stm32f2xx_it.c **** /*  available peripheral interrupt handler's name please refer to the startup */
 163:../src/stm32f2xx_it.c **** /*  file (startup_stm32f2xx.s).                                               */
 164:../src/stm32f2xx_it.c **** /******************************************************************************/
 165:../src/stm32f2xx_it.c **** /**
 166:../src/stm32f2xx_it.c ****   * @brief  This function handles USB-On-The-Go FS or HS global interrupt request.
 167:../src/stm32f2xx_it.c ****   * @param  None
 168:../src/stm32f2xx_it.c ****   * @retval None
 169:../src/stm32f2xx_it.c ****   */
 170:../src/stm32f2xx_it.c **** void OTG_FS_IRQHandler(void)
 171:../src/stm32f2xx_it.c **** 
 172:../src/stm32f2xx_it.c **** {
 170              		.loc 1 172 0
 171              		.cfi_startproc
 172              		@ args = 0, pretend = 0, frame = 0
 173              		@ frame_needed = 1, uses_anonymous_args = 0
 174 0038 80B5     		push	{r7, lr}
 175              		.cfi_def_cfa_offset 8
 176              		.cfi_offset 7, -8
 177              		.cfi_offset 14, -4
 178 003a 00AF     		add	r7, sp, #0
 179              		.cfi_def_cfa_register 7
 173:../src/stm32f2xx_it.c **** //portBASE_TYPE xTaskWoken= pdFALSE;
 174:../src/stm32f2xx_it.c **** 
 175:../src/stm32f2xx_it.c **** //	TST_High(TST6);
 176:../src/stm32f2xx_it.c **** 
 177:../src/stm32f2xx_it.c **** 	LED_Toggle(LED5);
 180              		.loc 1 177 0
 181 003c 0520     		movs	r0, #5
 182 003e FFF7FEFF 		bl	LED_Toggle
 178:../src/stm32f2xx_it.c **** 
 179:../src/stm32f2xx_it.c **** 
 180:../src/stm32f2xx_it.c **** 	HAL_PCD_IRQHandler(&hpcd);
 183              		.loc 1 180 0
 184 0042 40F20000 		movw	r0, #:lower16:hpcd
 185 0046 C0F20000 		movt	r0, #:upper16:hpcd
 186 004a FFF7FEFF 		bl	HAL_PCD_IRQHandler
 181:../src/stm32f2xx_it.c **** //	HAL_HCD_IRQHandler(&hhcd);
 182:../src/stm32f2xx_it.c **** 
 183:../src/stm32f2xx_it.c **** //	    xSemaphoreGiveFromISR( xSemaphore_USBInt, &xTaskWoken );
 184:../src/stm32f2xx_it.c **** //	    if( xTaskWoken == pdTRUE) {
 185:../src/stm32f2xx_it.c **** //	        taskYIELD();
 186:../src/stm32f2xx_it.c **** //	    }
 187:../src/stm32f2xx_it.c **** //	TST_Low(TST6);
 188:../src/stm32f2xx_it.c **** 
 189:../src/stm32f2xx_it.c **** }
 187              		.loc 1 189 0
 188 004e 80BD     		pop	{r7, pc}
 189              		.cfi_endproc
 190              	.LFE61:
 192              		.align	2
 193              		.global	OTG_HS_IRQHandler
 194              		.thumb
 195              		.thumb_func
 197              	OTG_HS_IRQHandler:
 198              	.LFB62:
 190:../src/stm32f2xx_it.c **** void OTG_HS_IRQHandler(void)
 191:../src/stm32f2xx_it.c **** {
 199              		.loc 1 191 0
 200              		.cfi_startproc
 201              		@ args = 0, pretend = 0, frame = 0
 202              		@ frame_needed = 1, uses_anonymous_args = 0
 203 0050 80B5     		push	{r7, lr}
 204              		.cfi_def_cfa_offset 8
 205              		.cfi_offset 7, -8
 206              		.cfi_offset 14, -4
 207 0052 00AF     		add	r7, sp, #0
 208              		.cfi_def_cfa_register 7
 192:../src/stm32f2xx_it.c ****     LED_Toggle(LED4);
 209              		.loc 1 192 0
 210 0054 0420     		movs	r0, #4
 211 0056 FFF7FEFF 		bl	LED_Toggle
 193:../src/stm32f2xx_it.c **** 
 194:../src/stm32f2xx_it.c **** 	TST_High(TST4);
 212              		.loc 1 194 0
 213 005a 0220     		movs	r0, #2
 214 005c FFF7FEFF 		bl	TST_High
 195:../src/stm32f2xx_it.c **** 	HAL_HCD_IRQHandler(&hhcd);
 215              		.loc 1 195 0
 216 0060 40F20000 		movw	r0, #:lower16:hhcd
 217 0064 C0F20000 		movt	r0, #:upper16:hhcd
 218 0068 FFF7FEFF 		bl	HAL_HCD_IRQHandler
 196:../src/stm32f2xx_it.c **** 	TST_Low(TST4);
 219              		.loc 1 196 0
 220 006c 0220     		movs	r0, #2
 221 006e FFF7FEFF 		bl	TST_Low
 197:../src/stm32f2xx_it.c **** 
 198:../src/stm32f2xx_it.c **** }
 222              		.loc 1 198 0
 223 0072 80BD     		pop	{r7, pc}
 224              		.cfi_endproc
 225              	.LFE62:
 227              		.align	2
 228              		.global	DMA2_Stream7_IRQHandler
 229              		.thumb
 230              		.thumb_func
 232              	DMA2_Stream7_IRQHandler:
 233              	.LFB63:
 199:../src/stm32f2xx_it.c **** /**
 200:../src/stm32f2xx_it.c ****   * @brief  This function handles DMA interrupt request.
 201:../src/stm32f2xx_it.c ****   * @param  None
 202:../src/stm32f2xx_it.c ****   * @retval None
 203:../src/stm32f2xx_it.c ****   * @Note   This function is redefined in "main.h" and related to DMA stream
 204:../src/stm32f2xx_it.c ****   *         used for USART data reception
 205:../src/stm32f2xx_it.c ****   */
 206:../src/stm32f2xx_it.c **** void USARTx_DMA_TX_IRQHandler(void)
 207:../src/stm32f2xx_it.c **** {
 234              		.loc 1 207 0
 235              		.cfi_startproc
 236              		@ args = 0, pretend = 0, frame = 0
 237              		@ frame_needed = 1, uses_anonymous_args = 0
 238 0074 80B5     		push	{r7, lr}
 239              		.cfi_def_cfa_offset 8
 240              		.cfi_offset 7, -8
 241              		.cfi_offset 14, -4
 242 0076 00AF     		add	r7, sp, #0
 243              		.cfi_def_cfa_register 7
 208:../src/stm32f2xx_it.c ****   LED_Toggle(LED3);
 244              		.loc 1 208 0
 245 0078 0320     		movs	r0, #3
 246 007a FFF7FEFF 		bl	LED_Toggle
 209:../src/stm32f2xx_it.c ****   TST_High(TST1);
 247              		.loc 1 209 0
 248 007e 0020     		movs	r0, #0
 249 0080 FFF7FEFF 		bl	TST_High
 210:../src/stm32f2xx_it.c ****   HAL_DMA_IRQHandler(UartHandle.hdmatx);
 250              		.loc 1 210 0
 251 0084 40F20003 		movw	r3, #:lower16:UartHandle
 252 0088 C0F20003 		movt	r3, #:upper16:UartHandle
 253 008c 1B6B     		ldr	r3, [r3, #48]
 254 008e 1846     		mov	r0, r3
 255 0090 FFF7FEFF 		bl	HAL_DMA_IRQHandler
 211:../src/stm32f2xx_it.c ****   TST_Low(TST1);
 256              		.loc 1 211 0
 257 0094 0020     		movs	r0, #0
 258 0096 FFF7FEFF 		bl	TST_Low
 212:../src/stm32f2xx_it.c **** 
 213:../src/stm32f2xx_it.c **** }
 259              		.loc 1 213 0
 260 009a 80BD     		pop	{r7, pc}
 261              		.cfi_endproc
 262              	.LFE63:
 264              		.align	2
 265              		.global	DMA2_Stream5_IRQHandler
 266              		.thumb
 267              		.thumb_func
 269              	DMA2_Stream5_IRQHandler:
 270              	.LFB64:
 214:../src/stm32f2xx_it.c **** 
 215:../src/stm32f2xx_it.c **** void USARTx_DMA_RX_IRQHandler(void)
 216:../src/stm32f2xx_it.c **** {
 271              		.loc 1 216 0
 272              		.cfi_startproc
 273              		@ args = 0, pretend = 0, frame = 0
 274              		@ frame_needed = 1, uses_anonymous_args = 0
 275 009c 80B5     		push	{r7, lr}
 276              		.cfi_def_cfa_offset 8
 277              		.cfi_offset 7, -8
 278              		.cfi_offset 14, -4
 279 009e 00AF     		add	r7, sp, #0
 280              		.cfi_def_cfa_register 7
 217:../src/stm32f2xx_it.c **** //	TST_High(TST3);
 218:../src/stm32f2xx_it.c ****   HAL_DMA_IRQHandler(UartHandle.hdmarx);
 281              		.loc 1 218 0
 282 00a0 40F20003 		movw	r3, #:lower16:UartHandle
 283 00a4 C0F20003 		movt	r3, #:upper16:UartHandle
 284 00a8 5B6B     		ldr	r3, [r3, #52]
 285 00aa 1846     		mov	r0, r3
 286 00ac FFF7FEFF 		bl	HAL_DMA_IRQHandler
 219:../src/stm32f2xx_it.c **** }
 287              		.loc 1 219 0
 288 00b0 80BD     		pop	{r7, pc}
 289              		.cfi_endproc
 290              	.LFE64:
 292 00b2 00BF     		.align	2
 293              		.global	SPIx_DMA_RX_IRQHandler
 294              		.thumb
 295              		.thumb_func
 297              	SPIx_DMA_RX_IRQHandler:
 298              	.LFB65:
 220:../src/stm32f2xx_it.c **** 
 221:../src/stm32f2xx_it.c **** 
 222:../src/stm32f2xx_it.c **** /**
 223:../src/stm32f2xx_it.c ****   * @brief  This function handles DMA Rx interrupt request.
 224:../src/stm32f2xx_it.c ****   * @param  None
 225:../src/stm32f2xx_it.c ****   * @retval None
 226:../src/stm32f2xx_it.c ****   */
 227:../src/stm32f2xx_it.c **** void SPIx_DMA_RX_IRQHandler(void)
 228:../src/stm32f2xx_it.c **** {
 299              		.loc 1 228 0
 300              		.cfi_startproc
 301              		@ args = 0, pretend = 0, frame = 0
 302              		@ frame_needed = 1, uses_anonymous_args = 0
 303              		@ link register save eliminated.
 304 00b4 80B4     		push	{r7}
 305              		.cfi_def_cfa_offset 4
 306              		.cfi_offset 7, -4
 307 00b6 00AF     		add	r7, sp, #0
 308              		.cfi_def_cfa_register 7
 229:../src/stm32f2xx_it.c **** 
 230:../src/stm32f2xx_it.c **** //  HAL_DMA_IRQHandler(SpiHandle.hdmarx);
 231:../src/stm32f2xx_it.c **** //	HAL_DMA_IRQHandler(uSdHandle.hdmarx);
 232:../src/stm32f2xx_it.c **** }
 309              		.loc 1 232 0
 310 00b8 BD46     		mov	sp, r7
 311              		@ sp needed
 312 00ba 5DF8047B 		ldr	r7, [sp], #4
 313 00be 7047     		bx	lr
 314              		.cfi_endproc
 315              	.LFE65:
 317              		.align	2
 318              		.global	SPIx_DMA_TX_IRQHandler
 319              		.thumb
 320              		.thumb_func
 322              	SPIx_DMA_TX_IRQHandler:
 323              	.LFB66:
 233:../src/stm32f2xx_it.c **** 
 234:../src/stm32f2xx_it.c **** /**
 235:../src/stm32f2xx_it.c ****   * @brief  This function handles DMA Tx interrupt request.
 236:../src/stm32f2xx_it.c ****   * @param  None
 237:../src/stm32f2xx_it.c ****   * @retval None
 238:../src/stm32f2xx_it.c ****   */
 239:../src/stm32f2xx_it.c **** void SPIx_DMA_TX_IRQHandler(void)
 240:../src/stm32f2xx_it.c **** {
 324              		.loc 1 240 0
 325              		.cfi_startproc
 326              		@ args = 0, pretend = 0, frame = 0
 327              		@ frame_needed = 1, uses_anonymous_args = 0
 328              		@ link register save eliminated.
 329 00c0 80B4     		push	{r7}
 330              		.cfi_def_cfa_offset 4
 331              		.cfi_offset 7, -4
 332 00c2 00AF     		add	r7, sp, #0
 333              		.cfi_def_cfa_register 7
 241:../src/stm32f2xx_it.c **** //  HAL_DMA_IRQHandler(SpiHandle.hdmatx);
 242:../src/stm32f2xx_it.c **** //	HAL_DMA_IRQHandler(uSdHandle.hdmatx);
 243:../src/stm32f2xx_it.c **** 
 244:../src/stm32f2xx_it.c **** }
 334              		.loc 1 244 0
 335 00c4 BD46     		mov	sp, r7
 336              		@ sp needed
 337 00c6 5DF8047B 		ldr	r7, [sp], #4
 338 00ca 7047     		bx	lr
 339              		.cfi_endproc
 340              	.LFE66:
 342              		.align	2
 343              		.global	ADCTS_IRQHandler
 344              		.thumb
 345              		.thumb_func
 347              	ADCTS_IRQHandler:
 348              	.LFB67:
 245:../src/stm32f2xx_it.c **** 
 246:../src/stm32f2xx_it.c **** /**
 247:../src/stm32f2xx_it.c ****   * @brief  This function handles ADC interrupt request.
 248:../src/stm32f2xx_it.c ****   * @param  None
 249:../src/stm32f2xx_it.c ****   * @retval None
 250:../src/stm32f2xx_it.c ****   */
 251:../src/stm32f2xx_it.c **** void ADCTS_IRQHandler(void)
 252:../src/stm32f2xx_it.c **** {
 349              		.loc 1 252 0
 350              		.cfi_startproc
 351              		@ args = 0, pretend = 0, frame = 0
 352              		@ frame_needed = 1, uses_anonymous_args = 0
 353              		@ link register save eliminated.
 354 00cc 80B4     		push	{r7}
 355              		.cfi_def_cfa_offset 4
 356              		.cfi_offset 7, -4
 357 00ce 00AF     		add	r7, sp, #0
 358              		.cfi_def_cfa_register 7
 253:../src/stm32f2xx_it.c **** //  HAL_ADC_IRQHandler(&AdcHandle);
 254:../src/stm32f2xx_it.c **** //  printf("HAL_ADC_IRQHandler\n");
 255:../src/stm32f2xx_it.c **** 
 256:../src/stm32f2xx_it.c **** }
 359              		.loc 1 256 0
 360 00d0 BD46     		mov	sp, r7
 361              		@ sp needed
 362 00d2 5DF8047B 		ldr	r7, [sp], #4
 363 00d6 7047     		bx	lr
 364              		.cfi_endproc
 365              	.LFE67:
 367              		.align	2
 368              		.global	ADCTS_DMA_IRQHandler
 369              		.thumb
 370              		.thumb_func
 372              	ADCTS_DMA_IRQHandler:
 373              	.LFB68:
 257:../src/stm32f2xx_it.c **** /**
 258:../src/stm32f2xx_it.c **** * @brief  This function handles DMA interrupt request.
 259:../src/stm32f2xx_it.c **** * @param  None
 260:../src/stm32f2xx_it.c **** * @retval None
 261:../src/stm32f2xx_it.c **** */
 262:../src/stm32f2xx_it.c **** void ADCTS_DMA_IRQHandler(void)
 263:../src/stm32f2xx_it.c **** {
 374              		.loc 1 263 0
 375              		.cfi_startproc
 376              		@ args = 0, pretend = 0, frame = 0
 377              		@ frame_needed = 1, uses_anonymous_args = 0
 378              		@ link register save eliminated.
 379 00d8 80B4     		push	{r7}
 380              		.cfi_def_cfa_offset 4
 381              		.cfi_offset 7, -4
 382 00da 00AF     		add	r7, sp, #0
 383              		.cfi_def_cfa_register 7
 264:../src/stm32f2xx_it.c **** //  HAL_DMA_IRQHandler(AdcHandle.DMA_Handle);
 265:../src/stm32f2xx_it.c ****  // printf("ADCTS_DMA_IRQHandler\n");
 266:../src/stm32f2xx_it.c **** }
 384              		.loc 1 266 0
 385 00dc BD46     		mov	sp, r7
 386              		@ sp needed
 387 00de 5DF8047B 		ldr	r7, [sp], #4
 388 00e2 7047     		bx	lr
 389              		.cfi_endproc
 390              	.LFE68:
 392              		.align	2
 393              		.global	DMA2_Stream3_IRQHandler
 394              		.thumb
 395              		.thumb_func
 397              	DMA2_Stream3_IRQHandler:
 398              	.LFB69:
 267:../src/stm32f2xx_it.c **** 
 268:../src/stm32f2xx_it.c **** 
 269:../src/stm32f2xx_it.c **** /**
 270:../src/stm32f2xx_it.c ****   * @brief  This function handles DMA2 Stream 3 interrupt request.
 271:../src/stm32f2xx_it.c ****   * @param  None
 272:../src/stm32f2xx_it.c ****   * @retval None
 273:../src/stm32f2xx_it.c ****   */
 274:../src/stm32f2xx_it.c **** void DMA2_Stream3_IRQHandler(void)
 275:../src/stm32f2xx_it.c **** {
 399              		.loc 1 275 0
 400              		.cfi_startproc
 401              		@ args = 0, pretend = 0, frame = 0
 402              		@ frame_needed = 1, uses_anonymous_args = 0
 403 00e4 80B5     		push	{r7, lr}
 404              		.cfi_def_cfa_offset 8
 405              		.cfi_offset 7, -8
 406              		.cfi_offset 14, -4
 407 00e6 00AF     		add	r7, sp, #0
 408              		.cfi_def_cfa_register 7
 276:../src/stm32f2xx_it.c ****   LED_High(LED0);
 409              		.loc 1 276 0
 410 00e8 0020     		movs	r0, #0
 411 00ea FFF7FEFF 		bl	LED_High
 277:../src/stm32f2xx_it.c **** //  HAL_DMA_IRQHandler(uSdHandle.hdmarx);
 278:../src/stm32f2xx_it.c ****   BSP_SD_DMA_Rx_IRQHandler();
 412              		.loc 1 278 0
 413 00ee FFF7FEFF 		bl	BSP_SD_DMA_Rx_IRQHandler
 279:../src/stm32f2xx_it.c **** }
 414              		.loc 1 279 0
 415 00f2 80BD     		pop	{r7, pc}
 416              		.cfi_endproc
 417              	.LFE69:
 419              		.align	2
 420              		.global	DMA2_Stream6_IRQHandler
 421              		.thumb
 422              		.thumb_func
 424              	DMA2_Stream6_IRQHandler:
 425              	.LFB70:
 280:../src/stm32f2xx_it.c **** 
 281:../src/stm32f2xx_it.c **** /**
 282:../src/stm32f2xx_it.c ****   * @brief  This function handles DMA2 Stream 6 interrupt request.
 283:../src/stm32f2xx_it.c ****   * @param  None
 284:../src/stm32f2xx_it.c ****   * @retval None
 285:../src/stm32f2xx_it.c ****   */
 286:../src/stm32f2xx_it.c **** void DMA2_Stream6_IRQHandler(void)
 287:../src/stm32f2xx_it.c **** {
 426              		.loc 1 287 0
 427              		.cfi_startproc
 428              		@ args = 0, pretend = 0, frame = 0
 429              		@ frame_needed = 1, uses_anonymous_args = 0
 430 00f4 80B5     		push	{r7, lr}
 431              		.cfi_def_cfa_offset 8
 432              		.cfi_offset 7, -8
 433              		.cfi_offset 14, -4
 434 00f6 00AF     		add	r7, sp, #0
 435              		.cfi_def_cfa_register 7
 288:../src/stm32f2xx_it.c ****    LED_High(LED1);
 436              		.loc 1 288 0
 437 00f8 0120     		movs	r0, #1
 438 00fa FFF7FEFF 		bl	LED_High
 289:../src/stm32f2xx_it.c **** //   HAL_DMA_IRQHandler(uSdHandle.hdmatx);
 290:../src/stm32f2xx_it.c ****   BSP_SD_DMA_Tx_IRQHandler();
 439              		.loc 1 290 0
 440 00fe FFF7FEFF 		bl	BSP_SD_DMA_Tx_IRQHandler
 291:../src/stm32f2xx_it.c **** }
 441              		.loc 1 291 0
 442 0102 80BD     		pop	{r7, pc}
 443              		.cfi_endproc
 444              	.LFE70:
 446              		.align	2
 447              		.global	SDIO_IRQHandler
 448              		.thumb
 449              		.thumb_func
 451              	SDIO_IRQHandler:
 452              	.LFB71:
 292:../src/stm32f2xx_it.c **** 
 293:../src/stm32f2xx_it.c **** /**
 294:../src/stm32f2xx_it.c ****   * @brief  This function handles SDIO interrupt request.
 295:../src/stm32f2xx_it.c ****   * @param  None
 296:../src/stm32f2xx_it.c ****   * @retval None
 297:../src/stm32f2xx_it.c ****   */
 298:../src/stm32f2xx_it.c **** void SDIO_IRQHandler(void)
 299:../src/stm32f2xx_it.c **** {
 453              		.loc 1 299 0
 454              		.cfi_startproc
 455              		@ args = 0, pretend = 0, frame = 0
 456              		@ frame_needed = 1, uses_anonymous_args = 0
 457 0104 80B5     		push	{r7, lr}
 458              		.cfi_def_cfa_offset 8
 459              		.cfi_offset 7, -8
 460              		.cfi_offset 14, -4
 461 0106 00AF     		add	r7, sp, #0
 462              		.cfi_def_cfa_register 7
 300:../src/stm32f2xx_it.c ****   LED_High(LED2);
 463              		.loc 1 300 0
 464 0108 0220     		movs	r0, #2
 465 010a FFF7FEFF 		bl	LED_High
 301:../src/stm32f2xx_it.c **** //  HAL_SD_IRQHandler(&uSdHandle);		//&uSdHandle
 302:../src/stm32f2xx_it.c ****   BSP_SD_IRQHandler();
 466              		.loc 1 302 0
 467 010e FFF7FEFF 		bl	BSP_SD_IRQHandler
 303:../src/stm32f2xx_it.c ****  // SD_ProcessIRQSrc ();
 304:../src/stm32f2xx_it.c **** }
 468              		.loc 1 304 0
 469 0112 80BD     		pop	{r7, pc}
 470              		.cfi_endproc
 471              	.LFE71:
 473              	.Letext0:
 474              		.file 2 "c:\\program files (x86)\\codesourcery\\arm-none-eabi\\include\\stdint.h"
 475              		.file 3 "D:\\workspace\\console800480\\system/stm32f217xx.h"
 476              		.file 4 "D:\\workspace\\console800480\\STM32F2xx_HAL_Driver\\Inc/stm32f2xx_hal_def.h"
 477              		.file 5 "D:\\workspace\\console800480\\STM32F2xx_HAL_Driver\\Inc/stm32f2xx_hal_dma.h"
 478              		.file 6 "D:\\workspace\\console800480\\STM32F2xx_HAL_Driver\\Inc/stm32f2xx_ll_sdmmc.h"
 479              		.file 7 "D:\\workspace\\console800480\\STM32F2xx_HAL_Driver\\Inc/stm32f2xx_hal_sd.h"
 480              		.file 8 "D:\\workspace\\console800480\\STM32F2xx_HAL_Driver\\Inc/stm32f2xx_hal_uart.h"
 481              		.file 9 "D:\\workspace\\console800480\\STM32F2xx_HAL_Driver\\Inc/stm32f2xx_ll_usb.h"
 482              		.file 10 "D:\\workspace\\console800480\\STM32F2xx_HAL_Driver\\Inc/stm32f2xx_hal_pcd.h"
 483              		.file 11 "D:\\workspace\\console800480\\STM32F2xx_HAL_Driver\\Inc/stm32f2xx_hal_hcd.h"
 484              		.file 12 "../src/LEDs.h"
 485              		.file 13 "D:\\workspace\\console800480\\system/core_cm3.h"
 486              		.file 14 "D:\\workspace\\console800480/main.h"