   1              		.syntax unified
   2              		.cpu cortex-m3
   3              		.fpu softvfp
   4              		.eabi_attribute 20, 1
   5              		.eabi_attribute 21, 1
   6              		.eabi_attribute 23, 3
   7              		.eabi_attribute 24, 1
   8              		.eabi_attribute 25, 1
   9              		.eabi_attribute 26, 1
  10              		.eabi_attribute 30, 6
  11              		.eabi_attribute 34, 1
  12              		.eabi_attribute 18, 4
  13              		.thumb
  14              		.file	"stm32f2xx_hal_pcd.c"
  15              		.text
  16              	.Ltext0:
  17              		.cfi_sections	.debug_frame
  18              		.align	2
  19              		.global	HAL_PCD_Init
  20              		.thumb
  21              		.thumb_func
  23              	HAL_PCD_Init:
  24              	.LFB55:
  25              		.file 1 "../STM32F2xx_HAL_Driver/Src/stm32f2xx_hal_pcd.c"
   1:../STM32F2xx_HAL_Driver/Src/stm32f2xx_hal_pcd.c **** /**
   2:../STM32F2xx_HAL_Driver/Src/stm32f2xx_hal_pcd.c ****   ******************************************************************************
   3:../STM32F2xx_HAL_Driver/Src/stm32f2xx_hal_pcd.c ****   * @file    stm32f2xx_hal_pcd.c
   4:../STM32F2xx_HAL_Driver/Src/stm32f2xx_hal_pcd.c ****   * @author  MCD Application Team
   5:../STM32F2xx_HAL_Driver/Src/stm32f2xx_hal_pcd.c ****   * @version V1.0.1
   6:../STM32F2xx_HAL_Driver/Src/stm32f2xx_hal_pcd.c ****   * @date    25-March-2014
   7:../STM32F2xx_HAL_Driver/Src/stm32f2xx_hal_pcd.c ****   * @brief   PCD HAL module driver.
   8:../STM32F2xx_HAL_Driver/Src/stm32f2xx_hal_pcd.c ****   *          This file provides firmware functions to manage the following 
   9:../STM32F2xx_HAL_Driver/Src/stm32f2xx_hal_pcd.c ****   *          functionalities of the USB Peripheral Controller:
  10:../STM32F2xx_HAL_Driver/Src/stm32f2xx_hal_pcd.c ****   *           + Initialization and de-initialization functions
  11:../STM32F2xx_HAL_Driver/Src/stm32f2xx_hal_pcd.c ****   *           + IO operation functions
  12:../STM32F2xx_HAL_Driver/Src/stm32f2xx_hal_pcd.c ****   *           + Peripheral Control functions 
  13:../STM32F2xx_HAL_Driver/Src/stm32f2xx_hal_pcd.c ****   *           + Peripheral State functions
  14:../STM32F2xx_HAL_Driver/Src/stm32f2xx_hal_pcd.c ****   *         
  15:../STM32F2xx_HAL_Driver/Src/stm32f2xx_hal_pcd.c ****   @verbatim
  16:../STM32F2xx_HAL_Driver/Src/stm32f2xx_hal_pcd.c ****   ==============================================================================
  17:../STM32F2xx_HAL_Driver/Src/stm32f2xx_hal_pcd.c ****                     ##### How to use this driver #####
  18:../STM32F2xx_HAL_Driver/Src/stm32f2xx_hal_pcd.c ****   ==============================================================================
  19:../STM32F2xx_HAL_Driver/Src/stm32f2xx_hal_pcd.c ****     [..]
  20:../STM32F2xx_HAL_Driver/Src/stm32f2xx_hal_pcd.c ****       The PCD HAL driver can be used as follows:
  21:../STM32F2xx_HAL_Driver/Src/stm32f2xx_hal_pcd.c **** 
  22:../STM32F2xx_HAL_Driver/Src/stm32f2xx_hal_pcd.c ****      (#) Declare a PCD_HandleTypeDef handle structure, for example:
  23:../STM32F2xx_HAL_Driver/Src/stm32f2xx_hal_pcd.c ****          PCD_HandleTypeDef  hpcd;
  24:../STM32F2xx_HAL_Driver/Src/stm32f2xx_hal_pcd.c ****         
  25:../STM32F2xx_HAL_Driver/Src/stm32f2xx_hal_pcd.c ****      (#) Fill parameters of Init structure in HCD handle
  26:../STM32F2xx_HAL_Driver/Src/stm32f2xx_hal_pcd.c ****   
  27:../STM32F2xx_HAL_Driver/Src/stm32f2xx_hal_pcd.c ****      (#) Call HAL_PCD_Init() API to initialize the HCD peripheral (Core, Device core, ...) 
  28:../STM32F2xx_HAL_Driver/Src/stm32f2xx_hal_pcd.c **** 
  29:../STM32F2xx_HAL_Driver/Src/stm32f2xx_hal_pcd.c ****      (#) Initialize the PCD low level resources through the HAL_PCD_MspInit() API:
  30:../STM32F2xx_HAL_Driver/Src/stm32f2xx_hal_pcd.c ****          (##) Enable the PCD/USB Low Level interface clock using 
  31:../STM32F2xx_HAL_Driver/Src/stm32f2xx_hal_pcd.c ****               (+++) __OTGFS-OTG_CLK_ENABLE()/__OTGHS-OTG_CLK_ENABLE();
  32:../STM32F2xx_HAL_Driver/Src/stm32f2xx_hal_pcd.c ****               (+++) __OTGHSULPI_CLK_ENABLE(); (For High Speed Mode)
  33:../STM32F2xx_HAL_Driver/Src/stm32f2xx_hal_pcd.c ****            
  34:../STM32F2xx_HAL_Driver/Src/stm32f2xx_hal_pcd.c ****          (##) Initialize the related GPIO clocks
  35:../STM32F2xx_HAL_Driver/Src/stm32f2xx_hal_pcd.c ****          (##) Configure PCD pin-out
  36:../STM32F2xx_HAL_Driver/Src/stm32f2xx_hal_pcd.c ****          (##) Configure PCD NVIC interrupt
  37:../STM32F2xx_HAL_Driver/Src/stm32f2xx_hal_pcd.c ****     
  38:../STM32F2xx_HAL_Driver/Src/stm32f2xx_hal_pcd.c ****      (#)Associate the Upper USB device stack to the HAL PCD Driver:
  39:../STM32F2xx_HAL_Driver/Src/stm32f2xx_hal_pcd.c ****          (##) hpcd.pData = pdev;
  40:../STM32F2xx_HAL_Driver/Src/stm32f2xx_hal_pcd.c **** 
  41:../STM32F2xx_HAL_Driver/Src/stm32f2xx_hal_pcd.c ****      (#)Enable HCD transmission and reception:
  42:../STM32F2xx_HAL_Driver/Src/stm32f2xx_hal_pcd.c ****          (##) HAL_PCD_Start();
  43:../STM32F2xx_HAL_Driver/Src/stm32f2xx_hal_pcd.c **** 
  44:../STM32F2xx_HAL_Driver/Src/stm32f2xx_hal_pcd.c ****   @endverbatim
  45:../STM32F2xx_HAL_Driver/Src/stm32f2xx_hal_pcd.c ****   ******************************************************************************
  46:../STM32F2xx_HAL_Driver/Src/stm32f2xx_hal_pcd.c ****   * @attention
  47:../STM32F2xx_HAL_Driver/Src/stm32f2xx_hal_pcd.c ****   *
  48:../STM32F2xx_HAL_Driver/Src/stm32f2xx_hal_pcd.c ****   * <h2><center>&copy; COPYRIGHT(c) 2014 STMicroelectronics</center></h2>
  49:../STM32F2xx_HAL_Driver/Src/stm32f2xx_hal_pcd.c ****   *
  50:../STM32F2xx_HAL_Driver/Src/stm32f2xx_hal_pcd.c ****   * Redistribution and use in source and binary forms, with or without modification,
  51:../STM32F2xx_HAL_Driver/Src/stm32f2xx_hal_pcd.c ****   * are permitted provided that the following conditions are met:
  52:../STM32F2xx_HAL_Driver/Src/stm32f2xx_hal_pcd.c ****   *   1. Redistributions of source code must retain the above copyright notice,
  53:../STM32F2xx_HAL_Driver/Src/stm32f2xx_hal_pcd.c ****   *      this list of conditions and the following disclaimer.
  54:../STM32F2xx_HAL_Driver/Src/stm32f2xx_hal_pcd.c ****   *   2. Redistributions in binary form must reproduce the above copyright notice,
  55:../STM32F2xx_HAL_Driver/Src/stm32f2xx_hal_pcd.c ****   *      this list of conditions and the following disclaimer in the documentation
  56:../STM32F2xx_HAL_Driver/Src/stm32f2xx_hal_pcd.c ****   *      and/or other materials provided with the distribution.
  57:../STM32F2xx_HAL_Driver/Src/stm32f2xx_hal_pcd.c ****   *   3. Neither the name of STMicroelectronics nor the names of its contributors
  58:../STM32F2xx_HAL_Driver/Src/stm32f2xx_hal_pcd.c ****   *      may be used to endorse or promote products derived from this software
  59:../STM32F2xx_HAL_Driver/Src/stm32f2xx_hal_pcd.c ****   *      without specific prior written permission.
  60:../STM32F2xx_HAL_Driver/Src/stm32f2xx_hal_pcd.c ****   *
  61:../STM32F2xx_HAL_Driver/Src/stm32f2xx_hal_pcd.c ****   * THIS SOFTWARE IS PROVIDED BY THE COPYRIGHT HOLDERS AND CONTRIBUTORS "AS IS"
  62:../STM32F2xx_HAL_Driver/Src/stm32f2xx_hal_pcd.c ****   * AND ANY EXPRESS OR IMPLIED WARRANTIES, INCLUDING, BUT NOT LIMITED TO, THE
  63:../STM32F2xx_HAL_Driver/Src/stm32f2xx_hal_pcd.c ****   * IMPLIED WARRANTIES OF MERCHANTABILITY AND FITNESS FOR A PARTICULAR PURPOSE ARE
  64:../STM32F2xx_HAL_Driver/Src/stm32f2xx_hal_pcd.c ****   * DISCLAIMED. IN NO EVENT SHALL THE COPYRIGHT HOLDER OR CONTRIBUTORS BE LIABLE
  65:../STM32F2xx_HAL_Driver/Src/stm32f2xx_hal_pcd.c ****   * FOR ANY DIRECT, INDIRECT, INCIDENTAL, SPECIAL, EXEMPLARY, OR CONSEQUENTIAL
  66:../STM32F2xx_HAL_Driver/Src/stm32f2xx_hal_pcd.c ****   * DAMAGES (INCLUDING, BUT NOT LIMITED TO, PROCUREMENT OF SUBSTITUTE GOODS OR
  67:../STM32F2xx_HAL_Driver/Src/stm32f2xx_hal_pcd.c ****   * SERVICES; LOSS OF USE, DATA, OR PROFITS; OR BUSINESS INTERRUPTION) HOWEVER
  68:../STM32F2xx_HAL_Driver/Src/stm32f2xx_hal_pcd.c ****   * CAUSED AND ON ANY THEORY OF LIABILITY, WHETHER IN CONTRACT, STRICT LIABILITY,
  69:../STM32F2xx_HAL_Driver/Src/stm32f2xx_hal_pcd.c ****   * OR TORT (INCLUDING NEGLIGENCE OR OTHERWISE) ARISING IN ANY WAY OUT OF THE USE
  70:../STM32F2xx_HAL_Driver/Src/stm32f2xx_hal_pcd.c ****   * OF THIS SOFTWARE, EVEN IF ADVISED OF THE POSSIBILITY OF SUCH DAMAGE.
  71:../STM32F2xx_HAL_Driver/Src/stm32f2xx_hal_pcd.c ****   *
  72:../STM32F2xx_HAL_Driver/Src/stm32f2xx_hal_pcd.c ****   ******************************************************************************
  73:../STM32F2xx_HAL_Driver/Src/stm32f2xx_hal_pcd.c ****   */ 
  74:../STM32F2xx_HAL_Driver/Src/stm32f2xx_hal_pcd.c **** 
  75:../STM32F2xx_HAL_Driver/Src/stm32f2xx_hal_pcd.c **** /* Includes ------------------------------------------------------------------*/
  76:../STM32F2xx_HAL_Driver/Src/stm32f2xx_hal_pcd.c **** #include "stm32f2xx_hal.h"
  77:../STM32F2xx_HAL_Driver/Src/stm32f2xx_hal_pcd.c **** 
  78:../STM32F2xx_HAL_Driver/Src/stm32f2xx_hal_pcd.c **** /** @addtogroup STM32F2xx_HAL_Driver
  79:../STM32F2xx_HAL_Driver/Src/stm32f2xx_hal_pcd.c ****   * @{
  80:../STM32F2xx_HAL_Driver/Src/stm32f2xx_hal_pcd.c ****   */
  81:../STM32F2xx_HAL_Driver/Src/stm32f2xx_hal_pcd.c **** 
  82:../STM32F2xx_HAL_Driver/Src/stm32f2xx_hal_pcd.c **** /** @defgroup PCD 
  83:../STM32F2xx_HAL_Driver/Src/stm32f2xx_hal_pcd.c ****   * @brief PCD HAL module driver
  84:../STM32F2xx_HAL_Driver/Src/stm32f2xx_hal_pcd.c ****   * @{
  85:../STM32F2xx_HAL_Driver/Src/stm32f2xx_hal_pcd.c ****   */
  86:../STM32F2xx_HAL_Driver/Src/stm32f2xx_hal_pcd.c **** 
  87:../STM32F2xx_HAL_Driver/Src/stm32f2xx_hal_pcd.c **** #ifdef HAL_PCD_MODULE_ENABLED
  88:../STM32F2xx_HAL_Driver/Src/stm32f2xx_hal_pcd.c **** 
  89:../STM32F2xx_HAL_Driver/Src/stm32f2xx_hal_pcd.c **** /* Private typedef -----------------------------------------------------------*/
  90:../STM32F2xx_HAL_Driver/Src/stm32f2xx_hal_pcd.c **** /* Private define ------------------------------------------------------------*/
  91:../STM32F2xx_HAL_Driver/Src/stm32f2xx_hal_pcd.c **** /* Private macro -------------------------------------------------------------*/
  92:../STM32F2xx_HAL_Driver/Src/stm32f2xx_hal_pcd.c **** #define PCD_MIN(a, b)  (((a) < (b)) ? (a) : (b))
  93:../STM32F2xx_HAL_Driver/Src/stm32f2xx_hal_pcd.c **** #define PCD_MAX(a, b)  (((a) > (b)) ? (a) : (b))
  94:../STM32F2xx_HAL_Driver/Src/stm32f2xx_hal_pcd.c **** /* Private variables ---------------------------------------------------------*/
  95:../STM32F2xx_HAL_Driver/Src/stm32f2xx_hal_pcd.c **** /* Private function prototypes -----------------------------------------------*/
  96:../STM32F2xx_HAL_Driver/Src/stm32f2xx_hal_pcd.c **** static HAL_StatusTypeDef PCD_WriteEmptyTxFifo(PCD_HandleTypeDef *hpcd, uint32_t epnum);
  97:../STM32F2xx_HAL_Driver/Src/stm32f2xx_hal_pcd.c **** /* Private functions ---------------------------------------------------------*/
  98:../STM32F2xx_HAL_Driver/Src/stm32f2xx_hal_pcd.c **** 
  99:../STM32F2xx_HAL_Driver/Src/stm32f2xx_hal_pcd.c **** /** @defgroup PCD_Private_Functions
 100:../STM32F2xx_HAL_Driver/Src/stm32f2xx_hal_pcd.c ****   * @{
 101:../STM32F2xx_HAL_Driver/Src/stm32f2xx_hal_pcd.c ****   */
 102:../STM32F2xx_HAL_Driver/Src/stm32f2xx_hal_pcd.c **** 
 103:../STM32F2xx_HAL_Driver/Src/stm32f2xx_hal_pcd.c **** /** @defgroup PCD_Group1 Initialization and de-initialization functions 
 104:../STM32F2xx_HAL_Driver/Src/stm32f2xx_hal_pcd.c ****  *  @brief    Initialization and Configuration functions 
 105:../STM32F2xx_HAL_Driver/Src/stm32f2xx_hal_pcd.c ****  *
 106:../STM32F2xx_HAL_Driver/Src/stm32f2xx_hal_pcd.c **** @verbatim    
 107:../STM32F2xx_HAL_Driver/Src/stm32f2xx_hal_pcd.c ****  ===============================================================================
 108:../STM32F2xx_HAL_Driver/Src/stm32f2xx_hal_pcd.c ****             ##### Initialization and de-initialization functions #####
 109:../STM32F2xx_HAL_Driver/Src/stm32f2xx_hal_pcd.c ****  ===============================================================================
 110:../STM32F2xx_HAL_Driver/Src/stm32f2xx_hal_pcd.c ****     [..]  This section provides functions allowing to:
 111:../STM32F2xx_HAL_Driver/Src/stm32f2xx_hal_pcd.c ****  
 112:../STM32F2xx_HAL_Driver/Src/stm32f2xx_hal_pcd.c **** @endverbatim
 113:../STM32F2xx_HAL_Driver/Src/stm32f2xx_hal_pcd.c ****   * @{
 114:../STM32F2xx_HAL_Driver/Src/stm32f2xx_hal_pcd.c ****   */
 115:../STM32F2xx_HAL_Driver/Src/stm32f2xx_hal_pcd.c **** 
 116:../STM32F2xx_HAL_Driver/Src/stm32f2xx_hal_pcd.c **** /**
 117:../STM32F2xx_HAL_Driver/Src/stm32f2xx_hal_pcd.c ****   * @brief  Initializes the PCD according to the specified
 118:../STM32F2xx_HAL_Driver/Src/stm32f2xx_hal_pcd.c ****   *         parameters in the PCD_InitTypeDef and create the associated handle.
 119:../STM32F2xx_HAL_Driver/Src/stm32f2xx_hal_pcd.c ****   * @param  hpcd: PCD handle
 120:../STM32F2xx_HAL_Driver/Src/stm32f2xx_hal_pcd.c ****   * @retval HAL status
 121:../STM32F2xx_HAL_Driver/Src/stm32f2xx_hal_pcd.c ****   */
 122:../STM32F2xx_HAL_Driver/Src/stm32f2xx_hal_pcd.c **** HAL_StatusTypeDef HAL_PCD_Init(PCD_HandleTypeDef *hpcd)
 123:../STM32F2xx_HAL_Driver/Src/stm32f2xx_hal_pcd.c **** { 
  26              		.loc 1 123 0
  27              		.cfi_startproc
  28              		@ args = 0, pretend = 0, frame = 16
  29              		@ frame_needed = 1, uses_anonymous_args = 0
  30 0000 F0B5     		push	{r4, r5, r6, r7, lr}
  31              		.cfi_def_cfa_offset 20
  32              		.cfi_offset 4, -20
  33              		.cfi_offset 5, -16
  34              		.cfi_offset 6, -12
  35              		.cfi_offset 7, -8
  36              		.cfi_offset 14, -4
  37 0002 8DB0     		sub	sp, sp, #52
  38              		.cfi_def_cfa_offset 72
  39 0004 08AF     		add	r7, sp, #32
  40              		.cfi_def_cfa 7, 40
  41 0006 7860     		str	r0, [r7, #4]
 124:../STM32F2xx_HAL_Driver/Src/stm32f2xx_hal_pcd.c ****   uint32_t i = 0;
  42              		.loc 1 124 0
  43 0008 0023     		movs	r3, #0
  44 000a FB60     		str	r3, [r7, #12]
 125:../STM32F2xx_HAL_Driver/Src/stm32f2xx_hal_pcd.c ****   
 126:../STM32F2xx_HAL_Driver/Src/stm32f2xx_hal_pcd.c ****   /* Check the PCD handle allocation */
 127:../STM32F2xx_HAL_Driver/Src/stm32f2xx_hal_pcd.c ****   if(hpcd == NULL)
  45              		.loc 1 127 0
  46 000c 7B68     		ldr	r3, [r7, #4]
  47 000e 002B     		cmp	r3, #0
  48 0010 01D1     		bne	.L2
 128:../STM32F2xx_HAL_Driver/Src/stm32f2xx_hal_pcd.c ****   {
 129:../STM32F2xx_HAL_Driver/Src/stm32f2xx_hal_pcd.c ****     return HAL_ERROR;
  49              		.loc 1 129 0
  50 0012 0123     		movs	r3, #1
  51 0014 F3E0     		b	.L3
  52              	.L2:
 130:../STM32F2xx_HAL_Driver/Src/stm32f2xx_hal_pcd.c ****   }
 131:../STM32F2xx_HAL_Driver/Src/stm32f2xx_hal_pcd.c ****   
 132:../STM32F2xx_HAL_Driver/Src/stm32f2xx_hal_pcd.c ****   /* Check the parameters */
 133:../STM32F2xx_HAL_Driver/Src/stm32f2xx_hal_pcd.c ****   assert_param(IS_PCD_ALL_INSTANCE(hpcd->Instance));
 134:../STM32F2xx_HAL_Driver/Src/stm32f2xx_hal_pcd.c **** 
 135:../STM32F2xx_HAL_Driver/Src/stm32f2xx_hal_pcd.c ****   hpcd->State = PCD_BUSY;
  53              		.loc 1 135 0
  54 0016 7B68     		ldr	r3, [r7, #4]
  55 0018 0222     		movs	r2, #2
  56 001a 83F87923 		strb	r2, [r3, #889]
 136:../STM32F2xx_HAL_Driver/Src/stm32f2xx_hal_pcd.c ****   
 137:../STM32F2xx_HAL_Driver/Src/stm32f2xx_hal_pcd.c ****   /* Init the low level hardware : GPIO, CLOCK, NVIC... */
 138:../STM32F2xx_HAL_Driver/Src/stm32f2xx_hal_pcd.c ****   HAL_PCD_MspInit(hpcd);
  57              		.loc 1 138 0
  58 001e 7868     		ldr	r0, [r7, #4]
  59 0020 FFF7FEFF 		bl	HAL_PCD_MspInit
 139:../STM32F2xx_HAL_Driver/Src/stm32f2xx_hal_pcd.c **** 
 140:../STM32F2xx_HAL_Driver/Src/stm32f2xx_hal_pcd.c ****   /* Disable the Interrupts */
 141:../STM32F2xx_HAL_Driver/Src/stm32f2xx_hal_pcd.c ****  __HAL_PCD_DISABLE(hpcd);
  60              		.loc 1 141 0
  61 0024 7B68     		ldr	r3, [r7, #4]
  62 0026 1B68     		ldr	r3, [r3]
  63 0028 1846     		mov	r0, r3
  64 002a FFF7FEFF 		bl	USB_DisableGlobalInt
 142:../STM32F2xx_HAL_Driver/Src/stm32f2xx_hal_pcd.c ****  
 143:../STM32F2xx_HAL_Driver/Src/stm32f2xx_hal_pcd.c ****  /*Init the Core (common init.) */
 144:../STM32F2xx_HAL_Driver/Src/stm32f2xx_hal_pcd.c ****  USB_CoreInit(hpcd->Instance, hpcd->Init);
  65              		.loc 1 144 0
  66 002e 7B68     		ldr	r3, [r7, #4]
  67 0030 D3F800E0 		ldr	lr, [r3]
  68 0034 7E68     		ldr	r6, [r7, #4]
  69 0036 6C46     		mov	r4, sp
  70 0038 06F11005 		add	r5, r6, #16
  71 003c 0FCD     		ldmia	r5!, {r0, r1, r2, r3}
  72 003e 0FC4     		stmia	r4!, {r0, r1, r2, r3}
  73 0040 95E80F00 		ldmia	r5, {r0, r1, r2, r3}
  74 0044 84E80F00 		stmia	r4, {r0, r1, r2, r3}
  75 0048 331D     		adds	r3, r6, #4
  76 004a 0ECB     		ldmia	r3, {r1, r2, r3}
  77 004c 7046     		mov	r0, lr
  78 004e FFF7FEFF 		bl	USB_CoreInit
 145:../STM32F2xx_HAL_Driver/Src/stm32f2xx_hal_pcd.c ****  
 146:../STM32F2xx_HAL_Driver/Src/stm32f2xx_hal_pcd.c ****  /* Force Device Mode*/
 147:../STM32F2xx_HAL_Driver/Src/stm32f2xx_hal_pcd.c ****  USB_SetCurrentMode(hpcd->Instance , USB_OTG_DEVICE_MODE);
  79              		.loc 1 147 0
  80 0052 7B68     		ldr	r3, [r7, #4]
  81 0054 1B68     		ldr	r3, [r3]
  82 0056 1846     		mov	r0, r3
  83 0058 0021     		movs	r1, #0
  84 005a FFF7FEFF 		bl	USB_SetCurrentMode
 148:../STM32F2xx_HAL_Driver/Src/stm32f2xx_hal_pcd.c ****  
 149:../STM32F2xx_HAL_Driver/Src/stm32f2xx_hal_pcd.c ****  /* Init endpoints structures */
 150:../STM32F2xx_HAL_Driver/Src/stm32f2xx_hal_pcd.c ****  for (i = 0; i < 15 ; i++)
  85              		.loc 1 150 0
  86 005e 0023     		movs	r3, #0
  87 0060 FB60     		str	r3, [r7, #12]
  88 0062 4CE0     		b	.L4
  89              	.L5:
 151:../STM32F2xx_HAL_Driver/Src/stm32f2xx_hal_pcd.c ****  {
 152:../STM32F2xx_HAL_Driver/Src/stm32f2xx_hal_pcd.c ****    /* Init ep structure */
 153:../STM32F2xx_HAL_Driver/Src/stm32f2xx_hal_pcd.c ****    hpcd->IN_ep[i].is_in = 1;
  90              		.loc 1 153 0 discriminator 2
  91 0064 7968     		ldr	r1, [r7, #4]
  92 0066 FA68     		ldr	r2, [r7, #12]
  93 0068 1346     		mov	r3, r2
  94 006a DB00     		lsls	r3, r3, #3
  95 006c 9B1A     		subs	r3, r3, r2
  96 006e 9B00     		lsls	r3, r3, #2
  97 0070 0B44     		add	r3, r3, r1
  98 0072 3033     		adds	r3, r3, #48
  99 0074 0122     		movs	r2, #1
 100 0076 5A70     		strb	r2, [r3, #1]
 154:../STM32F2xx_HAL_Driver/Src/stm32f2xx_hal_pcd.c ****    hpcd->IN_ep[i].num = i;
 101              		.loc 1 154 0 discriminator 2
 102 0078 FB68     		ldr	r3, [r7, #12]
 103 007a D9B2     		uxtb	r1, r3
 104 007c 7868     		ldr	r0, [r7, #4]
 105 007e FA68     		ldr	r2, [r7, #12]
 106 0080 1346     		mov	r3, r2
 107 0082 DB00     		lsls	r3, r3, #3
 108 0084 9B1A     		subs	r3, r3, r2
 109 0086 9B00     		lsls	r3, r3, #2
 110 0088 0344     		add	r3, r3, r0
 111 008a 3033     		adds	r3, r3, #48
 112 008c 0A46     		mov	r2, r1
 113 008e 1A70     		strb	r2, [r3]
 155:../STM32F2xx_HAL_Driver/Src/stm32f2xx_hal_pcd.c ****    hpcd->IN_ep[i].tx_fifo_num = i;
 114              		.loc 1 155 0 discriminator 2
 115 0090 FB68     		ldr	r3, [r7, #12]
 116 0092 99B2     		uxth	r1, r3
 117 0094 7868     		ldr	r0, [r7, #4]
 118 0096 FA68     		ldr	r2, [r7, #12]
 119 0098 1346     		mov	r3, r2
 120 009a DB00     		lsls	r3, r3, #3
 121 009c 9B1A     		subs	r3, r3, r2
 122 009e 9B00     		lsls	r3, r3, #2
 123 00a0 0344     		add	r3, r3, r0
 124 00a2 3033     		adds	r3, r3, #48
 125 00a4 0A46     		mov	r2, r1	@ movhi
 126 00a6 DA80     		strh	r2, [r3, #6]	@ movhi
 156:../STM32F2xx_HAL_Driver/Src/stm32f2xx_hal_pcd.c ****    /* Control until ep is actvated */
 157:../STM32F2xx_HAL_Driver/Src/stm32f2xx_hal_pcd.c ****    hpcd->IN_ep[i].type = EP_TYPE_CTRL;
 127              		.loc 1 157 0 discriminator 2
 128 00a8 7968     		ldr	r1, [r7, #4]
 129 00aa FA68     		ldr	r2, [r7, #12]
 130 00ac 1346     		mov	r3, r2
 131 00ae DB00     		lsls	r3, r3, #3
 132 00b0 9B1A     		subs	r3, r3, r2
 133 00b2 9B00     		lsls	r3, r3, #2
 134 00b4 0B44     		add	r3, r3, r1
 135 00b6 3033     		adds	r3, r3, #48
 136 00b8 0022     		movs	r2, #0
 137 00ba DA70     		strb	r2, [r3, #3]
 158:../STM32F2xx_HAL_Driver/Src/stm32f2xx_hal_pcd.c ****    hpcd->IN_ep[i].maxpacket =  0;
 138              		.loc 1 158 0 discriminator 2
 139 00bc 7968     		ldr	r1, [r7, #4]
 140 00be FA68     		ldr	r2, [r7, #12]
 141 00c0 1346     		mov	r3, r2
 142 00c2 DB00     		lsls	r3, r3, #3
 143 00c4 9B1A     		subs	r3, r3, r2
 144 00c6 9B00     		lsls	r3, r3, #2
 145 00c8 0B44     		add	r3, r3, r1
 146 00ca 3833     		adds	r3, r3, #56
 147 00cc 0022     		movs	r2, #0
 148 00ce 1A60     		str	r2, [r3]
 159:../STM32F2xx_HAL_Driver/Src/stm32f2xx_hal_pcd.c ****    hpcd->IN_ep[i].xfer_buff = 0;
 149              		.loc 1 159 0 discriminator 2
 150 00d0 7968     		ldr	r1, [r7, #4]
 151 00d2 FA68     		ldr	r2, [r7, #12]
 152 00d4 1346     		mov	r3, r2
 153 00d6 DB00     		lsls	r3, r3, #3
 154 00d8 9B1A     		subs	r3, r3, r2
 155 00da 9B00     		lsls	r3, r3, #2
 156 00dc 0B44     		add	r3, r3, r1
 157 00de 3C33     		adds	r3, r3, #60
 158 00e0 0022     		movs	r2, #0
 159 00e2 1A60     		str	r2, [r3]
 160:../STM32F2xx_HAL_Driver/Src/stm32f2xx_hal_pcd.c ****    hpcd->IN_ep[i].xfer_len = 0;
 160              		.loc 1 160 0 discriminator 2
 161 00e4 7968     		ldr	r1, [r7, #4]
 162 00e6 FA68     		ldr	r2, [r7, #12]
 163 00e8 1346     		mov	r3, r2
 164 00ea DB00     		lsls	r3, r3, #3
 165 00ec 9B1A     		subs	r3, r3, r2
 166 00ee 9B00     		lsls	r3, r3, #2
 167 00f0 0B44     		add	r3, r3, r1
 168 00f2 4433     		adds	r3, r3, #68
 169 00f4 0022     		movs	r2, #0
 170 00f6 1A60     		str	r2, [r3]
 150:../STM32F2xx_HAL_Driver/Src/stm32f2xx_hal_pcd.c ****  {
 171              		.loc 1 150 0 discriminator 2
 172 00f8 FB68     		ldr	r3, [r7, #12]
 173 00fa 0133     		adds	r3, r3, #1
 174 00fc FB60     		str	r3, [r7, #12]
 175              	.L4:
 150:../STM32F2xx_HAL_Driver/Src/stm32f2xx_hal_pcd.c ****  {
 176              		.loc 1 150 0 is_stmt 0 discriminator 1
 177 00fe FB68     		ldr	r3, [r7, #12]
 178 0100 0E2B     		cmp	r3, #14
 179 0102 AFD9     		bls	.L5
 161:../STM32F2xx_HAL_Driver/Src/stm32f2xx_hal_pcd.c ****  }
 162:../STM32F2xx_HAL_Driver/Src/stm32f2xx_hal_pcd.c ****  
 163:../STM32F2xx_HAL_Driver/Src/stm32f2xx_hal_pcd.c ****  for (i = 0; i < 15 ; i++)
 180              		.loc 1 163 0 is_stmt 1
 181 0104 0023     		movs	r3, #0
 182 0106 FB60     		str	r3, [r7, #12]
 183 0108 5AE0     		b	.L6
 184              	.L7:
 164:../STM32F2xx_HAL_Driver/Src/stm32f2xx_hal_pcd.c ****  {
 165:../STM32F2xx_HAL_Driver/Src/stm32f2xx_hal_pcd.c ****    hpcd->OUT_ep[i].is_in = 0;
 185              		.loc 1 165 0 discriminator 2
 186 010a 7968     		ldr	r1, [r7, #4]
 187 010c FA68     		ldr	r2, [r7, #12]
 188 010e 1346     		mov	r3, r2
 189 0110 DB00     		lsls	r3, r3, #3
 190 0112 9B1A     		subs	r3, r3, r2
 191 0114 9B00     		lsls	r3, r3, #2
 192 0116 0B44     		add	r3, r3, r1
 193 0118 03F5E873 		add	r3, r3, #464
 194 011c 0022     		movs	r2, #0
 195 011e 5A71     		strb	r2, [r3, #5]
 166:../STM32F2xx_HAL_Driver/Src/stm32f2xx_hal_pcd.c ****    hpcd->OUT_ep[i].num = i;
 196              		.loc 1 166 0 discriminator 2
 197 0120 FB68     		ldr	r3, [r7, #12]
 198 0122 D9B2     		uxtb	r1, r3
 199 0124 7868     		ldr	r0, [r7, #4]
 200 0126 FA68     		ldr	r2, [r7, #12]
 201 0128 1346     		mov	r3, r2
 202 012a DB00     		lsls	r3, r3, #3
 203 012c 9B1A     		subs	r3, r3, r2
 204 012e 9B00     		lsls	r3, r3, #2
 205 0130 0344     		add	r3, r3, r0
 206 0132 03F5E873 		add	r3, r3, #464
 207 0136 0A46     		mov	r2, r1
 208 0138 1A71     		strb	r2, [r3, #4]
 167:../STM32F2xx_HAL_Driver/Src/stm32f2xx_hal_pcd.c ****    hpcd->IN_ep[i].tx_fifo_num = i;
 209              		.loc 1 167 0 discriminator 2
 210 013a FB68     		ldr	r3, [r7, #12]
 211 013c 99B2     		uxth	r1, r3
 212 013e 7868     		ldr	r0, [r7, #4]
 213 0140 FA68     		ldr	r2, [r7, #12]
 214 0142 1346     		mov	r3, r2
 215 0144 DB00     		lsls	r3, r3, #3
 216 0146 9B1A     		subs	r3, r3, r2
 217 0148 9B00     		lsls	r3, r3, #2
 218 014a 0344     		add	r3, r3, r0
 219 014c 3033     		adds	r3, r3, #48
 220 014e 0A46     		mov	r2, r1	@ movhi
 221 0150 DA80     		strh	r2, [r3, #6]	@ movhi
 168:../STM32F2xx_HAL_Driver/Src/stm32f2xx_hal_pcd.c ****    /* Control until ep is activated */
 169:../STM32F2xx_HAL_Driver/Src/stm32f2xx_hal_pcd.c ****    hpcd->OUT_ep[i].type = EP_TYPE_CTRL;
 222              		.loc 1 169 0 discriminator 2
 223 0152 7968     		ldr	r1, [r7, #4]
 224 0154 FA68     		ldr	r2, [r7, #12]
 225 0156 1346     		mov	r3, r2
 226 0158 DB00     		lsls	r3, r3, #3
 227 015a 9B1A     		subs	r3, r3, r2
 228 015c 9B00     		lsls	r3, r3, #2
 229 015e 0B44     		add	r3, r3, r1
 230 0160 03F5E873 		add	r3, r3, #464
 231 0164 0022     		movs	r2, #0
 232 0166 DA71     		strb	r2, [r3, #7]
 170:../STM32F2xx_HAL_Driver/Src/stm32f2xx_hal_pcd.c ****    hpcd->OUT_ep[i].maxpacket = 0;
 233              		.loc 1 170 0 discriminator 2
 234 0168 7968     		ldr	r1, [r7, #4]
 235 016a FA68     		ldr	r2, [r7, #12]
 236 016c 1346     		mov	r3, r2
 237 016e DB00     		lsls	r3, r3, #3
 238 0170 9B1A     		subs	r3, r3, r2
 239 0172 9B00     		lsls	r3, r3, #2
 240 0174 0B44     		add	r3, r3, r1
 241 0176 03F5EE73 		add	r3, r3, #476
 242 017a 0022     		movs	r2, #0
 243 017c 1A60     		str	r2, [r3]
 171:../STM32F2xx_HAL_Driver/Src/stm32f2xx_hal_pcd.c ****    hpcd->OUT_ep[i].xfer_buff = 0;
 244              		.loc 1 171 0 discriminator 2
 245 017e 7968     		ldr	r1, [r7, #4]
 246 0180 FA68     		ldr	r2, [r7, #12]
 247 0182 1346     		mov	r3, r2
 248 0184 DB00     		lsls	r3, r3, #3
 249 0186 9B1A     		subs	r3, r3, r2
 250 0188 9B00     		lsls	r3, r3, #2
 251 018a 0B44     		add	r3, r3, r1
 252 018c 03F5F073 		add	r3, r3, #480
 253 0190 0022     		movs	r2, #0
 254 0192 1A60     		str	r2, [r3]
 172:../STM32F2xx_HAL_Driver/Src/stm32f2xx_hal_pcd.c ****    hpcd->OUT_ep[i].xfer_len = 0;
 255              		.loc 1 172 0 discriminator 2
 256 0194 7968     		ldr	r1, [r7, #4]
 257 0196 FA68     		ldr	r2, [r7, #12]
 258 0198 1346     		mov	r3, r2
 259 019a DB00     		lsls	r3, r3, #3
 260 019c 9B1A     		subs	r3, r3, r2
 261 019e 9B00     		lsls	r3, r3, #2
 262 01a0 0B44     		add	r3, r3, r1
 263 01a2 03F5F473 		add	r3, r3, #488
 264 01a6 0022     		movs	r2, #0
 265 01a8 1A60     		str	r2, [r3]
 173:../STM32F2xx_HAL_Driver/Src/stm32f2xx_hal_pcd.c ****    
 174:../STM32F2xx_HAL_Driver/Src/stm32f2xx_hal_pcd.c ****    hpcd->Instance->DIEPTXF[i] = 0;
 266              		.loc 1 174 0 discriminator 2
 267 01aa 7B68     		ldr	r3, [r7, #4]
 268 01ac 1A68     		ldr	r2, [r3]
 269 01ae FB68     		ldr	r3, [r7, #12]
 270 01b0 4033     		adds	r3, r3, #64
 271 01b2 9B00     		lsls	r3, r3, #2
 272 01b4 1344     		add	r3, r3, r2
 273 01b6 0022     		movs	r2, #0
 274 01b8 5A60     		str	r2, [r3, #4]
 163:../STM32F2xx_HAL_Driver/Src/stm32f2xx_hal_pcd.c ****  {
 275              		.loc 1 163 0 discriminator 2
 276 01ba FB68     		ldr	r3, [r7, #12]
 277 01bc 0133     		adds	r3, r3, #1
 278 01be FB60     		str	r3, [r7, #12]
 279              	.L6:
 163:../STM32F2xx_HAL_Driver/Src/stm32f2xx_hal_pcd.c ****  {
 280              		.loc 1 163 0 is_stmt 0 discriminator 1
 281 01c0 FB68     		ldr	r3, [r7, #12]
 282 01c2 0E2B     		cmp	r3, #14
 283 01c4 A1D9     		bls	.L7
 175:../STM32F2xx_HAL_Driver/Src/stm32f2xx_hal_pcd.c ****  }
 176:../STM32F2xx_HAL_Driver/Src/stm32f2xx_hal_pcd.c ****  
 177:../STM32F2xx_HAL_Driver/Src/stm32f2xx_hal_pcd.c ****  /* Init Device */
 178:../STM32F2xx_HAL_Driver/Src/stm32f2xx_hal_pcd.c ****  USB_DevInit(hpcd->Instance, hpcd->Init);
 284              		.loc 1 178 0 is_stmt 1
 285 01c6 7B68     		ldr	r3, [r7, #4]
 286 01c8 D3F800E0 		ldr	lr, [r3]
 287 01cc 7E68     		ldr	r6, [r7, #4]
 288 01ce 6C46     		mov	r4, sp
 289 01d0 06F11005 		add	r5, r6, #16
 290 01d4 0FCD     		ldmia	r5!, {r0, r1, r2, r3}
 291 01d6 0FC4     		stmia	r4!, {r0, r1, r2, r3}
 292 01d8 95E80F00 		ldmia	r5, {r0, r1, r2, r3}
 293 01dc 84E80F00 		stmia	r4, {r0, r1, r2, r3}
 294 01e0 331D     		adds	r3, r6, #4
 295 01e2 0ECB     		ldmia	r3, {r1, r2, r3}
 296 01e4 7046     		mov	r0, lr
 297 01e6 FFF7FEFF 		bl	USB_DevInit
 179:../STM32F2xx_HAL_Driver/Src/stm32f2xx_hal_pcd.c ****  
 180:../STM32F2xx_HAL_Driver/Src/stm32f2xx_hal_pcd.c ****  hpcd->State= PCD_READY;
 298              		.loc 1 180 0
 299 01ea 7B68     		ldr	r3, [r7, #4]
 300 01ec 0022     		movs	r2, #0
 301 01ee 83F87923 		strb	r2, [r3, #889]
 181:../STM32F2xx_HAL_Driver/Src/stm32f2xx_hal_pcd.c ****  
 182:../STM32F2xx_HAL_Driver/Src/stm32f2xx_hal_pcd.c ****  USB_DevDisconnect (hpcd->Instance);  
 302              		.loc 1 182 0
 303 01f2 7B68     		ldr	r3, [r7, #4]
 304 01f4 1B68     		ldr	r3, [r3]
 305 01f6 1846     		mov	r0, r3
 306 01f8 FFF7FEFF 		bl	USB_DevDisconnect
 183:../STM32F2xx_HAL_Driver/Src/stm32f2xx_hal_pcd.c ****  return HAL_OK;
 307              		.loc 1 183 0
 308 01fc 0023     		movs	r3, #0
 309              	.L3:
 184:../STM32F2xx_HAL_Driver/Src/stm32f2xx_hal_pcd.c **** }
 310              		.loc 1 184 0
 311 01fe 1846     		mov	r0, r3
 312 0200 1437     		adds	r7, r7, #20
 313 0202 BD46     		mov	sp, r7
 314              		@ sp needed
 315 0204 F0BD     		pop	{r4, r5, r6, r7, pc}
 316              		.cfi_endproc
 317              	.LFE55:
 319 0206 00BF     		.align	2
 320              		.global	HAL_PCD_DeInit
 321              		.thumb
 322              		.thumb_func
 324              	HAL_PCD_DeInit:
 325              	.LFB56:
 185:../STM32F2xx_HAL_Driver/Src/stm32f2xx_hal_pcd.c **** 
 186:../STM32F2xx_HAL_Driver/Src/stm32f2xx_hal_pcd.c **** /**
 187:../STM32F2xx_HAL_Driver/Src/stm32f2xx_hal_pcd.c ****   * @brief  DeInitializes the PCD peripheral 
 188:../STM32F2xx_HAL_Driver/Src/stm32f2xx_hal_pcd.c ****   * @param  hpcd: PCD handle
 189:../STM32F2xx_HAL_Driver/Src/stm32f2xx_hal_pcd.c ****   * @retval HAL status
 190:../STM32F2xx_HAL_Driver/Src/stm32f2xx_hal_pcd.c ****   */
 191:../STM32F2xx_HAL_Driver/Src/stm32f2xx_hal_pcd.c **** HAL_StatusTypeDef HAL_PCD_DeInit(PCD_HandleTypeDef *hpcd)
 192:../STM32F2xx_HAL_Driver/Src/stm32f2xx_hal_pcd.c **** {
 326              		.loc 1 192 0
 327              		.cfi_startproc
 328              		@ args = 0, pretend = 0, frame = 8
 329              		@ frame_needed = 1, uses_anonymous_args = 0
 330 0208 80B5     		push	{r7, lr}
 331              		.cfi_def_cfa_offset 8
 332              		.cfi_offset 7, -8
 333              		.cfi_offset 14, -4
 334 020a 82B0     		sub	sp, sp, #8
 335              		.cfi_def_cfa_offset 16
 336 020c 00AF     		add	r7, sp, #0
 337              		.cfi_def_cfa_register 7
 338 020e 7860     		str	r0, [r7, #4]
 193:../STM32F2xx_HAL_Driver/Src/stm32f2xx_hal_pcd.c ****   /* Check the PCD handle allocation */
 194:../STM32F2xx_HAL_Driver/Src/stm32f2xx_hal_pcd.c ****   if(hpcd == NULL)
 339              		.loc 1 194 0
 340 0210 7B68     		ldr	r3, [r7, #4]
 341 0212 002B     		cmp	r3, #0
 342 0214 01D1     		bne	.L9
 195:../STM32F2xx_HAL_Driver/Src/stm32f2xx_hal_pcd.c ****   {
 196:../STM32F2xx_HAL_Driver/Src/stm32f2xx_hal_pcd.c ****     return HAL_ERROR;
 343              		.loc 1 196 0
 344 0216 0123     		movs	r3, #1
 345 0218 0EE0     		b	.L10
 346              	.L9:
 197:../STM32F2xx_HAL_Driver/Src/stm32f2xx_hal_pcd.c ****   }
 198:../STM32F2xx_HAL_Driver/Src/stm32f2xx_hal_pcd.c **** 
 199:../STM32F2xx_HAL_Driver/Src/stm32f2xx_hal_pcd.c ****   hpcd->State = PCD_BUSY;
 347              		.loc 1 199 0
 348 021a 7B68     		ldr	r3, [r7, #4]
 349 021c 0222     		movs	r2, #2
 350 021e 83F87923 		strb	r2, [r3, #889]
 200:../STM32F2xx_HAL_Driver/Src/stm32f2xx_hal_pcd.c ****   
 201:../STM32F2xx_HAL_Driver/Src/stm32f2xx_hal_pcd.c ****   /* Stop Device */
 202:../STM32F2xx_HAL_Driver/Src/stm32f2xx_hal_pcd.c ****   HAL_PCD_Stop(hpcd);
 351              		.loc 1 202 0
 352 0222 7868     		ldr	r0, [r7, #4]
 353 0224 FFF7FEFF 		bl	HAL_PCD_Stop
 203:../STM32F2xx_HAL_Driver/Src/stm32f2xx_hal_pcd.c ****     
 204:../STM32F2xx_HAL_Driver/Src/stm32f2xx_hal_pcd.c ****   /* DeInit the low level hardware */
 205:../STM32F2xx_HAL_Driver/Src/stm32f2xx_hal_pcd.c ****   HAL_PCD_MspDeInit(hpcd);
 354              		.loc 1 205 0
 355 0228 7868     		ldr	r0, [r7, #4]
 356 022a FFF7FEFF 		bl	HAL_PCD_MspDeInit
 206:../STM32F2xx_HAL_Driver/Src/stm32f2xx_hal_pcd.c ****   
 207:../STM32F2xx_HAL_Driver/Src/stm32f2xx_hal_pcd.c ****   hpcd->State = PCD_READY; 
 357              		.loc 1 207 0
 358 022e 7B68     		ldr	r3, [r7, #4]
 359 0230 0022     		movs	r2, #0
 360 0232 83F87923 		strb	r2, [r3, #889]
 208:../STM32F2xx_HAL_Driver/Src/stm32f2xx_hal_pcd.c ****   
 209:../STM32F2xx_HAL_Driver/Src/stm32f2xx_hal_pcd.c ****   return HAL_OK;
 361              		.loc 1 209 0
 362 0236 0023     		movs	r3, #0
 363              	.L10:
 210:../STM32F2xx_HAL_Driver/Src/stm32f2xx_hal_pcd.c **** }
 364              		.loc 1 210 0
 365 0238 1846     		mov	r0, r3
 366 023a 0837     		adds	r7, r7, #8
 367 023c BD46     		mov	sp, r7
 368              		@ sp needed
 369 023e 80BD     		pop	{r7, pc}
 370              		.cfi_endproc
 371              	.LFE56:
 373              		.align	2
 374              		.weak	HAL_PCD_MspInit
 375              		.thumb
 376              		.thumb_func
 378              	HAL_PCD_MspInit:
 379              	.LFB57:
 211:../STM32F2xx_HAL_Driver/Src/stm32f2xx_hal_pcd.c **** 
 212:../STM32F2xx_HAL_Driver/Src/stm32f2xx_hal_pcd.c **** /**
 213:../STM32F2xx_HAL_Driver/Src/stm32f2xx_hal_pcd.c ****   * @brief  Initializes the PCD MSP.
 214:../STM32F2xx_HAL_Driver/Src/stm32f2xx_hal_pcd.c ****   * @param  hpcd: PCD handle
 215:../STM32F2xx_HAL_Driver/Src/stm32f2xx_hal_pcd.c ****   * @retval None
 216:../STM32F2xx_HAL_Driver/Src/stm32f2xx_hal_pcd.c ****   */
 217:../STM32F2xx_HAL_Driver/Src/stm32f2xx_hal_pcd.c **** __weak void HAL_PCD_MspInit(PCD_HandleTypeDef *hpcd)
 218:../STM32F2xx_HAL_Driver/Src/stm32f2xx_hal_pcd.c **** {
 380              		.loc 1 218 0
 381              		.cfi_startproc
 382              		@ args = 0, pretend = 0, frame = 8
 383              		@ frame_needed = 1, uses_anonymous_args = 0
 384              		@ link register save eliminated.
 385 0240 80B4     		push	{r7}
 386              		.cfi_def_cfa_offset 4
 387              		.cfi_offset 7, -4
 388 0242 83B0     		sub	sp, sp, #12
 389              		.cfi_def_cfa_offset 16
 390 0244 00AF     		add	r7, sp, #0
 391              		.cfi_def_cfa_register 7
 392 0246 7860     		str	r0, [r7, #4]
 219:../STM32F2xx_HAL_Driver/Src/stm32f2xx_hal_pcd.c ****   /* NOTE : This function Should not be modified, when the callback is needed,
 220:../STM32F2xx_HAL_Driver/Src/stm32f2xx_hal_pcd.c ****             the HAL_PCD_MspInit could be implenetd in the user file
 221:../STM32F2xx_HAL_Driver/Src/stm32f2xx_hal_pcd.c ****    */
 222:../STM32F2xx_HAL_Driver/Src/stm32f2xx_hal_pcd.c **** }
 393              		.loc 1 222 0
 394 0248 0C37     		adds	r7, r7, #12
 395 024a BD46     		mov	sp, r7
 396              		@ sp needed
 397 024c 5DF8047B 		ldr	r7, [sp], #4
 398 0250 7047     		bx	lr
 399              		.cfi_endproc
 400              	.LFE57:
 402 0252 00BF     		.align	2
 403              		.weak	HAL_PCD_MspDeInit
 404              		.thumb
 405              		.thumb_func
 407              	HAL_PCD_MspDeInit:
 408              	.LFB58:
 223:../STM32F2xx_HAL_Driver/Src/stm32f2xx_hal_pcd.c **** 
 224:../STM32F2xx_HAL_Driver/Src/stm32f2xx_hal_pcd.c **** /**
 225:../STM32F2xx_HAL_Driver/Src/stm32f2xx_hal_pcd.c ****   * @brief  DeInitializes PCD MSP.
 226:../STM32F2xx_HAL_Driver/Src/stm32f2xx_hal_pcd.c ****   * @param  hpcd: PCD handle
 227:../STM32F2xx_HAL_Driver/Src/stm32f2xx_hal_pcd.c ****   * @retval None
 228:../STM32F2xx_HAL_Driver/Src/stm32f2xx_hal_pcd.c ****   */
 229:../STM32F2xx_HAL_Driver/Src/stm32f2xx_hal_pcd.c **** __weak void HAL_PCD_MspDeInit(PCD_HandleTypeDef *hpcd)
 230:../STM32F2xx_HAL_Driver/Src/stm32f2xx_hal_pcd.c **** {
 409              		.loc 1 230 0
 410              		.cfi_startproc
 411              		@ args = 0, pretend = 0, frame = 8
 412              		@ frame_needed = 1, uses_anonymous_args = 0
 413              		@ link register save eliminated.
 414 0254 80B4     		push	{r7}
 415              		.cfi_def_cfa_offset 4
 416              		.cfi_offset 7, -4
 417 0256 83B0     		sub	sp, sp, #12
 418              		.cfi_def_cfa_offset 16
 419 0258 00AF     		add	r7, sp, #0
 420              		.cfi_def_cfa_register 7
 421 025a 7860     		str	r0, [r7, #4]
 231:../STM32F2xx_HAL_Driver/Src/stm32f2xx_hal_pcd.c ****   /* NOTE : This function Should not be modified, when the callback is needed,
 232:../STM32F2xx_HAL_Driver/Src/stm32f2xx_hal_pcd.c ****             the HAL_PCD_MspDeInit could be implenetd in the user file
 233:../STM32F2xx_HAL_Driver/Src/stm32f2xx_hal_pcd.c ****    */
 234:../STM32F2xx_HAL_Driver/Src/stm32f2xx_hal_pcd.c **** }
 422              		.loc 1 234 0
 423 025c 0C37     		adds	r7, r7, #12
 424 025e BD46     		mov	sp, r7
 425              		@ sp needed
 426 0260 5DF8047B 		ldr	r7, [sp], #4
 427 0264 7047     		bx	lr
 428              		.cfi_endproc
 429              	.LFE58:
 431 0266 00BF     		.align	2
 432              		.global	HAL_PCD_Start
 433              		.thumb
 434              		.thumb_func
 436              	HAL_PCD_Start:
 437              	.LFB59:
 235:../STM32F2xx_HAL_Driver/Src/stm32f2xx_hal_pcd.c **** 
 236:../STM32F2xx_HAL_Driver/Src/stm32f2xx_hal_pcd.c **** /**
 237:../STM32F2xx_HAL_Driver/Src/stm32f2xx_hal_pcd.c ****   * @}
 238:../STM32F2xx_HAL_Driver/Src/stm32f2xx_hal_pcd.c ****   */
 239:../STM32F2xx_HAL_Driver/Src/stm32f2xx_hal_pcd.c **** 
 240:../STM32F2xx_HAL_Driver/Src/stm32f2xx_hal_pcd.c **** /** @defgroup PCD_Group2 IO operation functions 
 241:../STM32F2xx_HAL_Driver/Src/stm32f2xx_hal_pcd.c ****  *  @brief   Data transfers functions 
 242:../STM32F2xx_HAL_Driver/Src/stm32f2xx_hal_pcd.c ****  *
 243:../STM32F2xx_HAL_Driver/Src/stm32f2xx_hal_pcd.c **** @verbatim   
 244:../STM32F2xx_HAL_Driver/Src/stm32f2xx_hal_pcd.c ****  ===============================================================================
 245:../STM32F2xx_HAL_Driver/Src/stm32f2xx_hal_pcd.c ****                       ##### IO operation functions #####
 246:../STM32F2xx_HAL_Driver/Src/stm32f2xx_hal_pcd.c ****  ===============================================================================  
 247:../STM32F2xx_HAL_Driver/Src/stm32f2xx_hal_pcd.c ****     [..]
 248:../STM32F2xx_HAL_Driver/Src/stm32f2xx_hal_pcd.c ****     This subsection provides a set of functions allowing to manage the PCD data 
 249:../STM32F2xx_HAL_Driver/Src/stm32f2xx_hal_pcd.c ****     transfers.
 250:../STM32F2xx_HAL_Driver/Src/stm32f2xx_hal_pcd.c **** 
 251:../STM32F2xx_HAL_Driver/Src/stm32f2xx_hal_pcd.c **** @endverbatim
 252:../STM32F2xx_HAL_Driver/Src/stm32f2xx_hal_pcd.c ****   * @{
 253:../STM32F2xx_HAL_Driver/Src/stm32f2xx_hal_pcd.c ****   */
 254:../STM32F2xx_HAL_Driver/Src/stm32f2xx_hal_pcd.c ****   
 255:../STM32F2xx_HAL_Driver/Src/stm32f2xx_hal_pcd.c **** /**
 256:../STM32F2xx_HAL_Driver/Src/stm32f2xx_hal_pcd.c ****   * @brief  Start The USB OTG Device.
 257:../STM32F2xx_HAL_Driver/Src/stm32f2xx_hal_pcd.c ****   * @param  hpcd: PCD handle
 258:../STM32F2xx_HAL_Driver/Src/stm32f2xx_hal_pcd.c ****   * @retval HAL status
 259:../STM32F2xx_HAL_Driver/Src/stm32f2xx_hal_pcd.c ****   */
 260:../STM32F2xx_HAL_Driver/Src/stm32f2xx_hal_pcd.c **** HAL_StatusTypeDef HAL_PCD_Start(PCD_HandleTypeDef *hpcd)
 261:../STM32F2xx_HAL_Driver/Src/stm32f2xx_hal_pcd.c **** { 
 438              		.loc 1 261 0
 439              		.cfi_startproc
 440              		@ args = 0, pretend = 0, frame = 8
 441              		@ frame_needed = 1, uses_anonymous_args = 0
 442 0268 80B5     		push	{r7, lr}
 443              		.cfi_def_cfa_offset 8
 444              		.cfi_offset 7, -8
 445              		.cfi_offset 14, -4
 446 026a 82B0     		sub	sp, sp, #8
 447              		.cfi_def_cfa_offset 16
 448 026c 00AF     		add	r7, sp, #0
 449              		.cfi_def_cfa_register 7
 450 026e 7860     		str	r0, [r7, #4]
 262:../STM32F2xx_HAL_Driver/Src/stm32f2xx_hal_pcd.c ****   __HAL_LOCK(hpcd); 
 451              		.loc 1 262 0
 452 0270 7B68     		ldr	r3, [r7, #4]
 453 0272 93F87833 		ldrb	r3, [r3, #888]	@ zero_extendqisi2
 454 0276 012B     		cmp	r3, #1
 455 0278 01D1     		bne	.L14
 456              		.loc 1 262 0 is_stmt 0 discriminator 1
 457 027a 0223     		movs	r3, #2
 458 027c 12E0     		b	.L15
 459              	.L14:
 460              		.loc 1 262 0 discriminator 2
 461 027e 7B68     		ldr	r3, [r7, #4]
 462 0280 0122     		movs	r2, #1
 463 0282 83F87823 		strb	r2, [r3, #888]
 263:../STM32F2xx_HAL_Driver/Src/stm32f2xx_hal_pcd.c ****   USB_DevConnect (hpcd->Instance);  
 464              		.loc 1 263 0 is_stmt 1 discriminator 2
 465 0286 7B68     		ldr	r3, [r7, #4]
 466 0288 1B68     		ldr	r3, [r3]
 467 028a 1846     		mov	r0, r3
 468 028c FFF7FEFF 		bl	USB_DevConnect
 264:../STM32F2xx_HAL_Driver/Src/stm32f2xx_hal_pcd.c ****   __HAL_PCD_ENABLE(hpcd);
 469              		.loc 1 264 0 discriminator 2
 470 0290 7B68     		ldr	r3, [r7, #4]
 471 0292 1B68     		ldr	r3, [r3]
 472 0294 1846     		mov	r0, r3
 473 0296 FFF7FEFF 		bl	USB_EnableGlobalInt
 265:../STM32F2xx_HAL_Driver/Src/stm32f2xx_hal_pcd.c ****   __HAL_UNLOCK(hpcd); 
 474              		.loc 1 265 0 discriminator 2
 475 029a 7B68     		ldr	r3, [r7, #4]
 476 029c 0022     		movs	r2, #0
 477 029e 83F87823 		strb	r2, [r3, #888]
 266:../STM32F2xx_HAL_Driver/Src/stm32f2xx_hal_pcd.c ****   return HAL_OK;
 478              		.loc 1 266 0 discriminator 2
 479 02a2 0023     		movs	r3, #0
 480              	.L15:
 267:../STM32F2xx_HAL_Driver/Src/stm32f2xx_hal_pcd.c **** }
 481              		.loc 1 267 0
 482 02a4 1846     		mov	r0, r3
 483 02a6 0837     		adds	r7, r7, #8
 484 02a8 BD46     		mov	sp, r7
 485              		@ sp needed
 486 02aa 80BD     		pop	{r7, pc}
 487              		.cfi_endproc
 488              	.LFE59:
 490              		.align	2
 491              		.global	HAL_PCD_Stop
 492              		.thumb
 493              		.thumb_func
 495              	HAL_PCD_Stop:
 496              	.LFB60:
 268:../STM32F2xx_HAL_Driver/Src/stm32f2xx_hal_pcd.c **** 
 269:../STM32F2xx_HAL_Driver/Src/stm32f2xx_hal_pcd.c **** /**
 270:../STM32F2xx_HAL_Driver/Src/stm32f2xx_hal_pcd.c ****   * @brief  Stop The USB OTG Device.
 271:../STM32F2xx_HAL_Driver/Src/stm32f2xx_hal_pcd.c ****   * @param  hpcd: PCD handle
 272:../STM32F2xx_HAL_Driver/Src/stm32f2xx_hal_pcd.c ****   * @retval HAL status
 273:../STM32F2xx_HAL_Driver/Src/stm32f2xx_hal_pcd.c ****   */
 274:../STM32F2xx_HAL_Driver/Src/stm32f2xx_hal_pcd.c **** HAL_StatusTypeDef HAL_PCD_Stop(PCD_HandleTypeDef *hpcd)
 275:../STM32F2xx_HAL_Driver/Src/stm32f2xx_hal_pcd.c **** { 
 497              		.loc 1 275 0
 498              		.cfi_startproc
 499              		@ args = 0, pretend = 0, frame = 8
 500              		@ frame_needed = 1, uses_anonymous_args = 0
 501 02ac 80B5     		push	{r7, lr}
 502              		.cfi_def_cfa_offset 8
 503              		.cfi_offset 7, -8
 504              		.cfi_offset 14, -4
 505 02ae 82B0     		sub	sp, sp, #8
 506              		.cfi_def_cfa_offset 16
 507 02b0 00AF     		add	r7, sp, #0
 508              		.cfi_def_cfa_register 7
 509 02b2 7860     		str	r0, [r7, #4]
 276:../STM32F2xx_HAL_Driver/Src/stm32f2xx_hal_pcd.c ****   __HAL_LOCK(hpcd); 
 510              		.loc 1 276 0
 511 02b4 7B68     		ldr	r3, [r7, #4]
 512 02b6 93F87833 		ldrb	r3, [r3, #888]	@ zero_extendqisi2
 513 02ba 012B     		cmp	r3, #1
 514 02bc 01D1     		bne	.L17
 515              		.loc 1 276 0 is_stmt 0 discriminator 1
 516 02be 0223     		movs	r3, #2
 517 02c0 17E0     		b	.L18
 518              	.L17:
 519              		.loc 1 276 0 discriminator 2
 520 02c2 7B68     		ldr	r3, [r7, #4]
 521 02c4 0122     		movs	r2, #1
 522 02c6 83F87823 		strb	r2, [r3, #888]
 277:../STM32F2xx_HAL_Driver/Src/stm32f2xx_hal_pcd.c ****   __HAL_PCD_DISABLE(hpcd);
 523              		.loc 1 277 0 is_stmt 1 discriminator 2
 524 02ca 7B68     		ldr	r3, [r7, #4]
 525 02cc 1B68     		ldr	r3, [r3]
 526 02ce 1846     		mov	r0, r3
 527 02d0 FFF7FEFF 		bl	USB_DisableGlobalInt
 278:../STM32F2xx_HAL_Driver/Src/stm32f2xx_hal_pcd.c ****   USB_StopDevice(hpcd->Instance);
 528              		.loc 1 278 0 discriminator 2
 529 02d4 7B68     		ldr	r3, [r7, #4]
 530 02d6 1B68     		ldr	r3, [r3]
 531 02d8 1846     		mov	r0, r3
 532 02da FFF7FEFF 		bl	USB_StopDevice
 279:../STM32F2xx_HAL_Driver/Src/stm32f2xx_hal_pcd.c ****   USB_DevDisconnect (hpcd->Instance);
 533              		.loc 1 279 0 discriminator 2
 534 02de 7B68     		ldr	r3, [r7, #4]
 535 02e0 1B68     		ldr	r3, [r3]
 536 02e2 1846     		mov	r0, r3
 537 02e4 FFF7FEFF 		bl	USB_DevDisconnect
 280:../STM32F2xx_HAL_Driver/Src/stm32f2xx_hal_pcd.c ****   __HAL_UNLOCK(hpcd); 
 538              		.loc 1 280 0 discriminator 2
 539 02e8 7B68     		ldr	r3, [r7, #4]
 540 02ea 0022     		movs	r2, #0
 541 02ec 83F87823 		strb	r2, [r3, #888]
 281:../STM32F2xx_HAL_Driver/Src/stm32f2xx_hal_pcd.c ****   return HAL_OK;
 542              		.loc 1 281 0 discriminator 2
 543 02f0 0023     		movs	r3, #0
 544              	.L18:
 282:../STM32F2xx_HAL_Driver/Src/stm32f2xx_hal_pcd.c **** }
 545              		.loc 1 282 0
 546 02f2 1846     		mov	r0, r3
 547 02f4 0837     		adds	r7, r7, #8
 548 02f6 BD46     		mov	sp, r7
 549              		@ sp needed
 550 02f8 80BD     		pop	{r7, pc}
 551              		.cfi_endproc
 552              	.LFE60:
 554 02fa 00BF     		.align	2
 555              		.global	HAL_PCD_IRQHandler
 556              		.thumb
 557              		.thumb_func
 559              	HAL_PCD_IRQHandler:
 560              	.LFB61:
 283:../STM32F2xx_HAL_Driver/Src/stm32f2xx_hal_pcd.c **** 
 284:../STM32F2xx_HAL_Driver/Src/stm32f2xx_hal_pcd.c **** /**
 285:../STM32F2xx_HAL_Driver/Src/stm32f2xx_hal_pcd.c ****   * @brief  This function handles PCD interrupt request.
 286:../STM32F2xx_HAL_Driver/Src/stm32f2xx_hal_pcd.c ****   * @param  hpcd: PCD handle
 287:../STM32F2xx_HAL_Driver/Src/stm32f2xx_hal_pcd.c ****   * @retval HAL status
 288:../STM32F2xx_HAL_Driver/Src/stm32f2xx_hal_pcd.c ****   */
 289:../STM32F2xx_HAL_Driver/Src/stm32f2xx_hal_pcd.c **** void HAL_PCD_IRQHandler(PCD_HandleTypeDef *hpcd)
 290:../STM32F2xx_HAL_Driver/Src/stm32f2xx_hal_pcd.c **** {
 561              		.loc 1 290 0
 562              		.cfi_startproc
 563              		@ args = 0, pretend = 0, frame = 40
 564              		@ frame_needed = 1, uses_anonymous_args = 0
 565 02fc 80B5     		push	{r7, lr}
 566              		.cfi_def_cfa_offset 8
 567              		.cfi_offset 7, -8
 568              		.cfi_offset 14, -4
 569 02fe 8AB0     		sub	sp, sp, #40
 570              		.cfi_def_cfa_offset 48
 571 0300 00AF     		add	r7, sp, #0
 572              		.cfi_def_cfa_register 7
 573 0302 7860     		str	r0, [r7, #4]
 291:../STM32F2xx_HAL_Driver/Src/stm32f2xx_hal_pcd.c ****   USB_OTG_GlobalTypeDef *USBx = hpcd->Instance;
 574              		.loc 1 291 0
 575 0304 7B68     		ldr	r3, [r7, #4]
 576 0306 1B68     		ldr	r3, [r3]
 577 0308 BB61     		str	r3, [r7, #24]
 292:../STM32F2xx_HAL_Driver/Src/stm32f2xx_hal_pcd.c ****   uint32_t i = 0, ep_intr = 0, epint = 0, epnum = 0;
 578              		.loc 1 292 0
 579 030a 0023     		movs	r3, #0
 580 030c 7B62     		str	r3, [r7, #36]
 581 030e 0023     		movs	r3, #0
 582 0310 3B62     		str	r3, [r7, #32]
 583 0312 0023     		movs	r3, #0
 584 0314 7B61     		str	r3, [r7, #20]
 585 0316 0023     		movs	r3, #0
 586 0318 FB61     		str	r3, [r7, #28]
 293:../STM32F2xx_HAL_Driver/Src/stm32f2xx_hal_pcd.c ****   uint32_t fifoemptymsk = 0, temp = 0;
 587              		.loc 1 293 0
 588 031a 0023     		movs	r3, #0
 589 031c 3B61     		str	r3, [r7, #16]
 590 031e 0023     		movs	r3, #0
 591 0320 FB60     		str	r3, [r7, #12]
 294:../STM32F2xx_HAL_Driver/Src/stm32f2xx_hal_pcd.c ****   USB_OTG_EPTypeDef *ep;
 295:../STM32F2xx_HAL_Driver/Src/stm32f2xx_hal_pcd.c ****     
 296:../STM32F2xx_HAL_Driver/Src/stm32f2xx_hal_pcd.c ****   /* ensure that we are in device mode */
 297:../STM32F2xx_HAL_Driver/Src/stm32f2xx_hal_pcd.c ****   if (USB_GetMode(hpcd->Instance) == USB_OTG_MODE_DEVICE)
 592              		.loc 1 297 0
 593 0322 7B68     		ldr	r3, [r7, #4]
 594 0324 1B68     		ldr	r3, [r3]
 595 0326 1846     		mov	r0, r3
 596 0328 FFF7FEFF 		bl	USB_GetMode
 597 032c 0346     		mov	r3, r0
 598 032e 002B     		cmp	r3, #0
 599 0330 40F09883 		bne	.L19
 298:../STM32F2xx_HAL_Driver/Src/stm32f2xx_hal_pcd.c ****   {
 299:../STM32F2xx_HAL_Driver/Src/stm32f2xx_hal_pcd.c ****     /* avoid spurious interrupt */
 300:../STM32F2xx_HAL_Driver/Src/stm32f2xx_hal_pcd.c ****     if(__HAL_IS_INVALID_INTERRUPT(hpcd)) 
 600              		.loc 1 300 0
 601 0334 7B68     		ldr	r3, [r7, #4]
 602 0336 1B68     		ldr	r3, [r3]
 603 0338 1846     		mov	r0, r3
 604 033a FFF7FEFF 		bl	USB_ReadInterrupts
 605 033e 0346     		mov	r3, r0
 606 0340 002B     		cmp	r3, #0
 607 0342 00D1     		bne	.L21
 301:../STM32F2xx_HAL_Driver/Src/stm32f2xx_hal_pcd.c ****     {
 302:../STM32F2xx_HAL_Driver/Src/stm32f2xx_hal_pcd.c ****       return;
 608              		.loc 1 302 0
 609 0344 8EE3     		b	.L19
 610              	.L21:
 303:../STM32F2xx_HAL_Driver/Src/stm32f2xx_hal_pcd.c ****     }
 304:../STM32F2xx_HAL_Driver/Src/stm32f2xx_hal_pcd.c ****     
 305:../STM32F2xx_HAL_Driver/Src/stm32f2xx_hal_pcd.c ****     if(__HAL_GET_FLAG(hpcd, USB_OTG_GINTSTS_MMIS))
 611              		.loc 1 305 0
 612 0346 7B68     		ldr	r3, [r7, #4]
 613 0348 1B68     		ldr	r3, [r3]
 614 034a 1846     		mov	r0, r3
 615 034c FFF7FEFF 		bl	USB_ReadInterrupts
 616 0350 0346     		mov	r3, r0
 617 0352 03F00203 		and	r3, r3, #2
 618 0356 002B     		cmp	r3, #0
 619 0358 07D0     		beq	.L22
 306:../STM32F2xx_HAL_Driver/Src/stm32f2xx_hal_pcd.c ****     {
 307:../STM32F2xx_HAL_Driver/Src/stm32f2xx_hal_pcd.c ****      /* incorrect mode, acknowledge the interrupt */
 308:../STM32F2xx_HAL_Driver/Src/stm32f2xx_hal_pcd.c ****       __HAL_CLEAR_FLAG(hpcd, USB_OTG_GINTSTS_MMIS);
 620              		.loc 1 308 0
 621 035a 7B68     		ldr	r3, [r7, #4]
 622 035c 1B68     		ldr	r3, [r3]
 623 035e 7A68     		ldr	r2, [r7, #4]
 624 0360 1268     		ldr	r2, [r2]
 625 0362 5269     		ldr	r2, [r2, #20]
 626 0364 42F00202 		orr	r2, r2, #2
 627 0368 5A61     		str	r2, [r3, #20]
 628              	.L22:
 309:../STM32F2xx_HAL_Driver/Src/stm32f2xx_hal_pcd.c ****     }
 310:../STM32F2xx_HAL_Driver/Src/stm32f2xx_hal_pcd.c ****     
 311:../STM32F2xx_HAL_Driver/Src/stm32f2xx_hal_pcd.c ****     if(__HAL_GET_FLAG(hpcd, USB_OTG_GINTSTS_OEPINT))
 629              		.loc 1 311 0
 630 036a 7B68     		ldr	r3, [r7, #4]
 631 036c 1B68     		ldr	r3, [r3]
 632 036e 1846     		mov	r0, r3
 633 0370 FFF7FEFF 		bl	USB_ReadInterrupts
 634 0374 0346     		mov	r3, r0
 635 0376 03F40023 		and	r3, r3, #524288
 636 037a 002B     		cmp	r3, #0
 637 037c 00F0B080 		beq	.L23
 312:../STM32F2xx_HAL_Driver/Src/stm32f2xx_hal_pcd.c ****     {
 313:../STM32F2xx_HAL_Driver/Src/stm32f2xx_hal_pcd.c ****       epnum = 0;
 638              		.loc 1 313 0
 639 0380 0023     		movs	r3, #0
 640 0382 FB61     		str	r3, [r7, #28]
 314:../STM32F2xx_HAL_Driver/Src/stm32f2xx_hal_pcd.c ****       
 315:../STM32F2xx_HAL_Driver/Src/stm32f2xx_hal_pcd.c ****       /* Read in the device interrupt bits */
 316:../STM32F2xx_HAL_Driver/Src/stm32f2xx_hal_pcd.c ****       ep_intr = USB_ReadDevAllOutEpInterrupt(hpcd->Instance);
 641              		.loc 1 316 0
 642 0384 7B68     		ldr	r3, [r7, #4]
 643 0386 1B68     		ldr	r3, [r3]
 644 0388 1846     		mov	r0, r3
 645 038a FFF7FEFF 		bl	USB_ReadDevAllOutEpInterrupt
 646 038e 3862     		str	r0, [r7, #32]
 317:../STM32F2xx_HAL_Driver/Src/stm32f2xx_hal_pcd.c ****       
 318:../STM32F2xx_HAL_Driver/Src/stm32f2xx_hal_pcd.c ****       while ( ep_intr )
 647              		.loc 1 318 0
 648 0390 A2E0     		b	.L24
 649              	.L29:
 319:../STM32F2xx_HAL_Driver/Src/stm32f2xx_hal_pcd.c ****       {
 320:../STM32F2xx_HAL_Driver/Src/stm32f2xx_hal_pcd.c ****         if (ep_intr & 0x1)
 650              		.loc 1 320 0
 651 0392 3B6A     		ldr	r3, [r7, #32]
 652 0394 03F00103 		and	r3, r3, #1
 653 0398 002B     		cmp	r3, #0
 654 039a 00F09780 		beq	.L25
 321:../STM32F2xx_HAL_Driver/Src/stm32f2xx_hal_pcd.c ****         {
 322:../STM32F2xx_HAL_Driver/Src/stm32f2xx_hal_pcd.c ****           epint = USB_ReadDevOutEPInterrupt(hpcd->Instance, epnum);
 655              		.loc 1 322 0
 656 039e 7B68     		ldr	r3, [r7, #4]
 657 03a0 1A68     		ldr	r2, [r3]
 658 03a2 FB69     		ldr	r3, [r7, #28]
 659 03a4 DBB2     		uxtb	r3, r3
 660 03a6 1046     		mov	r0, r2
 661 03a8 1946     		mov	r1, r3
 662 03aa FFF7FEFF 		bl	USB_ReadDevOutEPInterrupt
 663 03ae 7861     		str	r0, [r7, #20]
 323:../STM32F2xx_HAL_Driver/Src/stm32f2xx_hal_pcd.c ****           
 324:../STM32F2xx_HAL_Driver/Src/stm32f2xx_hal_pcd.c ****           if(( epint & USB_OTG_DOEPINT_XFRC) == USB_OTG_DOEPINT_XFRC)
 664              		.loc 1 324 0
 665 03b0 7B69     		ldr	r3, [r7, #20]
 666 03b2 03F00103 		and	r3, r3, #1
 667 03b6 002B     		cmp	r3, #0
 668 03b8 6BD0     		beq	.L26
 325:../STM32F2xx_HAL_Driver/Src/stm32f2xx_hal_pcd.c ****           {
 326:../STM32F2xx_HAL_Driver/Src/stm32f2xx_hal_pcd.c ****             CLEAR_OUT_EP_INTR(epnum, USB_OTG_DOEPINT_XFRC);
 669              		.loc 1 326 0
 670 03ba FB69     		ldr	r3, [r7, #28]
 671 03bc 5A01     		lsls	r2, r3, #5
 672 03be BB69     		ldr	r3, [r7, #24]
 673 03c0 1344     		add	r3, r3, r2
 674 03c2 03F53063 		add	r3, r3, #2816
 675 03c6 0122     		movs	r2, #1
 676 03c8 9A60     		str	r2, [r3, #8]
 327:../STM32F2xx_HAL_Driver/Src/stm32f2xx_hal_pcd.c ****             
 328:../STM32F2xx_HAL_Driver/Src/stm32f2xx_hal_pcd.c ****             if(hpcd->Init.dma_enable == 1)
 677              		.loc 1 328 0
 678 03ca 7B68     		ldr	r3, [r7, #4]
 679 03cc 1B69     		ldr	r3, [r3, #16]
 680 03ce 012B     		cmp	r3, #1
 681 03d0 3CD1     		bne	.L27
 329:../STM32F2xx_HAL_Driver/Src/stm32f2xx_hal_pcd.c ****             {
 330:../STM32F2xx_HAL_Driver/Src/stm32f2xx_hal_pcd.c ****               hpcd->OUT_ep[epnum].xfer_count = hpcd->OUT_ep[epnum].maxpacket- (USBx_OUTEP(epnum)->D
 682              		.loc 1 330 0
 683 03d2 7968     		ldr	r1, [r7, #4]
 684 03d4 FA69     		ldr	r2, [r7, #28]
 685 03d6 1346     		mov	r3, r2
 686 03d8 DB00     		lsls	r3, r3, #3
 687 03da 9B1A     		subs	r3, r3, r2
 688 03dc 9B00     		lsls	r3, r3, #2
 689 03de 0B44     		add	r3, r3, r1
 690 03e0 03F5EE73 		add	r3, r3, #476
 691 03e4 1A68     		ldr	r2, [r3]
 692 03e6 FB69     		ldr	r3, [r7, #28]
 693 03e8 5901     		lsls	r1, r3, #5
 694 03ea BB69     		ldr	r3, [r7, #24]
 695 03ec 0B44     		add	r3, r3, r1
 696 03ee 03F53063 		add	r3, r3, #2816
 697 03f2 1B69     		ldr	r3, [r3, #16]
 698 03f4 C3F31203 		ubfx	r3, r3, #0, #19
 699 03f8 D11A     		subs	r1, r2, r3
 700 03fa 7868     		ldr	r0, [r7, #4]
 701 03fc FA69     		ldr	r2, [r7, #28]
 702 03fe 1346     		mov	r3, r2
 703 0400 DB00     		lsls	r3, r3, #3
 704 0402 9B1A     		subs	r3, r3, r2
 705 0404 9B00     		lsls	r3, r3, #2
 706 0406 0344     		add	r3, r3, r0
 707 0408 03F5F673 		add	r3, r3, #492
 708 040c 1960     		str	r1, [r3]
 331:../STM32F2xx_HAL_Driver/Src/stm32f2xx_hal_pcd.c ****               hpcd->OUT_ep[epnum].xfer_buff += hpcd->OUT_ep[epnum].maxpacket;            
 709              		.loc 1 331 0
 710 040e 7968     		ldr	r1, [r7, #4]
 711 0410 FA69     		ldr	r2, [r7, #28]
 712 0412 1346     		mov	r3, r2
 713 0414 DB00     		lsls	r3, r3, #3
 714 0416 9B1A     		subs	r3, r3, r2
 715 0418 9B00     		lsls	r3, r3, #2
 716 041a 0B44     		add	r3, r3, r1
 717 041c 03F5F073 		add	r3, r3, #480
 718 0420 1968     		ldr	r1, [r3]
 719 0422 7868     		ldr	r0, [r7, #4]
 720 0424 FA69     		ldr	r2, [r7, #28]
 721 0426 1346     		mov	r3, r2
 722 0428 DB00     		lsls	r3, r3, #3
 723 042a 9B1A     		subs	r3, r3, r2
 724 042c 9B00     		lsls	r3, r3, #2
 725 042e 0344     		add	r3, r3, r0
 726 0430 03F5EE73 		add	r3, r3, #476
 727 0434 1B68     		ldr	r3, [r3]
 728 0436 1944     		add	r1, r1, r3
 729 0438 7868     		ldr	r0, [r7, #4]
 730 043a FA69     		ldr	r2, [r7, #28]
 731 043c 1346     		mov	r3, r2
 732 043e DB00     		lsls	r3, r3, #3
 733 0440 9B1A     		subs	r3, r3, r2
 734 0442 9B00     		lsls	r3, r3, #2
 735 0444 0344     		add	r3, r3, r0
 736 0446 03F5F073 		add	r3, r3, #480
 737 044a 1960     		str	r1, [r3]
 738              	.L27:
 332:../STM32F2xx_HAL_Driver/Src/stm32f2xx_hal_pcd.c ****             }
 333:../STM32F2xx_HAL_Driver/Src/stm32f2xx_hal_pcd.c ****             
 334:../STM32F2xx_HAL_Driver/Src/stm32f2xx_hal_pcd.c ****             HAL_PCD_DataOutStageCallback(hpcd, epnum);
 739              		.loc 1 334 0
 740 044c FB69     		ldr	r3, [r7, #28]
 741 044e DBB2     		uxtb	r3, r3
 742 0450 7868     		ldr	r0, [r7, #4]
 743 0452 1946     		mov	r1, r3
 744 0454 FFF7FEFF 		bl	HAL_PCD_DataOutStageCallback
 335:../STM32F2xx_HAL_Driver/Src/stm32f2xx_hal_pcd.c ****             if(hpcd->Init.dma_enable == 1)
 745              		.loc 1 335 0
 746 0458 7B68     		ldr	r3, [r7, #4]
 747 045a 1B69     		ldr	r3, [r3, #16]
 748 045c 012B     		cmp	r3, #1
 749 045e 18D1     		bne	.L26
 336:../STM32F2xx_HAL_Driver/Src/stm32f2xx_hal_pcd.c ****             {
 337:../STM32F2xx_HAL_Driver/Src/stm32f2xx_hal_pcd.c ****               if((epnum == 0) && (hpcd->OUT_ep[epnum].xfer_len == 0))
 750              		.loc 1 337 0
 751 0460 FB69     		ldr	r3, [r7, #28]
 752 0462 002B     		cmp	r3, #0
 753 0464 15D1     		bne	.L26
 754              		.loc 1 337 0 is_stmt 0 discriminator 1
 755 0466 7968     		ldr	r1, [r7, #4]
 756 0468 FA69     		ldr	r2, [r7, #28]
 757 046a 1346     		mov	r3, r2
 758 046c DB00     		lsls	r3, r3, #3
 759 046e 9B1A     		subs	r3, r3, r2
 760 0470 9B00     		lsls	r3, r3, #2
 761 0472 0B44     		add	r3, r3, r1
 762 0474 03F5F473 		add	r3, r3, #488
 763 0478 1B68     		ldr	r3, [r3]
 764 047a 002B     		cmp	r3, #0
 765 047c 09D1     		bne	.L26
 338:../STM32F2xx_HAL_Driver/Src/stm32f2xx_hal_pcd.c ****               {
 339:../STM32F2xx_HAL_Driver/Src/stm32f2xx_hal_pcd.c ****                  /* this is ZLP, so prepare EP0 for next setup */
 340:../STM32F2xx_HAL_Driver/Src/stm32f2xx_hal_pcd.c ****                 USB_EP0_OutStart(hpcd->Instance, 1, (uint8_t *)hpcd->Setup);
 766              		.loc 1 340 0 is_stmt 1
 767 047e 7B68     		ldr	r3, [r7, #4]
 768 0480 1A68     		ldr	r2, [r3]
 769 0482 7B68     		ldr	r3, [r7, #4]
 770 0484 03F55F73 		add	r3, r3, #892
 771 0488 1046     		mov	r0, r2
 772 048a 0121     		movs	r1, #1
 773 048c 1A46     		mov	r2, r3
 774 048e FFF7FEFF 		bl	USB_EP0_OutStart
 775              	.L26:
 341:../STM32F2xx_HAL_Driver/Src/stm32f2xx_hal_pcd.c ****               }              
 342:../STM32F2xx_HAL_Driver/Src/stm32f2xx_hal_pcd.c ****             }
 343:../STM32F2xx_HAL_Driver/Src/stm32f2xx_hal_pcd.c ****           }
 344:../STM32F2xx_HAL_Driver/Src/stm32f2xx_hal_pcd.c ****           
 345:../STM32F2xx_HAL_Driver/Src/stm32f2xx_hal_pcd.c ****           if(( epint & USB_OTG_DOEPINT_STUP) == USB_OTG_DOEPINT_STUP)
 776              		.loc 1 345 0
 777 0492 7B69     		ldr	r3, [r7, #20]
 778 0494 03F00803 		and	r3, r3, #8
 779 0498 002B     		cmp	r3, #0
 780 049a 0AD0     		beq	.L28
 346:../STM32F2xx_HAL_Driver/Src/stm32f2xx_hal_pcd.c ****           {
 347:../STM32F2xx_HAL_Driver/Src/stm32f2xx_hal_pcd.c ****             /* Inform the upper layer that a setup packet is available */
 348:../STM32F2xx_HAL_Driver/Src/stm32f2xx_hal_pcd.c ****             HAL_PCD_SetupStageCallback(hpcd);
 781              		.loc 1 348 0
 782 049c 7868     		ldr	r0, [r7, #4]
 783 049e FFF7FEFF 		bl	HAL_PCD_SetupStageCallback
 349:../STM32F2xx_HAL_Driver/Src/stm32f2xx_hal_pcd.c ****             CLEAR_OUT_EP_INTR(epnum, USB_OTG_DOEPINT_STUP);
 784              		.loc 1 349 0
 785 04a2 FB69     		ldr	r3, [r7, #28]
 786 04a4 5A01     		lsls	r2, r3, #5
 787 04a6 BB69     		ldr	r3, [r7, #24]
 788 04a8 1344     		add	r3, r3, r2
 789 04aa 03F53063 		add	r3, r3, #2816
 790 04ae 0822     		movs	r2, #8
 791 04b0 9A60     		str	r2, [r3, #8]
 792              	.L28:
 350:../STM32F2xx_HAL_Driver/Src/stm32f2xx_hal_pcd.c ****           }
 351:../STM32F2xx_HAL_Driver/Src/stm32f2xx_hal_pcd.c ****           
 352:../STM32F2xx_HAL_Driver/Src/stm32f2xx_hal_pcd.c ****           if(( epint & USB_OTG_DOEPINT_OTEPDIS) == USB_OTG_DOEPINT_OTEPDIS)
 793              		.loc 1 352 0
 794 04b2 7B69     		ldr	r3, [r7, #20]
 795 04b4 03F01003 		and	r3, r3, #16
 796 04b8 002B     		cmp	r3, #0
 797 04ba 07D0     		beq	.L25
 353:../STM32F2xx_HAL_Driver/Src/stm32f2xx_hal_pcd.c ****           {
 354:../STM32F2xx_HAL_Driver/Src/stm32f2xx_hal_pcd.c ****             CLEAR_OUT_EP_INTR(epnum, USB_OTG_DOEPINT_OTEPDIS);
 798              		.loc 1 354 0
 799 04bc FB69     		ldr	r3, [r7, #28]
 800 04be 5A01     		lsls	r2, r3, #5
 801 04c0 BB69     		ldr	r3, [r7, #24]
 802 04c2 1344     		add	r3, r3, r2
 803 04c4 03F53063 		add	r3, r3, #2816
 804 04c8 1022     		movs	r2, #16
 805 04ca 9A60     		str	r2, [r3, #8]
 806              	.L25:
 355:../STM32F2xx_HAL_Driver/Src/stm32f2xx_hal_pcd.c ****           }
 356:../STM32F2xx_HAL_Driver/Src/stm32f2xx_hal_pcd.c ****         }
 357:../STM32F2xx_HAL_Driver/Src/stm32f2xx_hal_pcd.c ****         epnum++;
 807              		.loc 1 357 0
 808 04cc FB69     		ldr	r3, [r7, #28]
 809 04ce 0133     		adds	r3, r3, #1
 810 04d0 FB61     		str	r3, [r7, #28]
 358:../STM32F2xx_HAL_Driver/Src/stm32f2xx_hal_pcd.c ****         ep_intr >>= 1;
 811              		.loc 1 358 0
 812 04d2 3B6A     		ldr	r3, [r7, #32]
 813 04d4 5B08     		lsrs	r3, r3, #1
 814 04d6 3B62     		str	r3, [r7, #32]
 815              	.L24:
 318:../STM32F2xx_HAL_Driver/Src/stm32f2xx_hal_pcd.c ****       {
 816              		.loc 1 318 0 discriminator 1
 817 04d8 3B6A     		ldr	r3, [r7, #32]
 818 04da 002B     		cmp	r3, #0
 819 04dc 7FF459AF 		bne	.L29
 820              	.L23:
 359:../STM32F2xx_HAL_Driver/Src/stm32f2xx_hal_pcd.c ****       }
 360:../STM32F2xx_HAL_Driver/Src/stm32f2xx_hal_pcd.c ****     }
 361:../STM32F2xx_HAL_Driver/Src/stm32f2xx_hal_pcd.c ****     
 362:../STM32F2xx_HAL_Driver/Src/stm32f2xx_hal_pcd.c ****     if(__HAL_GET_FLAG(hpcd, USB_OTG_GINTSTS_IEPINT))
 821              		.loc 1 362 0
 822 04e0 7B68     		ldr	r3, [r7, #4]
 823 04e2 1B68     		ldr	r3, [r3]
 824 04e4 1846     		mov	r0, r3
 825 04e6 FFF7FEFF 		bl	USB_ReadInterrupts
 826 04ea 0346     		mov	r3, r0
 827 04ec 03F48023 		and	r3, r3, #262144
 828 04f0 002B     		cmp	r3, #0
 829 04f2 00F0B980 		beq	.L30
 363:../STM32F2xx_HAL_Driver/Src/stm32f2xx_hal_pcd.c ****     {
 364:../STM32F2xx_HAL_Driver/Src/stm32f2xx_hal_pcd.c ****       /* Read in the device interrupt bits */
 365:../STM32F2xx_HAL_Driver/Src/stm32f2xx_hal_pcd.c ****       ep_intr = USB_ReadDevAllInEpInterrupt(hpcd->Instance);
 830              		.loc 1 365 0
 831 04f6 7B68     		ldr	r3, [r7, #4]
 832 04f8 1B68     		ldr	r3, [r3]
 833 04fa 1846     		mov	r0, r3
 834 04fc FFF7FEFF 		bl	USB_ReadDevAllInEpInterrupt
 835 0500 3862     		str	r0, [r7, #32]
 366:../STM32F2xx_HAL_Driver/Src/stm32f2xx_hal_pcd.c ****       
 367:../STM32F2xx_HAL_Driver/Src/stm32f2xx_hal_pcd.c ****       epnum = 0;
 836              		.loc 1 367 0
 837 0502 0023     		movs	r3, #0
 838 0504 FB61     		str	r3, [r7, #28]
 368:../STM32F2xx_HAL_Driver/Src/stm32f2xx_hal_pcd.c ****       
 369:../STM32F2xx_HAL_Driver/Src/stm32f2xx_hal_pcd.c ****       while ( ep_intr )
 839              		.loc 1 369 0
 840 0506 ABE0     		b	.L31
 841              	.L39:
 370:../STM32F2xx_HAL_Driver/Src/stm32f2xx_hal_pcd.c ****       {
 371:../STM32F2xx_HAL_Driver/Src/stm32f2xx_hal_pcd.c ****         if (ep_intr & 0x1) /* In ITR */
 842              		.loc 1 371 0
 843 0508 3B6A     		ldr	r3, [r7, #32]
 844 050a 03F00103 		and	r3, r3, #1
 845 050e 002B     		cmp	r3, #0
 846 0510 00F0A080 		beq	.L32
 372:../STM32F2xx_HAL_Driver/Src/stm32f2xx_hal_pcd.c ****         {
 373:../STM32F2xx_HAL_Driver/Src/stm32f2xx_hal_pcd.c ****           epint = USB_ReadDevInEPInterrupt(hpcd->Instance, epnum);
 847              		.loc 1 373 0
 848 0514 7B68     		ldr	r3, [r7, #4]
 849 0516 1A68     		ldr	r2, [r3]
 850 0518 FB69     		ldr	r3, [r7, #28]
 851 051a DBB2     		uxtb	r3, r3
 852 051c 1046     		mov	r0, r2
 853 051e 1946     		mov	r1, r3
 854 0520 FFF7FEFF 		bl	USB_ReadDevInEPInterrupt
 855 0524 7861     		str	r0, [r7, #20]
 374:../STM32F2xx_HAL_Driver/Src/stm32f2xx_hal_pcd.c **** 
 375:../STM32F2xx_HAL_Driver/Src/stm32f2xx_hal_pcd.c ****            if(( epint & USB_OTG_DIEPINT_XFRC) == USB_OTG_DIEPINT_XFRC)
 856              		.loc 1 375 0
 857 0526 7B69     		ldr	r3, [r7, #20]
 858 0528 03F00103 		and	r3, r3, #1
 859 052c 002B     		cmp	r3, #0
 860 052e 54D0     		beq	.L33
 376:../STM32F2xx_HAL_Driver/Src/stm32f2xx_hal_pcd.c ****           {
 377:../STM32F2xx_HAL_Driver/Src/stm32f2xx_hal_pcd.c ****             fifoemptymsk = 0x1 << epnum;
 861              		.loc 1 377 0
 862 0530 FB69     		ldr	r3, [r7, #28]
 863 0532 0122     		movs	r2, #1
 864 0534 02FA03F3 		lsl	r3, r2, r3
 865 0538 3B61     		str	r3, [r7, #16]
 378:../STM32F2xx_HAL_Driver/Src/stm32f2xx_hal_pcd.c ****             USBx_DEVICE->DIEPEMPMSK = ~fifoemptymsk;
 866              		.loc 1 378 0
 867 053a BB69     		ldr	r3, [r7, #24]
 868 053c 03F50063 		add	r3, r3, #2048
 869 0540 3A69     		ldr	r2, [r7, #16]
 870 0542 D243     		mvns	r2, r2
 871 0544 5A63     		str	r2, [r3, #52]
 379:../STM32F2xx_HAL_Driver/Src/stm32f2xx_hal_pcd.c ****             
 380:../STM32F2xx_HAL_Driver/Src/stm32f2xx_hal_pcd.c ****             CLEAR_IN_EP_INTR(epnum, USB_OTG_DIEPINT_XFRC);
 872              		.loc 1 380 0
 873 0546 FB69     		ldr	r3, [r7, #28]
 874 0548 5A01     		lsls	r2, r3, #5
 875 054a BB69     		ldr	r3, [r7, #24]
 876 054c 1344     		add	r3, r3, r2
 877 054e 03F51063 		add	r3, r3, #2304
 878 0552 0122     		movs	r2, #1
 879 0554 9A60     		str	r2, [r3, #8]
 381:../STM32F2xx_HAL_Driver/Src/stm32f2xx_hal_pcd.c ****             
 382:../STM32F2xx_HAL_Driver/Src/stm32f2xx_hal_pcd.c ****             if (hpcd->Init.dma_enable == 1)
 880              		.loc 1 382 0
 881 0556 7B68     		ldr	r3, [r7, #4]
 882 0558 1B69     		ldr	r3, [r3, #16]
 883 055a 012B     		cmp	r3, #1
 884 055c 1BD1     		bne	.L34
 383:../STM32F2xx_HAL_Driver/Src/stm32f2xx_hal_pcd.c ****             {
 384:../STM32F2xx_HAL_Driver/Src/stm32f2xx_hal_pcd.c ****               hpcd->IN_ep[epnum].xfer_buff += hpcd->IN_ep[epnum].maxpacket; 
 885              		.loc 1 384 0
 886 055e 7968     		ldr	r1, [r7, #4]
 887 0560 FA69     		ldr	r2, [r7, #28]
 888 0562 1346     		mov	r3, r2
 889 0564 DB00     		lsls	r3, r3, #3
 890 0566 9B1A     		subs	r3, r3, r2
 891 0568 9B00     		lsls	r3, r3, #2
 892 056a 0B44     		add	r3, r3, r1
 893 056c 3C33     		adds	r3, r3, #60
 894 056e 1968     		ldr	r1, [r3]
 895 0570 7868     		ldr	r0, [r7, #4]
 896 0572 FA69     		ldr	r2, [r7, #28]
 897 0574 1346     		mov	r3, r2
 898 0576 DB00     		lsls	r3, r3, #3
 899 0578 9B1A     		subs	r3, r3, r2
 900 057a 9B00     		lsls	r3, r3, #2
 901 057c 0344     		add	r3, r3, r0
 902 057e 3833     		adds	r3, r3, #56
 903 0580 1B68     		ldr	r3, [r3]
 904 0582 1944     		add	r1, r1, r3
 905 0584 7868     		ldr	r0, [r7, #4]
 906 0586 FA69     		ldr	r2, [r7, #28]
 907 0588 1346     		mov	r3, r2
 908 058a DB00     		lsls	r3, r3, #3
 909 058c 9B1A     		subs	r3, r3, r2
 910 058e 9B00     		lsls	r3, r3, #2
 911 0590 0344     		add	r3, r3, r0
 912 0592 3C33     		adds	r3, r3, #60
 913 0594 1960     		str	r1, [r3]
 914              	.L34:
 385:../STM32F2xx_HAL_Driver/Src/stm32f2xx_hal_pcd.c ****             }
 386:../STM32F2xx_HAL_Driver/Src/stm32f2xx_hal_pcd.c ****                                       
 387:../STM32F2xx_HAL_Driver/Src/stm32f2xx_hal_pcd.c ****             HAL_PCD_DataInStageCallback(hpcd, epnum);
 915              		.loc 1 387 0
 916 0596 FB69     		ldr	r3, [r7, #28]
 917 0598 DBB2     		uxtb	r3, r3
 918 059a 7868     		ldr	r0, [r7, #4]
 919 059c 1946     		mov	r1, r3
 920 059e FFF7FEFF 		bl	HAL_PCD_DataInStageCallback
 388:../STM32F2xx_HAL_Driver/Src/stm32f2xx_hal_pcd.c **** 
 389:../STM32F2xx_HAL_Driver/Src/stm32f2xx_hal_pcd.c ****             if (hpcd->Init.dma_enable == 1)
 921              		.loc 1 389 0
 922 05a2 7B68     		ldr	r3, [r7, #4]
 923 05a4 1B69     		ldr	r3, [r3, #16]
 924 05a6 012B     		cmp	r3, #1
 925 05a8 17D1     		bne	.L33
 390:../STM32F2xx_HAL_Driver/Src/stm32f2xx_hal_pcd.c ****             {
 391:../STM32F2xx_HAL_Driver/Src/stm32f2xx_hal_pcd.c ****               /* this is ZLP, so prepare EP0 for next setup */
 392:../STM32F2xx_HAL_Driver/Src/stm32f2xx_hal_pcd.c ****               if((epnum == 0) && (hpcd->IN_ep[epnum].xfer_len == 0))
 926              		.loc 1 392 0
 927 05aa FB69     		ldr	r3, [r7, #28]
 928 05ac 002B     		cmp	r3, #0
 929 05ae 14D1     		bne	.L33
 930              		.loc 1 392 0 is_stmt 0 discriminator 1
 931 05b0 7968     		ldr	r1, [r7, #4]
 932 05b2 FA69     		ldr	r2, [r7, #28]
 933 05b4 1346     		mov	r3, r2
 934 05b6 DB00     		lsls	r3, r3, #3
 935 05b8 9B1A     		subs	r3, r3, r2
 936 05ba 9B00     		lsls	r3, r3, #2
 937 05bc 0B44     		add	r3, r3, r1
 938 05be 4433     		adds	r3, r3, #68
 939 05c0 1B68     		ldr	r3, [r3]
 940 05c2 002B     		cmp	r3, #0
 941 05c4 09D1     		bne	.L33
 393:../STM32F2xx_HAL_Driver/Src/stm32f2xx_hal_pcd.c ****               {
 394:../STM32F2xx_HAL_Driver/Src/stm32f2xx_hal_pcd.c ****                 /* prepare to rx more setup packets */
 395:../STM32F2xx_HAL_Driver/Src/stm32f2xx_hal_pcd.c ****                 USB_EP0_OutStart(hpcd->Instance, 1, (uint8_t *)hpcd->Setup);
 942              		.loc 1 395 0 is_stmt 1
 943 05c6 7B68     		ldr	r3, [r7, #4]
 944 05c8 1A68     		ldr	r2, [r3]
 945 05ca 7B68     		ldr	r3, [r7, #4]
 946 05cc 03F55F73 		add	r3, r3, #892
 947 05d0 1046     		mov	r0, r2
 948 05d2 0121     		movs	r1, #1
 949 05d4 1A46     		mov	r2, r3
 950 05d6 FFF7FEFF 		bl	USB_EP0_OutStart
 951              	.L33:
 396:../STM32F2xx_HAL_Driver/Src/stm32f2xx_hal_pcd.c ****               }
 397:../STM32F2xx_HAL_Driver/Src/stm32f2xx_hal_pcd.c ****             }           
 398:../STM32F2xx_HAL_Driver/Src/stm32f2xx_hal_pcd.c ****           }
 399:../STM32F2xx_HAL_Driver/Src/stm32f2xx_hal_pcd.c ****            if(( epint & USB_OTG_DIEPINT_TOC) == USB_OTG_DIEPINT_TOC)
 952              		.loc 1 399 0
 953 05da 7B69     		ldr	r3, [r7, #20]
 954 05dc 03F00803 		and	r3, r3, #8
 955 05e0 002B     		cmp	r3, #0
 956 05e2 07D0     		beq	.L35
 400:../STM32F2xx_HAL_Driver/Src/stm32f2xx_hal_pcd.c ****           {
 401:../STM32F2xx_HAL_Driver/Src/stm32f2xx_hal_pcd.c ****             CLEAR_IN_EP_INTR(epnum, USB_OTG_DIEPINT_TOC);
 957              		.loc 1 401 0
 958 05e4 FB69     		ldr	r3, [r7, #28]
 959 05e6 5A01     		lsls	r2, r3, #5
 960 05e8 BB69     		ldr	r3, [r7, #24]
 961 05ea 1344     		add	r3, r3, r2
 962 05ec 03F51063 		add	r3, r3, #2304
 963 05f0 0822     		movs	r2, #8
 964 05f2 9A60     		str	r2, [r3, #8]
 965              	.L35:
 402:../STM32F2xx_HAL_Driver/Src/stm32f2xx_hal_pcd.c ****           }
 403:../STM32F2xx_HAL_Driver/Src/stm32f2xx_hal_pcd.c ****           if(( epint & USB_OTG_DIEPINT_ITTXFE) == USB_OTG_DIEPINT_ITTXFE)
 966              		.loc 1 403 0
 967 05f4 7B69     		ldr	r3, [r7, #20]
 968 05f6 03F01003 		and	r3, r3, #16
 969 05fa 002B     		cmp	r3, #0
 970 05fc 07D0     		beq	.L36
 404:../STM32F2xx_HAL_Driver/Src/stm32f2xx_hal_pcd.c ****           {
 405:../STM32F2xx_HAL_Driver/Src/stm32f2xx_hal_pcd.c ****             CLEAR_IN_EP_INTR(epnum, USB_OTG_DIEPINT_ITTXFE);
 971              		.loc 1 405 0
 972 05fe FB69     		ldr	r3, [r7, #28]
 973 0600 5A01     		lsls	r2, r3, #5
 974 0602 BB69     		ldr	r3, [r7, #24]
 975 0604 1344     		add	r3, r3, r2
 976 0606 03F51063 		add	r3, r3, #2304
 977 060a 1022     		movs	r2, #16
 978 060c 9A60     		str	r2, [r3, #8]
 979              	.L36:
 406:../STM32F2xx_HAL_Driver/Src/stm32f2xx_hal_pcd.c ****           }
 407:../STM32F2xx_HAL_Driver/Src/stm32f2xx_hal_pcd.c ****           if(( epint & USB_OTG_DIEPINT_INEPNE) == USB_OTG_DIEPINT_INEPNE)
 980              		.loc 1 407 0
 981 060e 7B69     		ldr	r3, [r7, #20]
 982 0610 03F04003 		and	r3, r3, #64
 983 0614 002B     		cmp	r3, #0
 984 0616 07D0     		beq	.L37
 408:../STM32F2xx_HAL_Driver/Src/stm32f2xx_hal_pcd.c ****           {
 409:../STM32F2xx_HAL_Driver/Src/stm32f2xx_hal_pcd.c ****             CLEAR_IN_EP_INTR(epnum, USB_OTG_DIEPINT_INEPNE);
 985              		.loc 1 409 0
 986 0618 FB69     		ldr	r3, [r7, #28]
 987 061a 5A01     		lsls	r2, r3, #5
 988 061c BB69     		ldr	r3, [r7, #24]
 989 061e 1344     		add	r3, r3, r2
 990 0620 03F51063 		add	r3, r3, #2304
 991 0624 4022     		movs	r2, #64
 992 0626 9A60     		str	r2, [r3, #8]
 993              	.L37:
 410:../STM32F2xx_HAL_Driver/Src/stm32f2xx_hal_pcd.c ****           }
 411:../STM32F2xx_HAL_Driver/Src/stm32f2xx_hal_pcd.c ****           if(( epint & USB_OTG_DIEPINT_EPDISD) == USB_OTG_DIEPINT_EPDISD)
 994              		.loc 1 411 0
 995 0628 7B69     		ldr	r3, [r7, #20]
 996 062a 03F00203 		and	r3, r3, #2
 997 062e 002B     		cmp	r3, #0
 998 0630 07D0     		beq	.L38
 412:../STM32F2xx_HAL_Driver/Src/stm32f2xx_hal_pcd.c ****           {
 413:../STM32F2xx_HAL_Driver/Src/stm32f2xx_hal_pcd.c ****             CLEAR_IN_EP_INTR(epnum, USB_OTG_DIEPINT_EPDISD);
 999              		.loc 1 413 0
 1000 0632 FB69     		ldr	r3, [r7, #28]
 1001 0634 5A01     		lsls	r2, r3, #5
 1002 0636 BB69     		ldr	r3, [r7, #24]
 1003 0638 1344     		add	r3, r3, r2
 1004 063a 03F51063 		add	r3, r3, #2304
 1005 063e 0222     		movs	r2, #2
 1006 0640 9A60     		str	r2, [r3, #8]
 1007              	.L38:
 414:../STM32F2xx_HAL_Driver/Src/stm32f2xx_hal_pcd.c ****           }       
 415:../STM32F2xx_HAL_Driver/Src/stm32f2xx_hal_pcd.c ****           if(( epint & USB_OTG_DIEPINT_TXFE) == USB_OTG_DIEPINT_TXFE)
 1008              		.loc 1 415 0
 1009 0642 7B69     		ldr	r3, [r7, #20]
 1010 0644 03F08003 		and	r3, r3, #128
 1011 0648 002B     		cmp	r3, #0
 1012 064a 03D0     		beq	.L32
 416:../STM32F2xx_HAL_Driver/Src/stm32f2xx_hal_pcd.c ****           {
 417:../STM32F2xx_HAL_Driver/Src/stm32f2xx_hal_pcd.c ****             PCD_WriteEmptyTxFifo(hpcd , epnum);
 1013              		.loc 1 417 0
 1014 064c 7868     		ldr	r0, [r7, #4]
 1015 064e F969     		ldr	r1, [r7, #28]
 1016 0650 00F0D6FD 		bl	PCD_WriteEmptyTxFifo
 1017              	.L32:
 418:../STM32F2xx_HAL_Driver/Src/stm32f2xx_hal_pcd.c ****           }
 419:../STM32F2xx_HAL_Driver/Src/stm32f2xx_hal_pcd.c ****         }
 420:../STM32F2xx_HAL_Driver/Src/stm32f2xx_hal_pcd.c ****         epnum++;
 1018              		.loc 1 420 0
 1019 0654 FB69     		ldr	r3, [r7, #28]
 1020 0656 0133     		adds	r3, r3, #1
 1021 0658 FB61     		str	r3, [r7, #28]
 421:../STM32F2xx_HAL_Driver/Src/stm32f2xx_hal_pcd.c ****         ep_intr >>= 1;
 1022              		.loc 1 421 0
 1023 065a 3B6A     		ldr	r3, [r7, #32]
 1024 065c 5B08     		lsrs	r3, r3, #1
 1025 065e 3B62     		str	r3, [r7, #32]
 1026              	.L31:
 369:../STM32F2xx_HAL_Driver/Src/stm32f2xx_hal_pcd.c ****       {
 1027              		.loc 1 369 0 discriminator 1
 1028 0660 3B6A     		ldr	r3, [r7, #32]
 1029 0662 002B     		cmp	r3, #0
 1030 0664 7FF450AF 		bne	.L39
 1031              	.L30:
 422:../STM32F2xx_HAL_Driver/Src/stm32f2xx_hal_pcd.c ****       }
 423:../STM32F2xx_HAL_Driver/Src/stm32f2xx_hal_pcd.c ****     }
 424:../STM32F2xx_HAL_Driver/Src/stm32f2xx_hal_pcd.c ****     
 425:../STM32F2xx_HAL_Driver/Src/stm32f2xx_hal_pcd.c ****     /* Handle Resume Interrupt */
 426:../STM32F2xx_HAL_Driver/Src/stm32f2xx_hal_pcd.c ****     if(__HAL_GET_FLAG(hpcd, USB_OTG_GINTSTS_WKUINT))
 1032              		.loc 1 426 0
 1033 0668 7B68     		ldr	r3, [r7, #4]
 1034 066a 1B68     		ldr	r3, [r3]
 1035 066c 1846     		mov	r0, r3
 1036 066e FFF7FEFF 		bl	USB_ReadInterrupts
 1037 0672 0346     		mov	r3, r0
 1038 0674 002B     		cmp	r3, #0
 1039 0676 14DA     		bge	.L40
 427:../STM32F2xx_HAL_Driver/Src/stm32f2xx_hal_pcd.c ****     {    
 428:../STM32F2xx_HAL_Driver/Src/stm32f2xx_hal_pcd.c ****      /* Clear the Remote Wake-up Signaling */
 429:../STM32F2xx_HAL_Driver/Src/stm32f2xx_hal_pcd.c ****       USBx_DEVICE->DCTL &= ~USB_OTG_DCTL_RWUSIG;
 1040              		.loc 1 429 0
 1041 0678 BB69     		ldr	r3, [r7, #24]
 1042 067a 03F50063 		add	r3, r3, #2048
 1043 067e BA69     		ldr	r2, [r7, #24]
 1044 0680 02F50062 		add	r2, r2, #2048
 1045 0684 5268     		ldr	r2, [r2, #4]
 1046 0686 22F00102 		bic	r2, r2, #1
 1047 068a 5A60     		str	r2, [r3, #4]
 430:../STM32F2xx_HAL_Driver/Src/stm32f2xx_hal_pcd.c ****      
 431:../STM32F2xx_HAL_Driver/Src/stm32f2xx_hal_pcd.c ****      HAL_PCD_ResumeCallback(hpcd);
 1048              		.loc 1 431 0
 1049 068c 7868     		ldr	r0, [r7, #4]
 1050 068e FFF7FEFF 		bl	HAL_PCD_ResumeCallback
 432:../STM32F2xx_HAL_Driver/Src/stm32f2xx_hal_pcd.c **** 
 433:../STM32F2xx_HAL_Driver/Src/stm32f2xx_hal_pcd.c ****      __HAL_CLEAR_FLAG(hpcd, USB_OTG_GINTSTS_WKUINT);
 1051              		.loc 1 433 0
 1052 0692 7B68     		ldr	r3, [r7, #4]
 1053 0694 1B68     		ldr	r3, [r3]
 1054 0696 7A68     		ldr	r2, [r7, #4]
 1055 0698 1268     		ldr	r2, [r2]
 1056 069a 5269     		ldr	r2, [r2, #20]
 1057 069c 42F00042 		orr	r2, r2, #-2147483648
 1058 06a0 5A61     		str	r2, [r3, #20]
 1059              	.L40:
 434:../STM32F2xx_HAL_Driver/Src/stm32f2xx_hal_pcd.c ****     }
 435:../STM32F2xx_HAL_Driver/Src/stm32f2xx_hal_pcd.c ****     
 436:../STM32F2xx_HAL_Driver/Src/stm32f2xx_hal_pcd.c ****     /* Handle Suspend Interrupt */
 437:../STM32F2xx_HAL_Driver/Src/stm32f2xx_hal_pcd.c ****     if(__HAL_GET_FLAG(hpcd, USB_OTG_GINTSTS_USBSUSP))
 1060              		.loc 1 437 0
 1061 06a2 7B68     		ldr	r3, [r7, #4]
 1062 06a4 1B68     		ldr	r3, [r3]
 1063 06a6 1846     		mov	r0, r3
 1064 06a8 FFF7FEFF 		bl	USB_ReadInterrupts
 1065 06ac 0346     		mov	r3, r0
 1066 06ae 03F40063 		and	r3, r3, #2048
 1067 06b2 002B     		cmp	r3, #0
 1068 06b4 12D0     		beq	.L41
 438:../STM32F2xx_HAL_Driver/Src/stm32f2xx_hal_pcd.c ****     {
 439:../STM32F2xx_HAL_Driver/Src/stm32f2xx_hal_pcd.c **** 
 440:../STM32F2xx_HAL_Driver/Src/stm32f2xx_hal_pcd.c ****       if((USBx_DEVICE->DSTS & USB_OTG_DSTS_SUSPSTS) == USB_OTG_DSTS_SUSPSTS)
 1069              		.loc 1 440 0
 1070 06b6 BB69     		ldr	r3, [r7, #24]
 1071 06b8 03F50063 		add	r3, r3, #2048
 1072 06bc 9B68     		ldr	r3, [r3, #8]
 1073 06be 03F00103 		and	r3, r3, #1
 1074 06c2 002B     		cmp	r3, #0
 1075 06c4 02D0     		beq	.L42
 441:../STM32F2xx_HAL_Driver/Src/stm32f2xx_hal_pcd.c ****       { 
 442:../STM32F2xx_HAL_Driver/Src/stm32f2xx_hal_pcd.c ****         HAL_PCD_SuspendCallback(hpcd);
 1076              		.loc 1 442 0
 1077 06c6 7868     		ldr	r0, [r7, #4]
 1078 06c8 FFF7FEFF 		bl	HAL_PCD_SuspendCallback
 1079              	.L42:
 443:../STM32F2xx_HAL_Driver/Src/stm32f2xx_hal_pcd.c ****       }
 444:../STM32F2xx_HAL_Driver/Src/stm32f2xx_hal_pcd.c ****       __HAL_CLEAR_FLAG(hpcd, USB_OTG_GINTSTS_USBSUSP);
 1080              		.loc 1 444 0
 1081 06cc 7B68     		ldr	r3, [r7, #4]
 1082 06ce 1B68     		ldr	r3, [r3]
 1083 06d0 7A68     		ldr	r2, [r7, #4]
 1084 06d2 1268     		ldr	r2, [r2]
 1085 06d4 5269     		ldr	r2, [r2, #20]
 1086 06d6 42F40062 		orr	r2, r2, #2048
 1087 06da 5A61     		str	r2, [r3, #20]
 1088              	.L41:
 445:../STM32F2xx_HAL_Driver/Src/stm32f2xx_hal_pcd.c ****     }
 446:../STM32F2xx_HAL_Driver/Src/stm32f2xx_hal_pcd.c ****     
 447:../STM32F2xx_HAL_Driver/Src/stm32f2xx_hal_pcd.c ****     /* Handle Reset Interrupt */
 448:../STM32F2xx_HAL_Driver/Src/stm32f2xx_hal_pcd.c ****     if(__HAL_GET_FLAG(hpcd, USB_OTG_GINTSTS_USBRST))
 1089              		.loc 1 448 0
 1090 06dc 7B68     		ldr	r3, [r7, #4]
 1091 06de 1B68     		ldr	r3, [r3]
 1092 06e0 1846     		mov	r0, r3
 1093 06e2 FFF7FEFF 		bl	USB_ReadInterrupts
 1094 06e6 0346     		mov	r3, r0
 1095 06e8 03F48053 		and	r3, r3, #4096
 1096 06ec 002B     		cmp	r3, #0
 1097 06ee 00F08980 		beq	.L43
 449:../STM32F2xx_HAL_Driver/Src/stm32f2xx_hal_pcd.c ****     {
 450:../STM32F2xx_HAL_Driver/Src/stm32f2xx_hal_pcd.c ****       USBx_DEVICE->DCTL &= ~USB_OTG_DCTL_RWUSIG; 
 1098              		.loc 1 450 0
 1099 06f2 BB69     		ldr	r3, [r7, #24]
 1100 06f4 03F50063 		add	r3, r3, #2048
 1101 06f8 BA69     		ldr	r2, [r7, #24]
 1102 06fa 02F50062 		add	r2, r2, #2048
 1103 06fe 5268     		ldr	r2, [r2, #4]
 1104 0700 22F00102 		bic	r2, r2, #1
 1105 0704 5A60     		str	r2, [r3, #4]
 451:../STM32F2xx_HAL_Driver/Src/stm32f2xx_hal_pcd.c ****       USB_FlushTxFifo(hpcd->Instance ,  0 );
 1106              		.loc 1 451 0
 1107 0706 7B68     		ldr	r3, [r7, #4]
 1108 0708 1B68     		ldr	r3, [r3]
 1109 070a 1846     		mov	r0, r3
 1110 070c 0021     		movs	r1, #0
 1111 070e FFF7FEFF 		bl	USB_FlushTxFifo
 452:../STM32F2xx_HAL_Driver/Src/stm32f2xx_hal_pcd.c ****       
 453:../STM32F2xx_HAL_Driver/Src/stm32f2xx_hal_pcd.c ****       for (i = 0; i < hpcd->Init.dev_endpoints ; i++)
 1112              		.loc 1 453 0
 1113 0712 0023     		movs	r3, #0
 1114 0714 7B62     		str	r3, [r7, #36]
 1115 0716 12E0     		b	.L44
 1116              	.L45:
 454:../STM32F2xx_HAL_Driver/Src/stm32f2xx_hal_pcd.c ****       {
 455:../STM32F2xx_HAL_Driver/Src/stm32f2xx_hal_pcd.c ****         USBx_INEP(i)->DIEPINT = 0xFF;
 1117              		.loc 1 455 0 discriminator 2
 1118 0718 7B6A     		ldr	r3, [r7, #36]
 1119 071a 5A01     		lsls	r2, r3, #5
 1120 071c BB69     		ldr	r3, [r7, #24]
 1121 071e 1344     		add	r3, r3, r2
 1122 0720 03F51063 		add	r3, r3, #2304
 1123 0724 FF22     		movs	r2, #255
 1124 0726 9A60     		str	r2, [r3, #8]
 456:../STM32F2xx_HAL_Driver/Src/stm32f2xx_hal_pcd.c ****         USBx_OUTEP(i)->DOEPINT = 0xFF;
 1125              		.loc 1 456 0 discriminator 2
 1126 0728 7B6A     		ldr	r3, [r7, #36]
 1127 072a 5A01     		lsls	r2, r3, #5
 1128 072c BB69     		ldr	r3, [r7, #24]
 1129 072e 1344     		add	r3, r3, r2
 1130 0730 03F53063 		add	r3, r3, #2816
 1131 0734 FF22     		movs	r2, #255
 1132 0736 9A60     		str	r2, [r3, #8]
 453:../STM32F2xx_HAL_Driver/Src/stm32f2xx_hal_pcd.c ****       {
 1133              		.loc 1 453 0 discriminator 2
 1134 0738 7B6A     		ldr	r3, [r7, #36]
 1135 073a 0133     		adds	r3, r3, #1
 1136 073c 7B62     		str	r3, [r7, #36]
 1137              	.L44:
 453:../STM32F2xx_HAL_Driver/Src/stm32f2xx_hal_pcd.c ****       {
 1138              		.loc 1 453 0 is_stmt 0 discriminator 1
 1139 073e 7B68     		ldr	r3, [r7, #4]
 1140 0740 5A68     		ldr	r2, [r3, #4]
 1141 0742 7B6A     		ldr	r3, [r7, #36]
 1142 0744 9A42     		cmp	r2, r3
 1143 0746 E7D8     		bhi	.L45
 457:../STM32F2xx_HAL_Driver/Src/stm32f2xx_hal_pcd.c ****       }
 458:../STM32F2xx_HAL_Driver/Src/stm32f2xx_hal_pcd.c ****       USBx_DEVICE->DAINT = 0xFFFFFFFF;
 1144              		.loc 1 458 0 is_stmt 1
 1145 0748 BB69     		ldr	r3, [r7, #24]
 1146 074a 03F50063 		add	r3, r3, #2048
 1147 074e 4FF0FF32 		mov	r2, #-1
 1148 0752 9A61     		str	r2, [r3, #24]
 459:../STM32F2xx_HAL_Driver/Src/stm32f2xx_hal_pcd.c ****       USBx_DEVICE->DAINTMSK |= 0x10001;
 1149              		.loc 1 459 0
 1150 0754 BB69     		ldr	r3, [r7, #24]
 1151 0756 03F50063 		add	r3, r3, #2048
 1152 075a BA69     		ldr	r2, [r7, #24]
 1153 075c 02F50062 		add	r2, r2, #2048
 1154 0760 D269     		ldr	r2, [r2, #28]
 1155 0762 42F00112 		orr	r2, r2, #65537
 1156 0766 DA61     		str	r2, [r3, #28]
 460:../STM32F2xx_HAL_Driver/Src/stm32f2xx_hal_pcd.c ****       
 461:../STM32F2xx_HAL_Driver/Src/stm32f2xx_hal_pcd.c ****       if(hpcd->Init.use_dedicated_ep1)
 1157              		.loc 1 461 0
 1158 0768 7B68     		ldr	r3, [r7, #4]
 1159 076a 9B6A     		ldr	r3, [r3, #40]
 1160 076c 002B     		cmp	r3, #0
 1161 076e 16D0     		beq	.L46
 462:../STM32F2xx_HAL_Driver/Src/stm32f2xx_hal_pcd.c ****       {
 463:../STM32F2xx_HAL_Driver/Src/stm32f2xx_hal_pcd.c ****         USBx_DEVICE->DOUTEP1MSK |= (USB_OTG_DOEPMSK_STUPM | USB_OTG_DOEPMSK_XFRCM | USB_OTG_DOEPMSK
 1162              		.loc 1 463 0
 1163 0770 BB69     		ldr	r3, [r7, #24]
 1164 0772 03F50063 		add	r3, r3, #2048
 1165 0776 BA69     		ldr	r2, [r7, #24]
 1166 0778 02F50062 		add	r2, r2, #2048
 1167 077c D2F88420 		ldr	r2, [r2, #132]
 1168 0780 42F00B02 		orr	r2, r2, #11
 1169 0784 C3F88420 		str	r2, [r3, #132]
 464:../STM32F2xx_HAL_Driver/Src/stm32f2xx_hal_pcd.c ****         USBx_DEVICE->DINEP1MSK |= (USB_OTG_DIEPMSK_TOM | USB_OTG_DIEPMSK_XFRCM | USB_OTG_DIEPMSK_EP
 1170              		.loc 1 464 0
 1171 0788 BB69     		ldr	r3, [r7, #24]
 1172 078a 03F50063 		add	r3, r3, #2048
 1173 078e BA69     		ldr	r2, [r7, #24]
 1174 0790 02F50062 		add	r2, r2, #2048
 1175 0794 526C     		ldr	r2, [r2, #68]
 1176 0796 42F00B02 		orr	r2, r2, #11
 1177 079a 5A64     		str	r2, [r3, #68]
 1178 079c 13E0     		b	.L47
 1179              	.L46:
 465:../STM32F2xx_HAL_Driver/Src/stm32f2xx_hal_pcd.c ****       }
 466:../STM32F2xx_HAL_Driver/Src/stm32f2xx_hal_pcd.c ****       else
 467:../STM32F2xx_HAL_Driver/Src/stm32f2xx_hal_pcd.c ****       {
 468:../STM32F2xx_HAL_Driver/Src/stm32f2xx_hal_pcd.c ****         USBx_DEVICE->DOEPMSK |= (USB_OTG_DOEPMSK_STUPM | USB_OTG_DOEPMSK_XFRCM | USB_OTG_DOEPMSK_EP
 1180              		.loc 1 468 0
 1181 079e BB69     		ldr	r3, [r7, #24]
 1182 07a0 03F50063 		add	r3, r3, #2048
 1183 07a4 BA69     		ldr	r2, [r7, #24]
 1184 07a6 02F50062 		add	r2, r2, #2048
 1185 07aa 5269     		ldr	r2, [r2, #20]
 1186 07ac 42F00B02 		orr	r2, r2, #11
 1187 07b0 5A61     		str	r2, [r3, #20]
 469:../STM32F2xx_HAL_Driver/Src/stm32f2xx_hal_pcd.c ****         USBx_DEVICE->DIEPMSK |= (USB_OTG_DIEPMSK_TOM | USB_OTG_DIEPMSK_XFRCM | USB_OTG_DIEPMSK_EPDM
 1188              		.loc 1 469 0
 1189 07b2 BB69     		ldr	r3, [r7, #24]
 1190 07b4 03F50063 		add	r3, r3, #2048
 1191 07b8 BA69     		ldr	r2, [r7, #24]
 1192 07ba 02F50062 		add	r2, r2, #2048
 1193 07be 1269     		ldr	r2, [r2, #16]
 1194 07c0 42F00B02 		orr	r2, r2, #11
 1195 07c4 1A61     		str	r2, [r3, #16]
 1196              	.L47:
 470:../STM32F2xx_HAL_Driver/Src/stm32f2xx_hal_pcd.c ****       }
 471:../STM32F2xx_HAL_Driver/Src/stm32f2xx_hal_pcd.c ****       
 472:../STM32F2xx_HAL_Driver/Src/stm32f2xx_hal_pcd.c ****       /* Set Default Address to 0 */
 473:../STM32F2xx_HAL_Driver/Src/stm32f2xx_hal_pcd.c ****       USBx_DEVICE->DCFG &= ~USB_OTG_DCFG_DAD;
 1197              		.loc 1 473 0
 1198 07c6 BB69     		ldr	r3, [r7, #24]
 1199 07c8 03F50063 		add	r3, r3, #2048
 1200 07cc BA69     		ldr	r2, [r7, #24]
 1201 07ce 02F50062 		add	r2, r2, #2048
 1202 07d2 1268     		ldr	r2, [r2]
 1203 07d4 22F4FE62 		bic	r2, r2, #2032
 1204 07d8 1A60     		str	r2, [r3]
 474:../STM32F2xx_HAL_Driver/Src/stm32f2xx_hal_pcd.c ****       
 475:../STM32F2xx_HAL_Driver/Src/stm32f2xx_hal_pcd.c ****       /* setup EP0 to receive SETUP packets */
 476:../STM32F2xx_HAL_Driver/Src/stm32f2xx_hal_pcd.c ****       USB_EP0_OutStart(hpcd->Instance, hpcd->Init.dma_enable, (uint8_t *)hpcd->Setup);
 1205              		.loc 1 476 0
 1206 07da 7B68     		ldr	r3, [r7, #4]
 1207 07dc 1968     		ldr	r1, [r3]
 1208 07de 7B68     		ldr	r3, [r7, #4]
 1209 07e0 1B69     		ldr	r3, [r3, #16]
 1210 07e2 DAB2     		uxtb	r2, r3
 1211 07e4 7B68     		ldr	r3, [r7, #4]
 1212 07e6 03F55F73 		add	r3, r3, #892
 1213 07ea 0846     		mov	r0, r1
 1214 07ec 1146     		mov	r1, r2
 1215 07ee 1A46     		mov	r2, r3
 1216 07f0 FFF7FEFF 		bl	USB_EP0_OutStart
 477:../STM32F2xx_HAL_Driver/Src/stm32f2xx_hal_pcd.c ****         
 478:../STM32F2xx_HAL_Driver/Src/stm32f2xx_hal_pcd.c ****       __HAL_CLEAR_FLAG(hpcd, USB_OTG_GINTSTS_USBRST);
 1217              		.loc 1 478 0
 1218 07f4 7B68     		ldr	r3, [r7, #4]
 1219 07f6 1B68     		ldr	r3, [r3]
 1220 07f8 7A68     		ldr	r2, [r7, #4]
 1221 07fa 1268     		ldr	r2, [r2]
 1222 07fc 5269     		ldr	r2, [r2, #20]
 1223 07fe 42F48052 		orr	r2, r2, #4096
 1224 0802 5A61     		str	r2, [r3, #20]
 1225              	.L43:
 479:../STM32F2xx_HAL_Driver/Src/stm32f2xx_hal_pcd.c ****     }
 480:../STM32F2xx_HAL_Driver/Src/stm32f2xx_hal_pcd.c ****     
 481:../STM32F2xx_HAL_Driver/Src/stm32f2xx_hal_pcd.c ****     /* Handle Enumeration done Interrupt */
 482:../STM32F2xx_HAL_Driver/Src/stm32f2xx_hal_pcd.c ****     if(__HAL_GET_FLAG(hpcd, USB_OTG_GINTSTS_ENUMDNE))
 1226              		.loc 1 482 0
 1227 0804 7B68     		ldr	r3, [r7, #4]
 1228 0806 1B68     		ldr	r3, [r3]
 1229 0808 1846     		mov	r0, r3
 1230 080a FFF7FEFF 		bl	USB_ReadInterrupts
 1231 080e 0346     		mov	r3, r0
 1232 0810 03F40053 		and	r3, r3, #8192
 1233 0814 002B     		cmp	r3, #0
 1234 0816 3DD0     		beq	.L48
 483:../STM32F2xx_HAL_Driver/Src/stm32f2xx_hal_pcd.c ****     {
 484:../STM32F2xx_HAL_Driver/Src/stm32f2xx_hal_pcd.c ****       USB_ActivateSetup(hpcd->Instance);
 1235              		.loc 1 484 0
 1236 0818 7B68     		ldr	r3, [r7, #4]
 1237 081a 1B68     		ldr	r3, [r3]
 1238 081c 1846     		mov	r0, r3
 1239 081e FFF7FEFF 		bl	USB_ActivateSetup
 485:../STM32F2xx_HAL_Driver/Src/stm32f2xx_hal_pcd.c ****       hpcd->Instance->GUSBCFG &= ~USB_OTG_GUSBCFG_TRDT;
 1240              		.loc 1 485 0
 1241 0822 7B68     		ldr	r3, [r7, #4]
 1242 0824 1B68     		ldr	r3, [r3]
 1243 0826 7A68     		ldr	r2, [r7, #4]
 1244 0828 1268     		ldr	r2, [r2]
 1245 082a D268     		ldr	r2, [r2, #12]
 1246 082c 22F47052 		bic	r2, r2, #15360
 1247 0830 DA60     		str	r2, [r3, #12]
 486:../STM32F2xx_HAL_Driver/Src/stm32f2xx_hal_pcd.c ****       
 487:../STM32F2xx_HAL_Driver/Src/stm32f2xx_hal_pcd.c ****       if ( USB_GetDevSpeed(hpcd->Instance) == USB_OTG_SPEED_HIGH)
 1248              		.loc 1 487 0
 1249 0832 7B68     		ldr	r3, [r7, #4]
 1250 0834 1B68     		ldr	r3, [r3]
 1251 0836 1846     		mov	r0, r3
 1252 0838 FFF7FEFF 		bl	USB_GetDevSpeed
 1253 083c 0346     		mov	r3, r0
 1254 083e 002B     		cmp	r3, #0
 1255 0840 0FD1     		bne	.L49
 488:../STM32F2xx_HAL_Driver/Src/stm32f2xx_hal_pcd.c ****       {
 489:../STM32F2xx_HAL_Driver/Src/stm32f2xx_hal_pcd.c ****         hpcd->Init.speed            = USB_OTG_SPEED_HIGH;
 1256              		.loc 1 489 0
 1257 0842 7B68     		ldr	r3, [r7, #4]
 1258 0844 0022     		movs	r2, #0
 1259 0846 DA60     		str	r2, [r3, #12]
 490:../STM32F2xx_HAL_Driver/Src/stm32f2xx_hal_pcd.c ****         hpcd->Init.ep0_mps          = USB_OTG_HS_MAX_PACKET_SIZE ;    
 1260              		.loc 1 490 0
 1261 0848 7B68     		ldr	r3, [r7, #4]
 1262 084a 4FF40072 		mov	r2, #512
 1263 084e 5A61     		str	r2, [r3, #20]
 491:../STM32F2xx_HAL_Driver/Src/stm32f2xx_hal_pcd.c ****         hpcd->Instance->GUSBCFG |= (USB_OTG_GUSBCFG_TRDT_0 | USB_OTG_GUSBCFG_TRDT_3);
 1264              		.loc 1 491 0
 1265 0850 7B68     		ldr	r3, [r7, #4]
 1266 0852 1B68     		ldr	r3, [r3]
 1267 0854 7A68     		ldr	r2, [r7, #4]
 1268 0856 1268     		ldr	r2, [r2]
 1269 0858 D268     		ldr	r2, [r2, #12]
 1270 085a 42F41052 		orr	r2, r2, #9216
 1271 085e DA60     		str	r2, [r3, #12]
 1272 0860 0DE0     		b	.L50
 1273              	.L49:
 492:../STM32F2xx_HAL_Driver/Src/stm32f2xx_hal_pcd.c ****       }
 493:../STM32F2xx_HAL_Driver/Src/stm32f2xx_hal_pcd.c ****       else
 494:../STM32F2xx_HAL_Driver/Src/stm32f2xx_hal_pcd.c ****       {
 495:../STM32F2xx_HAL_Driver/Src/stm32f2xx_hal_pcd.c ****         hpcd->Init.speed            = USB_OTG_SPEED_FULL;
 1274              		.loc 1 495 0
 1275 0862 7B68     		ldr	r3, [r7, #4]
 1276 0864 0322     		movs	r2, #3
 1277 0866 DA60     		str	r2, [r3, #12]
 496:../STM32F2xx_HAL_Driver/Src/stm32f2xx_hal_pcd.c ****         hpcd->Init.ep0_mps          = USB_OTG_FS_MAX_PACKET_SIZE ;  
 1278              		.loc 1 496 0
 1279 0868 7B68     		ldr	r3, [r7, #4]
 1280 086a 4022     		movs	r2, #64
 1281 086c 5A61     		str	r2, [r3, #20]
 497:../STM32F2xx_HAL_Driver/Src/stm32f2xx_hal_pcd.c ****         hpcd->Instance->GUSBCFG |= (USB_OTG_GUSBCFG_TRDT_0 | USB_OTG_GUSBCFG_TRDT_2);
 1282              		.loc 1 497 0
 1283 086e 7B68     		ldr	r3, [r7, #4]
 1284 0870 1B68     		ldr	r3, [r3]
 1285 0872 7A68     		ldr	r2, [r7, #4]
 1286 0874 1268     		ldr	r2, [r2]
 1287 0876 D268     		ldr	r2, [r2, #12]
 1288 0878 42F4A052 		orr	r2, r2, #5120
 1289 087c DA60     		str	r2, [r3, #12]
 1290              	.L50:
 498:../STM32F2xx_HAL_Driver/Src/stm32f2xx_hal_pcd.c ****       }
 499:../STM32F2xx_HAL_Driver/Src/stm32f2xx_hal_pcd.c ****       
 500:../STM32F2xx_HAL_Driver/Src/stm32f2xx_hal_pcd.c ****       HAL_PCD_ResetCallback(hpcd);
 1291              		.loc 1 500 0
 1292 087e 7868     		ldr	r0, [r7, #4]
 1293 0880 FFF7FEFF 		bl	HAL_PCD_ResetCallback
 501:../STM32F2xx_HAL_Driver/Src/stm32f2xx_hal_pcd.c ****       
 502:../STM32F2xx_HAL_Driver/Src/stm32f2xx_hal_pcd.c ****       __HAL_CLEAR_FLAG(hpcd, USB_OTG_GINTSTS_ENUMDNE);
 1294              		.loc 1 502 0
 1295 0884 7B68     		ldr	r3, [r7, #4]
 1296 0886 1B68     		ldr	r3, [r3]
 1297 0888 7A68     		ldr	r2, [r7, #4]
 1298 088a 1268     		ldr	r2, [r2]
 1299 088c 5269     		ldr	r2, [r2, #20]
 1300 088e 42F40052 		orr	r2, r2, #8192
 1301 0892 5A61     		str	r2, [r3, #20]
 1302              	.L48:
 503:../STM32F2xx_HAL_Driver/Src/stm32f2xx_hal_pcd.c ****     }
 504:../STM32F2xx_HAL_Driver/Src/stm32f2xx_hal_pcd.c ****     
 505:../STM32F2xx_HAL_Driver/Src/stm32f2xx_hal_pcd.c ****      
 506:../STM32F2xx_HAL_Driver/Src/stm32f2xx_hal_pcd.c ****     /* Handle RxQLevel Interrupt */
 507:../STM32F2xx_HAL_Driver/Src/stm32f2xx_hal_pcd.c ****     if(__HAL_GET_FLAG(hpcd, USB_OTG_GINTSTS_RXFLVL))
 1303              		.loc 1 507 0
 1304 0894 7B68     		ldr	r3, [r7, #4]
 1305 0896 1B68     		ldr	r3, [r3]
 1306 0898 1846     		mov	r0, r3
 1307 089a FFF7FEFF 		bl	USB_ReadInterrupts
 1308 089e 0346     		mov	r3, r0
 1309 08a0 03F01003 		and	r3, r3, #16
 1310 08a4 002B     		cmp	r3, #0
 1311 08a6 65D0     		beq	.L51
 508:../STM32F2xx_HAL_Driver/Src/stm32f2xx_hal_pcd.c ****     {
 509:../STM32F2xx_HAL_Driver/Src/stm32f2xx_hal_pcd.c ****       USB_MASK_INTERRUPT(hpcd->Instance, USB_OTG_GINTSTS_RXFLVL);
 1312              		.loc 1 509 0
 1313 08a8 7B68     		ldr	r3, [r7, #4]
 1314 08aa 1B68     		ldr	r3, [r3]
 1315 08ac 7A68     		ldr	r2, [r7, #4]
 1316 08ae 1268     		ldr	r2, [r2]
 1317 08b0 9269     		ldr	r2, [r2, #24]
 1318 08b2 22F01002 		bic	r2, r2, #16
 1319 08b6 9A61     		str	r2, [r3, #24]
 510:../STM32F2xx_HAL_Driver/Src/stm32f2xx_hal_pcd.c ****       temp = USBx->GRXSTSP;
 1320              		.loc 1 510 0
 1321 08b8 BB69     		ldr	r3, [r7, #24]
 1322 08ba 1B6A     		ldr	r3, [r3, #32]
 1323 08bc FB60     		str	r3, [r7, #12]
 511:../STM32F2xx_HAL_Driver/Src/stm32f2xx_hal_pcd.c ****       ep = &hpcd->OUT_ep[temp & USB_OTG_GRXSTSP_EPNUM];
 1324              		.loc 1 511 0
 1325 08be FB68     		ldr	r3, [r7, #12]
 1326 08c0 03F00F02 		and	r2, r3, #15
 1327 08c4 1346     		mov	r3, r2
 1328 08c6 DB00     		lsls	r3, r3, #3
 1329 08c8 9B1A     		subs	r3, r3, r2
 1330 08ca 9B00     		lsls	r3, r3, #2
 1331 08cc 03F5E873 		add	r3, r3, #464
 1332 08d0 7A68     		ldr	r2, [r7, #4]
 1333 08d2 1344     		add	r3, r3, r2
 1334 08d4 0433     		adds	r3, r3, #4
 1335 08d6 BB60     		str	r3, [r7, #8]
 512:../STM32F2xx_HAL_Driver/Src/stm32f2xx_hal_pcd.c ****       
 513:../STM32F2xx_HAL_Driver/Src/stm32f2xx_hal_pcd.c ****       if(((temp & USB_OTG_GRXSTSP_PKTSTS) >> 17) ==  STS_DATA_UPDT)
 1336              		.loc 1 513 0
 1337 08d8 FB68     		ldr	r3, [r7, #12]
 1338 08da 03F4F013 		and	r3, r3, #1966080
 1339 08de 5B0C     		lsrs	r3, r3, #17
 1340 08e0 022B     		cmp	r3, #2
 1341 08e2 27D1     		bne	.L52
 514:../STM32F2xx_HAL_Driver/Src/stm32f2xx_hal_pcd.c ****       {
 515:../STM32F2xx_HAL_Driver/Src/stm32f2xx_hal_pcd.c ****         if((temp & USB_OTG_GRXSTSP_BCNT) != 0)
 1342              		.loc 1 515 0
 1343 08e4 FA68     		ldr	r2, [r7, #12]
 1344 08e6 47F6F073 		movw	r3, #32752
 1345 08ea 1340     		ands	r3, r3, r2
 1346 08ec 002B     		cmp	r3, #0
 1347 08ee 39D0     		beq	.L54
 516:../STM32F2xx_HAL_Driver/Src/stm32f2xx_hal_pcd.c ****         {
 517:../STM32F2xx_HAL_Driver/Src/stm32f2xx_hal_pcd.c ****           USB_ReadPacket(USBx, ep->xfer_buff, (temp & USB_OTG_GRXSTSP_BCNT) >> 4);
 1348              		.loc 1 517 0
 1349 08f0 BB68     		ldr	r3, [r7, #8]
 1350 08f2 DA68     		ldr	r2, [r3, #12]
 1351 08f4 F968     		ldr	r1, [r7, #12]
 1352 08f6 47F6F073 		movw	r3, #32752
 1353 08fa 0B40     		ands	r3, r3, r1
 1354 08fc 1B09     		lsrs	r3, r3, #4
 1355 08fe 9BB2     		uxth	r3, r3
 1356 0900 B869     		ldr	r0, [r7, #24]
 1357 0902 1146     		mov	r1, r2
 1358 0904 1A46     		mov	r2, r3
 1359 0906 FFF7FEFF 		bl	USB_ReadPacket
 518:../STM32F2xx_HAL_Driver/Src/stm32f2xx_hal_pcd.c ****           ep->xfer_buff += (temp & USB_OTG_GRXSTSP_BCNT) >> 4;
 1360              		.loc 1 518 0
 1361 090a BB68     		ldr	r3, [r7, #8]
 1362 090c DA68     		ldr	r2, [r3, #12]
 1363 090e F968     		ldr	r1, [r7, #12]
 1364 0910 47F6F073 		movw	r3, #32752
 1365 0914 0B40     		ands	r3, r3, r1
 1366 0916 1B09     		lsrs	r3, r3, #4
 1367 0918 1A44     		add	r2, r2, r3
 1368 091a BB68     		ldr	r3, [r7, #8]
 1369 091c DA60     		str	r2, [r3, #12]
 519:../STM32F2xx_HAL_Driver/Src/stm32f2xx_hal_pcd.c ****           ep->xfer_count += (temp & USB_OTG_GRXSTSP_BCNT) >> 4;
 1370              		.loc 1 519 0
 1371 091e BB68     		ldr	r3, [r7, #8]
 1372 0920 9A69     		ldr	r2, [r3, #24]
 1373 0922 F968     		ldr	r1, [r7, #12]
 1374 0924 47F6F073 		movw	r3, #32752
 1375 0928 0B40     		ands	r3, r3, r1
 1376 092a 1B09     		lsrs	r3, r3, #4
 1377 092c 1A44     		add	r2, r2, r3
 1378 092e BB68     		ldr	r3, [r7, #8]
 1379 0930 9A61     		str	r2, [r3, #24]
 1380 0932 17E0     		b	.L54
 1381              	.L52:
 520:../STM32F2xx_HAL_Driver/Src/stm32f2xx_hal_pcd.c ****         }
 521:../STM32F2xx_HAL_Driver/Src/stm32f2xx_hal_pcd.c ****       }
 522:../STM32F2xx_HAL_Driver/Src/stm32f2xx_hal_pcd.c ****       else if (((temp & USB_OTG_GRXSTSP_PKTSTS) >> 17) ==  STS_SETUP_UPDT)
 1382              		.loc 1 522 0
 1383 0934 FB68     		ldr	r3, [r7, #12]
 1384 0936 03F4F013 		and	r3, r3, #1966080
 1385 093a 5B0C     		lsrs	r3, r3, #17
 1386 093c 062B     		cmp	r3, #6
 1387 093e 11D1     		bne	.L54
 523:../STM32F2xx_HAL_Driver/Src/stm32f2xx_hal_pcd.c ****       {
 524:../STM32F2xx_HAL_Driver/Src/stm32f2xx_hal_pcd.c ****         USB_ReadPacket(USBx, (uint8_t *)hpcd->Setup, 8);
 1388              		.loc 1 524 0
 1389 0940 7B68     		ldr	r3, [r7, #4]
 1390 0942 03F55F73 		add	r3, r3, #892
 1391 0946 B869     		ldr	r0, [r7, #24]
 1392 0948 1946     		mov	r1, r3
 1393 094a 0822     		movs	r2, #8
 1394 094c FFF7FEFF 		bl	USB_ReadPacket
 525:../STM32F2xx_HAL_Driver/Src/stm32f2xx_hal_pcd.c ****         ep->xfer_count += (temp & USB_OTG_GRXSTSP_BCNT) >> 4;
 1395              		.loc 1 525 0
 1396 0950 BB68     		ldr	r3, [r7, #8]
 1397 0952 9A69     		ldr	r2, [r3, #24]
 1398 0954 F968     		ldr	r1, [r7, #12]
 1399 0956 47F6F073 		movw	r3, #32752
 1400 095a 0B40     		ands	r3, r3, r1
 1401 095c 1B09     		lsrs	r3, r3, #4
 1402 095e 1A44     		add	r2, r2, r3
 1403 0960 BB68     		ldr	r3, [r7, #8]
 1404 0962 9A61     		str	r2, [r3, #24]
 1405              	.L54:
 526:../STM32F2xx_HAL_Driver/Src/stm32f2xx_hal_pcd.c ****       }
 527:../STM32F2xx_HAL_Driver/Src/stm32f2xx_hal_pcd.c ****       USB_UNMASK_INTERRUPT(hpcd->Instance, USB_OTG_GINTSTS_RXFLVL);
 1406              		.loc 1 527 0
 1407 0964 7B68     		ldr	r3, [r7, #4]
 1408 0966 1B68     		ldr	r3, [r3]
 1409 0968 7A68     		ldr	r2, [r7, #4]
 1410 096a 1268     		ldr	r2, [r2]
 1411 096c 9269     		ldr	r2, [r2, #24]
 1412 096e 42F01002 		orr	r2, r2, #16
 1413 0972 9A61     		str	r2, [r3, #24]
 1414              	.L51:
 528:../STM32F2xx_HAL_Driver/Src/stm32f2xx_hal_pcd.c ****     }
 529:../STM32F2xx_HAL_Driver/Src/stm32f2xx_hal_pcd.c ****     
 530:../STM32F2xx_HAL_Driver/Src/stm32f2xx_hal_pcd.c ****     /* Handle SOF Interrupt */
 531:../STM32F2xx_HAL_Driver/Src/stm32f2xx_hal_pcd.c ****     if(__HAL_GET_FLAG(hpcd, USB_OTG_GINTSTS_SOF))
 1415              		.loc 1 531 0
 1416 0974 7B68     		ldr	r3, [r7, #4]
 1417 0976 1B68     		ldr	r3, [r3]
 1418 0978 1846     		mov	r0, r3
 1419 097a FFF7FEFF 		bl	USB_ReadInterrupts
 1420 097e 0346     		mov	r3, r0
 1421 0980 03F00803 		and	r3, r3, #8
 1422 0984 002B     		cmp	r3, #0
 1423 0986 0AD0     		beq	.L55
 532:../STM32F2xx_HAL_Driver/Src/stm32f2xx_hal_pcd.c ****     {
 533:../STM32F2xx_HAL_Driver/Src/stm32f2xx_hal_pcd.c ****       HAL_PCD_SOFCallback(hpcd);
 1424              		.loc 1 533 0
 1425 0988 7868     		ldr	r0, [r7, #4]
 1426 098a FFF7FEFF 		bl	HAL_PCD_SOFCallback
 534:../STM32F2xx_HAL_Driver/Src/stm32f2xx_hal_pcd.c ****       __HAL_CLEAR_FLAG(hpcd, USB_OTG_GINTSTS_SOF);
 1427              		.loc 1 534 0
 1428 098e 7B68     		ldr	r3, [r7, #4]
 1429 0990 1B68     		ldr	r3, [r3]
 1430 0992 7A68     		ldr	r2, [r7, #4]
 1431 0994 1268     		ldr	r2, [r2]
 1432 0996 5269     		ldr	r2, [r2, #20]
 1433 0998 42F00802 		orr	r2, r2, #8
 1434 099c 5A61     		str	r2, [r3, #20]
 1435              	.L55:
 535:../STM32F2xx_HAL_Driver/Src/stm32f2xx_hal_pcd.c ****     }
 536:../STM32F2xx_HAL_Driver/Src/stm32f2xx_hal_pcd.c ****     
 537:../STM32F2xx_HAL_Driver/Src/stm32f2xx_hal_pcd.c ****     /* Handle Incomplete ISO IN Interrupt */
 538:../STM32F2xx_HAL_Driver/Src/stm32f2xx_hal_pcd.c ****     if(__HAL_GET_FLAG(hpcd, USB_OTG_GINTSTS_IISOIXFR))
 1436              		.loc 1 538 0
 1437 099e 7B68     		ldr	r3, [r7, #4]
 1438 09a0 1B68     		ldr	r3, [r3]
 1439 09a2 1846     		mov	r0, r3
 1440 09a4 FFF7FEFF 		bl	USB_ReadInterrupts
 1441 09a8 0346     		mov	r3, r0
 1442 09aa 03F48013 		and	r3, r3, #1048576
 1443 09ae 002B     		cmp	r3, #0
 1444 09b0 0DD0     		beq	.L56
 539:../STM32F2xx_HAL_Driver/Src/stm32f2xx_hal_pcd.c ****     {
 540:../STM32F2xx_HAL_Driver/Src/stm32f2xx_hal_pcd.c ****       HAL_PCD_ISOINIncompleteCallback(hpcd, epnum);
 1445              		.loc 1 540 0
 1446 09b2 FB69     		ldr	r3, [r7, #28]
 1447 09b4 DBB2     		uxtb	r3, r3
 1448 09b6 7868     		ldr	r0, [r7, #4]
 1449 09b8 1946     		mov	r1, r3
 1450 09ba FFF7FEFF 		bl	HAL_PCD_ISOINIncompleteCallback
 541:../STM32F2xx_HAL_Driver/Src/stm32f2xx_hal_pcd.c ****       __HAL_CLEAR_FLAG(hpcd, USB_OTG_GINTSTS_IISOIXFR);
 1451              		.loc 1 541 0
 1452 09be 7B68     		ldr	r3, [r7, #4]
 1453 09c0 1B68     		ldr	r3, [r3]
 1454 09c2 7A68     		ldr	r2, [r7, #4]
 1455 09c4 1268     		ldr	r2, [r2]
 1456 09c6 5269     		ldr	r2, [r2, #20]
 1457 09c8 42F48012 		orr	r2, r2, #1048576
 1458 09cc 5A61     		str	r2, [r3, #20]
 1459              	.L56:
 542:../STM32F2xx_HAL_Driver/Src/stm32f2xx_hal_pcd.c ****     } 
 543:../STM32F2xx_HAL_Driver/Src/stm32f2xx_hal_pcd.c ****     
 544:../STM32F2xx_HAL_Driver/Src/stm32f2xx_hal_pcd.c ****     /* Handle Incomplete ISO OUT Interrupt */
 545:../STM32F2xx_HAL_Driver/Src/stm32f2xx_hal_pcd.c ****     if(__HAL_GET_FLAG(hpcd, USB_OTG_GINTSTS_PXFR_INCOMPISOOUT))
 1460              		.loc 1 545 0
 1461 09ce 7B68     		ldr	r3, [r7, #4]
 1462 09d0 1B68     		ldr	r3, [r3]
 1463 09d2 1846     		mov	r0, r3
 1464 09d4 FFF7FEFF 		bl	USB_ReadInterrupts
 1465 09d8 0346     		mov	r3, r0
 1466 09da 03F40013 		and	r3, r3, #2097152
 1467 09de 002B     		cmp	r3, #0
 1468 09e0 0DD0     		beq	.L57
 546:../STM32F2xx_HAL_Driver/Src/stm32f2xx_hal_pcd.c ****     {
 547:../STM32F2xx_HAL_Driver/Src/stm32f2xx_hal_pcd.c ****       HAL_PCD_ISOOUTIncompleteCallback(hpcd, epnum);
 1469              		.loc 1 547 0
 1470 09e2 FB69     		ldr	r3, [r7, #28]
 1471 09e4 DBB2     		uxtb	r3, r3
 1472 09e6 7868     		ldr	r0, [r7, #4]
 1473 09e8 1946     		mov	r1, r3
 1474 09ea FFF7FEFF 		bl	HAL_PCD_ISOOUTIncompleteCallback
 548:../STM32F2xx_HAL_Driver/Src/stm32f2xx_hal_pcd.c ****       __HAL_CLEAR_FLAG(hpcd, USB_OTG_GINTSTS_PXFR_INCOMPISOOUT);
 1475              		.loc 1 548 0
 1476 09ee 7B68     		ldr	r3, [r7, #4]
 1477 09f0 1B68     		ldr	r3, [r3]
 1478 09f2 7A68     		ldr	r2, [r7, #4]
 1479 09f4 1268     		ldr	r2, [r2]
 1480 09f6 5269     		ldr	r2, [r2, #20]
 1481 09f8 42F40012 		orr	r2, r2, #2097152
 1482 09fc 5A61     		str	r2, [r3, #20]
 1483              	.L57:
 549:../STM32F2xx_HAL_Driver/Src/stm32f2xx_hal_pcd.c ****     } 
 550:../STM32F2xx_HAL_Driver/Src/stm32f2xx_hal_pcd.c ****     
 551:../STM32F2xx_HAL_Driver/Src/stm32f2xx_hal_pcd.c ****     /* Handle Connection event Interrupt */
 552:../STM32F2xx_HAL_Driver/Src/stm32f2xx_hal_pcd.c ****     if(__HAL_GET_FLAG(hpcd, USB_OTG_GINTSTS_SRQINT))
 1484              		.loc 1 552 0
 1485 09fe 7B68     		ldr	r3, [r7, #4]
 1486 0a00 1B68     		ldr	r3, [r3]
 1487 0a02 1846     		mov	r0, r3
 1488 0a04 FFF7FEFF 		bl	USB_ReadInterrupts
 1489 0a08 0346     		mov	r3, r0
 1490 0a0a 03F08043 		and	r3, r3, #1073741824
 1491 0a0e 002B     		cmp	r3, #0
 1492 0a10 0AD0     		beq	.L58
 553:../STM32F2xx_HAL_Driver/Src/stm32f2xx_hal_pcd.c ****     {
 554:../STM32F2xx_HAL_Driver/Src/stm32f2xx_hal_pcd.c ****       HAL_PCD_ConnectCallback(hpcd);
 1493              		.loc 1 554 0
 1494 0a12 7868     		ldr	r0, [r7, #4]
 1495 0a14 FFF7FEFF 		bl	HAL_PCD_ConnectCallback
 555:../STM32F2xx_HAL_Driver/Src/stm32f2xx_hal_pcd.c ****       __HAL_CLEAR_FLAG(hpcd, USB_OTG_GINTSTS_SRQINT);
 1496              		.loc 1 555 0
 1497 0a18 7B68     		ldr	r3, [r7, #4]
 1498 0a1a 1B68     		ldr	r3, [r3]
 1499 0a1c 7A68     		ldr	r2, [r7, #4]
 1500 0a1e 1268     		ldr	r2, [r2]
 1501 0a20 5269     		ldr	r2, [r2, #20]
 1502 0a22 42F08042 		orr	r2, r2, #1073741824
 1503 0a26 5A61     		str	r2, [r3, #20]
 1504              	.L58:
 556:../STM32F2xx_HAL_Driver/Src/stm32f2xx_hal_pcd.c ****     } 
 557:../STM32F2xx_HAL_Driver/Src/stm32f2xx_hal_pcd.c ****     
 558:../STM32F2xx_HAL_Driver/Src/stm32f2xx_hal_pcd.c ****     /* Handle Disconnection event Interrupt */
 559:../STM32F2xx_HAL_Driver/Src/stm32f2xx_hal_pcd.c ****     if(__HAL_GET_FLAG(hpcd, USB_OTG_GINTSTS_OTGINT))
 1505              		.loc 1 559 0
 1506 0a28 7B68     		ldr	r3, [r7, #4]
 1507 0a2a 1B68     		ldr	r3, [r3]
 1508 0a2c 1846     		mov	r0, r3
 1509 0a2e FFF7FEFF 		bl	USB_ReadInterrupts
 1510 0a32 0346     		mov	r3, r0
 1511 0a34 03F00403 		and	r3, r3, #4
 1512 0a38 002B     		cmp	r3, #0
 1513 0a3a 13D0     		beq	.L19
 560:../STM32F2xx_HAL_Driver/Src/stm32f2xx_hal_pcd.c ****     {
 561:../STM32F2xx_HAL_Driver/Src/stm32f2xx_hal_pcd.c ****       temp = hpcd->Instance->GOTGINT;
 1514              		.loc 1 561 0
 1515 0a3c 7B68     		ldr	r3, [r7, #4]
 1516 0a3e 1B68     		ldr	r3, [r3]
 1517 0a40 5B68     		ldr	r3, [r3, #4]
 1518 0a42 FB60     		str	r3, [r7, #12]
 562:../STM32F2xx_HAL_Driver/Src/stm32f2xx_hal_pcd.c ****       
 563:../STM32F2xx_HAL_Driver/Src/stm32f2xx_hal_pcd.c ****       if((temp & USB_OTG_GOTGINT_SEDET) == USB_OTG_GOTGINT_SEDET)
 1519              		.loc 1 563 0
 1520 0a44 FB68     		ldr	r3, [r7, #12]
 1521 0a46 03F00403 		and	r3, r3, #4
 1522 0a4a 002B     		cmp	r3, #0
 1523 0a4c 02D0     		beq	.L59
 564:../STM32F2xx_HAL_Driver/Src/stm32f2xx_hal_pcd.c ****       {
 565:../STM32F2xx_HAL_Driver/Src/stm32f2xx_hal_pcd.c ****         HAL_PCD_DisconnectCallback(hpcd);
 1524              		.loc 1 565 0
 1525 0a4e 7868     		ldr	r0, [r7, #4]
 1526 0a50 FFF7FEFF 		bl	HAL_PCD_DisconnectCallback
 1527              	.L59:
 566:../STM32F2xx_HAL_Driver/Src/stm32f2xx_hal_pcd.c ****       }
 567:../STM32F2xx_HAL_Driver/Src/stm32f2xx_hal_pcd.c ****       hpcd->Instance->GOTGINT |= temp;
 1528              		.loc 1 567 0
 1529 0a54 7B68     		ldr	r3, [r7, #4]
 1530 0a56 1B68     		ldr	r3, [r3]
 1531 0a58 7A68     		ldr	r2, [r7, #4]
 1532 0a5a 1268     		ldr	r2, [r2]
 1533 0a5c 5168     		ldr	r1, [r2, #4]
 1534 0a5e FA68     		ldr	r2, [r7, #12]
 1535 0a60 0A43     		orrs	r2, r2, r1
 1536 0a62 5A60     		str	r2, [r3, #4]
 1537              	.L19:
 568:../STM32F2xx_HAL_Driver/Src/stm32f2xx_hal_pcd.c ****     }
 569:../STM32F2xx_HAL_Driver/Src/stm32f2xx_hal_pcd.c ****   }
 570:../STM32F2xx_HAL_Driver/Src/stm32f2xx_hal_pcd.c **** }
 1538              		.loc 1 570 0
 1539 0a64 2837     		adds	r7, r7, #40
 1540 0a66 BD46     		mov	sp, r7
 1541              		@ sp needed
 1542 0a68 80BD     		pop	{r7, pc}
 1543              		.cfi_endproc
 1544              	.LFE61:
 1546 0a6a 00BF     		.align	2
 1547              		.weak	HAL_PCD_DataOutStageCallback
 1548              		.thumb
 1549              		.thumb_func
 1551              	HAL_PCD_DataOutStageCallback:
 1552              	.LFB62:
 571:../STM32F2xx_HAL_Driver/Src/stm32f2xx_hal_pcd.c **** 
 572:../STM32F2xx_HAL_Driver/Src/stm32f2xx_hal_pcd.c **** /**
 573:../STM32F2xx_HAL_Driver/Src/stm32f2xx_hal_pcd.c ****   * @brief  Data out stage callbacks
 574:../STM32F2xx_HAL_Driver/Src/stm32f2xx_hal_pcd.c ****   * @param  hpcd: PCD handle
 575:../STM32F2xx_HAL_Driver/Src/stm32f2xx_hal_pcd.c ****   * @retval None
 576:../STM32F2xx_HAL_Driver/Src/stm32f2xx_hal_pcd.c ****   */
 577:../STM32F2xx_HAL_Driver/Src/stm32f2xx_hal_pcd.c ****  __weak void HAL_PCD_DataOutStageCallback(PCD_HandleTypeDef *hpcd, uint8_t epnum)
 578:../STM32F2xx_HAL_Driver/Src/stm32f2xx_hal_pcd.c **** {
 1553              		.loc 1 578 0
 1554              		.cfi_startproc
 1555              		@ args = 0, pretend = 0, frame = 8
 1556              		@ frame_needed = 1, uses_anonymous_args = 0
 1557              		@ link register save eliminated.
 1558 0a6c 80B4     		push	{r7}
 1559              		.cfi_def_cfa_offset 4
 1560              		.cfi_offset 7, -4
 1561 0a6e 83B0     		sub	sp, sp, #12
 1562              		.cfi_def_cfa_offset 16
 1563 0a70 00AF     		add	r7, sp, #0
 1564              		.cfi_def_cfa_register 7
 1565 0a72 7860     		str	r0, [r7, #4]
 1566 0a74 0B46     		mov	r3, r1
 1567 0a76 FB70     		strb	r3, [r7, #3]
 579:../STM32F2xx_HAL_Driver/Src/stm32f2xx_hal_pcd.c ****   /* NOTE : This function Should not be modified, when the callback is needed,
 580:../STM32F2xx_HAL_Driver/Src/stm32f2xx_hal_pcd.c ****             the HAL_PCD_DataOutStageCallback could be implenetd in the user file
 581:../STM32F2xx_HAL_Driver/Src/stm32f2xx_hal_pcd.c ****    */ 
 582:../STM32F2xx_HAL_Driver/Src/stm32f2xx_hal_pcd.c **** }
 1568              		.loc 1 582 0
 1569 0a78 0C37     		adds	r7, r7, #12
 1570 0a7a BD46     		mov	sp, r7
 1571              		@ sp needed
 1572 0a7c 5DF8047B 		ldr	r7, [sp], #4
 1573 0a80 7047     		bx	lr
 1574              		.cfi_endproc
 1575              	.LFE62:
 1577 0a82 00BF     		.align	2
 1578              		.weak	HAL_PCD_DataInStageCallback
 1579              		.thumb
 1580              		.thumb_func
 1582              	HAL_PCD_DataInStageCallback:
 1583              	.LFB63:
 583:../STM32F2xx_HAL_Driver/Src/stm32f2xx_hal_pcd.c **** 
 584:../STM32F2xx_HAL_Driver/Src/stm32f2xx_hal_pcd.c **** /**
 585:../STM32F2xx_HAL_Driver/Src/stm32f2xx_hal_pcd.c ****   * @brief  Data IN stage callbacks
 586:../STM32F2xx_HAL_Driver/Src/stm32f2xx_hal_pcd.c ****   * @param  hpcd: PCD handle
 587:../STM32F2xx_HAL_Driver/Src/stm32f2xx_hal_pcd.c ****   * @retval None
 588:../STM32F2xx_HAL_Driver/Src/stm32f2xx_hal_pcd.c ****   */
 589:../STM32F2xx_HAL_Driver/Src/stm32f2xx_hal_pcd.c ****  __weak void HAL_PCD_DataInStageCallback(PCD_HandleTypeDef *hpcd, uint8_t epnum)
 590:../STM32F2xx_HAL_Driver/Src/stm32f2xx_hal_pcd.c **** {
 1584              		.loc 1 590 0
 1585              		.cfi_startproc
 1586              		@ args = 0, pretend = 0, frame = 8
 1587              		@ frame_needed = 1, uses_anonymous_args = 0
 1588              		@ link register save eliminated.
 1589 0a84 80B4     		push	{r7}
 1590              		.cfi_def_cfa_offset 4
 1591              		.cfi_offset 7, -4
 1592 0a86 83B0     		sub	sp, sp, #12
 1593              		.cfi_def_cfa_offset 16
 1594 0a88 00AF     		add	r7, sp, #0
 1595              		.cfi_def_cfa_register 7
 1596 0a8a 7860     		str	r0, [r7, #4]
 1597 0a8c 0B46     		mov	r3, r1
 1598 0a8e FB70     		strb	r3, [r7, #3]
 591:../STM32F2xx_HAL_Driver/Src/stm32f2xx_hal_pcd.c ****   /* NOTE : This function Should not be modified, when the callback is needed,
 592:../STM32F2xx_HAL_Driver/Src/stm32f2xx_hal_pcd.c ****             the HAL_PCD_DataOutStageCallback could be implenetd in the user file
 593:../STM32F2xx_HAL_Driver/Src/stm32f2xx_hal_pcd.c ****    */ 
 594:../STM32F2xx_HAL_Driver/Src/stm32f2xx_hal_pcd.c **** }
 1599              		.loc 1 594 0
 1600 0a90 0C37     		adds	r7, r7, #12
 1601 0a92 BD46     		mov	sp, r7
 1602              		@ sp needed
 1603 0a94 5DF8047B 		ldr	r7, [sp], #4
 1604 0a98 7047     		bx	lr
 1605              		.cfi_endproc
 1606              	.LFE63:
 1608 0a9a 00BF     		.align	2
 1609              		.weak	HAL_PCD_SetupStageCallback
 1610              		.thumb
 1611              		.thumb_func
 1613              	HAL_PCD_SetupStageCallback:
 1614              	.LFB64:
 595:../STM32F2xx_HAL_Driver/Src/stm32f2xx_hal_pcd.c **** /**
 596:../STM32F2xx_HAL_Driver/Src/stm32f2xx_hal_pcd.c ****   * @brief  Setup stage callback
 597:../STM32F2xx_HAL_Driver/Src/stm32f2xx_hal_pcd.c ****   * @param  hpcd: ppp handle
 598:../STM32F2xx_HAL_Driver/Src/stm32f2xx_hal_pcd.c ****   * @retval None
 599:../STM32F2xx_HAL_Driver/Src/stm32f2xx_hal_pcd.c ****   */
 600:../STM32F2xx_HAL_Driver/Src/stm32f2xx_hal_pcd.c ****  __weak void HAL_PCD_SetupStageCallback(PCD_HandleTypeDef *hpcd)
 601:../STM32F2xx_HAL_Driver/Src/stm32f2xx_hal_pcd.c **** {
 1615              		.loc 1 601 0
 1616              		.cfi_startproc
 1617              		@ args = 0, pretend = 0, frame = 8
 1618              		@ frame_needed = 1, uses_anonymous_args = 0
 1619              		@ link register save eliminated.
 1620 0a9c 80B4     		push	{r7}
 1621              		.cfi_def_cfa_offset 4
 1622              		.cfi_offset 7, -4
 1623 0a9e 83B0     		sub	sp, sp, #12
 1624              		.cfi_def_cfa_offset 16
 1625 0aa0 00AF     		add	r7, sp, #0
 1626              		.cfi_def_cfa_register 7
 1627 0aa2 7860     		str	r0, [r7, #4]
 602:../STM32F2xx_HAL_Driver/Src/stm32f2xx_hal_pcd.c ****   /* NOTE : This function Should not be modified, when the callback is needed,
 603:../STM32F2xx_HAL_Driver/Src/stm32f2xx_hal_pcd.c ****             the HAL_PCD_DataOutStageCallback could be implenetd in the user file
 604:../STM32F2xx_HAL_Driver/Src/stm32f2xx_hal_pcd.c ****    */ 
 605:../STM32F2xx_HAL_Driver/Src/stm32f2xx_hal_pcd.c **** }
 1628              		.loc 1 605 0
 1629 0aa4 0C37     		adds	r7, r7, #12
 1630 0aa6 BD46     		mov	sp, r7
 1631              		@ sp needed
 1632 0aa8 5DF8047B 		ldr	r7, [sp], #4
 1633 0aac 7047     		bx	lr
 1634              		.cfi_endproc
 1635              	.LFE64:
 1637 0aae 00BF     		.align	2
 1638              		.weak	HAL_PCD_SOFCallback
 1639              		.thumb
 1640              		.thumb_func
 1642              	HAL_PCD_SOFCallback:
 1643              	.LFB65:
 606:../STM32F2xx_HAL_Driver/Src/stm32f2xx_hal_pcd.c **** 
 607:../STM32F2xx_HAL_Driver/Src/stm32f2xx_hal_pcd.c **** /**
 608:../STM32F2xx_HAL_Driver/Src/stm32f2xx_hal_pcd.c ****   * @brief  USB Start Of Frame callbacks
 609:../STM32F2xx_HAL_Driver/Src/stm32f2xx_hal_pcd.c ****   * @param  hpcd: PCD handle
 610:../STM32F2xx_HAL_Driver/Src/stm32f2xx_hal_pcd.c ****   * @retval None
 611:../STM32F2xx_HAL_Driver/Src/stm32f2xx_hal_pcd.c ****   */
 612:../STM32F2xx_HAL_Driver/Src/stm32f2xx_hal_pcd.c ****  __weak void HAL_PCD_SOFCallback(PCD_HandleTypeDef *hpcd)
 613:../STM32F2xx_HAL_Driver/Src/stm32f2xx_hal_pcd.c **** {
 1644              		.loc 1 613 0
 1645              		.cfi_startproc
 1646              		@ args = 0, pretend = 0, frame = 8
 1647              		@ frame_needed = 1, uses_anonymous_args = 0
 1648              		@ link register save eliminated.
 1649 0ab0 80B4     		push	{r7}
 1650              		.cfi_def_cfa_offset 4
 1651              		.cfi_offset 7, -4
 1652 0ab2 83B0     		sub	sp, sp, #12
 1653              		.cfi_def_cfa_offset 16
 1654 0ab4 00AF     		add	r7, sp, #0
 1655              		.cfi_def_cfa_register 7
 1656 0ab6 7860     		str	r0, [r7, #4]
 614:../STM32F2xx_HAL_Driver/Src/stm32f2xx_hal_pcd.c ****   /* NOTE : This function Should not be modified, when the callback is needed,
 615:../STM32F2xx_HAL_Driver/Src/stm32f2xx_hal_pcd.c ****             the HAL_PCD_DataOutStageCallback could be implenetd in the user file
 616:../STM32F2xx_HAL_Driver/Src/stm32f2xx_hal_pcd.c ****    */ 
 617:../STM32F2xx_HAL_Driver/Src/stm32f2xx_hal_pcd.c **** }
 1657              		.loc 1 617 0
 1658 0ab8 0C37     		adds	r7, r7, #12
 1659 0aba BD46     		mov	sp, r7
 1660              		@ sp needed
 1661 0abc 5DF8047B 		ldr	r7, [sp], #4
 1662 0ac0 7047     		bx	lr
 1663              		.cfi_endproc
 1664              	.LFE65:
 1666 0ac2 00BF     		.align	2
 1667              		.weak	HAL_PCD_ResetCallback
 1668              		.thumb
 1669              		.thumb_func
 1671              	HAL_PCD_ResetCallback:
 1672              	.LFB66:
 618:../STM32F2xx_HAL_Driver/Src/stm32f2xx_hal_pcd.c **** 
 619:../STM32F2xx_HAL_Driver/Src/stm32f2xx_hal_pcd.c **** /**
 620:../STM32F2xx_HAL_Driver/Src/stm32f2xx_hal_pcd.c ****   * @brief  USB Reset callbacks
 621:../STM32F2xx_HAL_Driver/Src/stm32f2xx_hal_pcd.c ****   * @param  hpcd: PCD handle
 622:../STM32F2xx_HAL_Driver/Src/stm32f2xx_hal_pcd.c ****   * @retval None
 623:../STM32F2xx_HAL_Driver/Src/stm32f2xx_hal_pcd.c ****   */
 624:../STM32F2xx_HAL_Driver/Src/stm32f2xx_hal_pcd.c ****  __weak void HAL_PCD_ResetCallback(PCD_HandleTypeDef *hpcd)
 625:../STM32F2xx_HAL_Driver/Src/stm32f2xx_hal_pcd.c **** {
 1673              		.loc 1 625 0
 1674              		.cfi_startproc
 1675              		@ args = 0, pretend = 0, frame = 8
 1676              		@ frame_needed = 1, uses_anonymous_args = 0
 1677              		@ link register save eliminated.
 1678 0ac4 80B4     		push	{r7}
 1679              		.cfi_def_cfa_offset 4
 1680              		.cfi_offset 7, -4
 1681 0ac6 83B0     		sub	sp, sp, #12
 1682              		.cfi_def_cfa_offset 16
 1683 0ac8 00AF     		add	r7, sp, #0
 1684              		.cfi_def_cfa_register 7
 1685 0aca 7860     		str	r0, [r7, #4]
 626:../STM32F2xx_HAL_Driver/Src/stm32f2xx_hal_pcd.c ****   /* NOTE : This function Should not be modified, when the callback is needed,
 627:../STM32F2xx_HAL_Driver/Src/stm32f2xx_hal_pcd.c ****             the HAL_PCD_DataOutStageCallback could be implenetd in the user file
 628:../STM32F2xx_HAL_Driver/Src/stm32f2xx_hal_pcd.c ****    */ 
 629:../STM32F2xx_HAL_Driver/Src/stm32f2xx_hal_pcd.c **** }
 1686              		.loc 1 629 0
 1687 0acc 0C37     		adds	r7, r7, #12
 1688 0ace BD46     		mov	sp, r7
 1689              		@ sp needed
 1690 0ad0 5DF8047B 		ldr	r7, [sp], #4
 1691 0ad4 7047     		bx	lr
 1692              		.cfi_endproc
 1693              	.LFE66:
 1695 0ad6 00BF     		.align	2
 1696              		.weak	HAL_PCD_SuspendCallback
 1697              		.thumb
 1698              		.thumb_func
 1700              	HAL_PCD_SuspendCallback:
 1701              	.LFB67:
 630:../STM32F2xx_HAL_Driver/Src/stm32f2xx_hal_pcd.c **** 
 631:../STM32F2xx_HAL_Driver/Src/stm32f2xx_hal_pcd.c **** /**
 632:../STM32F2xx_HAL_Driver/Src/stm32f2xx_hal_pcd.c ****   * @brief  Suspend event callbacks
 633:../STM32F2xx_HAL_Driver/Src/stm32f2xx_hal_pcd.c ****   * @param  hpcd: PCD handle
 634:../STM32F2xx_HAL_Driver/Src/stm32f2xx_hal_pcd.c ****   * @retval None
 635:../STM32F2xx_HAL_Driver/Src/stm32f2xx_hal_pcd.c ****   */
 636:../STM32F2xx_HAL_Driver/Src/stm32f2xx_hal_pcd.c ****  __weak void HAL_PCD_SuspendCallback(PCD_HandleTypeDef *hpcd)
 637:../STM32F2xx_HAL_Driver/Src/stm32f2xx_hal_pcd.c **** {
 1702              		.loc 1 637 0
 1703              		.cfi_startproc
 1704              		@ args = 0, pretend = 0, frame = 8
 1705              		@ frame_needed = 1, uses_anonymous_args = 0
 1706              		@ link register save eliminated.
 1707 0ad8 80B4     		push	{r7}
 1708              		.cfi_def_cfa_offset 4
 1709              		.cfi_offset 7, -4
 1710 0ada 83B0     		sub	sp, sp, #12
 1711              		.cfi_def_cfa_offset 16
 1712 0adc 00AF     		add	r7, sp, #0
 1713              		.cfi_def_cfa_register 7
 1714 0ade 7860     		str	r0, [r7, #4]
 638:../STM32F2xx_HAL_Driver/Src/stm32f2xx_hal_pcd.c ****   /* NOTE : This function Should not be modified, when the callback is needed,
 639:../STM32F2xx_HAL_Driver/Src/stm32f2xx_hal_pcd.c ****             the HAL_PCD_DataOutStageCallback could be implenetd in the user file
 640:../STM32F2xx_HAL_Driver/Src/stm32f2xx_hal_pcd.c ****    */ 
 641:../STM32F2xx_HAL_Driver/Src/stm32f2xx_hal_pcd.c **** }
 1715              		.loc 1 641 0
 1716 0ae0 0C37     		adds	r7, r7, #12
 1717 0ae2 BD46     		mov	sp, r7
 1718              		@ sp needed
 1719 0ae4 5DF8047B 		ldr	r7, [sp], #4
 1720 0ae8 7047     		bx	lr
 1721              		.cfi_endproc
 1722              	.LFE67:
 1724 0aea 00BF     		.align	2
 1725              		.weak	HAL_PCD_ResumeCallback
 1726              		.thumb
 1727              		.thumb_func
 1729              	HAL_PCD_ResumeCallback:
 1730              	.LFB68:
 642:../STM32F2xx_HAL_Driver/Src/stm32f2xx_hal_pcd.c **** 
 643:../STM32F2xx_HAL_Driver/Src/stm32f2xx_hal_pcd.c **** /**
 644:../STM32F2xx_HAL_Driver/Src/stm32f2xx_hal_pcd.c ****   * @brief  Resume event callbacks
 645:../STM32F2xx_HAL_Driver/Src/stm32f2xx_hal_pcd.c ****   * @param  hpcd: PCD handle
 646:../STM32F2xx_HAL_Driver/Src/stm32f2xx_hal_pcd.c ****   * @retval None
 647:../STM32F2xx_HAL_Driver/Src/stm32f2xx_hal_pcd.c ****   */
 648:../STM32F2xx_HAL_Driver/Src/stm32f2xx_hal_pcd.c ****  __weak void HAL_PCD_ResumeCallback(PCD_HandleTypeDef *hpcd)
 649:../STM32F2xx_HAL_Driver/Src/stm32f2xx_hal_pcd.c **** {
 1731              		.loc 1 649 0
 1732              		.cfi_startproc
 1733              		@ args = 0, pretend = 0, frame = 8
 1734              		@ frame_needed = 1, uses_anonymous_args = 0
 1735              		@ link register save eliminated.
 1736 0aec 80B4     		push	{r7}
 1737              		.cfi_def_cfa_offset 4
 1738              		.cfi_offset 7, -4
 1739 0aee 83B0     		sub	sp, sp, #12
 1740              		.cfi_def_cfa_offset 16
 1741 0af0 00AF     		add	r7, sp, #0
 1742              		.cfi_def_cfa_register 7
 1743 0af2 7860     		str	r0, [r7, #4]
 650:../STM32F2xx_HAL_Driver/Src/stm32f2xx_hal_pcd.c ****   /* NOTE : This function Should not be modified, when the callback is needed,
 651:../STM32F2xx_HAL_Driver/Src/stm32f2xx_hal_pcd.c ****             the HAL_PCD_DataOutStageCallback could be implenetd in the user file
 652:../STM32F2xx_HAL_Driver/Src/stm32f2xx_hal_pcd.c ****    */ 
 653:../STM32F2xx_HAL_Driver/Src/stm32f2xx_hal_pcd.c **** }
 1744              		.loc 1 653 0
 1745 0af4 0C37     		adds	r7, r7, #12
 1746 0af6 BD46     		mov	sp, r7
 1747              		@ sp needed
 1748 0af8 5DF8047B 		ldr	r7, [sp], #4
 1749 0afc 7047     		bx	lr
 1750              		.cfi_endproc
 1751              	.LFE68:
 1753 0afe 00BF     		.align	2
 1754              		.weak	HAL_PCD_ISOOUTIncompleteCallback
 1755              		.thumb
 1756              		.thumb_func
 1758              	HAL_PCD_ISOOUTIncompleteCallback:
 1759              	.LFB69:
 654:../STM32F2xx_HAL_Driver/Src/stm32f2xx_hal_pcd.c **** 
 655:../STM32F2xx_HAL_Driver/Src/stm32f2xx_hal_pcd.c **** /**
 656:../STM32F2xx_HAL_Driver/Src/stm32f2xx_hal_pcd.c ****   * @brief  Incomplete ISO OUT callbacks
 657:../STM32F2xx_HAL_Driver/Src/stm32f2xx_hal_pcd.c ****   * @param  hpcd: PCD handle
 658:../STM32F2xx_HAL_Driver/Src/stm32f2xx_hal_pcd.c ****   * @retval None
 659:../STM32F2xx_HAL_Driver/Src/stm32f2xx_hal_pcd.c ****   */
 660:../STM32F2xx_HAL_Driver/Src/stm32f2xx_hal_pcd.c ****  __weak void HAL_PCD_ISOOUTIncompleteCallback(PCD_HandleTypeDef *hpcd, uint8_t epnum)
 661:../STM32F2xx_HAL_Driver/Src/stm32f2xx_hal_pcd.c **** {
 1760              		.loc 1 661 0
 1761              		.cfi_startproc
 1762              		@ args = 0, pretend = 0, frame = 8
 1763              		@ frame_needed = 1, uses_anonymous_args = 0
 1764              		@ link register save eliminated.
 1765 0b00 80B4     		push	{r7}
 1766              		.cfi_def_cfa_offset 4
 1767              		.cfi_offset 7, -4
 1768 0b02 83B0     		sub	sp, sp, #12
 1769              		.cfi_def_cfa_offset 16
 1770 0b04 00AF     		add	r7, sp, #0
 1771              		.cfi_def_cfa_register 7
 1772 0b06 7860     		str	r0, [r7, #4]
 1773 0b08 0B46     		mov	r3, r1
 1774 0b0a FB70     		strb	r3, [r7, #3]
 662:../STM32F2xx_HAL_Driver/Src/stm32f2xx_hal_pcd.c ****   /* NOTE : This function Should not be modified, when the callback is needed,
 663:../STM32F2xx_HAL_Driver/Src/stm32f2xx_hal_pcd.c ****             the HAL_PCD_DataOutStageCallback could be implenetd in the user file
 664:../STM32F2xx_HAL_Driver/Src/stm32f2xx_hal_pcd.c ****    */ 
 665:../STM32F2xx_HAL_Driver/Src/stm32f2xx_hal_pcd.c **** }
 1775              		.loc 1 665 0
 1776 0b0c 0C37     		adds	r7, r7, #12
 1777 0b0e BD46     		mov	sp, r7
 1778              		@ sp needed
 1779 0b10 5DF8047B 		ldr	r7, [sp], #4
 1780 0b14 7047     		bx	lr
 1781              		.cfi_endproc
 1782              	.LFE69:
 1784 0b16 00BF     		.align	2
 1785              		.weak	HAL_PCD_ISOINIncompleteCallback
 1786              		.thumb
 1787              		.thumb_func
 1789              	HAL_PCD_ISOINIncompleteCallback:
 1790              	.LFB70:
 666:../STM32F2xx_HAL_Driver/Src/stm32f2xx_hal_pcd.c **** 
 667:../STM32F2xx_HAL_Driver/Src/stm32f2xx_hal_pcd.c **** /**
 668:../STM32F2xx_HAL_Driver/Src/stm32f2xx_hal_pcd.c ****   * @brief  Incomplete ISO IN  callbacks
 669:../STM32F2xx_HAL_Driver/Src/stm32f2xx_hal_pcd.c ****   * @param  hpcd: PCD handle
 670:../STM32F2xx_HAL_Driver/Src/stm32f2xx_hal_pcd.c ****   * @retval None
 671:../STM32F2xx_HAL_Driver/Src/stm32f2xx_hal_pcd.c ****   */
 672:../STM32F2xx_HAL_Driver/Src/stm32f2xx_hal_pcd.c ****  __weak void HAL_PCD_ISOINIncompleteCallback(PCD_HandleTypeDef *hpcd, uint8_t epnum)
 673:../STM32F2xx_HAL_Driver/Src/stm32f2xx_hal_pcd.c **** {
 1791              		.loc 1 673 0
 1792              		.cfi_startproc
 1793              		@ args = 0, pretend = 0, frame = 8
 1794              		@ frame_needed = 1, uses_anonymous_args = 0
 1795              		@ link register save eliminated.
 1796 0b18 80B4     		push	{r7}
 1797              		.cfi_def_cfa_offset 4
 1798              		.cfi_offset 7, -4
 1799 0b1a 83B0     		sub	sp, sp, #12
 1800              		.cfi_def_cfa_offset 16
 1801 0b1c 00AF     		add	r7, sp, #0
 1802              		.cfi_def_cfa_register 7
 1803 0b1e 7860     		str	r0, [r7, #4]
 1804 0b20 0B46     		mov	r3, r1
 1805 0b22 FB70     		strb	r3, [r7, #3]
 674:../STM32F2xx_HAL_Driver/Src/stm32f2xx_hal_pcd.c ****   /* NOTE : This function Should not be modified, when the callback is needed,
 675:../STM32F2xx_HAL_Driver/Src/stm32f2xx_hal_pcd.c ****             the HAL_PCD_DataOutStageCallback could be implenetd in the user file
 676:../STM32F2xx_HAL_Driver/Src/stm32f2xx_hal_pcd.c ****    */ 
 677:../STM32F2xx_HAL_Driver/Src/stm32f2xx_hal_pcd.c **** }
 1806              		.loc 1 677 0
 1807 0b24 0C37     		adds	r7, r7, #12
 1808 0b26 BD46     		mov	sp, r7
 1809              		@ sp needed
 1810 0b28 5DF8047B 		ldr	r7, [sp], #4
 1811 0b2c 7047     		bx	lr
 1812              		.cfi_endproc
 1813              	.LFE70:
 1815 0b2e 00BF     		.align	2
 1816              		.weak	HAL_PCD_ConnectCallback
 1817              		.thumb
 1818              		.thumb_func
 1820              	HAL_PCD_ConnectCallback:
 1821              	.LFB71:
 678:../STM32F2xx_HAL_Driver/Src/stm32f2xx_hal_pcd.c **** 
 679:../STM32F2xx_HAL_Driver/Src/stm32f2xx_hal_pcd.c **** /**
 680:../STM32F2xx_HAL_Driver/Src/stm32f2xx_hal_pcd.c ****   * @brief  Connection event callbacks
 681:../STM32F2xx_HAL_Driver/Src/stm32f2xx_hal_pcd.c ****   * @param  hpcd: PCD handle
 682:../STM32F2xx_HAL_Driver/Src/stm32f2xx_hal_pcd.c ****   * @retval None
 683:../STM32F2xx_HAL_Driver/Src/stm32f2xx_hal_pcd.c ****   */
 684:../STM32F2xx_HAL_Driver/Src/stm32f2xx_hal_pcd.c ****  __weak void HAL_PCD_ConnectCallback(PCD_HandleTypeDef *hpcd)
 685:../STM32F2xx_HAL_Driver/Src/stm32f2xx_hal_pcd.c **** {
 1822              		.loc 1 685 0
 1823              		.cfi_startproc
 1824              		@ args = 0, pretend = 0, frame = 8
 1825              		@ frame_needed = 1, uses_anonymous_args = 0
 1826              		@ link register save eliminated.
 1827 0b30 80B4     		push	{r7}
 1828              		.cfi_def_cfa_offset 4
 1829              		.cfi_offset 7, -4
 1830 0b32 83B0     		sub	sp, sp, #12
 1831              		.cfi_def_cfa_offset 16
 1832 0b34 00AF     		add	r7, sp, #0
 1833              		.cfi_def_cfa_register 7
 1834 0b36 7860     		str	r0, [r7, #4]
 686:../STM32F2xx_HAL_Driver/Src/stm32f2xx_hal_pcd.c ****   /* NOTE : This function Should not be modified, when the callback is needed,
 687:../STM32F2xx_HAL_Driver/Src/stm32f2xx_hal_pcd.c ****             the HAL_PCD_DataOutStageCallback could be implenetd in the user file
 688:../STM32F2xx_HAL_Driver/Src/stm32f2xx_hal_pcd.c ****    */ 
 689:../STM32F2xx_HAL_Driver/Src/stm32f2xx_hal_pcd.c **** }
 1835              		.loc 1 689 0
 1836 0b38 0C37     		adds	r7, r7, #12
 1837 0b3a BD46     		mov	sp, r7
 1838              		@ sp needed
 1839 0b3c 5DF8047B 		ldr	r7, [sp], #4
 1840 0b40 7047     		bx	lr
 1841              		.cfi_endproc
 1842              	.LFE71:
 1844 0b42 00BF     		.align	2
 1845              		.weak	HAL_PCD_DisconnectCallback
 1846              		.thumb
 1847              		.thumb_func
 1849              	HAL_PCD_DisconnectCallback:
 1850              	.LFB72:
 690:../STM32F2xx_HAL_Driver/Src/stm32f2xx_hal_pcd.c **** 
 691:../STM32F2xx_HAL_Driver/Src/stm32f2xx_hal_pcd.c **** /**
 692:../STM32F2xx_HAL_Driver/Src/stm32f2xx_hal_pcd.c ****   * @brief  Disconnection event callbacks
 693:../STM32F2xx_HAL_Driver/Src/stm32f2xx_hal_pcd.c ****   * @param  hpcd: ppp handle
 694:../STM32F2xx_HAL_Driver/Src/stm32f2xx_hal_pcd.c ****   * @retval None
 695:../STM32F2xx_HAL_Driver/Src/stm32f2xx_hal_pcd.c ****   */
 696:../STM32F2xx_HAL_Driver/Src/stm32f2xx_hal_pcd.c ****  __weak void HAL_PCD_DisconnectCallback(PCD_HandleTypeDef *hpcd)
 697:../STM32F2xx_HAL_Driver/Src/stm32f2xx_hal_pcd.c **** {
 1851              		.loc 1 697 0
 1852              		.cfi_startproc
 1853              		@ args = 0, pretend = 0, frame = 8
 1854              		@ frame_needed = 1, uses_anonymous_args = 0
 1855              		@ link register save eliminated.
 1856 0b44 80B4     		push	{r7}
 1857              		.cfi_def_cfa_offset 4
 1858              		.cfi_offset 7, -4
 1859 0b46 83B0     		sub	sp, sp, #12
 1860              		.cfi_def_cfa_offset 16
 1861 0b48 00AF     		add	r7, sp, #0
 1862              		.cfi_def_cfa_register 7
 1863 0b4a 7860     		str	r0, [r7, #4]
 698:../STM32F2xx_HAL_Driver/Src/stm32f2xx_hal_pcd.c ****   /* NOTE : This function Should not be modified, when the callback is needed,
 699:../STM32F2xx_HAL_Driver/Src/stm32f2xx_hal_pcd.c ****             the HAL_PCD_DataOutStageCallback could be implenetd in the user file
 700:../STM32F2xx_HAL_Driver/Src/stm32f2xx_hal_pcd.c ****    */ 
 701:../STM32F2xx_HAL_Driver/Src/stm32f2xx_hal_pcd.c **** }
 1864              		.loc 1 701 0
 1865 0b4c 0C37     		adds	r7, r7, #12
 1866 0b4e BD46     		mov	sp, r7
 1867              		@ sp needed
 1868 0b50 5DF8047B 		ldr	r7, [sp], #4
 1869 0b54 7047     		bx	lr
 1870              		.cfi_endproc
 1871              	.LFE72:
 1873 0b56 00BF     		.align	2
 1874              		.global	HAL_PCD_DevConnect
 1875              		.thumb
 1876              		.thumb_func
 1878              	HAL_PCD_DevConnect:
 1879              	.LFB73:
 702:../STM32F2xx_HAL_Driver/Src/stm32f2xx_hal_pcd.c **** 
 703:../STM32F2xx_HAL_Driver/Src/stm32f2xx_hal_pcd.c **** /**
 704:../STM32F2xx_HAL_Driver/Src/stm32f2xx_hal_pcd.c ****   * @}
 705:../STM32F2xx_HAL_Driver/Src/stm32f2xx_hal_pcd.c ****   */
 706:../STM32F2xx_HAL_Driver/Src/stm32f2xx_hal_pcd.c ****   
 707:../STM32F2xx_HAL_Driver/Src/stm32f2xx_hal_pcd.c **** /** @defgroup PCD_Group3 Peripheral Control functions 
 708:../STM32F2xx_HAL_Driver/Src/stm32f2xx_hal_pcd.c ****  *  @brief   management functions 
 709:../STM32F2xx_HAL_Driver/Src/stm32f2xx_hal_pcd.c ****  *
 710:../STM32F2xx_HAL_Driver/Src/stm32f2xx_hal_pcd.c **** @verbatim   
 711:../STM32F2xx_HAL_Driver/Src/stm32f2xx_hal_pcd.c ****  ===============================================================================
 712:../STM32F2xx_HAL_Driver/Src/stm32f2xx_hal_pcd.c ****                       ##### Peripheral Control functions #####
 713:../STM32F2xx_HAL_Driver/Src/stm32f2xx_hal_pcd.c ****  ===============================================================================  
 714:../STM32F2xx_HAL_Driver/Src/stm32f2xx_hal_pcd.c ****     [..]
 715:../STM32F2xx_HAL_Driver/Src/stm32f2xx_hal_pcd.c ****     This subsection provides a set of functions allowing to control the PCD data 
 716:../STM32F2xx_HAL_Driver/Src/stm32f2xx_hal_pcd.c ****     transfers.
 717:../STM32F2xx_HAL_Driver/Src/stm32f2xx_hal_pcd.c **** 
 718:../STM32F2xx_HAL_Driver/Src/stm32f2xx_hal_pcd.c **** @endverbatim
 719:../STM32F2xx_HAL_Driver/Src/stm32f2xx_hal_pcd.c ****   * @{
 720:../STM32F2xx_HAL_Driver/Src/stm32f2xx_hal_pcd.c ****   */
 721:../STM32F2xx_HAL_Driver/Src/stm32f2xx_hal_pcd.c **** 
 722:../STM32F2xx_HAL_Driver/Src/stm32f2xx_hal_pcd.c **** /**
 723:../STM32F2xx_HAL_Driver/Src/stm32f2xx_hal_pcd.c ****   * @brief  Send an amount of data in blocking mode 
 724:../STM32F2xx_HAL_Driver/Src/stm32f2xx_hal_pcd.c ****   * @param  hpcd: PCD handle
 725:../STM32F2xx_HAL_Driver/Src/stm32f2xx_hal_pcd.c ****   * @param  pData: pointer to data buffer
 726:../STM32F2xx_HAL_Driver/Src/stm32f2xx_hal_pcd.c ****   * @param  Size: amount of data to be sent
 727:../STM32F2xx_HAL_Driver/Src/stm32f2xx_hal_pcd.c ****   * @retval HAL status
 728:../STM32F2xx_HAL_Driver/Src/stm32f2xx_hal_pcd.c ****   */
 729:../STM32F2xx_HAL_Driver/Src/stm32f2xx_hal_pcd.c **** HAL_StatusTypeDef HAL_PCD_DevConnect(PCD_HandleTypeDef *hpcd)
 730:../STM32F2xx_HAL_Driver/Src/stm32f2xx_hal_pcd.c **** {
 1880              		.loc 1 730 0
 1881              		.cfi_startproc
 1882              		@ args = 0, pretend = 0, frame = 8
 1883              		@ frame_needed = 1, uses_anonymous_args = 0
 1884 0b58 80B5     		push	{r7, lr}
 1885              		.cfi_def_cfa_offset 8
 1886              		.cfi_offset 7, -8
 1887              		.cfi_offset 14, -4
 1888 0b5a 82B0     		sub	sp, sp, #8
 1889              		.cfi_def_cfa_offset 16
 1890 0b5c 00AF     		add	r7, sp, #0
 1891              		.cfi_def_cfa_register 7
 1892 0b5e 7860     		str	r0, [r7, #4]
 731:../STM32F2xx_HAL_Driver/Src/stm32f2xx_hal_pcd.c ****   __HAL_LOCK(hpcd); 
 1893              		.loc 1 731 0
 1894 0b60 7B68     		ldr	r3, [r7, #4]
 1895 0b62 93F87833 		ldrb	r3, [r3, #888]	@ zero_extendqisi2
 1896 0b66 012B     		cmp	r3, #1
 1897 0b68 01D1     		bne	.L72
 1898              		.loc 1 731 0 is_stmt 0 discriminator 1
 1899 0b6a 0223     		movs	r3, #2
 1900 0b6c 0DE0     		b	.L73
 1901              	.L72:
 1902              		.loc 1 731 0 discriminator 2
 1903 0b6e 7B68     		ldr	r3, [r7, #4]
 1904 0b70 0122     		movs	r2, #1
 1905 0b72 83F87823 		strb	r2, [r3, #888]
 732:../STM32F2xx_HAL_Driver/Src/stm32f2xx_hal_pcd.c ****   USB_DevConnect(hpcd->Instance);
 1906              		.loc 1 732 0 is_stmt 1 discriminator 2
 1907 0b76 7B68     		ldr	r3, [r7, #4]
 1908 0b78 1B68     		ldr	r3, [r3]
 1909 0b7a 1846     		mov	r0, r3
 1910 0b7c FFF7FEFF 		bl	USB_DevConnect
 733:../STM32F2xx_HAL_Driver/Src/stm32f2xx_hal_pcd.c ****   __HAL_UNLOCK(hpcd); 
 1911              		.loc 1 733 0 discriminator 2
 1912 0b80 7B68     		ldr	r3, [r7, #4]
 1913 0b82 0022     		movs	r2, #0
 1914 0b84 83F87823 		strb	r2, [r3, #888]
 734:../STM32F2xx_HAL_Driver/Src/stm32f2xx_hal_pcd.c ****   return HAL_OK;
 1915              		.loc 1 734 0 discriminator 2
 1916 0b88 0023     		movs	r3, #0
 1917              	.L73:
 735:../STM32F2xx_HAL_Driver/Src/stm32f2xx_hal_pcd.c **** }
 1918              		.loc 1 735 0
 1919 0b8a 1846     		mov	r0, r3
 1920 0b8c 0837     		adds	r7, r7, #8
 1921 0b8e BD46     		mov	sp, r7
 1922              		@ sp needed
 1923 0b90 80BD     		pop	{r7, pc}
 1924              		.cfi_endproc
 1925              	.LFE73:
 1927 0b92 00BF     		.align	2
 1928              		.global	HAL_PCD_DevDisconnect
 1929              		.thumb
 1930              		.thumb_func
 1932              	HAL_PCD_DevDisconnect:
 1933              	.LFB74:
 736:../STM32F2xx_HAL_Driver/Src/stm32f2xx_hal_pcd.c **** 
 737:../STM32F2xx_HAL_Driver/Src/stm32f2xx_hal_pcd.c **** /**
 738:../STM32F2xx_HAL_Driver/Src/stm32f2xx_hal_pcd.c ****   * @brief  Send an amount of data in blocking mode 
 739:../STM32F2xx_HAL_Driver/Src/stm32f2xx_hal_pcd.c ****   * @param  hpcd: PCD handle
 740:../STM32F2xx_HAL_Driver/Src/stm32f2xx_hal_pcd.c ****   * @param  pData: pointer to data buffer
 741:../STM32F2xx_HAL_Driver/Src/stm32f2xx_hal_pcd.c ****   * @param  Size: amount of data to be sent
 742:../STM32F2xx_HAL_Driver/Src/stm32f2xx_hal_pcd.c ****   * @retval HAL status
 743:../STM32F2xx_HAL_Driver/Src/stm32f2xx_hal_pcd.c ****   */
 744:../STM32F2xx_HAL_Driver/Src/stm32f2xx_hal_pcd.c **** HAL_StatusTypeDef HAL_PCD_DevDisconnect(PCD_HandleTypeDef *hpcd)
 745:../STM32F2xx_HAL_Driver/Src/stm32f2xx_hal_pcd.c **** {
 1934              		.loc 1 745 0
 1935              		.cfi_startproc
 1936              		@ args = 0, pretend = 0, frame = 8
 1937              		@ frame_needed = 1, uses_anonymous_args = 0
 1938 0b94 80B5     		push	{r7, lr}
 1939              		.cfi_def_cfa_offset 8
 1940              		.cfi_offset 7, -8
 1941              		.cfi_offset 14, -4
 1942 0b96 82B0     		sub	sp, sp, #8
 1943              		.cfi_def_cfa_offset 16
 1944 0b98 00AF     		add	r7, sp, #0
 1945              		.cfi_def_cfa_register 7
 1946 0b9a 7860     		str	r0, [r7, #4]
 746:../STM32F2xx_HAL_Driver/Src/stm32f2xx_hal_pcd.c ****   __HAL_LOCK(hpcd); 
 1947              		.loc 1 746 0
 1948 0b9c 7B68     		ldr	r3, [r7, #4]
 1949 0b9e 93F87833 		ldrb	r3, [r3, #888]	@ zero_extendqisi2
 1950 0ba2 012B     		cmp	r3, #1
 1951 0ba4 01D1     		bne	.L75
 1952              		.loc 1 746 0 is_stmt 0 discriminator 1
 1953 0ba6 0223     		movs	r3, #2
 1954 0ba8 0DE0     		b	.L76
 1955              	.L75:
 1956              		.loc 1 746 0 discriminator 2
 1957 0baa 7B68     		ldr	r3, [r7, #4]
 1958 0bac 0122     		movs	r2, #1
 1959 0bae 83F87823 		strb	r2, [r3, #888]
 747:../STM32F2xx_HAL_Driver/Src/stm32f2xx_hal_pcd.c ****   USB_DevDisconnect(hpcd->Instance);
 1960              		.loc 1 747 0 is_stmt 1 discriminator 2
 1961 0bb2 7B68     		ldr	r3, [r7, #4]
 1962 0bb4 1B68     		ldr	r3, [r3]
 1963 0bb6 1846     		mov	r0, r3
 1964 0bb8 FFF7FEFF 		bl	USB_DevDisconnect
 748:../STM32F2xx_HAL_Driver/Src/stm32f2xx_hal_pcd.c ****   __HAL_UNLOCK(hpcd); 
 1965              		.loc 1 748 0 discriminator 2
 1966 0bbc 7B68     		ldr	r3, [r7, #4]
 1967 0bbe 0022     		movs	r2, #0
 1968 0bc0 83F87823 		strb	r2, [r3, #888]
 749:../STM32F2xx_HAL_Driver/Src/stm32f2xx_hal_pcd.c ****   return HAL_OK;
 1969              		.loc 1 749 0 discriminator 2
 1970 0bc4 0023     		movs	r3, #0
 1971              	.L76:
 750:../STM32F2xx_HAL_Driver/Src/stm32f2xx_hal_pcd.c **** }
 1972              		.loc 1 750 0
 1973 0bc6 1846     		mov	r0, r3
 1974 0bc8 0837     		adds	r7, r7, #8
 1975 0bca BD46     		mov	sp, r7
 1976              		@ sp needed
 1977 0bcc 80BD     		pop	{r7, pc}
 1978              		.cfi_endproc
 1979              	.LFE74:
 1981 0bce 00BF     		.align	2
 1982              		.global	HAL_PCD_SetAddress
 1983              		.thumb
 1984              		.thumb_func
 1986              	HAL_PCD_SetAddress:
 1987              	.LFB75:
 751:../STM32F2xx_HAL_Driver/Src/stm32f2xx_hal_pcd.c **** 
 752:../STM32F2xx_HAL_Driver/Src/stm32f2xx_hal_pcd.c **** /**
 753:../STM32F2xx_HAL_Driver/Src/stm32f2xx_hal_pcd.c ****   * @brief  Set the USB Device address 
 754:../STM32F2xx_HAL_Driver/Src/stm32f2xx_hal_pcd.c ****   * @param  hpcd: PCD handle
 755:../STM32F2xx_HAL_Driver/Src/stm32f2xx_hal_pcd.c ****   * @param  address: new device address
 756:../STM32F2xx_HAL_Driver/Src/stm32f2xx_hal_pcd.c ****   * @retval HAL status
 757:../STM32F2xx_HAL_Driver/Src/stm32f2xx_hal_pcd.c ****   */
 758:../STM32F2xx_HAL_Driver/Src/stm32f2xx_hal_pcd.c **** HAL_StatusTypeDef HAL_PCD_SetAddress(PCD_HandleTypeDef *hpcd, uint8_t address)
 759:../STM32F2xx_HAL_Driver/Src/stm32f2xx_hal_pcd.c **** {
 1988              		.loc 1 759 0
 1989              		.cfi_startproc
 1990              		@ args = 0, pretend = 0, frame = 8
 1991              		@ frame_needed = 1, uses_anonymous_args = 0
 1992 0bd0 80B5     		push	{r7, lr}
 1993              		.cfi_def_cfa_offset 8
 1994              		.cfi_offset 7, -8
 1995              		.cfi_offset 14, -4
 1996 0bd2 82B0     		sub	sp, sp, #8
 1997              		.cfi_def_cfa_offset 16
 1998 0bd4 00AF     		add	r7, sp, #0
 1999              		.cfi_def_cfa_register 7
 2000 0bd6 7860     		str	r0, [r7, #4]
 2001 0bd8 0B46     		mov	r3, r1
 2002 0bda FB70     		strb	r3, [r7, #3]
 760:../STM32F2xx_HAL_Driver/Src/stm32f2xx_hal_pcd.c ****   __HAL_LOCK(hpcd); 
 2003              		.loc 1 760 0
 2004 0bdc 7B68     		ldr	r3, [r7, #4]
 2005 0bde 93F87833 		ldrb	r3, [r3, #888]	@ zero_extendqisi2
 2006 0be2 012B     		cmp	r3, #1
 2007 0be4 01D1     		bne	.L78
 2008              		.loc 1 760 0 is_stmt 0 discriminator 1
 2009 0be6 0223     		movs	r3, #2
 2010 0be8 0FE0     		b	.L79
 2011              	.L78:
 2012              		.loc 1 760 0 discriminator 2
 2013 0bea 7B68     		ldr	r3, [r7, #4]
 2014 0bec 0122     		movs	r2, #1
 2015 0bee 83F87823 		strb	r2, [r3, #888]
 761:../STM32F2xx_HAL_Driver/Src/stm32f2xx_hal_pcd.c ****   USB_SetDevAddress(hpcd->Instance, address);
 2016              		.loc 1 761 0 is_stmt 1 discriminator 2
 2017 0bf2 7B68     		ldr	r3, [r7, #4]
 2018 0bf4 1A68     		ldr	r2, [r3]
 2019 0bf6 FB78     		ldrb	r3, [r7, #3]	@ zero_extendqisi2
 2020 0bf8 1046     		mov	r0, r2
 2021 0bfa 1946     		mov	r1, r3
 2022 0bfc FFF7FEFF 		bl	USB_SetDevAddress
 762:../STM32F2xx_HAL_Driver/Src/stm32f2xx_hal_pcd.c ****   __HAL_UNLOCK(hpcd);   
 2023              		.loc 1 762 0 discriminator 2
 2024 0c00 7B68     		ldr	r3, [r7, #4]
 2025 0c02 0022     		movs	r2, #0
 2026 0c04 83F87823 		strb	r2, [r3, #888]
 763:../STM32F2xx_HAL_Driver/Src/stm32f2xx_hal_pcd.c ****   return HAL_OK;
 2027              		.loc 1 763 0 discriminator 2
 2028 0c08 0023     		movs	r3, #0
 2029              	.L79:
 764:../STM32F2xx_HAL_Driver/Src/stm32f2xx_hal_pcd.c **** }
 2030              		.loc 1 764 0
 2031 0c0a 1846     		mov	r0, r3
 2032 0c0c 0837     		adds	r7, r7, #8
 2033 0c0e BD46     		mov	sp, r7
 2034              		@ sp needed
 2035 0c10 80BD     		pop	{r7, pc}
 2036              		.cfi_endproc
 2037              	.LFE75:
 2039 0c12 00BF     		.align	2
 2040              		.global	HAL_PCD_EP_Open
 2041              		.thumb
 2042              		.thumb_func
 2044              	HAL_PCD_EP_Open:
 2045              	.LFB76:
 765:../STM32F2xx_HAL_Driver/Src/stm32f2xx_hal_pcd.c **** /**
 766:../STM32F2xx_HAL_Driver/Src/stm32f2xx_hal_pcd.c ****   * @brief  Open and configure an endpoint
 767:../STM32F2xx_HAL_Driver/Src/stm32f2xx_hal_pcd.c ****   * @param  hpcd: PCD handle
 768:../STM32F2xx_HAL_Driver/Src/stm32f2xx_hal_pcd.c ****   * @param  ep_addr: endpoint address
 769:../STM32F2xx_HAL_Driver/Src/stm32f2xx_hal_pcd.c ****   * @param  ep_mps: endpoint max packert size
 770:../STM32F2xx_HAL_Driver/Src/stm32f2xx_hal_pcd.c ****   * @param  ep_type: endpoint type   
 771:../STM32F2xx_HAL_Driver/Src/stm32f2xx_hal_pcd.c ****   * @retval HAL status
 772:../STM32F2xx_HAL_Driver/Src/stm32f2xx_hal_pcd.c ****   */
 773:../STM32F2xx_HAL_Driver/Src/stm32f2xx_hal_pcd.c **** HAL_StatusTypeDef HAL_PCD_EP_Open(PCD_HandleTypeDef *hpcd, uint8_t ep_addr, uint16_t ep_mps, uint8_
 774:../STM32F2xx_HAL_Driver/Src/stm32f2xx_hal_pcd.c **** {
 2046              		.loc 1 774 0
 2047              		.cfi_startproc
 2048              		@ args = 0, pretend = 0, frame = 16
 2049              		@ frame_needed = 1, uses_anonymous_args = 0
 2050 0c14 80B5     		push	{r7, lr}
 2051              		.cfi_def_cfa_offset 8
 2052              		.cfi_offset 7, -8
 2053              		.cfi_offset 14, -4
 2054 0c16 84B0     		sub	sp, sp, #16
 2055              		.cfi_def_cfa_offset 24
 2056 0c18 00AF     		add	r7, sp, #0
 2057              		.cfi_def_cfa_register 7
 2058 0c1a 7860     		str	r0, [r7, #4]
 2059 0c1c F970     		strb	r1, [r7, #3]
 2060 0c1e 3A80     		strh	r2, [r7]	@ movhi
 2061 0c20 BB70     		strb	r3, [r7, #2]
 775:../STM32F2xx_HAL_Driver/Src/stm32f2xx_hal_pcd.c ****   HAL_StatusTypeDef  ret = HAL_OK;
 2062              		.loc 1 775 0
 2063 0c22 0023     		movs	r3, #0
 2064 0c24 FB72     		strb	r3, [r7, #11]
 776:../STM32F2xx_HAL_Driver/Src/stm32f2xx_hal_pcd.c ****   USB_OTG_EPTypeDef *ep;
 777:../STM32F2xx_HAL_Driver/Src/stm32f2xx_hal_pcd.c ****   
 778:../STM32F2xx_HAL_Driver/Src/stm32f2xx_hal_pcd.c ****   if ((ep_addr & 0x80) == 0x80)
 2065              		.loc 1 778 0
 2066 0c26 FB78     		ldrb	r3, [r7, #3]	@ zero_extendqisi2
 2067 0c28 5BB2     		sxtb	r3, r3
 2068 0c2a 002B     		cmp	r3, #0
 2069 0c2c 0BDA     		bge	.L81
 779:../STM32F2xx_HAL_Driver/Src/stm32f2xx_hal_pcd.c ****   {
 780:../STM32F2xx_HAL_Driver/Src/stm32f2xx_hal_pcd.c ****     ep = &hpcd->IN_ep[ep_addr & 0x7F];
 2070              		.loc 1 780 0
 2071 0c2e FB78     		ldrb	r3, [r7, #3]	@ zero_extendqisi2
 2072 0c30 03F07F02 		and	r2, r3, #127
 2073 0c34 1346     		mov	r3, r2
 2074 0c36 DB00     		lsls	r3, r3, #3
 2075 0c38 9B1A     		subs	r3, r3, r2
 2076 0c3a 9B00     		lsls	r3, r3, #2
 2077 0c3c 3033     		adds	r3, r3, #48
 2078 0c3e 7A68     		ldr	r2, [r7, #4]
 2079 0c40 1344     		add	r3, r3, r2
 2080 0c42 FB60     		str	r3, [r7, #12]
 2081 0c44 0CE0     		b	.L82
 2082              	.L81:
 781:../STM32F2xx_HAL_Driver/Src/stm32f2xx_hal_pcd.c ****   }
 782:../STM32F2xx_HAL_Driver/Src/stm32f2xx_hal_pcd.c ****   else
 783:../STM32F2xx_HAL_Driver/Src/stm32f2xx_hal_pcd.c ****   {
 784:../STM32F2xx_HAL_Driver/Src/stm32f2xx_hal_pcd.c ****     ep = &hpcd->OUT_ep[ep_addr & 0x7F];
 2083              		.loc 1 784 0
 2084 0c46 FB78     		ldrb	r3, [r7, #3]	@ zero_extendqisi2
 2085 0c48 03F07F02 		and	r2, r3, #127
 2086 0c4c 1346     		mov	r3, r2
 2087 0c4e DB00     		lsls	r3, r3, #3
 2088 0c50 9B1A     		subs	r3, r3, r2
 2089 0c52 9B00     		lsls	r3, r3, #2
 2090 0c54 03F5E873 		add	r3, r3, #464
 2091 0c58 7A68     		ldr	r2, [r7, #4]
 2092 0c5a 1344     		add	r3, r3, r2
 2093 0c5c 0433     		adds	r3, r3, #4
 2094 0c5e FB60     		str	r3, [r7, #12]
 2095              	.L82:
 785:../STM32F2xx_HAL_Driver/Src/stm32f2xx_hal_pcd.c ****   }
 786:../STM32F2xx_HAL_Driver/Src/stm32f2xx_hal_pcd.c ****   ep->num   = ep_addr & 0x7F;
 2096              		.loc 1 786 0
 2097 0c60 FB78     		ldrb	r3, [r7, #3]
 2098 0c62 03F07F03 		and	r3, r3, #127
 2099 0c66 DAB2     		uxtb	r2, r3
 2100 0c68 FB68     		ldr	r3, [r7, #12]
 2101 0c6a 1A70     		strb	r2, [r3]
 787:../STM32F2xx_HAL_Driver/Src/stm32f2xx_hal_pcd.c ****   
 788:../STM32F2xx_HAL_Driver/Src/stm32f2xx_hal_pcd.c ****   ep->is_in = (0x80 & ep_addr) != 0;
 2102              		.loc 1 788 0
 2103 0c6c FB78     		ldrb	r3, [r7, #3]	@ zero_extendqisi2
 2104 0c6e DB09     		lsrs	r3, r3, #7
 2105 0c70 DBB2     		uxtb	r3, r3
 2106 0c72 1A46     		mov	r2, r3
 2107 0c74 FB68     		ldr	r3, [r7, #12]
 2108 0c76 5A70     		strb	r2, [r3, #1]
 789:../STM32F2xx_HAL_Driver/Src/stm32f2xx_hal_pcd.c ****   ep->maxpacket = ep_mps;
 2109              		.loc 1 789 0
 2110 0c78 3A88     		ldrh	r2, [r7]
 2111 0c7a FB68     		ldr	r3, [r7, #12]
 2112 0c7c 9A60     		str	r2, [r3, #8]
 790:../STM32F2xx_HAL_Driver/Src/stm32f2xx_hal_pcd.c ****   ep->type = ep_type;
 2113              		.loc 1 790 0
 2114 0c7e FB68     		ldr	r3, [r7, #12]
 2115 0c80 BA78     		ldrb	r2, [r7, #2]
 2116 0c82 DA70     		strb	r2, [r3, #3]
 791:../STM32F2xx_HAL_Driver/Src/stm32f2xx_hal_pcd.c ****   if (ep->is_in)
 2117              		.loc 1 791 0
 2118 0c84 FB68     		ldr	r3, [r7, #12]
 2119 0c86 5B78     		ldrb	r3, [r3, #1]	@ zero_extendqisi2
 2120 0c88 002B     		cmp	r3, #0
 2121 0c8a 04D0     		beq	.L83
 792:../STM32F2xx_HAL_Driver/Src/stm32f2xx_hal_pcd.c ****   {
 793:../STM32F2xx_HAL_Driver/Src/stm32f2xx_hal_pcd.c ****     /* Assign a Tx FIFO */
 794:../STM32F2xx_HAL_Driver/Src/stm32f2xx_hal_pcd.c ****     ep->tx_fifo_num = ep->num;
 2122              		.loc 1 794 0
 2123 0c8c FB68     		ldr	r3, [r7, #12]
 2124 0c8e 1B78     		ldrb	r3, [r3]	@ zero_extendqisi2
 2125 0c90 1A46     		mov	r2, r3
 2126 0c92 FB68     		ldr	r3, [r7, #12]
 2127 0c94 DA80     		strh	r2, [r3, #6]	@ movhi
 2128              	.L83:
 795:../STM32F2xx_HAL_Driver/Src/stm32f2xx_hal_pcd.c ****   }
 796:../STM32F2xx_HAL_Driver/Src/stm32f2xx_hal_pcd.c ****   /* Set initial data PID. */
 797:../STM32F2xx_HAL_Driver/Src/stm32f2xx_hal_pcd.c ****   if (ep_type == EP_TYPE_BULK )
 2129              		.loc 1 797 0
 2130 0c96 BB78     		ldrb	r3, [r7, #2]	@ zero_extendqisi2
 2131 0c98 022B     		cmp	r3, #2
 2132 0c9a 02D1     		bne	.L84
 798:../STM32F2xx_HAL_Driver/Src/stm32f2xx_hal_pcd.c ****   {
 799:../STM32F2xx_HAL_Driver/Src/stm32f2xx_hal_pcd.c ****     ep->data_pid_start = 0;
 2133              		.loc 1 799 0
 2134 0c9c FB68     		ldr	r3, [r7, #12]
 2135 0c9e 0022     		movs	r2, #0
 2136 0ca0 1A71     		strb	r2, [r3, #4]
 2137              	.L84:
 800:../STM32F2xx_HAL_Driver/Src/stm32f2xx_hal_pcd.c ****   }
 801:../STM32F2xx_HAL_Driver/Src/stm32f2xx_hal_pcd.c ****   
 802:../STM32F2xx_HAL_Driver/Src/stm32f2xx_hal_pcd.c ****   __HAL_LOCK(hpcd); 
 2138              		.loc 1 802 0
 2139 0ca2 7B68     		ldr	r3, [r7, #4]
 2140 0ca4 93F87833 		ldrb	r3, [r3, #888]	@ zero_extendqisi2
 2141 0ca8 012B     		cmp	r3, #1
 2142 0caa 01D1     		bne	.L85
 2143              		.loc 1 802 0 is_stmt 0 discriminator 1
 2144 0cac 0223     		movs	r3, #2
 2145 0cae 0EE0     		b	.L86
 2146              	.L85:
 2147              		.loc 1 802 0 discriminator 2
 2148 0cb0 7B68     		ldr	r3, [r7, #4]
 2149 0cb2 0122     		movs	r2, #1
 2150 0cb4 83F87823 		strb	r2, [r3, #888]
 803:../STM32F2xx_HAL_Driver/Src/stm32f2xx_hal_pcd.c ****   USB_ActivateEndpoint(hpcd->Instance , ep);
 2151              		.loc 1 803 0 is_stmt 1 discriminator 2
 2152 0cb8 7B68     		ldr	r3, [r7, #4]
 2153 0cba 1B68     		ldr	r3, [r3]
 2154 0cbc 1846     		mov	r0, r3
 2155 0cbe F968     		ldr	r1, [r7, #12]
 2156 0cc0 FFF7FEFF 		bl	USB_ActivateEndpoint
 804:../STM32F2xx_HAL_Driver/Src/stm32f2xx_hal_pcd.c ****   __HAL_UNLOCK(hpcd);   
 2157              		.loc 1 804 0 discriminator 2
 2158 0cc4 7B68     		ldr	r3, [r7, #4]
 2159 0cc6 0022     		movs	r2, #0
 2160 0cc8 83F87823 		strb	r2, [r3, #888]
 805:../STM32F2xx_HAL_Driver/Src/stm32f2xx_hal_pcd.c ****   return ret;
 2161              		.loc 1 805 0 discriminator 2
 2162 0ccc FB7A     		ldrb	r3, [r7, #11]	@ zero_extendqisi2
 2163              	.L86:
 806:../STM32F2xx_HAL_Driver/Src/stm32f2xx_hal_pcd.c **** }
 2164              		.loc 1 806 0
 2165 0cce 1846     		mov	r0, r3
 2166 0cd0 1037     		adds	r7, r7, #16
 2167 0cd2 BD46     		mov	sp, r7
 2168              		@ sp needed
 2169 0cd4 80BD     		pop	{r7, pc}
 2170              		.cfi_endproc
 2171              	.LFE76:
 2173 0cd6 00BF     		.align	2
 2174              		.global	HAL_PCD_EP_Close
 2175              		.thumb
 2176              		.thumb_func
 2178              	HAL_PCD_EP_Close:
 2179              	.LFB77:
 807:../STM32F2xx_HAL_Driver/Src/stm32f2xx_hal_pcd.c **** 
 808:../STM32F2xx_HAL_Driver/Src/stm32f2xx_hal_pcd.c **** 
 809:../STM32F2xx_HAL_Driver/Src/stm32f2xx_hal_pcd.c **** /**
 810:../STM32F2xx_HAL_Driver/Src/stm32f2xx_hal_pcd.c ****   * @brief  Deactivate an endpoint
 811:../STM32F2xx_HAL_Driver/Src/stm32f2xx_hal_pcd.c ****   * @param  hpcd: PCD handle
 812:../STM32F2xx_HAL_Driver/Src/stm32f2xx_hal_pcd.c ****   * @param  ep_addr: endpoint address
 813:../STM32F2xx_HAL_Driver/Src/stm32f2xx_hal_pcd.c ****   * @retval HAL status
 814:../STM32F2xx_HAL_Driver/Src/stm32f2xx_hal_pcd.c ****   */
 815:../STM32F2xx_HAL_Driver/Src/stm32f2xx_hal_pcd.c **** HAL_StatusTypeDef HAL_PCD_EP_Close(PCD_HandleTypeDef *hpcd, uint8_t ep_addr)
 816:../STM32F2xx_HAL_Driver/Src/stm32f2xx_hal_pcd.c **** {  
 2180              		.loc 1 816 0
 2181              		.cfi_startproc
 2182              		@ args = 0, pretend = 0, frame = 16
 2183              		@ frame_needed = 1, uses_anonymous_args = 0
 2184 0cd8 80B5     		push	{r7, lr}
 2185              		.cfi_def_cfa_offset 8
 2186              		.cfi_offset 7, -8
 2187              		.cfi_offset 14, -4
 2188 0cda 84B0     		sub	sp, sp, #16
 2189              		.cfi_def_cfa_offset 24
 2190 0cdc 00AF     		add	r7, sp, #0
 2191              		.cfi_def_cfa_register 7
 2192 0cde 7860     		str	r0, [r7, #4]
 2193 0ce0 0B46     		mov	r3, r1
 2194 0ce2 FB70     		strb	r3, [r7, #3]
 817:../STM32F2xx_HAL_Driver/Src/stm32f2xx_hal_pcd.c ****   USB_OTG_EPTypeDef *ep;
 818:../STM32F2xx_HAL_Driver/Src/stm32f2xx_hal_pcd.c ****   
 819:../STM32F2xx_HAL_Driver/Src/stm32f2xx_hal_pcd.c ****   if ((ep_addr & 0x80) == 0x80)
 2195              		.loc 1 819 0
 2196 0ce4 FB78     		ldrb	r3, [r7, #3]	@ zero_extendqisi2
 2197 0ce6 5BB2     		sxtb	r3, r3
 2198 0ce8 002B     		cmp	r3, #0
 2199 0cea 0BDA     		bge	.L88
 820:../STM32F2xx_HAL_Driver/Src/stm32f2xx_hal_pcd.c ****   {
 821:../STM32F2xx_HAL_Driver/Src/stm32f2xx_hal_pcd.c ****     ep = &hpcd->IN_ep[ep_addr & 0x7F];
 2200              		.loc 1 821 0
 2201 0cec FB78     		ldrb	r3, [r7, #3]	@ zero_extendqisi2
 2202 0cee 03F07F02 		and	r2, r3, #127
 2203 0cf2 1346     		mov	r3, r2
 2204 0cf4 DB00     		lsls	r3, r3, #3
 2205 0cf6 9B1A     		subs	r3, r3, r2
 2206 0cf8 9B00     		lsls	r3, r3, #2
 2207 0cfa 3033     		adds	r3, r3, #48
 2208 0cfc 7A68     		ldr	r2, [r7, #4]
 2209 0cfe 1344     		add	r3, r3, r2
 2210 0d00 FB60     		str	r3, [r7, #12]
 2211 0d02 0CE0     		b	.L89
 2212              	.L88:
 822:../STM32F2xx_HAL_Driver/Src/stm32f2xx_hal_pcd.c ****   }
 823:../STM32F2xx_HAL_Driver/Src/stm32f2xx_hal_pcd.c ****   else
 824:../STM32F2xx_HAL_Driver/Src/stm32f2xx_hal_pcd.c ****   {
 825:../STM32F2xx_HAL_Driver/Src/stm32f2xx_hal_pcd.c ****     ep = &hpcd->OUT_ep[ep_addr & 0x7F];
 2213              		.loc 1 825 0
 2214 0d04 FB78     		ldrb	r3, [r7, #3]	@ zero_extendqisi2
 2215 0d06 03F07F02 		and	r2, r3, #127
 2216 0d0a 1346     		mov	r3, r2
 2217 0d0c DB00     		lsls	r3, r3, #3
 2218 0d0e 9B1A     		subs	r3, r3, r2
 2219 0d10 9B00     		lsls	r3, r3, #2
 2220 0d12 03F5E873 		add	r3, r3, #464
 2221 0d16 7A68     		ldr	r2, [r7, #4]
 2222 0d18 1344     		add	r3, r3, r2
 2223 0d1a 0433     		adds	r3, r3, #4
 2224 0d1c FB60     		str	r3, [r7, #12]
 2225              	.L89:
 826:../STM32F2xx_HAL_Driver/Src/stm32f2xx_hal_pcd.c ****   }
 827:../STM32F2xx_HAL_Driver/Src/stm32f2xx_hal_pcd.c ****   ep->num   = ep_addr & 0x7F;
 2226              		.loc 1 827 0
 2227 0d1e FB78     		ldrb	r3, [r7, #3]
 2228 0d20 03F07F03 		and	r3, r3, #127
 2229 0d24 DAB2     		uxtb	r2, r3
 2230 0d26 FB68     		ldr	r3, [r7, #12]
 2231 0d28 1A70     		strb	r2, [r3]
 828:../STM32F2xx_HAL_Driver/Src/stm32f2xx_hal_pcd.c ****   
 829:../STM32F2xx_HAL_Driver/Src/stm32f2xx_hal_pcd.c ****   ep->is_in = (0x80 & ep_addr) != 0;
 2232              		.loc 1 829 0
 2233 0d2a FB78     		ldrb	r3, [r7, #3]	@ zero_extendqisi2
 2234 0d2c DB09     		lsrs	r3, r3, #7
 2235 0d2e DBB2     		uxtb	r3, r3
 2236 0d30 1A46     		mov	r2, r3
 2237 0d32 FB68     		ldr	r3, [r7, #12]
 2238 0d34 5A70     		strb	r2, [r3, #1]
 830:../STM32F2xx_HAL_Driver/Src/stm32f2xx_hal_pcd.c ****   
 831:../STM32F2xx_HAL_Driver/Src/stm32f2xx_hal_pcd.c ****   __HAL_LOCK(hpcd); 
 2239              		.loc 1 831 0
 2240 0d36 7B68     		ldr	r3, [r7, #4]
 2241 0d38 93F87833 		ldrb	r3, [r3, #888]	@ zero_extendqisi2
 2242 0d3c 012B     		cmp	r3, #1
 2243 0d3e 01D1     		bne	.L90
 2244              		.loc 1 831 0 is_stmt 0 discriminator 1
 2245 0d40 0223     		movs	r3, #2
 2246 0d42 0EE0     		b	.L91
 2247              	.L90:
 2248              		.loc 1 831 0 discriminator 2
 2249 0d44 7B68     		ldr	r3, [r7, #4]
 2250 0d46 0122     		movs	r2, #1
 2251 0d48 83F87823 		strb	r2, [r3, #888]
 832:../STM32F2xx_HAL_Driver/Src/stm32f2xx_hal_pcd.c ****   USB_DeactivateEndpoint(hpcd->Instance , ep);
 2252              		.loc 1 832 0 is_stmt 1 discriminator 2
 2253 0d4c 7B68     		ldr	r3, [r7, #4]
 2254 0d4e 1B68     		ldr	r3, [r3]
 2255 0d50 1846     		mov	r0, r3
 2256 0d52 F968     		ldr	r1, [r7, #12]
 2257 0d54 FFF7FEFF 		bl	USB_DeactivateEndpoint
 833:../STM32F2xx_HAL_Driver/Src/stm32f2xx_hal_pcd.c ****   __HAL_UNLOCK(hpcd);   
 2258              		.loc 1 833 0 discriminator 2
 2259 0d58 7B68     		ldr	r3, [r7, #4]
 2260 0d5a 0022     		movs	r2, #0
 2261 0d5c 83F87823 		strb	r2, [r3, #888]
 834:../STM32F2xx_HAL_Driver/Src/stm32f2xx_hal_pcd.c ****   return HAL_OK;
 2262              		.loc 1 834 0 discriminator 2
 2263 0d60 0023     		movs	r3, #0
 2264              	.L91:
 835:../STM32F2xx_HAL_Driver/Src/stm32f2xx_hal_pcd.c **** }
 2265              		.loc 1 835 0
 2266 0d62 1846     		mov	r0, r3
 2267 0d64 1037     		adds	r7, r7, #16
 2268 0d66 BD46     		mov	sp, r7
 2269              		@ sp needed
 2270 0d68 80BD     		pop	{r7, pc}
 2271              		.cfi_endproc
 2272              	.LFE77:
 2274 0d6a 00BF     		.align	2
 2275              		.global	HAL_PCD_EP_Receive
 2276              		.thumb
 2277              		.thumb_func
 2279              	HAL_PCD_EP_Receive:
 2280              	.LFB78:
 836:../STM32F2xx_HAL_Driver/Src/stm32f2xx_hal_pcd.c **** 
 837:../STM32F2xx_HAL_Driver/Src/stm32f2xx_hal_pcd.c **** 
 838:../STM32F2xx_HAL_Driver/Src/stm32f2xx_hal_pcd.c **** /**
 839:../STM32F2xx_HAL_Driver/Src/stm32f2xx_hal_pcd.c ****   * @brief  Receive an amount of data  
 840:../STM32F2xx_HAL_Driver/Src/stm32f2xx_hal_pcd.c ****   * @param  hpcd: PCD handle
 841:../STM32F2xx_HAL_Driver/Src/stm32f2xx_hal_pcd.c ****   * @param  ep_addr: endpoint address
 842:../STM32F2xx_HAL_Driver/Src/stm32f2xx_hal_pcd.c ****   * @param  pBuf: pointer to the reception buffer   
 843:../STM32F2xx_HAL_Driver/Src/stm32f2xx_hal_pcd.c ****   * @param  len: amount of data to be received
 844:../STM32F2xx_HAL_Driver/Src/stm32f2xx_hal_pcd.c ****   * @retval HAL status
 845:../STM32F2xx_HAL_Driver/Src/stm32f2xx_hal_pcd.c ****   */
 846:../STM32F2xx_HAL_Driver/Src/stm32f2xx_hal_pcd.c **** HAL_StatusTypeDef HAL_PCD_EP_Receive(PCD_HandleTypeDef *hpcd, uint8_t ep_addr, uint8_t *pBuf, uint3
 847:../STM32F2xx_HAL_Driver/Src/stm32f2xx_hal_pcd.c **** {
 2281              		.loc 1 847 0
 2282              		.cfi_startproc
 2283              		@ args = 0, pretend = 0, frame = 24
 2284              		@ frame_needed = 1, uses_anonymous_args = 0
 2285 0d6c 80B5     		push	{r7, lr}
 2286              		.cfi_def_cfa_offset 8
 2287              		.cfi_offset 7, -8
 2288              		.cfi_offset 14, -4
 2289 0d6e 86B0     		sub	sp, sp, #24
 2290              		.cfi_def_cfa_offset 32
 2291 0d70 00AF     		add	r7, sp, #0
 2292              		.cfi_def_cfa_register 7
 2293 0d72 F860     		str	r0, [r7, #12]
 2294 0d74 7A60     		str	r2, [r7, #4]
 2295 0d76 3B60     		str	r3, [r7]
 2296 0d78 0B46     		mov	r3, r1
 2297 0d7a FB72     		strb	r3, [r7, #11]
 848:../STM32F2xx_HAL_Driver/Src/stm32f2xx_hal_pcd.c ****   
 849:../STM32F2xx_HAL_Driver/Src/stm32f2xx_hal_pcd.c ****   USB_OTG_EPTypeDef *ep;
 850:../STM32F2xx_HAL_Driver/Src/stm32f2xx_hal_pcd.c ****   
 851:../STM32F2xx_HAL_Driver/Src/stm32f2xx_hal_pcd.c ****   ep = &hpcd->OUT_ep[ep_addr & 0x7F];
 2298              		.loc 1 851 0
 2299 0d7c FB7A     		ldrb	r3, [r7, #11]	@ zero_extendqisi2
 2300 0d7e 03F07F02 		and	r2, r3, #127
 2301 0d82 1346     		mov	r3, r2
 2302 0d84 DB00     		lsls	r3, r3, #3
 2303 0d86 9B1A     		subs	r3, r3, r2
 2304 0d88 9B00     		lsls	r3, r3, #2
 2305 0d8a 03F5E873 		add	r3, r3, #464
 2306 0d8e FA68     		ldr	r2, [r7, #12]
 2307 0d90 1344     		add	r3, r3, r2
 2308 0d92 0433     		adds	r3, r3, #4
 2309 0d94 7B61     		str	r3, [r7, #20]
 852:../STM32F2xx_HAL_Driver/Src/stm32f2xx_hal_pcd.c ****   
 853:../STM32F2xx_HAL_Driver/Src/stm32f2xx_hal_pcd.c ****   /*setup and start the Xfer */
 854:../STM32F2xx_HAL_Driver/Src/stm32f2xx_hal_pcd.c ****   ep->xfer_buff = pBuf;  
 2310              		.loc 1 854 0
 2311 0d96 7B69     		ldr	r3, [r7, #20]
 2312 0d98 7A68     		ldr	r2, [r7, #4]
 2313 0d9a DA60     		str	r2, [r3, #12]
 855:../STM32F2xx_HAL_Driver/Src/stm32f2xx_hal_pcd.c ****   ep->xfer_len = len;
 2314              		.loc 1 855 0
 2315 0d9c 7B69     		ldr	r3, [r7, #20]
 2316 0d9e 3A68     		ldr	r2, [r7]
 2317 0da0 5A61     		str	r2, [r3, #20]
 856:../STM32F2xx_HAL_Driver/Src/stm32f2xx_hal_pcd.c ****   ep->xfer_count = 0;
 2318              		.loc 1 856 0
 2319 0da2 7B69     		ldr	r3, [r7, #20]
 2320 0da4 0022     		movs	r2, #0
 2321 0da6 9A61     		str	r2, [r3, #24]
 857:../STM32F2xx_HAL_Driver/Src/stm32f2xx_hal_pcd.c ****   ep->is_in = 0;
 2322              		.loc 1 857 0
 2323 0da8 7B69     		ldr	r3, [r7, #20]
 2324 0daa 0022     		movs	r2, #0
 2325 0dac 5A70     		strb	r2, [r3, #1]
 858:../STM32F2xx_HAL_Driver/Src/stm32f2xx_hal_pcd.c ****   ep->num = ep_addr & 0x7F;
 2326              		.loc 1 858 0
 2327 0dae FB7A     		ldrb	r3, [r7, #11]
 2328 0db0 03F07F03 		and	r3, r3, #127
 2329 0db4 DAB2     		uxtb	r2, r3
 2330 0db6 7B69     		ldr	r3, [r7, #20]
 2331 0db8 1A70     		strb	r2, [r3]
 859:../STM32F2xx_HAL_Driver/Src/stm32f2xx_hal_pcd.c ****   
 860:../STM32F2xx_HAL_Driver/Src/stm32f2xx_hal_pcd.c ****   if (hpcd->Init.dma_enable == 1)
 2332              		.loc 1 860 0
 2333 0dba FB68     		ldr	r3, [r7, #12]
 2334 0dbc 1B69     		ldr	r3, [r3, #16]
 2335 0dbe 012B     		cmp	r3, #1
 2336 0dc0 02D1     		bne	.L93
 861:../STM32F2xx_HAL_Driver/Src/stm32f2xx_hal_pcd.c ****   {
 862:../STM32F2xx_HAL_Driver/Src/stm32f2xx_hal_pcd.c ****     ep->dma_addr = (uint32_t)pBuf;  
 2337              		.loc 1 862 0
 2338 0dc2 7A68     		ldr	r2, [r7, #4]
 2339 0dc4 7B69     		ldr	r3, [r7, #20]
 2340 0dc6 1A61     		str	r2, [r3, #16]
 2341              	.L93:
 863:../STM32F2xx_HAL_Driver/Src/stm32f2xx_hal_pcd.c ****   }
 864:../STM32F2xx_HAL_Driver/Src/stm32f2xx_hal_pcd.c ****   
 865:../STM32F2xx_HAL_Driver/Src/stm32f2xx_hal_pcd.c ****   __HAL_LOCK(hpcd); 
 2342              		.loc 1 865 0
 2343 0dc8 FB68     		ldr	r3, [r7, #12]
 2344 0dca 93F87833 		ldrb	r3, [r3, #888]	@ zero_extendqisi2
 2345 0dce 012B     		cmp	r3, #1
 2346 0dd0 01D1     		bne	.L94
 2347              		.loc 1 865 0 is_stmt 0 discriminator 1
 2348 0dd2 0223     		movs	r3, #2
 2349 0dd4 22E0     		b	.L95
 2350              	.L94:
 2351              		.loc 1 865 0 discriminator 2
 2352 0dd6 FB68     		ldr	r3, [r7, #12]
 2353 0dd8 0122     		movs	r2, #1
 2354 0dda 83F87823 		strb	r2, [r3, #888]
 866:../STM32F2xx_HAL_Driver/Src/stm32f2xx_hal_pcd.c ****   
 867:../STM32F2xx_HAL_Driver/Src/stm32f2xx_hal_pcd.c ****   if ((ep_addr & 0x7F) == 0 )
 2355              		.loc 1 867 0 is_stmt 1 discriminator 2
 2356 0dde FB7A     		ldrb	r3, [r7, #11]	@ zero_extendqisi2
 2357 0de0 03F07F03 		and	r3, r3, #127
 2358 0de4 002B     		cmp	r3, #0
 2359 0de6 0AD1     		bne	.L96
 868:../STM32F2xx_HAL_Driver/Src/stm32f2xx_hal_pcd.c ****   {
 869:../STM32F2xx_HAL_Driver/Src/stm32f2xx_hal_pcd.c ****     USB_EP0StartXfer(hpcd->Instance , ep, hpcd->Init.dma_enable);
 2360              		.loc 1 869 0
 2361 0de8 FB68     		ldr	r3, [r7, #12]
 2362 0dea 1A68     		ldr	r2, [r3]
 2363 0dec FB68     		ldr	r3, [r7, #12]
 2364 0dee 1B69     		ldr	r3, [r3, #16]
 2365 0df0 DBB2     		uxtb	r3, r3
 2366 0df2 1046     		mov	r0, r2
 2367 0df4 7969     		ldr	r1, [r7, #20]
 2368 0df6 1A46     		mov	r2, r3
 2369 0df8 FFF7FEFF 		bl	USB_EP0StartXfer
 2370 0dfc 09E0     		b	.L97
 2371              	.L96:
 870:../STM32F2xx_HAL_Driver/Src/stm32f2xx_hal_pcd.c ****   }
 871:../STM32F2xx_HAL_Driver/Src/stm32f2xx_hal_pcd.c ****   else
 872:../STM32F2xx_HAL_Driver/Src/stm32f2xx_hal_pcd.c ****   {
 873:../STM32F2xx_HAL_Driver/Src/stm32f2xx_hal_pcd.c ****     USB_EPStartXfer(hpcd->Instance , ep, hpcd->Init.dma_enable);
 2372              		.loc 1 873 0
 2373 0dfe FB68     		ldr	r3, [r7, #12]
 2374 0e00 1A68     		ldr	r2, [r3]
 2375 0e02 FB68     		ldr	r3, [r7, #12]
 2376 0e04 1B69     		ldr	r3, [r3, #16]
 2377 0e06 DBB2     		uxtb	r3, r3
 2378 0e08 1046     		mov	r0, r2
 2379 0e0a 7969     		ldr	r1, [r7, #20]
 2380 0e0c 1A46     		mov	r2, r3
 2381 0e0e FFF7FEFF 		bl	USB_EPStartXfer
 2382              	.L97:
 874:../STM32F2xx_HAL_Driver/Src/stm32f2xx_hal_pcd.c ****   }
 875:../STM32F2xx_HAL_Driver/Src/stm32f2xx_hal_pcd.c ****   __HAL_UNLOCK(hpcd); 
 2383              		.loc 1 875 0
 2384 0e12 FB68     		ldr	r3, [r7, #12]
 2385 0e14 0022     		movs	r2, #0
 2386 0e16 83F87823 		strb	r2, [r3, #888]
 876:../STM32F2xx_HAL_Driver/Src/stm32f2xx_hal_pcd.c ****   
 877:../STM32F2xx_HAL_Driver/Src/stm32f2xx_hal_pcd.c ****   return HAL_OK;
 2387              		.loc 1 877 0
 2388 0e1a 0023     		movs	r3, #0
 2389              	.L95:
 878:../STM32F2xx_HAL_Driver/Src/stm32f2xx_hal_pcd.c **** }
 2390              		.loc 1 878 0
 2391 0e1c 1846     		mov	r0, r3
 2392 0e1e 1837     		adds	r7, r7, #24
 2393 0e20 BD46     		mov	sp, r7
 2394              		@ sp needed
 2395 0e22 80BD     		pop	{r7, pc}
 2396              		.cfi_endproc
 2397              	.LFE78:
 2399              		.align	2
 2400              		.global	HAL_PCD_EP_GetRxCount
 2401              		.thumb
 2402              		.thumb_func
 2404              	HAL_PCD_EP_GetRxCount:
 2405              	.LFB79:
 879:../STM32F2xx_HAL_Driver/Src/stm32f2xx_hal_pcd.c **** 
 880:../STM32F2xx_HAL_Driver/Src/stm32f2xx_hal_pcd.c **** /**
 881:../STM32F2xx_HAL_Driver/Src/stm32f2xx_hal_pcd.c ****   * @brief  Get Received Data Size
 882:../STM32F2xx_HAL_Driver/Src/stm32f2xx_hal_pcd.c ****   * @param  hpcd: PCD handle
 883:../STM32F2xx_HAL_Driver/Src/stm32f2xx_hal_pcd.c ****   * @param  ep_addr: endpoint address
 884:../STM32F2xx_HAL_Driver/Src/stm32f2xx_hal_pcd.c ****   * @retval Data Size
 885:../STM32F2xx_HAL_Driver/Src/stm32f2xx_hal_pcd.c ****   */
 886:../STM32F2xx_HAL_Driver/Src/stm32f2xx_hal_pcd.c **** uint16_t HAL_PCD_EP_GetRxCount(PCD_HandleTypeDef *hpcd, uint8_t ep_addr)
 887:../STM32F2xx_HAL_Driver/Src/stm32f2xx_hal_pcd.c **** {
 2406              		.loc 1 887 0
 2407              		.cfi_startproc
 2408              		@ args = 0, pretend = 0, frame = 8
 2409              		@ frame_needed = 1, uses_anonymous_args = 0
 2410              		@ link register save eliminated.
 2411 0e24 80B4     		push	{r7}
 2412              		.cfi_def_cfa_offset 4
 2413              		.cfi_offset 7, -4
 2414 0e26 83B0     		sub	sp, sp, #12
 2415              		.cfi_def_cfa_offset 16
 2416 0e28 00AF     		add	r7, sp, #0
 2417              		.cfi_def_cfa_register 7
 2418 0e2a 7860     		str	r0, [r7, #4]
 2419 0e2c 0B46     		mov	r3, r1
 2420 0e2e FB70     		strb	r3, [r7, #3]
 888:../STM32F2xx_HAL_Driver/Src/stm32f2xx_hal_pcd.c ****   return hpcd->OUT_ep[ep_addr & 0x7F].xfer_count;
 2421              		.loc 1 888 0
 2422 0e30 FB78     		ldrb	r3, [r7, #3]	@ zero_extendqisi2
 2423 0e32 03F07F02 		and	r2, r3, #127
 2424 0e36 7968     		ldr	r1, [r7, #4]
 2425 0e38 1346     		mov	r3, r2
 2426 0e3a DB00     		lsls	r3, r3, #3
 2427 0e3c 9B1A     		subs	r3, r3, r2
 2428 0e3e 9B00     		lsls	r3, r3, #2
 2429 0e40 0B44     		add	r3, r3, r1
 2430 0e42 03F5F673 		add	r3, r3, #492
 2431 0e46 1B68     		ldr	r3, [r3]
 2432 0e48 9BB2     		uxth	r3, r3
 889:../STM32F2xx_HAL_Driver/Src/stm32f2xx_hal_pcd.c **** }
 2433              		.loc 1 889 0
 2434 0e4a 1846     		mov	r0, r3
 2435 0e4c 0C37     		adds	r7, r7, #12
 2436 0e4e BD46     		mov	sp, r7
 2437              		@ sp needed
 2438 0e50 5DF8047B 		ldr	r7, [sp], #4
 2439 0e54 7047     		bx	lr
 2440              		.cfi_endproc
 2441              	.LFE79:
 2443 0e56 00BF     		.align	2
 2444              		.global	HAL_PCD_EP_Transmit
 2445              		.thumb
 2446              		.thumb_func
 2448              	HAL_PCD_EP_Transmit:
 2449              	.LFB80:
 890:../STM32F2xx_HAL_Driver/Src/stm32f2xx_hal_pcd.c **** /**
 891:../STM32F2xx_HAL_Driver/Src/stm32f2xx_hal_pcd.c ****   * @brief  Send an amount of data  
 892:../STM32F2xx_HAL_Driver/Src/stm32f2xx_hal_pcd.c ****   * @param  hpcd: PCD handle
 893:../STM32F2xx_HAL_Driver/Src/stm32f2xx_hal_pcd.c ****   * @param  ep_addr: endpoint address
 894:../STM32F2xx_HAL_Driver/Src/stm32f2xx_hal_pcd.c ****   * @param  pBuf: pointer to the transmission buffer   
 895:../STM32F2xx_HAL_Driver/Src/stm32f2xx_hal_pcd.c ****   * @param  len: amount of data to be sent
 896:../STM32F2xx_HAL_Driver/Src/stm32f2xx_hal_pcd.c ****   * @retval HAL status
 897:../STM32F2xx_HAL_Driver/Src/stm32f2xx_hal_pcd.c ****   */
 898:../STM32F2xx_HAL_Driver/Src/stm32f2xx_hal_pcd.c **** HAL_StatusTypeDef HAL_PCD_EP_Transmit(PCD_HandleTypeDef *hpcd, uint8_t ep_addr, uint8_t *pBuf, uint
 899:../STM32F2xx_HAL_Driver/Src/stm32f2xx_hal_pcd.c **** {
 2450              		.loc 1 899 0
 2451              		.cfi_startproc
 2452              		@ args = 0, pretend = 0, frame = 24
 2453              		@ frame_needed = 1, uses_anonymous_args = 0
 2454 0e58 80B5     		push	{r7, lr}
 2455              		.cfi_def_cfa_offset 8
 2456              		.cfi_offset 7, -8
 2457              		.cfi_offset 14, -4
 2458 0e5a 86B0     		sub	sp, sp, #24
 2459              		.cfi_def_cfa_offset 32
 2460 0e5c 00AF     		add	r7, sp, #0
 2461              		.cfi_def_cfa_register 7
 2462 0e5e F860     		str	r0, [r7, #12]
 2463 0e60 7A60     		str	r2, [r7, #4]
 2464 0e62 3B60     		str	r3, [r7]
 2465 0e64 0B46     		mov	r3, r1
 2466 0e66 FB72     		strb	r3, [r7, #11]
 900:../STM32F2xx_HAL_Driver/Src/stm32f2xx_hal_pcd.c ****   USB_OTG_EPTypeDef *ep;
 901:../STM32F2xx_HAL_Driver/Src/stm32f2xx_hal_pcd.c ****   
 902:../STM32F2xx_HAL_Driver/Src/stm32f2xx_hal_pcd.c ****   ep = &hpcd->IN_ep[ep_addr & 0x7F];
 2467              		.loc 1 902 0
 2468 0e68 FB7A     		ldrb	r3, [r7, #11]	@ zero_extendqisi2
 2469 0e6a 03F07F02 		and	r2, r3, #127
 2470 0e6e 1346     		mov	r3, r2
 2471 0e70 DB00     		lsls	r3, r3, #3
 2472 0e72 9B1A     		subs	r3, r3, r2
 2473 0e74 9B00     		lsls	r3, r3, #2
 2474 0e76 3033     		adds	r3, r3, #48
 2475 0e78 FA68     		ldr	r2, [r7, #12]
 2476 0e7a 1344     		add	r3, r3, r2
 2477 0e7c 7B61     		str	r3, [r7, #20]
 903:../STM32F2xx_HAL_Driver/Src/stm32f2xx_hal_pcd.c ****   
 904:../STM32F2xx_HAL_Driver/Src/stm32f2xx_hal_pcd.c ****   /*setup and start the Xfer */
 905:../STM32F2xx_HAL_Driver/Src/stm32f2xx_hal_pcd.c ****   ep->xfer_buff = pBuf;  
 2478              		.loc 1 905 0
 2479 0e7e 7B69     		ldr	r3, [r7, #20]
 2480 0e80 7A68     		ldr	r2, [r7, #4]
 2481 0e82 DA60     		str	r2, [r3, #12]
 906:../STM32F2xx_HAL_Driver/Src/stm32f2xx_hal_pcd.c ****   ep->xfer_len = len;
 2482              		.loc 1 906 0
 2483 0e84 7B69     		ldr	r3, [r7, #20]
 2484 0e86 3A68     		ldr	r2, [r7]
 2485 0e88 5A61     		str	r2, [r3, #20]
 907:../STM32F2xx_HAL_Driver/Src/stm32f2xx_hal_pcd.c ****   ep->xfer_count = 0;
 2486              		.loc 1 907 0
 2487 0e8a 7B69     		ldr	r3, [r7, #20]
 2488 0e8c 0022     		movs	r2, #0
 2489 0e8e 9A61     		str	r2, [r3, #24]
 908:../STM32F2xx_HAL_Driver/Src/stm32f2xx_hal_pcd.c ****   ep->is_in = 1;
 2490              		.loc 1 908 0
 2491 0e90 7B69     		ldr	r3, [r7, #20]
 2492 0e92 0122     		movs	r2, #1
 2493 0e94 5A70     		strb	r2, [r3, #1]
 909:../STM32F2xx_HAL_Driver/Src/stm32f2xx_hal_pcd.c ****   ep->num = ep_addr & 0x7F;
 2494              		.loc 1 909 0
 2495 0e96 FB7A     		ldrb	r3, [r7, #11]
 2496 0e98 03F07F03 		and	r3, r3, #127
 2497 0e9c DAB2     		uxtb	r2, r3
 2498 0e9e 7B69     		ldr	r3, [r7, #20]
 2499 0ea0 1A70     		strb	r2, [r3]
 910:../STM32F2xx_HAL_Driver/Src/stm32f2xx_hal_pcd.c ****   
 911:../STM32F2xx_HAL_Driver/Src/stm32f2xx_hal_pcd.c ****   if (hpcd->Init.dma_enable == 1)
 2500              		.loc 1 911 0
 2501 0ea2 FB68     		ldr	r3, [r7, #12]
 2502 0ea4 1B69     		ldr	r3, [r3, #16]
 2503 0ea6 012B     		cmp	r3, #1
 2504 0ea8 02D1     		bne	.L101
 912:../STM32F2xx_HAL_Driver/Src/stm32f2xx_hal_pcd.c ****   {
 913:../STM32F2xx_HAL_Driver/Src/stm32f2xx_hal_pcd.c ****     ep->dma_addr = (uint32_t)pBuf;  
 2505              		.loc 1 913 0
 2506 0eaa 7A68     		ldr	r2, [r7, #4]
 2507 0eac 7B69     		ldr	r3, [r7, #20]
 2508 0eae 1A61     		str	r2, [r3, #16]
 2509              	.L101:
 914:../STM32F2xx_HAL_Driver/Src/stm32f2xx_hal_pcd.c ****   }
 915:../STM32F2xx_HAL_Driver/Src/stm32f2xx_hal_pcd.c ****   
 916:../STM32F2xx_HAL_Driver/Src/stm32f2xx_hal_pcd.c ****   __HAL_LOCK(hpcd); 
 2510              		.loc 1 916 0
 2511 0eb0 FB68     		ldr	r3, [r7, #12]
 2512 0eb2 93F87833 		ldrb	r3, [r3, #888]	@ zero_extendqisi2
 2513 0eb6 012B     		cmp	r3, #1
 2514 0eb8 01D1     		bne	.L102
 2515              		.loc 1 916 0 is_stmt 0 discriminator 1
 2516 0eba 0223     		movs	r3, #2
 2517 0ebc 22E0     		b	.L103
 2518              	.L102:
 2519              		.loc 1 916 0 discriminator 2
 2520 0ebe FB68     		ldr	r3, [r7, #12]
 2521 0ec0 0122     		movs	r2, #1
 2522 0ec2 83F87823 		strb	r2, [r3, #888]
 917:../STM32F2xx_HAL_Driver/Src/stm32f2xx_hal_pcd.c ****   
 918:../STM32F2xx_HAL_Driver/Src/stm32f2xx_hal_pcd.c ****   if ((ep_addr & 0x7F) == 0 )
 2523              		.loc 1 918 0 is_stmt 1 discriminator 2
 2524 0ec6 FB7A     		ldrb	r3, [r7, #11]	@ zero_extendqisi2
 2525 0ec8 03F07F03 		and	r3, r3, #127
 2526 0ecc 002B     		cmp	r3, #0
 2527 0ece 0AD1     		bne	.L104
 919:../STM32F2xx_HAL_Driver/Src/stm32f2xx_hal_pcd.c ****   {
 920:../STM32F2xx_HAL_Driver/Src/stm32f2xx_hal_pcd.c ****     USB_EP0StartXfer(hpcd->Instance , ep, hpcd->Init.dma_enable);
 2528              		.loc 1 920 0
 2529 0ed0 FB68     		ldr	r3, [r7, #12]
 2530 0ed2 1A68     		ldr	r2, [r3]
 2531 0ed4 FB68     		ldr	r3, [r7, #12]
 2532 0ed6 1B69     		ldr	r3, [r3, #16]
 2533 0ed8 DBB2     		uxtb	r3, r3
 2534 0eda 1046     		mov	r0, r2
 2535 0edc 7969     		ldr	r1, [r7, #20]
 2536 0ede 1A46     		mov	r2, r3
 2537 0ee0 FFF7FEFF 		bl	USB_EP0StartXfer
 2538 0ee4 09E0     		b	.L105
 2539              	.L104:
 921:../STM32F2xx_HAL_Driver/Src/stm32f2xx_hal_pcd.c ****   }
 922:../STM32F2xx_HAL_Driver/Src/stm32f2xx_hal_pcd.c ****   else
 923:../STM32F2xx_HAL_Driver/Src/stm32f2xx_hal_pcd.c ****   {
 924:../STM32F2xx_HAL_Driver/Src/stm32f2xx_hal_pcd.c ****     USB_EPStartXfer(hpcd->Instance , ep, hpcd->Init.dma_enable);
 2540              		.loc 1 924 0
 2541 0ee6 FB68     		ldr	r3, [r7, #12]
 2542 0ee8 1A68     		ldr	r2, [r3]
 2543 0eea FB68     		ldr	r3, [r7, #12]
 2544 0eec 1B69     		ldr	r3, [r3, #16]
 2545 0eee DBB2     		uxtb	r3, r3
 2546 0ef0 1046     		mov	r0, r2
 2547 0ef2 7969     		ldr	r1, [r7, #20]
 2548 0ef4 1A46     		mov	r2, r3
 2549 0ef6 FFF7FEFF 		bl	USB_EPStartXfer
 2550              	.L105:
 925:../STM32F2xx_HAL_Driver/Src/stm32f2xx_hal_pcd.c ****   }
 926:../STM32F2xx_HAL_Driver/Src/stm32f2xx_hal_pcd.c ****   
 927:../STM32F2xx_HAL_Driver/Src/stm32f2xx_hal_pcd.c ****   __HAL_UNLOCK(hpcd);
 2551              		.loc 1 927 0
 2552 0efa FB68     		ldr	r3, [r7, #12]
 2553 0efc 0022     		movs	r2, #0
 2554 0efe 83F87823 		strb	r2, [r3, #888]
 928:../STM32F2xx_HAL_Driver/Src/stm32f2xx_hal_pcd.c ****      
 929:../STM32F2xx_HAL_Driver/Src/stm32f2xx_hal_pcd.c ****   return HAL_OK;
 2555              		.loc 1 929 0
 2556 0f02 0023     		movs	r3, #0
 2557              	.L103:
 930:../STM32F2xx_HAL_Driver/Src/stm32f2xx_hal_pcd.c **** }
 2558              		.loc 1 930 0
 2559 0f04 1846     		mov	r0, r3
 2560 0f06 1837     		adds	r7, r7, #24
 2561 0f08 BD46     		mov	sp, r7
 2562              		@ sp needed
 2563 0f0a 80BD     		pop	{r7, pc}
 2564              		.cfi_endproc
 2565              	.LFE80:
 2567              		.align	2
 2568              		.global	HAL_PCD_EP_SetStall
 2569              		.thumb
 2570              		.thumb_func
 2572              	HAL_PCD_EP_SetStall:
 2573              	.LFB81:
 931:../STM32F2xx_HAL_Driver/Src/stm32f2xx_hal_pcd.c **** 
 932:../STM32F2xx_HAL_Driver/Src/stm32f2xx_hal_pcd.c **** /**
 933:../STM32F2xx_HAL_Driver/Src/stm32f2xx_hal_pcd.c ****   * @brief  Set a STALL condition over an endpoint
 934:../STM32F2xx_HAL_Driver/Src/stm32f2xx_hal_pcd.c ****   * @param  hpcd: PCD handle
 935:../STM32F2xx_HAL_Driver/Src/stm32f2xx_hal_pcd.c ****   * @param  ep_addr: endpoint address
 936:../STM32F2xx_HAL_Driver/Src/stm32f2xx_hal_pcd.c ****   * @retval HAL status
 937:../STM32F2xx_HAL_Driver/Src/stm32f2xx_hal_pcd.c ****   */
 938:../STM32F2xx_HAL_Driver/Src/stm32f2xx_hal_pcd.c **** HAL_StatusTypeDef HAL_PCD_EP_SetStall(PCD_HandleTypeDef *hpcd, uint8_t ep_addr)
 939:../STM32F2xx_HAL_Driver/Src/stm32f2xx_hal_pcd.c **** {
 2574              		.loc 1 939 0
 2575              		.cfi_startproc
 2576              		@ args = 0, pretend = 0, frame = 16
 2577              		@ frame_needed = 1, uses_anonymous_args = 0
 2578 0f0c 80B5     		push	{r7, lr}
 2579              		.cfi_def_cfa_offset 8
 2580              		.cfi_offset 7, -8
 2581              		.cfi_offset 14, -4
 2582 0f0e 84B0     		sub	sp, sp, #16
 2583              		.cfi_def_cfa_offset 24
 2584 0f10 00AF     		add	r7, sp, #0
 2585              		.cfi_def_cfa_register 7
 2586 0f12 7860     		str	r0, [r7, #4]
 2587 0f14 0B46     		mov	r3, r1
 2588 0f16 FB70     		strb	r3, [r7, #3]
 940:../STM32F2xx_HAL_Driver/Src/stm32f2xx_hal_pcd.c ****   USB_OTG_EPTypeDef *ep;
 941:../STM32F2xx_HAL_Driver/Src/stm32f2xx_hal_pcd.c ****   
 942:../STM32F2xx_HAL_Driver/Src/stm32f2xx_hal_pcd.c ****   if ((0x80 & ep_addr) == 0x80)
 2589              		.loc 1 942 0
 2590 0f18 FB78     		ldrb	r3, [r7, #3]	@ zero_extendqisi2
 2591 0f1a 5BB2     		sxtb	r3, r3
 2592 0f1c 002B     		cmp	r3, #0
 2593 0f1e 0BDA     		bge	.L107
 943:../STM32F2xx_HAL_Driver/Src/stm32f2xx_hal_pcd.c ****   {
 944:../STM32F2xx_HAL_Driver/Src/stm32f2xx_hal_pcd.c ****     ep = &hpcd->IN_ep[ep_addr & 0x7F];
 2594              		.loc 1 944 0
 2595 0f20 FB78     		ldrb	r3, [r7, #3]	@ zero_extendqisi2
 2596 0f22 03F07F02 		and	r2, r3, #127
 2597 0f26 1346     		mov	r3, r2
 2598 0f28 DB00     		lsls	r3, r3, #3
 2599 0f2a 9B1A     		subs	r3, r3, r2
 2600 0f2c 9B00     		lsls	r3, r3, #2
 2601 0f2e 3033     		adds	r3, r3, #48
 2602 0f30 7A68     		ldr	r2, [r7, #4]
 2603 0f32 1344     		add	r3, r3, r2
 2604 0f34 FB60     		str	r3, [r7, #12]
 2605 0f36 0AE0     		b	.L108
 2606              	.L107:
 945:../STM32F2xx_HAL_Driver/Src/stm32f2xx_hal_pcd.c ****   }
 946:../STM32F2xx_HAL_Driver/Src/stm32f2xx_hal_pcd.c ****   else
 947:../STM32F2xx_HAL_Driver/Src/stm32f2xx_hal_pcd.c ****   {
 948:../STM32F2xx_HAL_Driver/Src/stm32f2xx_hal_pcd.c ****     ep = &hpcd->OUT_ep[ep_addr];
 2607              		.loc 1 948 0
 2608 0f38 FA78     		ldrb	r2, [r7, #3]	@ zero_extendqisi2
 2609 0f3a 1346     		mov	r3, r2
 2610 0f3c DB00     		lsls	r3, r3, #3
 2611 0f3e 9B1A     		subs	r3, r3, r2
 2612 0f40 9B00     		lsls	r3, r3, #2
 2613 0f42 03F5E873 		add	r3, r3, #464
 2614 0f46 7A68     		ldr	r2, [r7, #4]
 2615 0f48 1344     		add	r3, r3, r2
 2616 0f4a 0433     		adds	r3, r3, #4
 2617 0f4c FB60     		str	r3, [r7, #12]
 2618              	.L108:
 949:../STM32F2xx_HAL_Driver/Src/stm32f2xx_hal_pcd.c ****   }
 950:../STM32F2xx_HAL_Driver/Src/stm32f2xx_hal_pcd.c ****   
 951:../STM32F2xx_HAL_Driver/Src/stm32f2xx_hal_pcd.c ****   ep->is_stall = 1;
 2619              		.loc 1 951 0
 2620 0f4e FB68     		ldr	r3, [r7, #12]
 2621 0f50 0122     		movs	r2, #1
 2622 0f52 9A70     		strb	r2, [r3, #2]
 952:../STM32F2xx_HAL_Driver/Src/stm32f2xx_hal_pcd.c ****   ep->num   = ep_addr & 0x7F;
 2623              		.loc 1 952 0
 2624 0f54 FB78     		ldrb	r3, [r7, #3]
 2625 0f56 03F07F03 		and	r3, r3, #127
 2626 0f5a DAB2     		uxtb	r2, r3
 2627 0f5c FB68     		ldr	r3, [r7, #12]
 2628 0f5e 1A70     		strb	r2, [r3]
 953:../STM32F2xx_HAL_Driver/Src/stm32f2xx_hal_pcd.c ****   ep->is_in = ((ep_addr & 0x80) == 0x80);
 2629              		.loc 1 953 0
 2630 0f60 FB78     		ldrb	r3, [r7, #3]	@ zero_extendqisi2
 2631 0f62 DB09     		lsrs	r3, r3, #7
 2632 0f64 DBB2     		uxtb	r3, r3
 2633 0f66 1A46     		mov	r2, r3
 2634 0f68 FB68     		ldr	r3, [r7, #12]
 2635 0f6a 5A70     		strb	r2, [r3, #1]
 954:../STM32F2xx_HAL_Driver/Src/stm32f2xx_hal_pcd.c ****   
 955:../STM32F2xx_HAL_Driver/Src/stm32f2xx_hal_pcd.c ****   
 956:../STM32F2xx_HAL_Driver/Src/stm32f2xx_hal_pcd.c ****   __HAL_LOCK(hpcd); 
 2636              		.loc 1 956 0
 2637 0f6c 7B68     		ldr	r3, [r7, #4]
 2638 0f6e 93F87833 		ldrb	r3, [r3, #888]	@ zero_extendqisi2
 2639 0f72 012B     		cmp	r3, #1
 2640 0f74 01D1     		bne	.L109
 2641              		.loc 1 956 0 is_stmt 0 discriminator 1
 2642 0f76 0223     		movs	r3, #2
 2643 0f78 20E0     		b	.L110
 2644              	.L109:
 2645              		.loc 1 956 0 discriminator 2
 2646 0f7a 7B68     		ldr	r3, [r7, #4]
 2647 0f7c 0122     		movs	r2, #1
 2648 0f7e 83F87823 		strb	r2, [r3, #888]
 957:../STM32F2xx_HAL_Driver/Src/stm32f2xx_hal_pcd.c ****   USB_EPSetStall(hpcd->Instance , ep);
 2649              		.loc 1 957 0 is_stmt 1 discriminator 2
 2650 0f82 7B68     		ldr	r3, [r7, #4]
 2651 0f84 1B68     		ldr	r3, [r3]
 2652 0f86 1846     		mov	r0, r3
 2653 0f88 F968     		ldr	r1, [r7, #12]
 2654 0f8a FFF7FEFF 		bl	USB_EPSetStall
 958:../STM32F2xx_HAL_Driver/Src/stm32f2xx_hal_pcd.c ****   if((ep_addr & 0x7F) == 0)
 2655              		.loc 1 958 0 discriminator 2
 2656 0f8e FB78     		ldrb	r3, [r7, #3]	@ zero_extendqisi2
 2657 0f90 03F07F03 		and	r3, r3, #127
 2658 0f94 002B     		cmp	r3, #0
 2659 0f96 0CD1     		bne	.L111
 959:../STM32F2xx_HAL_Driver/Src/stm32f2xx_hal_pcd.c ****   {
 960:../STM32F2xx_HAL_Driver/Src/stm32f2xx_hal_pcd.c ****     USB_EP0_OutStart(hpcd->Instance, hpcd->Init.dma_enable, (uint8_t *)hpcd->Setup);
 2660              		.loc 1 960 0
 2661 0f98 7B68     		ldr	r3, [r7, #4]
 2662 0f9a 1968     		ldr	r1, [r3]
 2663 0f9c 7B68     		ldr	r3, [r7, #4]
 2664 0f9e 1B69     		ldr	r3, [r3, #16]
 2665 0fa0 DAB2     		uxtb	r2, r3
 2666 0fa2 7B68     		ldr	r3, [r7, #4]
 2667 0fa4 03F55F73 		add	r3, r3, #892
 2668 0fa8 0846     		mov	r0, r1
 2669 0faa 1146     		mov	r1, r2
 2670 0fac 1A46     		mov	r2, r3
 2671 0fae FFF7FEFF 		bl	USB_EP0_OutStart
 2672              	.L111:
 961:../STM32F2xx_HAL_Driver/Src/stm32f2xx_hal_pcd.c ****   }
 962:../STM32F2xx_HAL_Driver/Src/stm32f2xx_hal_pcd.c ****   __HAL_UNLOCK(hpcd); 
 2673              		.loc 1 962 0
 2674 0fb2 7B68     		ldr	r3, [r7, #4]
 2675 0fb4 0022     		movs	r2, #0
 2676 0fb6 83F87823 		strb	r2, [r3, #888]
 963:../STM32F2xx_HAL_Driver/Src/stm32f2xx_hal_pcd.c ****   
 964:../STM32F2xx_HAL_Driver/Src/stm32f2xx_hal_pcd.c ****   return HAL_OK;
 2677              		.loc 1 964 0
 2678 0fba 0023     		movs	r3, #0
 2679              	.L110:
 965:../STM32F2xx_HAL_Driver/Src/stm32f2xx_hal_pcd.c **** }
 2680              		.loc 1 965 0
 2681 0fbc 1846     		mov	r0, r3
 2682 0fbe 1037     		adds	r7, r7, #16
 2683 0fc0 BD46     		mov	sp, r7
 2684              		@ sp needed
 2685 0fc2 80BD     		pop	{r7, pc}
 2686              		.cfi_endproc
 2687              	.LFE81:
 2689              		.align	2
 2690              		.global	HAL_PCD_EP_ClrStall
 2691              		.thumb
 2692              		.thumb_func
 2694              	HAL_PCD_EP_ClrStall:
 2695              	.LFB82:
 966:../STM32F2xx_HAL_Driver/Src/stm32f2xx_hal_pcd.c **** 
 967:../STM32F2xx_HAL_Driver/Src/stm32f2xx_hal_pcd.c **** /**
 968:../STM32F2xx_HAL_Driver/Src/stm32f2xx_hal_pcd.c ****   * @brief  Clear a STALL condition over in an endpoint
 969:../STM32F2xx_HAL_Driver/Src/stm32f2xx_hal_pcd.c ****   * @param  hpcd: PCD handle
 970:../STM32F2xx_HAL_Driver/Src/stm32f2xx_hal_pcd.c ****   * @param  ep_addr: endpoint address
 971:../STM32F2xx_HAL_Driver/Src/stm32f2xx_hal_pcd.c ****   * @retval HAL status
 972:../STM32F2xx_HAL_Driver/Src/stm32f2xx_hal_pcd.c ****   */
 973:../STM32F2xx_HAL_Driver/Src/stm32f2xx_hal_pcd.c **** HAL_StatusTypeDef HAL_PCD_EP_ClrStall(PCD_HandleTypeDef *hpcd, uint8_t ep_addr)
 974:../STM32F2xx_HAL_Driver/Src/stm32f2xx_hal_pcd.c **** {
 2696              		.loc 1 974 0
 2697              		.cfi_startproc
 2698              		@ args = 0, pretend = 0, frame = 16
 2699              		@ frame_needed = 1, uses_anonymous_args = 0
 2700 0fc4 80B5     		push	{r7, lr}
 2701              		.cfi_def_cfa_offset 8
 2702              		.cfi_offset 7, -8
 2703              		.cfi_offset 14, -4
 2704 0fc6 84B0     		sub	sp, sp, #16
 2705              		.cfi_def_cfa_offset 24
 2706 0fc8 00AF     		add	r7, sp, #0
 2707              		.cfi_def_cfa_register 7
 2708 0fca 7860     		str	r0, [r7, #4]
 2709 0fcc 0B46     		mov	r3, r1
 2710 0fce FB70     		strb	r3, [r7, #3]
 975:../STM32F2xx_HAL_Driver/Src/stm32f2xx_hal_pcd.c ****   USB_OTG_EPTypeDef *ep;
 976:../STM32F2xx_HAL_Driver/Src/stm32f2xx_hal_pcd.c ****   
 977:../STM32F2xx_HAL_Driver/Src/stm32f2xx_hal_pcd.c ****   if ((0x80 & ep_addr) == 0x80)
 2711              		.loc 1 977 0
 2712 0fd0 FB78     		ldrb	r3, [r7, #3]	@ zero_extendqisi2
 2713 0fd2 5BB2     		sxtb	r3, r3
 2714 0fd4 002B     		cmp	r3, #0
 2715 0fd6 0BDA     		bge	.L113
 978:../STM32F2xx_HAL_Driver/Src/stm32f2xx_hal_pcd.c ****   {
 979:../STM32F2xx_HAL_Driver/Src/stm32f2xx_hal_pcd.c ****     ep = &hpcd->IN_ep[ep_addr & 0x7F];
 2716              		.loc 1 979 0
 2717 0fd8 FB78     		ldrb	r3, [r7, #3]	@ zero_extendqisi2
 2718 0fda 03F07F02 		and	r2, r3, #127
 2719 0fde 1346     		mov	r3, r2
 2720 0fe0 DB00     		lsls	r3, r3, #3
 2721 0fe2 9B1A     		subs	r3, r3, r2
 2722 0fe4 9B00     		lsls	r3, r3, #2
 2723 0fe6 3033     		adds	r3, r3, #48
 2724 0fe8 7A68     		ldr	r2, [r7, #4]
 2725 0fea 1344     		add	r3, r3, r2
 2726 0fec FB60     		str	r3, [r7, #12]
 2727 0fee 0AE0     		b	.L114
 2728              	.L113:
 980:../STM32F2xx_HAL_Driver/Src/stm32f2xx_hal_pcd.c ****   }
 981:../STM32F2xx_HAL_Driver/Src/stm32f2xx_hal_pcd.c ****   else
 982:../STM32F2xx_HAL_Driver/Src/stm32f2xx_hal_pcd.c ****   {
 983:../STM32F2xx_HAL_Driver/Src/stm32f2xx_hal_pcd.c ****     ep = &hpcd->OUT_ep[ep_addr];
 2729              		.loc 1 983 0
 2730 0ff0 FA78     		ldrb	r2, [r7, #3]	@ zero_extendqisi2
 2731 0ff2 1346     		mov	r3, r2
 2732 0ff4 DB00     		lsls	r3, r3, #3
 2733 0ff6 9B1A     		subs	r3, r3, r2
 2734 0ff8 9B00     		lsls	r3, r3, #2
 2735 0ffa 03F5E873 		add	r3, r3, #464
 2736 0ffe 7A68     		ldr	r2, [r7, #4]
 2737 1000 1344     		add	r3, r3, r2
 2738 1002 0433     		adds	r3, r3, #4
 2739 1004 FB60     		str	r3, [r7, #12]
 2740              	.L114:
 984:../STM32F2xx_HAL_Driver/Src/stm32f2xx_hal_pcd.c ****   }
 985:../STM32F2xx_HAL_Driver/Src/stm32f2xx_hal_pcd.c ****   
 986:../STM32F2xx_HAL_Driver/Src/stm32f2xx_hal_pcd.c ****   ep->is_stall = 0;
 2741              		.loc 1 986 0
 2742 1006 FB68     		ldr	r3, [r7, #12]
 2743 1008 0022     		movs	r2, #0
 2744 100a 9A70     		strb	r2, [r3, #2]
 987:../STM32F2xx_HAL_Driver/Src/stm32f2xx_hal_pcd.c ****   ep->num   = ep_addr & 0x7F;
 2745              		.loc 1 987 0
 2746 100c FB78     		ldrb	r3, [r7, #3]
 2747 100e 03F07F03 		and	r3, r3, #127
 2748 1012 DAB2     		uxtb	r2, r3
 2749 1014 FB68     		ldr	r3, [r7, #12]
 2750 1016 1A70     		strb	r2, [r3]
 988:../STM32F2xx_HAL_Driver/Src/stm32f2xx_hal_pcd.c ****   ep->is_in = ((ep_addr & 0x80) == 0x80);
 2751              		.loc 1 988 0
 2752 1018 FB78     		ldrb	r3, [r7, #3]	@ zero_extendqisi2
 2753 101a DB09     		lsrs	r3, r3, #7
 2754 101c DBB2     		uxtb	r3, r3
 2755 101e 1A46     		mov	r2, r3
 2756 1020 FB68     		ldr	r3, [r7, #12]
 2757 1022 5A70     		strb	r2, [r3, #1]
 989:../STM32F2xx_HAL_Driver/Src/stm32f2xx_hal_pcd.c ****   
 990:../STM32F2xx_HAL_Driver/Src/stm32f2xx_hal_pcd.c ****   __HAL_LOCK(hpcd); 
 2758              		.loc 1 990 0
 2759 1024 7B68     		ldr	r3, [r7, #4]
 2760 1026 93F87833 		ldrb	r3, [r3, #888]	@ zero_extendqisi2
 2761 102a 012B     		cmp	r3, #1
 2762 102c 01D1     		bne	.L115
 2763              		.loc 1 990 0 is_stmt 0 discriminator 1
 2764 102e 0223     		movs	r3, #2
 2765 1030 0EE0     		b	.L116
 2766              	.L115:
 2767              		.loc 1 990 0 discriminator 2
 2768 1032 7B68     		ldr	r3, [r7, #4]
 2769 1034 0122     		movs	r2, #1
 2770 1036 83F87823 		strb	r2, [r3, #888]
 991:../STM32F2xx_HAL_Driver/Src/stm32f2xx_hal_pcd.c ****   USB_EPClearStall(hpcd->Instance , ep);
 2771              		.loc 1 991 0 is_stmt 1 discriminator 2
 2772 103a 7B68     		ldr	r3, [r7, #4]
 2773 103c 1B68     		ldr	r3, [r3]
 2774 103e 1846     		mov	r0, r3
 2775 1040 F968     		ldr	r1, [r7, #12]
 2776 1042 FFF7FEFF 		bl	USB_EPClearStall
 992:../STM32F2xx_HAL_Driver/Src/stm32f2xx_hal_pcd.c ****   __HAL_UNLOCK(hpcd); 
 2777              		.loc 1 992 0 discriminator 2
 2778 1046 7B68     		ldr	r3, [r7, #4]
 2779 1048 0022     		movs	r2, #0
 2780 104a 83F87823 		strb	r2, [r3, #888]
 993:../STM32F2xx_HAL_Driver/Src/stm32f2xx_hal_pcd.c ****     
 994:../STM32F2xx_HAL_Driver/Src/stm32f2xx_hal_pcd.c ****   return HAL_OK;
 2781              		.loc 1 994 0 discriminator 2
 2782 104e 0023     		movs	r3, #0
 2783              	.L116:
 995:../STM32F2xx_HAL_Driver/Src/stm32f2xx_hal_pcd.c **** }
 2784              		.loc 1 995 0
 2785 1050 1846     		mov	r0, r3
 2786 1052 1037     		adds	r7, r7, #16
 2787 1054 BD46     		mov	sp, r7
 2788              		@ sp needed
 2789 1056 80BD     		pop	{r7, pc}
 2790              		.cfi_endproc
 2791              	.LFE82:
 2793              		.align	2
 2794              		.global	HAL_PCD_EP_Flush
 2795              		.thumb
 2796              		.thumb_func
 2798              	HAL_PCD_EP_Flush:
 2799              	.LFB83:
 996:../STM32F2xx_HAL_Driver/Src/stm32f2xx_hal_pcd.c **** 
 997:../STM32F2xx_HAL_Driver/Src/stm32f2xx_hal_pcd.c **** /**
 998:../STM32F2xx_HAL_Driver/Src/stm32f2xx_hal_pcd.c ****   * @brief  Flush an endpoint
 999:../STM32F2xx_HAL_Driver/Src/stm32f2xx_hal_pcd.c ****   * @param  hpcd: PCD handle
1000:../STM32F2xx_HAL_Driver/Src/stm32f2xx_hal_pcd.c ****   * @param  ep_addr: endpoint address
1001:../STM32F2xx_HAL_Driver/Src/stm32f2xx_hal_pcd.c ****   * @retval HAL status
1002:../STM32F2xx_HAL_Driver/Src/stm32f2xx_hal_pcd.c ****   */
1003:../STM32F2xx_HAL_Driver/Src/stm32f2xx_hal_pcd.c **** HAL_StatusTypeDef HAL_PCD_EP_Flush(PCD_HandleTypeDef *hpcd, uint8_t ep_addr)
1004:../STM32F2xx_HAL_Driver/Src/stm32f2xx_hal_pcd.c **** {
 2800              		.loc 1 1004 0
 2801              		.cfi_startproc
 2802              		@ args = 0, pretend = 0, frame = 8
 2803              		@ frame_needed = 1, uses_anonymous_args = 0
 2804 1058 80B5     		push	{r7, lr}
 2805              		.cfi_def_cfa_offset 8
 2806              		.cfi_offset 7, -8
 2807              		.cfi_offset 14, -4
 2808 105a 82B0     		sub	sp, sp, #8
 2809              		.cfi_def_cfa_offset 16
 2810 105c 00AF     		add	r7, sp, #0
 2811              		.cfi_def_cfa_register 7
 2812 105e 7860     		str	r0, [r7, #4]
 2813 1060 0B46     		mov	r3, r1
 2814 1062 FB70     		strb	r3, [r7, #3]
1005:../STM32F2xx_HAL_Driver/Src/stm32f2xx_hal_pcd.c ****   __HAL_LOCK(hpcd); 
 2815              		.loc 1 1005 0
 2816 1064 7B68     		ldr	r3, [r7, #4]
 2817 1066 93F87833 		ldrb	r3, [r3, #888]	@ zero_extendqisi2
 2818 106a 012B     		cmp	r3, #1
 2819 106c 01D1     		bne	.L118
 2820              		.loc 1 1005 0 is_stmt 0 discriminator 1
 2821 106e 0223     		movs	r3, #2
 2822 1070 1BE0     		b	.L119
 2823              	.L118:
 2824              		.loc 1 1005 0 discriminator 2
 2825 1072 7B68     		ldr	r3, [r7, #4]
 2826 1074 0122     		movs	r2, #1
 2827 1076 83F87823 		strb	r2, [r3, #888]
1006:../STM32F2xx_HAL_Driver/Src/stm32f2xx_hal_pcd.c ****   
1007:../STM32F2xx_HAL_Driver/Src/stm32f2xx_hal_pcd.c ****   if ((ep_addr & 0x80) == 0x80)
 2828              		.loc 1 1007 0 is_stmt 1 discriminator 2
 2829 107a FB78     		ldrb	r3, [r7, #3]	@ zero_extendqisi2
 2830 107c 5BB2     		sxtb	r3, r3
 2831 107e 002B     		cmp	r3, #0
 2832 1080 09DA     		bge	.L120
1008:../STM32F2xx_HAL_Driver/Src/stm32f2xx_hal_pcd.c ****   {
1009:../STM32F2xx_HAL_Driver/Src/stm32f2xx_hal_pcd.c ****     USB_FlushTxFifo(hpcd->Instance, ep_addr & 0x7F);
 2833              		.loc 1 1009 0
 2834 1082 7B68     		ldr	r3, [r7, #4]
 2835 1084 1A68     		ldr	r2, [r3]
 2836 1086 FB78     		ldrb	r3, [r7, #3]	@ zero_extendqisi2
 2837 1088 03F07F03 		and	r3, r3, #127
 2838 108c 1046     		mov	r0, r2
 2839 108e 1946     		mov	r1, r3
 2840 1090 FFF7FEFF 		bl	USB_FlushTxFifo
 2841 1094 04E0     		b	.L121
 2842              	.L120:
1010:../STM32F2xx_HAL_Driver/Src/stm32f2xx_hal_pcd.c ****   }
1011:../STM32F2xx_HAL_Driver/Src/stm32f2xx_hal_pcd.c ****   else
1012:../STM32F2xx_HAL_Driver/Src/stm32f2xx_hal_pcd.c ****   {
1013:../STM32F2xx_HAL_Driver/Src/stm32f2xx_hal_pcd.c ****     USB_FlushRxFifo(hpcd->Instance);
 2843              		.loc 1 1013 0
 2844 1096 7B68     		ldr	r3, [r7, #4]
 2845 1098 1B68     		ldr	r3, [r3]
 2846 109a 1846     		mov	r0, r3
 2847 109c FFF7FEFF 		bl	USB_FlushRxFifo
 2848              	.L121:
1014:../STM32F2xx_HAL_Driver/Src/stm32f2xx_hal_pcd.c ****   }
1015:../STM32F2xx_HAL_Driver/Src/stm32f2xx_hal_pcd.c ****   
1016:../STM32F2xx_HAL_Driver/Src/stm32f2xx_hal_pcd.c ****   __HAL_UNLOCK(hpcd); 
 2849              		.loc 1 1016 0
 2850 10a0 7B68     		ldr	r3, [r7, #4]
 2851 10a2 0022     		movs	r2, #0
 2852 10a4 83F87823 		strb	r2, [r3, #888]
1017:../STM32F2xx_HAL_Driver/Src/stm32f2xx_hal_pcd.c ****     
1018:../STM32F2xx_HAL_Driver/Src/stm32f2xx_hal_pcd.c ****   return HAL_OK;
 2853              		.loc 1 1018 0
 2854 10a8 0023     		movs	r3, #0
 2855              	.L119:
1019:../STM32F2xx_HAL_Driver/Src/stm32f2xx_hal_pcd.c **** }
 2856              		.loc 1 1019 0
 2857 10aa 1846     		mov	r0, r3
 2858 10ac 0837     		adds	r7, r7, #8
 2859 10ae BD46     		mov	sp, r7
 2860              		@ sp needed
 2861 10b0 80BD     		pop	{r7, pc}
 2862              		.cfi_endproc
 2863              	.LFE83:
 2865 10b2 00BF     		.align	2
 2866              		.global	HAL_PCD_SetTxFiFo
 2867              		.thumb
 2868              		.thumb_func
 2870              	HAL_PCD_SetTxFiFo:
 2871              	.LFB84:
1020:../STM32F2xx_HAL_Driver/Src/stm32f2xx_hal_pcd.c **** 
1021:../STM32F2xx_HAL_Driver/Src/stm32f2xx_hal_pcd.c **** /**
1022:../STM32F2xx_HAL_Driver/Src/stm32f2xx_hal_pcd.c ****   * @brief  Update FIFO configuration
1023:../STM32F2xx_HAL_Driver/Src/stm32f2xx_hal_pcd.c ****   * @param  hpcd: PCD handle
1024:../STM32F2xx_HAL_Driver/Src/stm32f2xx_hal_pcd.c ****   * @retval status
1025:../STM32F2xx_HAL_Driver/Src/stm32f2xx_hal_pcd.c ****   */
1026:../STM32F2xx_HAL_Driver/Src/stm32f2xx_hal_pcd.c **** HAL_StatusTypeDef HAL_PCD_SetTxFiFo(PCD_HandleTypeDef *hpcd, uint8_t fifo, uint16_t size)
1027:../STM32F2xx_HAL_Driver/Src/stm32f2xx_hal_pcd.c **** {
 2872              		.loc 1 1027 0
 2873              		.cfi_startproc
 2874              		@ args = 0, pretend = 0, frame = 16
 2875              		@ frame_needed = 1, uses_anonymous_args = 0
 2876              		@ link register save eliminated.
 2877 10b4 80B4     		push	{r7}
 2878              		.cfi_def_cfa_offset 4
 2879              		.cfi_offset 7, -4
 2880 10b6 85B0     		sub	sp, sp, #20
 2881              		.cfi_def_cfa_offset 24
 2882 10b8 00AF     		add	r7, sp, #0
 2883              		.cfi_def_cfa_register 7
 2884 10ba 7860     		str	r0, [r7, #4]
 2885 10bc 1346     		mov	r3, r2
 2886 10be 0A46     		mov	r2, r1
 2887 10c0 FA70     		strb	r2, [r7, #3]
 2888 10c2 3B80     		strh	r3, [r7]	@ movhi
1028:../STM32F2xx_HAL_Driver/Src/stm32f2xx_hal_pcd.c ****   uint8_t i = 0;
 2889              		.loc 1 1028 0
 2890 10c4 0023     		movs	r3, #0
 2891 10c6 FB73     		strb	r3, [r7, #15]
1029:../STM32F2xx_HAL_Driver/Src/stm32f2xx_hal_pcd.c ****   uint32_t Tx_Offset = 0;
 2892              		.loc 1 1029 0
 2893 10c8 0023     		movs	r3, #0
 2894 10ca BB60     		str	r3, [r7, #8]
1030:../STM32F2xx_HAL_Driver/Src/stm32f2xx_hal_pcd.c ****   
1031:../STM32F2xx_HAL_Driver/Src/stm32f2xx_hal_pcd.c ****   
1032:../STM32F2xx_HAL_Driver/Src/stm32f2xx_hal_pcd.c ****   /*  TXn min size = 16 words. (n  : Transmit FIFO index)
1033:../STM32F2xx_HAL_Driver/Src/stm32f2xx_hal_pcd.c ****   *   When a TxFIFO is not used, the Configuration should be as follows: 
1034:../STM32F2xx_HAL_Driver/Src/stm32f2xx_hal_pcd.c ****   *       case 1 :  n > m    and Txn is not used    (n,m  : Transmit FIFO indexes)
1035:../STM32F2xx_HAL_Driver/Src/stm32f2xx_hal_pcd.c ****   *       --> Txm can use the space allocated for Txn.
1036:../STM32F2xx_HAL_Driver/Src/stm32f2xx_hal_pcd.c ****   *       case2  :  n < m    and Txn is not used    (n,m  : Transmit FIFO indexes)
1037:../STM32F2xx_HAL_Driver/Src/stm32f2xx_hal_pcd.c ****   *       --> Txn should be configured with the minimum space of 16 words
1038:../STM32F2xx_HAL_Driver/Src/stm32f2xx_hal_pcd.c ****   *  The FIFO is used optimally when used TxFIFOs are allocated in the top 
1039:../STM32F2xx_HAL_Driver/Src/stm32f2xx_hal_pcd.c ****   *       of the FIFO.Ex: use EP1 and EP2 as IN instead of EP1 and EP3 as IN ones.
1040:../STM32F2xx_HAL_Driver/Src/stm32f2xx_hal_pcd.c ****   *   When DMA is used 3n * FIFO locations should be reserved for internal DMA registers */
1041:../STM32F2xx_HAL_Driver/Src/stm32f2xx_hal_pcd.c ****   
1042:../STM32F2xx_HAL_Driver/Src/stm32f2xx_hal_pcd.c ****   Tx_Offset = hpcd->Instance->GRXFSIZ;
 2895              		.loc 1 1042 0
 2896 10cc 7B68     		ldr	r3, [r7, #4]
 2897 10ce 1B68     		ldr	r3, [r3]
 2898 10d0 5B6A     		ldr	r3, [r3, #36]
 2899 10d2 BB60     		str	r3, [r7, #8]
1043:../STM32F2xx_HAL_Driver/Src/stm32f2xx_hal_pcd.c ****   
1044:../STM32F2xx_HAL_Driver/Src/stm32f2xx_hal_pcd.c ****   if(fifo == 0)
 2900              		.loc 1 1044 0
 2901 10d4 FB78     		ldrb	r3, [r7, #3]	@ zero_extendqisi2
 2902 10d6 002B     		cmp	r3, #0
 2903 10d8 08D1     		bne	.L123
1045:../STM32F2xx_HAL_Driver/Src/stm32f2xx_hal_pcd.c ****   {
1046:../STM32F2xx_HAL_Driver/Src/stm32f2xx_hal_pcd.c ****     hpcd->Instance->DIEPTXF0_HNPTXFSIZ = (size << 16) | Tx_Offset;
 2904              		.loc 1 1046 0
 2905 10da 7B68     		ldr	r3, [r7, #4]
 2906 10dc 1B68     		ldr	r3, [r3]
 2907 10de 3A88     		ldrh	r2, [r7]
 2908 10e0 1204     		lsls	r2, r2, #16
 2909 10e2 1146     		mov	r1, r2
 2910 10e4 BA68     		ldr	r2, [r7, #8]
 2911 10e6 0A43     		orrs	r2, r2, r1
 2912 10e8 9A62     		str	r2, [r3, #40]
 2913 10ea 29E0     		b	.L124
 2914              	.L123:
1047:../STM32F2xx_HAL_Driver/Src/stm32f2xx_hal_pcd.c ****   }
1048:../STM32F2xx_HAL_Driver/Src/stm32f2xx_hal_pcd.c ****   else
1049:../STM32F2xx_HAL_Driver/Src/stm32f2xx_hal_pcd.c ****   {
1050:../STM32F2xx_HAL_Driver/Src/stm32f2xx_hal_pcd.c ****     Tx_Offset += (hpcd->Instance->DIEPTXF0_HNPTXFSIZ) >> 16;
 2915              		.loc 1 1050 0
 2916 10ec 7B68     		ldr	r3, [r7, #4]
 2917 10ee 1B68     		ldr	r3, [r3]
 2918 10f0 9B6A     		ldr	r3, [r3, #40]
 2919 10f2 1B0C     		lsrs	r3, r3, #16
 2920 10f4 BA68     		ldr	r2, [r7, #8]
 2921 10f6 1344     		add	r3, r3, r2
 2922 10f8 BB60     		str	r3, [r7, #8]
1051:../STM32F2xx_HAL_Driver/Src/stm32f2xx_hal_pcd.c ****     for (i = 0; i < (fifo - 1); i++)
 2923              		.loc 1 1051 0
 2924 10fa 0023     		movs	r3, #0
 2925 10fc FB73     		strb	r3, [r7, #15]
 2926 10fe 0DE0     		b	.L125
 2927              	.L126:
1052:../STM32F2xx_HAL_Driver/Src/stm32f2xx_hal_pcd.c ****     {
1053:../STM32F2xx_HAL_Driver/Src/stm32f2xx_hal_pcd.c ****       Tx_Offset += (hpcd->Instance->DIEPTXF[i] >> 16);
 2928              		.loc 1 1053 0 discriminator 2
 2929 1100 7B68     		ldr	r3, [r7, #4]
 2930 1102 1A68     		ldr	r2, [r3]
 2931 1104 FB7B     		ldrb	r3, [r7, #15]	@ zero_extendqisi2
 2932 1106 4033     		adds	r3, r3, #64
 2933 1108 9B00     		lsls	r3, r3, #2
 2934 110a 1344     		add	r3, r3, r2
 2935 110c 5B68     		ldr	r3, [r3, #4]
 2936 110e 1B0C     		lsrs	r3, r3, #16
 2937 1110 BA68     		ldr	r2, [r7, #8]
 2938 1112 1344     		add	r3, r3, r2
 2939 1114 BB60     		str	r3, [r7, #8]
1051:../STM32F2xx_HAL_Driver/Src/stm32f2xx_hal_pcd.c ****     for (i = 0; i < (fifo - 1); i++)
 2940              		.loc 1 1051 0 discriminator 2
 2941 1116 FB7B     		ldrb	r3, [r7, #15]	@ zero_extendqisi2
 2942 1118 0133     		adds	r3, r3, #1
 2943 111a FB73     		strb	r3, [r7, #15]
 2944              	.L125:
1051:../STM32F2xx_HAL_Driver/Src/stm32f2xx_hal_pcd.c ****     for (i = 0; i < (fifo - 1); i++)
 2945              		.loc 1 1051 0 is_stmt 0 discriminator 1
 2946 111c FA7B     		ldrb	r2, [r7, #15]	@ zero_extendqisi2
 2947 111e FB78     		ldrb	r3, [r7, #3]	@ zero_extendqisi2
 2948 1120 013B     		subs	r3, r3, #1
 2949 1122 9A42     		cmp	r2, r3
 2950 1124 ECDB     		blt	.L126
1054:../STM32F2xx_HAL_Driver/Src/stm32f2xx_hal_pcd.c ****     }
1055:../STM32F2xx_HAL_Driver/Src/stm32f2xx_hal_pcd.c ****     
1056:../STM32F2xx_HAL_Driver/Src/stm32f2xx_hal_pcd.c ****     /* Multiply Tx_Size by 2 to get higher performance */
1057:../STM32F2xx_HAL_Driver/Src/stm32f2xx_hal_pcd.c ****     hpcd->Instance->DIEPTXF[fifo - 1] = (size << 16) | Tx_Offset;
 2951              		.loc 1 1057 0 is_stmt 1
 2952 1126 7B68     		ldr	r3, [r7, #4]
 2953 1128 1968     		ldr	r1, [r3]
 2954 112a FB78     		ldrb	r3, [r7, #3]	@ zero_extendqisi2
 2955 112c 013B     		subs	r3, r3, #1
 2956 112e 3A88     		ldrh	r2, [r7]
 2957 1130 1204     		lsls	r2, r2, #16
 2958 1132 1046     		mov	r0, r2
 2959 1134 BA68     		ldr	r2, [r7, #8]
 2960 1136 0243     		orrs	r2, r2, r0
 2961 1138 4033     		adds	r3, r3, #64
 2962 113a 9B00     		lsls	r3, r3, #2
 2963 113c 0B44     		add	r3, r3, r1
 2964 113e 5A60     		str	r2, [r3, #4]
 2965              	.L124:
1058:../STM32F2xx_HAL_Driver/Src/stm32f2xx_hal_pcd.c ****     
1059:../STM32F2xx_HAL_Driver/Src/stm32f2xx_hal_pcd.c ****   }
1060:../STM32F2xx_HAL_Driver/Src/stm32f2xx_hal_pcd.c ****   
1061:../STM32F2xx_HAL_Driver/Src/stm32f2xx_hal_pcd.c ****   return HAL_OK;
 2966              		.loc 1 1061 0
 2967 1140 0023     		movs	r3, #0
1062:../STM32F2xx_HAL_Driver/Src/stm32f2xx_hal_pcd.c **** }
 2968              		.loc 1 1062 0
 2969 1142 1846     		mov	r0, r3
 2970 1144 1437     		adds	r7, r7, #20
 2971 1146 BD46     		mov	sp, r7
 2972              		@ sp needed
 2973 1148 5DF8047B 		ldr	r7, [sp], #4
 2974 114c 7047     		bx	lr
 2975              		.cfi_endproc
 2976              	.LFE84:
 2978 114e 00BF     		.align	2
 2979              		.global	HAL_PCD_SetRxFiFo
 2980              		.thumb
 2981              		.thumb_func
 2983              	HAL_PCD_SetRxFiFo:
 2984              	.LFB85:
1063:../STM32F2xx_HAL_Driver/Src/stm32f2xx_hal_pcd.c **** 
1064:../STM32F2xx_HAL_Driver/Src/stm32f2xx_hal_pcd.c **** /**
1065:../STM32F2xx_HAL_Driver/Src/stm32f2xx_hal_pcd.c ****   * @brief  Update FIFO configuration
1066:../STM32F2xx_HAL_Driver/Src/stm32f2xx_hal_pcd.c ****   * @param  hpcd: PCD handle
1067:../STM32F2xx_HAL_Driver/Src/stm32f2xx_hal_pcd.c ****   * @retval status
1068:../STM32F2xx_HAL_Driver/Src/stm32f2xx_hal_pcd.c ****   */
1069:../STM32F2xx_HAL_Driver/Src/stm32f2xx_hal_pcd.c **** HAL_StatusTypeDef HAL_PCD_SetRxFiFo(PCD_HandleTypeDef *hpcd, uint16_t size)
1070:../STM32F2xx_HAL_Driver/Src/stm32f2xx_hal_pcd.c **** {
 2985              		.loc 1 1070 0
 2986              		.cfi_startproc
 2987              		@ args = 0, pretend = 0, frame = 8
 2988              		@ frame_needed = 1, uses_anonymous_args = 0
 2989              		@ link register save eliminated.
 2990 1150 80B4     		push	{r7}
 2991              		.cfi_def_cfa_offset 4
 2992              		.cfi_offset 7, -4
 2993 1152 83B0     		sub	sp, sp, #12
 2994              		.cfi_def_cfa_offset 16
 2995 1154 00AF     		add	r7, sp, #0
 2996              		.cfi_def_cfa_register 7
 2997 1156 7860     		str	r0, [r7, #4]
 2998 1158 0B46     		mov	r3, r1
 2999 115a 7B80     		strh	r3, [r7, #2]	@ movhi
1071:../STM32F2xx_HAL_Driver/Src/stm32f2xx_hal_pcd.c ****   
1072:../STM32F2xx_HAL_Driver/Src/stm32f2xx_hal_pcd.c ****   hpcd->Instance->GRXFSIZ = size;
 3000              		.loc 1 1072 0
 3001 115c 7B68     		ldr	r3, [r7, #4]
 3002 115e 1B68     		ldr	r3, [r3]
 3003 1160 7A88     		ldrh	r2, [r7, #2]
 3004 1162 5A62     		str	r2, [r3, #36]
1073:../STM32F2xx_HAL_Driver/Src/stm32f2xx_hal_pcd.c ****   
1074:../STM32F2xx_HAL_Driver/Src/stm32f2xx_hal_pcd.c ****   return HAL_OK;
 3005              		.loc 1 1074 0
 3006 1164 0023     		movs	r3, #0
1075:../STM32F2xx_HAL_Driver/Src/stm32f2xx_hal_pcd.c **** }
 3007              		.loc 1 1075 0
 3008 1166 1846     		mov	r0, r3
 3009 1168 0C37     		adds	r7, r7, #12
 3010 116a BD46     		mov	sp, r7
 3011              		@ sp needed
 3012 116c 5DF8047B 		ldr	r7, [sp], #4
 3013 1170 7047     		bx	lr
 3014              		.cfi_endproc
 3015              	.LFE85:
 3017 1172 00BF     		.align	2
 3018              		.global	HAL_PCD_ActiveRemoteWakeup
 3019              		.thumb
 3020              		.thumb_func
 3022              	HAL_PCD_ActiveRemoteWakeup:
 3023              	.LFB86:
1076:../STM32F2xx_HAL_Driver/Src/stm32f2xx_hal_pcd.c **** 
1077:../STM32F2xx_HAL_Driver/Src/stm32f2xx_hal_pcd.c **** 
1078:../STM32F2xx_HAL_Driver/Src/stm32f2xx_hal_pcd.c **** /**
1079:../STM32F2xx_HAL_Driver/Src/stm32f2xx_hal_pcd.c ****   * @brief  HAL_PCD_ActiveRemoteWakeup : active remote wakeup signalling
1080:../STM32F2xx_HAL_Driver/Src/stm32f2xx_hal_pcd.c ****   * @param  hpcd: PCD handle
1081:../STM32F2xx_HAL_Driver/Src/stm32f2xx_hal_pcd.c ****   * @retval status
1082:../STM32F2xx_HAL_Driver/Src/stm32f2xx_hal_pcd.c ****   */
1083:../STM32F2xx_HAL_Driver/Src/stm32f2xx_hal_pcd.c **** HAL_StatusTypeDef HAL_PCD_ActiveRemoteWakeup(PCD_HandleTypeDef *hpcd)
1084:../STM32F2xx_HAL_Driver/Src/stm32f2xx_hal_pcd.c **** {
 3024              		.loc 1 1084 0
 3025              		.cfi_startproc
 3026              		@ args = 0, pretend = 0, frame = 16
 3027              		@ frame_needed = 1, uses_anonymous_args = 0
 3028              		@ link register save eliminated.
 3029 1174 80B4     		push	{r7}
 3030              		.cfi_def_cfa_offset 4
 3031              		.cfi_offset 7, -4
 3032 1176 85B0     		sub	sp, sp, #20
 3033              		.cfi_def_cfa_offset 24
 3034 1178 00AF     		add	r7, sp, #0
 3035              		.cfi_def_cfa_register 7
 3036 117a 7860     		str	r0, [r7, #4]
1085:../STM32F2xx_HAL_Driver/Src/stm32f2xx_hal_pcd.c ****   USB_OTG_GlobalTypeDef *USBx = hpcd->Instance;  
 3037              		.loc 1 1085 0
 3038 117c 7B68     		ldr	r3, [r7, #4]
 3039 117e 1B68     		ldr	r3, [r3]
 3040 1180 FB60     		str	r3, [r7, #12]
1086:../STM32F2xx_HAL_Driver/Src/stm32f2xx_hal_pcd.c ****     
1087:../STM32F2xx_HAL_Driver/Src/stm32f2xx_hal_pcd.c ****   if((USBx_DEVICE->DSTS & USB_OTG_DSTS_SUSPSTS) == USB_OTG_DSTS_SUSPSTS)
 3041              		.loc 1 1087 0
 3042 1182 FB68     		ldr	r3, [r7, #12]
 3043 1184 03F50063 		add	r3, r3, #2048
 3044 1188 9B68     		ldr	r3, [r3, #8]
 3045 118a 03F00103 		and	r3, r3, #1
 3046 118e 002B     		cmp	r3, #0
 3047 1190 09D0     		beq	.L131
1088:../STM32F2xx_HAL_Driver/Src/stm32f2xx_hal_pcd.c ****   {
1089:../STM32F2xx_HAL_Driver/Src/stm32f2xx_hal_pcd.c ****     /* active Remote wakeup signaling */
1090:../STM32F2xx_HAL_Driver/Src/stm32f2xx_hal_pcd.c ****     USBx_DEVICE->DCTL |= USB_OTG_DCTL_RWUSIG;
 3048              		.loc 1 1090 0
 3049 1192 FB68     		ldr	r3, [r7, #12]
 3050 1194 03F50063 		add	r3, r3, #2048
 3051 1198 FA68     		ldr	r2, [r7, #12]
 3052 119a 02F50062 		add	r2, r2, #2048
 3053 119e 5268     		ldr	r2, [r2, #4]
 3054 11a0 42F00102 		orr	r2, r2, #1
 3055 11a4 5A60     		str	r2, [r3, #4]
 3056              	.L131:
1091:../STM32F2xx_HAL_Driver/Src/stm32f2xx_hal_pcd.c ****   }
1092:../STM32F2xx_HAL_Driver/Src/stm32f2xx_hal_pcd.c ****   return HAL_OK;  
 3057              		.loc 1 1092 0
 3058 11a6 0023     		movs	r3, #0
1093:../STM32F2xx_HAL_Driver/Src/stm32f2xx_hal_pcd.c **** }
 3059              		.loc 1 1093 0
 3060 11a8 1846     		mov	r0, r3
 3061 11aa 1437     		adds	r7, r7, #20
 3062 11ac BD46     		mov	sp, r7
 3063              		@ sp needed
 3064 11ae 5DF8047B 		ldr	r7, [sp], #4
 3065 11b2 7047     		bx	lr
 3066              		.cfi_endproc
 3067              	.LFE86:
 3069              		.align	2
 3070              		.global	HAL_PCD_DeActiveRemoteWakeup
 3071              		.thumb
 3072              		.thumb_func
 3074              	HAL_PCD_DeActiveRemoteWakeup:
 3075              	.LFB87:
1094:../STM32F2xx_HAL_Driver/Src/stm32f2xx_hal_pcd.c **** 
1095:../STM32F2xx_HAL_Driver/Src/stm32f2xx_hal_pcd.c **** /**
1096:../STM32F2xx_HAL_Driver/Src/stm32f2xx_hal_pcd.c ****   * @brief  HAL_PCD_DeActiveRemoteWakeup : de-active remote wakeup signalling
1097:../STM32F2xx_HAL_Driver/Src/stm32f2xx_hal_pcd.c ****   * @param  hpcd: PCD handle
1098:../STM32F2xx_HAL_Driver/Src/stm32f2xx_hal_pcd.c ****   * @retval status
1099:../STM32F2xx_HAL_Driver/Src/stm32f2xx_hal_pcd.c ****   */
1100:../STM32F2xx_HAL_Driver/Src/stm32f2xx_hal_pcd.c **** HAL_StatusTypeDef HAL_PCD_DeActiveRemoteWakeup(PCD_HandleTypeDef *hpcd)
1101:../STM32F2xx_HAL_Driver/Src/stm32f2xx_hal_pcd.c **** {
 3076              		.loc 1 1101 0
 3077              		.cfi_startproc
 3078              		@ args = 0, pretend = 0, frame = 16
 3079              		@ frame_needed = 1, uses_anonymous_args = 0
 3080              		@ link register save eliminated.
 3081 11b4 80B4     		push	{r7}
 3082              		.cfi_def_cfa_offset 4
 3083              		.cfi_offset 7, -4
 3084 11b6 85B0     		sub	sp, sp, #20
 3085              		.cfi_def_cfa_offset 24
 3086 11b8 00AF     		add	r7, sp, #0
 3087              		.cfi_def_cfa_register 7
 3088 11ba 7860     		str	r0, [r7, #4]
1102:../STM32F2xx_HAL_Driver/Src/stm32f2xx_hal_pcd.c ****   USB_OTG_GlobalTypeDef *USBx = hpcd->Instance;  
 3089              		.loc 1 1102 0
 3090 11bc 7B68     		ldr	r3, [r7, #4]
 3091 11be 1B68     		ldr	r3, [r3]
 3092 11c0 FB60     		str	r3, [r7, #12]
1103:../STM32F2xx_HAL_Driver/Src/stm32f2xx_hal_pcd.c ****   
1104:../STM32F2xx_HAL_Driver/Src/stm32f2xx_hal_pcd.c ****   /* active Remote wakeup signaling */
1105:../STM32F2xx_HAL_Driver/Src/stm32f2xx_hal_pcd.c ****    USBx_DEVICE->DCTL &= ~(USB_OTG_DCTL_RWUSIG);
 3093              		.loc 1 1105 0
 3094 11c2 FB68     		ldr	r3, [r7, #12]
 3095 11c4 03F50063 		add	r3, r3, #2048
 3096 11c8 FA68     		ldr	r2, [r7, #12]
 3097 11ca 02F50062 		add	r2, r2, #2048
 3098 11ce 5268     		ldr	r2, [r2, #4]
 3099 11d0 22F00102 		bic	r2, r2, #1
 3100 11d4 5A60     		str	r2, [r3, #4]
1106:../STM32F2xx_HAL_Driver/Src/stm32f2xx_hal_pcd.c ****   return HAL_OK;  
 3101              		.loc 1 1106 0
 3102 11d6 0023     		movs	r3, #0
1107:../STM32F2xx_HAL_Driver/Src/stm32f2xx_hal_pcd.c **** }
 3103              		.loc 1 1107 0
 3104 11d8 1846     		mov	r0, r3
 3105 11da 1437     		adds	r7, r7, #20
 3106 11dc BD46     		mov	sp, r7
 3107              		@ sp needed
 3108 11de 5DF8047B 		ldr	r7, [sp], #4
 3109 11e2 7047     		bx	lr
 3110              		.cfi_endproc
 3111              	.LFE87:
 3113              		.align	2
 3114              		.global	HAL_PCD_GetState
 3115              		.thumb
 3116              		.thumb_func
 3118              	HAL_PCD_GetState:
 3119              	.LFB88:
1108:../STM32F2xx_HAL_Driver/Src/stm32f2xx_hal_pcd.c **** /**
1109:../STM32F2xx_HAL_Driver/Src/stm32f2xx_hal_pcd.c ****   * @}
1110:../STM32F2xx_HAL_Driver/Src/stm32f2xx_hal_pcd.c ****   */
1111:../STM32F2xx_HAL_Driver/Src/stm32f2xx_hal_pcd.c ****   
1112:../STM32F2xx_HAL_Driver/Src/stm32f2xx_hal_pcd.c **** /** @defgroup PCD_Group4 Peripheral State functions 
1113:../STM32F2xx_HAL_Driver/Src/stm32f2xx_hal_pcd.c ****  *  @brief   Peripheral State functions 
1114:../STM32F2xx_HAL_Driver/Src/stm32f2xx_hal_pcd.c ****  *
1115:../STM32F2xx_HAL_Driver/Src/stm32f2xx_hal_pcd.c **** @verbatim   
1116:../STM32F2xx_HAL_Driver/Src/stm32f2xx_hal_pcd.c ****  ===============================================================================
1117:../STM32F2xx_HAL_Driver/Src/stm32f2xx_hal_pcd.c ****                       ##### Peripheral State functions #####
1118:../STM32F2xx_HAL_Driver/Src/stm32f2xx_hal_pcd.c ****  ===============================================================================  
1119:../STM32F2xx_HAL_Driver/Src/stm32f2xx_hal_pcd.c ****     [..]
1120:../STM32F2xx_HAL_Driver/Src/stm32f2xx_hal_pcd.c ****     This subsection permit to get in run-time the status of the peripheral 
1121:../STM32F2xx_HAL_Driver/Src/stm32f2xx_hal_pcd.c ****     and the data flow.
1122:../STM32F2xx_HAL_Driver/Src/stm32f2xx_hal_pcd.c **** 
1123:../STM32F2xx_HAL_Driver/Src/stm32f2xx_hal_pcd.c **** @endverbatim
1124:../STM32F2xx_HAL_Driver/Src/stm32f2xx_hal_pcd.c ****   * @{
1125:../STM32F2xx_HAL_Driver/Src/stm32f2xx_hal_pcd.c ****   */
1126:../STM32F2xx_HAL_Driver/Src/stm32f2xx_hal_pcd.c **** 
1127:../STM32F2xx_HAL_Driver/Src/stm32f2xx_hal_pcd.c **** /**
1128:../STM32F2xx_HAL_Driver/Src/stm32f2xx_hal_pcd.c ****   * @brief  Return the PCD state
1129:../STM32F2xx_HAL_Driver/Src/stm32f2xx_hal_pcd.c ****   * @param  hpcd : PCD handle
1130:../STM32F2xx_HAL_Driver/Src/stm32f2xx_hal_pcd.c ****   * @retval HAL state
1131:../STM32F2xx_HAL_Driver/Src/stm32f2xx_hal_pcd.c ****   */
1132:../STM32F2xx_HAL_Driver/Src/stm32f2xx_hal_pcd.c **** PCD_StateTypeDef HAL_PCD_GetState(PCD_HandleTypeDef *hpcd)
1133:../STM32F2xx_HAL_Driver/Src/stm32f2xx_hal_pcd.c **** {
 3120              		.loc 1 1133 0
 3121              		.cfi_startproc
 3122              		@ args = 0, pretend = 0, frame = 8
 3123              		@ frame_needed = 1, uses_anonymous_args = 0
 3124              		@ link register save eliminated.
 3125 11e4 80B4     		push	{r7}
 3126              		.cfi_def_cfa_offset 4
 3127              		.cfi_offset 7, -4
 3128 11e6 83B0     		sub	sp, sp, #12
 3129              		.cfi_def_cfa_offset 16
 3130 11e8 00AF     		add	r7, sp, #0
 3131              		.cfi_def_cfa_register 7
 3132 11ea 7860     		str	r0, [r7, #4]
1134:../STM32F2xx_HAL_Driver/Src/stm32f2xx_hal_pcd.c ****   return hpcd->State;
 3133              		.loc 1 1134 0
 3134 11ec 7B68     		ldr	r3, [r7, #4]
 3135 11ee 93F87933 		ldrb	r3, [r3, #889]
 3136 11f2 DBB2     		uxtb	r3, r3
1135:../STM32F2xx_HAL_Driver/Src/stm32f2xx_hal_pcd.c **** }
 3137              		.loc 1 1135 0
 3138 11f4 1846     		mov	r0, r3
 3139 11f6 0C37     		adds	r7, r7, #12
 3140 11f8 BD46     		mov	sp, r7
 3141              		@ sp needed
 3142 11fa 5DF8047B 		ldr	r7, [sp], #4
 3143 11fe 7047     		bx	lr
 3144              		.cfi_endproc
 3145              	.LFE88:
 3147              		.align	2
 3148              		.thumb
 3149              		.thumb_func
 3151              	PCD_WriteEmptyTxFifo:
 3152              	.LFB89:
1136:../STM32F2xx_HAL_Driver/Src/stm32f2xx_hal_pcd.c **** /**
1137:../STM32F2xx_HAL_Driver/Src/stm32f2xx_hal_pcd.c ****   * @}
1138:../STM32F2xx_HAL_Driver/Src/stm32f2xx_hal_pcd.c ****   */
1139:../STM32F2xx_HAL_Driver/Src/stm32f2xx_hal_pcd.c **** 
1140:../STM32F2xx_HAL_Driver/Src/stm32f2xx_hal_pcd.c **** /**
1141:../STM32F2xx_HAL_Driver/Src/stm32f2xx_hal_pcd.c ****   * @brief  DCD_WriteEmptyTxFifo
1142:../STM32F2xx_HAL_Driver/Src/stm32f2xx_hal_pcd.c ****   *         check FIFO for the next packet to be loaded
1143:../STM32F2xx_HAL_Driver/Src/stm32f2xx_hal_pcd.c ****   * @param  hpcd: PCD handle
1144:../STM32F2xx_HAL_Driver/Src/stm32f2xx_hal_pcd.c ****   * @retval status
1145:../STM32F2xx_HAL_Driver/Src/stm32f2xx_hal_pcd.c ****   */
1146:../STM32F2xx_HAL_Driver/Src/stm32f2xx_hal_pcd.c **** static HAL_StatusTypeDef PCD_WriteEmptyTxFifo(PCD_HandleTypeDef *hpcd, uint32_t epnum)
1147:../STM32F2xx_HAL_Driver/Src/stm32f2xx_hal_pcd.c **** {
 3153              		.loc 1 1147 0
 3154              		.cfi_startproc
 3155              		@ args = 0, pretend = 0, frame = 32
 3156              		@ frame_needed = 1, uses_anonymous_args = 0
 3157 1200 80B5     		push	{r7, lr}
 3158              		.cfi_def_cfa_offset 8
 3159              		.cfi_offset 7, -8
 3160              		.cfi_offset 14, -4
 3161 1202 8AB0     		sub	sp, sp, #40
 3162              		.cfi_def_cfa_offset 48
 3163 1204 02AF     		add	r7, sp, #8
 3164              		.cfi_def_cfa 7, 40
 3165 1206 7860     		str	r0, [r7, #4]
 3166 1208 3960     		str	r1, [r7]
1148:../STM32F2xx_HAL_Driver/Src/stm32f2xx_hal_pcd.c ****   USB_OTG_GlobalTypeDef *USBx = hpcd->Instance;  
 3167              		.loc 1 1148 0
 3168 120a 7B68     		ldr	r3, [r7, #4]
 3169 120c 1B68     		ldr	r3, [r3]
 3170 120e 7B61     		str	r3, [r7, #20]
1149:../STM32F2xx_HAL_Driver/Src/stm32f2xx_hal_pcd.c ****   USB_OTG_EPTypeDef *ep;
1150:../STM32F2xx_HAL_Driver/Src/stm32f2xx_hal_pcd.c ****   int32_t len = 0;
 3171              		.loc 1 1150 0
 3172 1210 0023     		movs	r3, #0
 3173 1212 FB61     		str	r3, [r7, #28]
1151:../STM32F2xx_HAL_Driver/Src/stm32f2xx_hal_pcd.c ****   uint32_t len32b;
1152:../STM32F2xx_HAL_Driver/Src/stm32f2xx_hal_pcd.c ****   uint32_t fifoemptymsk = 0;
 3174              		.loc 1 1152 0
 3175 1214 0023     		movs	r3, #0
 3176 1216 3B61     		str	r3, [r7, #16]
1153:../STM32F2xx_HAL_Driver/Src/stm32f2xx_hal_pcd.c **** 
1154:../STM32F2xx_HAL_Driver/Src/stm32f2xx_hal_pcd.c ****   ep = &hpcd->IN_ep[epnum];
 3177              		.loc 1 1154 0
 3178 1218 3A68     		ldr	r2, [r7]
 3179 121a 1346     		mov	r3, r2
 3180 121c DB00     		lsls	r3, r3, #3
 3181 121e 9B1A     		subs	r3, r3, r2
 3182 1220 9B00     		lsls	r3, r3, #2
 3183 1222 3033     		adds	r3, r3, #48
 3184 1224 7A68     		ldr	r2, [r7, #4]
 3185 1226 1344     		add	r3, r3, r2
 3186 1228 FB60     		str	r3, [r7, #12]
1155:../STM32F2xx_HAL_Driver/Src/stm32f2xx_hal_pcd.c ****   len = ep->xfer_len - ep->xfer_count;
 3187              		.loc 1 1155 0
 3188 122a FB68     		ldr	r3, [r7, #12]
 3189 122c 5A69     		ldr	r2, [r3, #20]
 3190 122e FB68     		ldr	r3, [r7, #12]
 3191 1230 9B69     		ldr	r3, [r3, #24]
 3192 1232 D31A     		subs	r3, r2, r3
 3193 1234 FB61     		str	r3, [r7, #28]
1156:../STM32F2xx_HAL_Driver/Src/stm32f2xx_hal_pcd.c ****   
1157:../STM32F2xx_HAL_Driver/Src/stm32f2xx_hal_pcd.c ****   if (len > ep->maxpacket)
 3194              		.loc 1 1157 0
 3195 1236 FA69     		ldr	r2, [r7, #28]
 3196 1238 FB68     		ldr	r3, [r7, #12]
 3197 123a 9B68     		ldr	r3, [r3, #8]
 3198 123c 9A42     		cmp	r2, r3
 3199 123e 02D9     		bls	.L138
1158:../STM32F2xx_HAL_Driver/Src/stm32f2xx_hal_pcd.c ****   {
1159:../STM32F2xx_HAL_Driver/Src/stm32f2xx_hal_pcd.c ****     len = ep->maxpacket;
 3200              		.loc 1 1159 0
 3201 1240 FB68     		ldr	r3, [r7, #12]
 3202 1242 9B68     		ldr	r3, [r3, #8]
 3203 1244 FB61     		str	r3, [r7, #28]
 3204              	.L138:
1160:../STM32F2xx_HAL_Driver/Src/stm32f2xx_hal_pcd.c ****   }
1161:../STM32F2xx_HAL_Driver/Src/stm32f2xx_hal_pcd.c ****   
1162:../STM32F2xx_HAL_Driver/Src/stm32f2xx_hal_pcd.c ****   len32b = (len + 3) / 4;
 3205              		.loc 1 1162 0
 3206 1246 FB69     		ldr	r3, [r7, #28]
 3207 1248 0333     		adds	r3, r3, #3
 3208 124a DA1C     		adds	r2, r3, #3
 3209 124c 002B     		cmp	r3, #0
 3210 124e B8BF     		it	lt
 3211 1250 1346     		movlt	r3, r2
 3212 1252 9B10     		asrs	r3, r3, #2
 3213 1254 BB61     		str	r3, [r7, #24]
1163:../STM32F2xx_HAL_Driver/Src/stm32f2xx_hal_pcd.c ****  
1164:../STM32F2xx_HAL_Driver/Src/stm32f2xx_hal_pcd.c ****   while  ( (USBx_INEP(epnum)->DTXFSTS & USB_OTG_DTXFSTS_INEPTFSAV) > len32b &&
 3214              		.loc 1 1164 0
 3215 1256 2EE0     		b	.L139
 3216              	.L142:
1165:../STM32F2xx_HAL_Driver/Src/stm32f2xx_hal_pcd.c ****           ep->xfer_count < ep->xfer_len &&
1166:../STM32F2xx_HAL_Driver/Src/stm32f2xx_hal_pcd.c ****             ep->xfer_len != 0)
1167:../STM32F2xx_HAL_Driver/Src/stm32f2xx_hal_pcd.c ****   {
1168:../STM32F2xx_HAL_Driver/Src/stm32f2xx_hal_pcd.c ****     /* Write the FIFO */
1169:../STM32F2xx_HAL_Driver/Src/stm32f2xx_hal_pcd.c ****     len = ep->xfer_len - ep->xfer_count;
 3217              		.loc 1 1169 0
 3218 1258 FB68     		ldr	r3, [r7, #12]
 3219 125a 5A69     		ldr	r2, [r3, #20]
 3220 125c FB68     		ldr	r3, [r7, #12]
 3221 125e 9B69     		ldr	r3, [r3, #24]
 3222 1260 D31A     		subs	r3, r2, r3
 3223 1262 FB61     		str	r3, [r7, #28]
1170:../STM32F2xx_HAL_Driver/Src/stm32f2xx_hal_pcd.c ****     
1171:../STM32F2xx_HAL_Driver/Src/stm32f2xx_hal_pcd.c ****     if (len > ep->maxpacket)
 3224              		.loc 1 1171 0
 3225 1264 FA69     		ldr	r2, [r7, #28]
 3226 1266 FB68     		ldr	r3, [r7, #12]
 3227 1268 9B68     		ldr	r3, [r3, #8]
 3228 126a 9A42     		cmp	r2, r3
 3229 126c 02D9     		bls	.L140
1172:../STM32F2xx_HAL_Driver/Src/stm32f2xx_hal_pcd.c ****     {
1173:../STM32F2xx_HAL_Driver/Src/stm32f2xx_hal_pcd.c ****       len = ep->maxpacket;
 3230              		.loc 1 1173 0
 3231 126e FB68     		ldr	r3, [r7, #12]
 3232 1270 9B68     		ldr	r3, [r3, #8]
 3233 1272 FB61     		str	r3, [r7, #28]
 3234              	.L140:
1174:../STM32F2xx_HAL_Driver/Src/stm32f2xx_hal_pcd.c ****     }
1175:../STM32F2xx_HAL_Driver/Src/stm32f2xx_hal_pcd.c ****     len32b = (len + 3) / 4;
 3235              		.loc 1 1175 0
 3236 1274 FB69     		ldr	r3, [r7, #28]
 3237 1276 0333     		adds	r3, r3, #3
 3238 1278 DA1C     		adds	r2, r3, #3
 3239 127a 002B     		cmp	r3, #0
 3240 127c B8BF     		it	lt
 3241 127e 1346     		movlt	r3, r2
 3242 1280 9B10     		asrs	r3, r3, #2
 3243 1282 BB61     		str	r3, [r7, #24]
1176:../STM32F2xx_HAL_Driver/Src/stm32f2xx_hal_pcd.c ****     
1177:../STM32F2xx_HAL_Driver/Src/stm32f2xx_hal_pcd.c ****     USB_WritePacket(USBx, ep->xfer_buff, epnum, len, hpcd->Init.dma_enable); 
 3244              		.loc 1 1177 0
 3245 1284 FB68     		ldr	r3, [r7, #12]
 3246 1286 D968     		ldr	r1, [r3, #12]
 3247 1288 3B68     		ldr	r3, [r7]
 3248 128a DAB2     		uxtb	r2, r3
 3249 128c FB69     		ldr	r3, [r7, #28]
 3250 128e 9BB2     		uxth	r3, r3
 3251 1290 7868     		ldr	r0, [r7, #4]
 3252 1292 0069     		ldr	r0, [r0, #16]
 3253 1294 C0B2     		uxtb	r0, r0
 3254 1296 0090     		str	r0, [sp]
 3255 1298 7869     		ldr	r0, [r7, #20]
 3256 129a FFF7FEFF 		bl	USB_WritePacket
1178:../STM32F2xx_HAL_Driver/Src/stm32f2xx_hal_pcd.c ****     
1179:../STM32F2xx_HAL_Driver/Src/stm32f2xx_hal_pcd.c ****     ep->xfer_buff  += len;
 3257              		.loc 1 1179 0
 3258 129e FB68     		ldr	r3, [r7, #12]
 3259 12a0 DA68     		ldr	r2, [r3, #12]
 3260 12a2 FB69     		ldr	r3, [r7, #28]
 3261 12a4 1A44     		add	r2, r2, r3
 3262 12a6 FB68     		ldr	r3, [r7, #12]
 3263 12a8 DA60     		str	r2, [r3, #12]
1180:../STM32F2xx_HAL_Driver/Src/stm32f2xx_hal_pcd.c ****     ep->xfer_count += len;
 3264              		.loc 1 1180 0
 3265 12aa FB68     		ldr	r3, [r7, #12]
 3266 12ac 9A69     		ldr	r2, [r3, #24]
 3267 12ae FB69     		ldr	r3, [r7, #28]
 3268 12b0 1A44     		add	r2, r2, r3
 3269 12b2 FB68     		ldr	r3, [r7, #12]
 3270 12b4 9A61     		str	r2, [r3, #24]
 3271              	.L139:
1164:../STM32F2xx_HAL_Driver/Src/stm32f2xx_hal_pcd.c ****           ep->xfer_count < ep->xfer_len &&
 3272              		.loc 1 1164 0 discriminator 1
 3273 12b6 3B68     		ldr	r3, [r7]
 3274 12b8 5A01     		lsls	r2, r3, #5
 3275 12ba 7B69     		ldr	r3, [r7, #20]
 3276 12bc 1344     		add	r3, r3, r2
 3277 12be 03F51063 		add	r3, r3, #2304
 3278 12c2 9B69     		ldr	r3, [r3, #24]
 3279 12c4 9AB2     		uxth	r2, r3
 3280 12c6 BB69     		ldr	r3, [r7, #24]
 3281 12c8 9A42     		cmp	r2, r3
 3282 12ca 09D9     		bls	.L141
1165:../STM32F2xx_HAL_Driver/Src/stm32f2xx_hal_pcd.c ****             ep->xfer_len != 0)
 3283              		.loc 1 1165 0 discriminator 2
 3284 12cc FB68     		ldr	r3, [r7, #12]
 3285 12ce 9A69     		ldr	r2, [r3, #24]
 3286 12d0 FB68     		ldr	r3, [r7, #12]
 3287 12d2 5B69     		ldr	r3, [r3, #20]
1164:../STM32F2xx_HAL_Driver/Src/stm32f2xx_hal_pcd.c ****           ep->xfer_count < ep->xfer_len &&
 3288              		.loc 1 1164 0 discriminator 2
 3289 12d4 9A42     		cmp	r2, r3
 3290 12d6 03D2     		bcs	.L141
1166:../STM32F2xx_HAL_Driver/Src/stm32f2xx_hal_pcd.c ****   {
 3291              		.loc 1 1166 0
 3292 12d8 FB68     		ldr	r3, [r7, #12]
 3293 12da 5B69     		ldr	r3, [r3, #20]
1165:../STM32F2xx_HAL_Driver/Src/stm32f2xx_hal_pcd.c ****             ep->xfer_len != 0)
 3294              		.loc 1 1165 0
 3295 12dc 002B     		cmp	r3, #0
 3296 12de BBD1     		bne	.L142
 3297              	.L141:
1181:../STM32F2xx_HAL_Driver/Src/stm32f2xx_hal_pcd.c ****   }
1182:../STM32F2xx_HAL_Driver/Src/stm32f2xx_hal_pcd.c ****   
1183:../STM32F2xx_HAL_Driver/Src/stm32f2xx_hal_pcd.c ****   if(len <= 0)
 3298              		.loc 1 1183 0
 3299 12e0 FB69     		ldr	r3, [r7, #28]
 3300 12e2 002B     		cmp	r3, #0
 3301 12e4 0FDC     		bgt	.L143
1184:../STM32F2xx_HAL_Driver/Src/stm32f2xx_hal_pcd.c ****   {
1185:../STM32F2xx_HAL_Driver/Src/stm32f2xx_hal_pcd.c ****     fifoemptymsk = 0x1 << epnum;
 3302              		.loc 1 1185 0
 3303 12e6 3B68     		ldr	r3, [r7]
 3304 12e8 0122     		movs	r2, #1
 3305 12ea 02FA03F3 		lsl	r3, r2, r3
 3306 12ee 3B61     		str	r3, [r7, #16]
1186:../STM32F2xx_HAL_Driver/Src/stm32f2xx_hal_pcd.c ****     USBx_DEVICE->DIEPEMPMSK &= ~fifoemptymsk;   
 3307              		.loc 1 1186 0
 3308 12f0 7B69     		ldr	r3, [r7, #20]
 3309 12f2 03F50063 		add	r3, r3, #2048
 3310 12f6 7A69     		ldr	r2, [r7, #20]
 3311 12f8 02F50062 		add	r2, r2, #2048
 3312 12fc 516B     		ldr	r1, [r2, #52]
 3313 12fe 3A69     		ldr	r2, [r7, #16]
 3314 1300 D243     		mvns	r2, r2
 3315 1302 0A40     		ands	r2, r2, r1
 3316 1304 5A63     		str	r2, [r3, #52]
 3317              	.L143:
1187:../STM32F2xx_HAL_Driver/Src/stm32f2xx_hal_pcd.c ****   }
1188:../STM32F2xx_HAL_Driver/Src/stm32f2xx_hal_pcd.c ****   
1189:../STM32F2xx_HAL_Driver/Src/stm32f2xx_hal_pcd.c ****   return HAL_OK;  
 3318              		.loc 1 1189 0
 3319 1306 0023     		movs	r3, #0
1190:../STM32F2xx_HAL_Driver/Src/stm32f2xx_hal_pcd.c **** }
 3320              		.loc 1 1190 0
 3321 1308 1846     		mov	r0, r3
 3322 130a 2037     		adds	r7, r7, #32
 3323 130c BD46     		mov	sp, r7
 3324              		@ sp needed
 3325 130e 80BD     		pop	{r7, pc}
 3326              		.cfi_endproc
 3327              	.LFE89:
 3329              	.Letext0:
 3330              		.file 2 "c:\\program files (x86)\\codesourcery\\arm-none-eabi\\include\\stdint.h"
 3331              		.file 3 "D:\\workspace\\console800480\\system/stm32f217xx.h"
 3332              		.file 4 "D:\\workspace\\console800480\\STM32F2xx_HAL_Driver\\Inc/stm32f2xx_hal_def.h"
 3333              		.file 5 "D:\\workspace\\console800480\\STM32F2xx_HAL_Driver\\Inc/stm32f2xx_ll_usb.h"
 3334              		.file 6 "D:\\workspace\\console800480\\STM32F2xx_HAL_Driver\\Inc/stm32f2xx_hal_pcd.h"
 3335              		.file 7 "D:\\workspace\\console800480\\system/core_cm3.h"