   1              		.syntax unified
   2              		.cpu cortex-m3
   3              		.fpu softvfp
   4              		.eabi_attribute 20, 1
   5              		.eabi_attribute 21, 1
   6              		.eabi_attribute 23, 3
   7              		.eabi_attribute 24, 1
   8              		.eabi_attribute 25, 1
   9              		.eabi_attribute 26, 1
  10              		.eabi_attribute 30, 6
  11              		.eabi_attribute 34, 1
  12              		.eabi_attribute 18, 4
  13              		.thumb
  14              		.file	"stm32f2xx_hal_hcd.c"
  15              		.text
  16              	.Ltext0:
  17              		.cfi_sections	.debug_frame
  18              		.align	2
  19              		.global	HAL_HCD_Init
  20              		.thumb
  21              		.thumb_func
  23              	HAL_HCD_Init:
  24              	.LFB55:
  25              		.file 1 "../STM32F2xx_HAL_Driver/Src/stm32f2xx_hal_hcd.c"
   1:../STM32F2xx_HAL_Driver/Src/stm32f2xx_hal_hcd.c **** /**
   2:../STM32F2xx_HAL_Driver/Src/stm32f2xx_hal_hcd.c ****   ******************************************************************************
   3:../STM32F2xx_HAL_Driver/Src/stm32f2xx_hal_hcd.c ****   * @file    stm32f2xx_hal_hcd.c
   4:../STM32F2xx_HAL_Driver/Src/stm32f2xx_hal_hcd.c ****   * @author  MCD Application Team
   5:../STM32F2xx_HAL_Driver/Src/stm32f2xx_hal_hcd.c ****   * @version V1.0.1
   6:../STM32F2xx_HAL_Driver/Src/stm32f2xx_hal_hcd.c ****   * @date    25-March-2014
   7:../STM32F2xx_HAL_Driver/Src/stm32f2xx_hal_hcd.c ****   * @brief   HCD HAL module driver.
   8:../STM32F2xx_HAL_Driver/Src/stm32f2xx_hal_hcd.c ****   *          This file provides firmware functions to manage the following 
   9:../STM32F2xx_HAL_Driver/Src/stm32f2xx_hal_hcd.c ****   *          functionalities of the USB Peripheral Controller:
  10:../STM32F2xx_HAL_Driver/Src/stm32f2xx_hal_hcd.c ****   *           + Initialization and de-initialization functions
  11:../STM32F2xx_HAL_Driver/Src/stm32f2xx_hal_hcd.c ****   *           + IO operation functions
  12:../STM32F2xx_HAL_Driver/Src/stm32f2xx_hal_hcd.c ****   *           + Peripheral Control functions 
  13:../STM32F2xx_HAL_Driver/Src/stm32f2xx_hal_hcd.c ****   *           + Peripheral State functions
  14:../STM32F2xx_HAL_Driver/Src/stm32f2xx_hal_hcd.c ****   *         
  15:../STM32F2xx_HAL_Driver/Src/stm32f2xx_hal_hcd.c ****   @verbatim
  16:../STM32F2xx_HAL_Driver/Src/stm32f2xx_hal_hcd.c ****   ==============================================================================
  17:../STM32F2xx_HAL_Driver/Src/stm32f2xx_hal_hcd.c ****                     ##### How to use this driver #####
  18:../STM32F2xx_HAL_Driver/Src/stm32f2xx_hal_hcd.c ****   ==============================================================================
  19:../STM32F2xx_HAL_Driver/Src/stm32f2xx_hal_hcd.c ****   [..]
  20:../STM32F2xx_HAL_Driver/Src/stm32f2xx_hal_hcd.c ****     (#)Declare a HCD_HandleTypeDef handle structure, for example:
  21:../STM32F2xx_HAL_Driver/Src/stm32f2xx_hal_hcd.c ****        HCD_HandleTypeDef  hhcd;
  22:../STM32F2xx_HAL_Driver/Src/stm32f2xx_hal_hcd.c ****         
  23:../STM32F2xx_HAL_Driver/Src/stm32f2xx_hal_hcd.c ****     (#)Fill parameters of Init structure in HCD handle
  24:../STM32F2xx_HAL_Driver/Src/stm32f2xx_hal_hcd.c ****   
  25:../STM32F2xx_HAL_Driver/Src/stm32f2xx_hal_hcd.c ****     (#)Call HAL_HCD_Init() API to initialize the HCD peripheral (Core, Host core, ...) 
  26:../STM32F2xx_HAL_Driver/Src/stm32f2xx_hal_hcd.c **** 
  27:../STM32F2xx_HAL_Driver/Src/stm32f2xx_hal_hcd.c ****     (#)Initialize the HCD low level resources through the HAL_HCD_MspInit() API:
  28:../STM32F2xx_HAL_Driver/Src/stm32f2xx_hal_hcd.c ****         (##) Enable the HCD/USB Low Level interface clock using 
  29:../STM32F2xx_HAL_Driver/Src/stm32f2xx_hal_hcd.c ****              (+++) __OTGFS-OTG_CLK_ENABLE()/__OTGHS-OTG_CLK_ENABLE();
  30:../STM32F2xx_HAL_Driver/Src/stm32f2xx_hal_hcd.c ****              (+++) __OTGHSULPI_CLK_ENABLE(); (For High Speed Mode)
  31:../STM32F2xx_HAL_Driver/Src/stm32f2xx_hal_hcd.c ****            
  32:../STM32F2xx_HAL_Driver/Src/stm32f2xx_hal_hcd.c ****         (##) Initialize the related GPIO clocks
  33:../STM32F2xx_HAL_Driver/Src/stm32f2xx_hal_hcd.c ****         (##) Configure HCD pin-out
  34:../STM32F2xx_HAL_Driver/Src/stm32f2xx_hal_hcd.c ****         (##) Configure HCD NVIC interrupt
  35:../STM32F2xx_HAL_Driver/Src/stm32f2xx_hal_hcd.c ****     
  36:../STM32F2xx_HAL_Driver/Src/stm32f2xx_hal_hcd.c ****     (#)Associate the Upper USB Host stack to the HAL HCD Driver:
  37:../STM32F2xx_HAL_Driver/Src/stm32f2xx_hal_hcd.c ****         (##) hhcd.pData = phost;
  38:../STM32F2xx_HAL_Driver/Src/stm32f2xx_hal_hcd.c **** 
  39:../STM32F2xx_HAL_Driver/Src/stm32f2xx_hal_hcd.c ****     (#)Enable HCD transmission and reception:
  40:../STM32F2xx_HAL_Driver/Src/stm32f2xx_hal_hcd.c ****         (##) HAL_HCD_Start();
  41:../STM32F2xx_HAL_Driver/Src/stm32f2xx_hal_hcd.c **** 
  42:../STM32F2xx_HAL_Driver/Src/stm32f2xx_hal_hcd.c ****   @endverbatim
  43:../STM32F2xx_HAL_Driver/Src/stm32f2xx_hal_hcd.c ****   ******************************************************************************
  44:../STM32F2xx_HAL_Driver/Src/stm32f2xx_hal_hcd.c ****   * @attention
  45:../STM32F2xx_HAL_Driver/Src/stm32f2xx_hal_hcd.c ****   *
  46:../STM32F2xx_HAL_Driver/Src/stm32f2xx_hal_hcd.c ****   * <h2><center>&copy; COPYRIGHT(c) 2014 STMicroelectronics</center></h2>
  47:../STM32F2xx_HAL_Driver/Src/stm32f2xx_hal_hcd.c ****   *
  48:../STM32F2xx_HAL_Driver/Src/stm32f2xx_hal_hcd.c ****   * Redistribution and use in source and binary forms, with or without modification,
  49:../STM32F2xx_HAL_Driver/Src/stm32f2xx_hal_hcd.c ****   * are permitted provided that the following conditions are met:
  50:../STM32F2xx_HAL_Driver/Src/stm32f2xx_hal_hcd.c ****   *   1. Redistributions of source code must retain the above copyright notice,
  51:../STM32F2xx_HAL_Driver/Src/stm32f2xx_hal_hcd.c ****   *      this list of conditions and the following disclaimer.
  52:../STM32F2xx_HAL_Driver/Src/stm32f2xx_hal_hcd.c ****   *   2. Redistributions in binary form must reproduce the above copyright notice,
  53:../STM32F2xx_HAL_Driver/Src/stm32f2xx_hal_hcd.c ****   *      this list of conditions and the following disclaimer in the documentation
  54:../STM32F2xx_HAL_Driver/Src/stm32f2xx_hal_hcd.c ****   *      and/or other materials provided with the distribution.
  55:../STM32F2xx_HAL_Driver/Src/stm32f2xx_hal_hcd.c ****   *   3. Neither the name of STMicroelectronics nor the names of its contributors
  56:../STM32F2xx_HAL_Driver/Src/stm32f2xx_hal_hcd.c ****   *      may be used to endorse or promote products derived from this software
  57:../STM32F2xx_HAL_Driver/Src/stm32f2xx_hal_hcd.c ****   *      without specific prior written permission.
  58:../STM32F2xx_HAL_Driver/Src/stm32f2xx_hal_hcd.c ****   *
  59:../STM32F2xx_HAL_Driver/Src/stm32f2xx_hal_hcd.c ****   * THIS SOFTWARE IS PROVIDED BY THE COPYRIGHT HOLDERS AND CONTRIBUTORS "AS IS"
  60:../STM32F2xx_HAL_Driver/Src/stm32f2xx_hal_hcd.c ****   * AND ANY EXPRESS OR IMPLIED WARRANTIES, INCLUDING, BUT NOT LIMITED TO, THE
  61:../STM32F2xx_HAL_Driver/Src/stm32f2xx_hal_hcd.c ****   * IMPLIED WARRANTIES OF MERCHANTABILITY AND FITNESS FOR A PARTICULAR PURPOSE ARE
  62:../STM32F2xx_HAL_Driver/Src/stm32f2xx_hal_hcd.c ****   * DISCLAIMED. IN NO EVENT SHALL THE COPYRIGHT HOLDER OR CONTRIBUTORS BE LIABLE
  63:../STM32F2xx_HAL_Driver/Src/stm32f2xx_hal_hcd.c ****   * FOR ANY DIRECT, INDIRECT, INCIDENTAL, SPECIAL, EXEMPLARY, OR CONSEQUENTIAL
  64:../STM32F2xx_HAL_Driver/Src/stm32f2xx_hal_hcd.c ****   * DAMAGES (INCLUDING, BUT NOT LIMITED TO, PROCUREMENT OF SUBSTITUTE GOODS OR
  65:../STM32F2xx_HAL_Driver/Src/stm32f2xx_hal_hcd.c ****   * SERVICES; LOSS OF USE, DATA, OR PROFITS; OR BUSINESS INTERRUPTION) HOWEVER
  66:../STM32F2xx_HAL_Driver/Src/stm32f2xx_hal_hcd.c ****   * CAUSED AND ON ANY THEORY OF LIABILITY, WHETHER IN CONTRACT, STRICT LIABILITY,
  67:../STM32F2xx_HAL_Driver/Src/stm32f2xx_hal_hcd.c ****   * OR TORT (INCLUDING NEGLIGENCE OR OTHERWISE) ARISING IN ANY WAY OUT OF THE USE
  68:../STM32F2xx_HAL_Driver/Src/stm32f2xx_hal_hcd.c ****   * OF THIS SOFTWARE, EVEN IF ADVISED OF THE POSSIBILITY OF SUCH DAMAGE.
  69:../STM32F2xx_HAL_Driver/Src/stm32f2xx_hal_hcd.c ****   *
  70:../STM32F2xx_HAL_Driver/Src/stm32f2xx_hal_hcd.c ****   ******************************************************************************
  71:../STM32F2xx_HAL_Driver/Src/stm32f2xx_hal_hcd.c ****   */ 
  72:../STM32F2xx_HAL_Driver/Src/stm32f2xx_hal_hcd.c **** 
  73:../STM32F2xx_HAL_Driver/Src/stm32f2xx_hal_hcd.c **** /* Includes ------------------------------------------------------------------*/
  74:../STM32F2xx_HAL_Driver/Src/stm32f2xx_hal_hcd.c **** #include "stm32f2xx_hal.h"
  75:../STM32F2xx_HAL_Driver/Src/stm32f2xx_hal_hcd.c **** /** @addtogroup STM32F2xx_HAL_Driver
  76:../STM32F2xx_HAL_Driver/Src/stm32f2xx_hal_hcd.c ****   * @{
  77:../STM32F2xx_HAL_Driver/Src/stm32f2xx_hal_hcd.c ****   */
  78:../STM32F2xx_HAL_Driver/Src/stm32f2xx_hal_hcd.c **** 
  79:../STM32F2xx_HAL_Driver/Src/stm32f2xx_hal_hcd.c **** /** @defgroup HCD 
  80:../STM32F2xx_HAL_Driver/Src/stm32f2xx_hal_hcd.c ****   * @brief HCD HAL module driver
  81:../STM32F2xx_HAL_Driver/Src/stm32f2xx_hal_hcd.c ****   * @{
  82:../STM32F2xx_HAL_Driver/Src/stm32f2xx_hal_hcd.c ****   */
  83:../STM32F2xx_HAL_Driver/Src/stm32f2xx_hal_hcd.c **** 
  84:../STM32F2xx_HAL_Driver/Src/stm32f2xx_hal_hcd.c **** #ifdef HAL_HCD_MODULE_ENABLED
  85:../STM32F2xx_HAL_Driver/Src/stm32f2xx_hal_hcd.c **** 
  86:../STM32F2xx_HAL_Driver/Src/stm32f2xx_hal_hcd.c **** /* Private typedef -----------------------------------------------------------*/
  87:../STM32F2xx_HAL_Driver/Src/stm32f2xx_hal_hcd.c **** /* Private define ------------------------------------------------------------*/
  88:../STM32F2xx_HAL_Driver/Src/stm32f2xx_hal_hcd.c **** /* Private macro -------------------------------------------------------------*/
  89:../STM32F2xx_HAL_Driver/Src/stm32f2xx_hal_hcd.c **** /* Private variables ---------------------------------------------------------*/
  90:../STM32F2xx_HAL_Driver/Src/stm32f2xx_hal_hcd.c **** /* Private function prototypes -----------------------------------------------*/
  91:../STM32F2xx_HAL_Driver/Src/stm32f2xx_hal_hcd.c **** static void HCD_HC_IN_IRQHandler(HCD_HandleTypeDef *hhcd, uint8_t chnum);
  92:../STM32F2xx_HAL_Driver/Src/stm32f2xx_hal_hcd.c **** static void HCD_HC_OUT_IRQHandler(HCD_HandleTypeDef *hhcd, uint8_t chnum); 
  93:../STM32F2xx_HAL_Driver/Src/stm32f2xx_hal_hcd.c **** static void HCD_RXQLVL_IRQHandler(HCD_HandleTypeDef *hhcd);
  94:../STM32F2xx_HAL_Driver/Src/stm32f2xx_hal_hcd.c **** static void HCD_Port_IRQHandler(HCD_HandleTypeDef *hhcd);
  95:../STM32F2xx_HAL_Driver/Src/stm32f2xx_hal_hcd.c **** /* Private functions ---------------------------------------------------------*/
  96:../STM32F2xx_HAL_Driver/Src/stm32f2xx_hal_hcd.c **** 
  97:../STM32F2xx_HAL_Driver/Src/stm32f2xx_hal_hcd.c **** /** @defgroup HCD_Private_Functions
  98:../STM32F2xx_HAL_Driver/Src/stm32f2xx_hal_hcd.c ****   * @{
  99:../STM32F2xx_HAL_Driver/Src/stm32f2xx_hal_hcd.c ****   */
 100:../STM32F2xx_HAL_Driver/Src/stm32f2xx_hal_hcd.c **** 
 101:../STM32F2xx_HAL_Driver/Src/stm32f2xx_hal_hcd.c **** /** @defgroup HCD_Group1 Initialization and de-initialization functions 
 102:../STM32F2xx_HAL_Driver/Src/stm32f2xx_hal_hcd.c ****  *  @brief    Initialization and Configuration functions 
 103:../STM32F2xx_HAL_Driver/Src/stm32f2xx_hal_hcd.c ****  *
 104:../STM32F2xx_HAL_Driver/Src/stm32f2xx_hal_hcd.c **** @verbatim    
 105:../STM32F2xx_HAL_Driver/Src/stm32f2xx_hal_hcd.c ****  ===============================================================================
 106:../STM32F2xx_HAL_Driver/Src/stm32f2xx_hal_hcd.c ****           ##### Initialization and de-initialization functions #####
 107:../STM32F2xx_HAL_Driver/Src/stm32f2xx_hal_hcd.c ****  ===============================================================================
 108:../STM32F2xx_HAL_Driver/Src/stm32f2xx_hal_hcd.c ****     [..]  This section provides functions allowing to:
 109:../STM32F2xx_HAL_Driver/Src/stm32f2xx_hal_hcd.c ****  
 110:../STM32F2xx_HAL_Driver/Src/stm32f2xx_hal_hcd.c **** @endverbatim
 111:../STM32F2xx_HAL_Driver/Src/stm32f2xx_hal_hcd.c ****   * @{
 112:../STM32F2xx_HAL_Driver/Src/stm32f2xx_hal_hcd.c ****   */
 113:../STM32F2xx_HAL_Driver/Src/stm32f2xx_hal_hcd.c **** 
 114:../STM32F2xx_HAL_Driver/Src/stm32f2xx_hal_hcd.c **** /**
 115:../STM32F2xx_HAL_Driver/Src/stm32f2xx_hal_hcd.c ****   * @brief  Initialize the host driver
 116:../STM32F2xx_HAL_Driver/Src/stm32f2xx_hal_hcd.c ****   * @param  hhcd : HCD handle
 117:../STM32F2xx_HAL_Driver/Src/stm32f2xx_hal_hcd.c ****   * @retval HAL state
 118:../STM32F2xx_HAL_Driver/Src/stm32f2xx_hal_hcd.c ****   */
 119:../STM32F2xx_HAL_Driver/Src/stm32f2xx_hal_hcd.c **** HAL_StatusTypeDef HAL_HCD_Init(HCD_HandleTypeDef *hhcd)
 120:../STM32F2xx_HAL_Driver/Src/stm32f2xx_hal_hcd.c **** { 
  26              		.loc 1 120 0
  27              		.cfi_startproc
  28              		@ args = 0, pretend = 0, frame = 8
  29              		@ frame_needed = 1, uses_anonymous_args = 0
  30 0000 F0B5     		push	{r4, r5, r6, r7, lr}
  31              		.cfi_def_cfa_offset 20
  32              		.cfi_offset 4, -20
  33              		.cfi_offset 5, -16
  34              		.cfi_offset 6, -12
  35              		.cfi_offset 7, -8
  36              		.cfi_offset 14, -4
  37 0002 8BB0     		sub	sp, sp, #44
  38              		.cfi_def_cfa_offset 64
  39 0004 08AF     		add	r7, sp, #32
  40              		.cfi_def_cfa 7, 32
  41 0006 7860     		str	r0, [r7, #4]
 121:../STM32F2xx_HAL_Driver/Src/stm32f2xx_hal_hcd.c ****   /* Check the HCD handle allocation */
 122:../STM32F2xx_HAL_Driver/Src/stm32f2xx_hal_hcd.c ****   if(hhcd == NULL)
  42              		.loc 1 122 0
  43 0008 7B68     		ldr	r3, [r7, #4]
  44 000a 002B     		cmp	r3, #0
  45 000c 01D1     		bne	.L2
 123:../STM32F2xx_HAL_Driver/Src/stm32f2xx_hal_hcd.c ****   {
 124:../STM32F2xx_HAL_Driver/Src/stm32f2xx_hal_hcd.c ****     return HAL_ERROR;
  46              		.loc 1 124 0
  47 000e 0123     		movs	r3, #1
  48 0010 3AE0     		b	.L3
  49              	.L2:
 125:../STM32F2xx_HAL_Driver/Src/stm32f2xx_hal_hcd.c ****   }
 126:../STM32F2xx_HAL_Driver/Src/stm32f2xx_hal_hcd.c ****   
 127:../STM32F2xx_HAL_Driver/Src/stm32f2xx_hal_hcd.c ****   /* Check the parameters */
 128:../STM32F2xx_HAL_Driver/Src/stm32f2xx_hal_hcd.c ****   assert_param(IS_HCD_ALL_INSTANCE(hhcd->Instance));
 129:../STM32F2xx_HAL_Driver/Src/stm32f2xx_hal_hcd.c **** 
 130:../STM32F2xx_HAL_Driver/Src/stm32f2xx_hal_hcd.c ****   hhcd->State = HCD_BUSY;
  50              		.loc 1 130 0
  51 0012 7B68     		ldr	r3, [r7, #4]
  52 0014 0222     		movs	r2, #2
  53 0016 83F88922 		strb	r2, [r3, #649]
 131:../STM32F2xx_HAL_Driver/Src/stm32f2xx_hal_hcd.c ****   
 132:../STM32F2xx_HAL_Driver/Src/stm32f2xx_hal_hcd.c ****   /* Init the low level hardware : GPIO, CLOCK, NVIC... */
 133:../STM32F2xx_HAL_Driver/Src/stm32f2xx_hal_hcd.c ****   HAL_HCD_MspInit(hhcd);
  54              		.loc 1 133 0
  55 001a 7868     		ldr	r0, [r7, #4]
  56 001c FFF7FEFF 		bl	HAL_HCD_MspInit
 134:../STM32F2xx_HAL_Driver/Src/stm32f2xx_hal_hcd.c **** 
 135:../STM32F2xx_HAL_Driver/Src/stm32f2xx_hal_hcd.c ****   /* Disable the Interrupts */
 136:../STM32F2xx_HAL_Driver/Src/stm32f2xx_hal_hcd.c ****  __HAL_HCD_DISABLE(hhcd);
  57              		.loc 1 136 0
  58 0020 7B68     		ldr	r3, [r7, #4]
  59 0022 1B68     		ldr	r3, [r3]
  60 0024 1846     		mov	r0, r3
  61 0026 FFF7FEFF 		bl	USB_DisableGlobalInt
 137:../STM32F2xx_HAL_Driver/Src/stm32f2xx_hal_hcd.c ****  
 138:../STM32F2xx_HAL_Driver/Src/stm32f2xx_hal_hcd.c ****  /*Init the Core (common init.) */
 139:../STM32F2xx_HAL_Driver/Src/stm32f2xx_hal_hcd.c ****  USB_CoreInit(hhcd->Instance, hhcd->Init);
  62              		.loc 1 139 0
  63 002a 7B68     		ldr	r3, [r7, #4]
  64 002c D3F800E0 		ldr	lr, [r3]
  65 0030 7E68     		ldr	r6, [r7, #4]
  66 0032 6C46     		mov	r4, sp
  67 0034 06F11005 		add	r5, r6, #16
  68 0038 0FCD     		ldmia	r5!, {r0, r1, r2, r3}
  69 003a 0FC4     		stmia	r4!, {r0, r1, r2, r3}
  70 003c 95E80F00 		ldmia	r5, {r0, r1, r2, r3}
  71 0040 84E80F00 		stmia	r4, {r0, r1, r2, r3}
  72 0044 331D     		adds	r3, r6, #4
  73 0046 0ECB     		ldmia	r3, {r1, r2, r3}
  74 0048 7046     		mov	r0, lr
  75 004a FFF7FEFF 		bl	USB_CoreInit
 140:../STM32F2xx_HAL_Driver/Src/stm32f2xx_hal_hcd.c ****  
 141:../STM32F2xx_HAL_Driver/Src/stm32f2xx_hal_hcd.c ****  /* Force Host Mode*/
 142:../STM32F2xx_HAL_Driver/Src/stm32f2xx_hal_hcd.c ****  USB_SetCurrentMode(hhcd->Instance , USB_OTG_HOST_MODE);
  76              		.loc 1 142 0
  77 004e 7B68     		ldr	r3, [r7, #4]
  78 0050 1B68     		ldr	r3, [r3]
  79 0052 1846     		mov	r0, r3
  80 0054 0121     		movs	r1, #1
  81 0056 FFF7FEFF 		bl	USB_SetCurrentMode
 143:../STM32F2xx_HAL_Driver/Src/stm32f2xx_hal_hcd.c ****  
 144:../STM32F2xx_HAL_Driver/Src/stm32f2xx_hal_hcd.c ****  /* Init Host */
 145:../STM32F2xx_HAL_Driver/Src/stm32f2xx_hal_hcd.c ****  USB_HostInit(hhcd->Instance, hhcd->Init);
  82              		.loc 1 145 0
  83 005a 7B68     		ldr	r3, [r7, #4]
  84 005c D3F800E0 		ldr	lr, [r3]
  85 0060 7E68     		ldr	r6, [r7, #4]
  86 0062 6C46     		mov	r4, sp
  87 0064 06F11005 		add	r5, r6, #16
  88 0068 0FCD     		ldmia	r5!, {r0, r1, r2, r3}
  89 006a 0FC4     		stmia	r4!, {r0, r1, r2, r3}
  90 006c 95E80F00 		ldmia	r5, {r0, r1, r2, r3}
  91 0070 84E80F00 		stmia	r4, {r0, r1, r2, r3}
  92 0074 331D     		adds	r3, r6, #4
  93 0076 0ECB     		ldmia	r3, {r1, r2, r3}
  94 0078 7046     		mov	r0, lr
  95 007a FFF7FEFF 		bl	USB_HostInit
 146:../STM32F2xx_HAL_Driver/Src/stm32f2xx_hal_hcd.c ****  
 147:../STM32F2xx_HAL_Driver/Src/stm32f2xx_hal_hcd.c ****  hhcd->State= HCD_READY;
  96              		.loc 1 147 0
  97 007e 7B68     		ldr	r3, [r7, #4]
  98 0080 0022     		movs	r2, #0
  99 0082 83F88922 		strb	r2, [r3, #649]
 148:../STM32F2xx_HAL_Driver/Src/stm32f2xx_hal_hcd.c ****  
 149:../STM32F2xx_HAL_Driver/Src/stm32f2xx_hal_hcd.c ****  return HAL_OK;
 100              		.loc 1 149 0
 101 0086 0023     		movs	r3, #0
 102              	.L3:
 150:../STM32F2xx_HAL_Driver/Src/stm32f2xx_hal_hcd.c **** }
 103              		.loc 1 150 0
 104 0088 1846     		mov	r0, r3
 105 008a 0C37     		adds	r7, r7, #12
 106 008c BD46     		mov	sp, r7
 107              		@ sp needed
 108 008e F0BD     		pop	{r4, r5, r6, r7, pc}
 109              		.cfi_endproc
 110              	.LFE55:
 112              		.align	2
 113              		.global	HAL_HCD_HC_Init
 114              		.thumb
 115              		.thumb_func
 117              	HAL_HCD_HC_Init:
 118              	.LFB56:
 151:../STM32F2xx_HAL_Driver/Src/stm32f2xx_hal_hcd.c **** 
 152:../STM32F2xx_HAL_Driver/Src/stm32f2xx_hal_hcd.c **** /**
 153:../STM32F2xx_HAL_Driver/Src/stm32f2xx_hal_hcd.c ****   * @brief  Initialize a host channel
 154:../STM32F2xx_HAL_Driver/Src/stm32f2xx_hal_hcd.c ****   * @param  hhcd : HCD handle
 155:../STM32F2xx_HAL_Driver/Src/stm32f2xx_hal_hcd.c ****   * @param  ch_num : Channel number
 156:../STM32F2xx_HAL_Driver/Src/stm32f2xx_hal_hcd.c ****   *         This parameter can be a value from 1 to 15
 157:../STM32F2xx_HAL_Driver/Src/stm32f2xx_hal_hcd.c ****   * @param  epnum : Endpoint number
 158:../STM32F2xx_HAL_Driver/Src/stm32f2xx_hal_hcd.c ****   *          This parameter can be a value from 1 to 15
 159:../STM32F2xx_HAL_Driver/Src/stm32f2xx_hal_hcd.c ****   * @param  dev_address : Current device address
 160:../STM32F2xx_HAL_Driver/Src/stm32f2xx_hal_hcd.c ****   *          This parameter can be a value from 0 to 255
 161:../STM32F2xx_HAL_Driver/Src/stm32f2xx_hal_hcd.c ****   * @param  speed : Current device speed
 162:../STM32F2xx_HAL_Driver/Src/stm32f2xx_hal_hcd.c ****   *          This parameter can be one of the these values:
 163:../STM32F2xx_HAL_Driver/Src/stm32f2xx_hal_hcd.c ****   *            @arg HCD_SPEED_HIGH: High speed mode
 164:../STM32F2xx_HAL_Driver/Src/stm32f2xx_hal_hcd.c ****   *            @arg HCD_SPEED_FULL: Full speed mode
 165:../STM32F2xx_HAL_Driver/Src/stm32f2xx_hal_hcd.c ****   *            @arg HCD_SPEED_LOW: Low speed mode
 166:../STM32F2xx_HAL_Driver/Src/stm32f2xx_hal_hcd.c ****   * @param  ep_type : Endpoint Type
 167:../STM32F2xx_HAL_Driver/Src/stm32f2xx_hal_hcd.c ****   *          This parameter can be one of the these values:
 168:../STM32F2xx_HAL_Driver/Src/stm32f2xx_hal_hcd.c ****   *            @arg EP_TYPE_CTRL: Control type
 169:../STM32F2xx_HAL_Driver/Src/stm32f2xx_hal_hcd.c ****   *            @arg EP_TYPE_ISOC: Isochrounous type
 170:../STM32F2xx_HAL_Driver/Src/stm32f2xx_hal_hcd.c ****   *            @arg EP_TYPE_BULK: Bulk type
 171:../STM32F2xx_HAL_Driver/Src/stm32f2xx_hal_hcd.c ****   *            @arg EP_TYPE_INTR: Interrupt type
 172:../STM32F2xx_HAL_Driver/Src/stm32f2xx_hal_hcd.c ****   * @param  mps : Max Packet Size
 173:../STM32F2xx_HAL_Driver/Src/stm32f2xx_hal_hcd.c ****   *          This parameter can be a value from 0 to32K
 174:../STM32F2xx_HAL_Driver/Src/stm32f2xx_hal_hcd.c ****   * @retval HAL state
 175:../STM32F2xx_HAL_Driver/Src/stm32f2xx_hal_hcd.c ****   */
 176:../STM32F2xx_HAL_Driver/Src/stm32f2xx_hal_hcd.c **** HAL_StatusTypeDef HAL_HCD_HC_Init(HCD_HandleTypeDef *hhcd,  
 177:../STM32F2xx_HAL_Driver/Src/stm32f2xx_hal_hcd.c ****                                   uint8_t ch_num,
 178:../STM32F2xx_HAL_Driver/Src/stm32f2xx_hal_hcd.c ****                                   uint8_t epnum,
 179:../STM32F2xx_HAL_Driver/Src/stm32f2xx_hal_hcd.c ****                                   uint8_t dev_address,
 180:../STM32F2xx_HAL_Driver/Src/stm32f2xx_hal_hcd.c ****                                   uint8_t speed,
 181:../STM32F2xx_HAL_Driver/Src/stm32f2xx_hal_hcd.c ****                                   uint8_t ep_type,
 182:../STM32F2xx_HAL_Driver/Src/stm32f2xx_hal_hcd.c ****                                   uint16_t mps)
 183:../STM32F2xx_HAL_Driver/Src/stm32f2xx_hal_hcd.c **** {
 119              		.loc 1 183 0
 120              		.cfi_startproc
 121              		@ args = 12, pretend = 0, frame = 16
 122              		@ frame_needed = 1, uses_anonymous_args = 0
 123 0090 90B5     		push	{r4, r7, lr}
 124              		.cfi_def_cfa_offset 12
 125              		.cfi_offset 4, -12
 126              		.cfi_offset 7, -8
 127              		.cfi_offset 14, -4
 128 0092 89B0     		sub	sp, sp, #36
 129              		.cfi_def_cfa_offset 48
 130 0094 04AF     		add	r7, sp, #16
 131              		.cfi_def_cfa 7, 32
 132 0096 7860     		str	r0, [r7, #4]
 133 0098 F970     		strb	r1, [r7, #3]
 134 009a BA70     		strb	r2, [r7, #2]
 135 009c 7B70     		strb	r3, [r7, #1]
 184:../STM32F2xx_HAL_Driver/Src/stm32f2xx_hal_hcd.c ****   HAL_StatusTypeDef status = HAL_OK;
 136              		.loc 1 184 0
 137 009e 0023     		movs	r3, #0
 138 00a0 FB73     		strb	r3, [r7, #15]
 185:../STM32F2xx_HAL_Driver/Src/stm32f2xx_hal_hcd.c ****   
 186:../STM32F2xx_HAL_Driver/Src/stm32f2xx_hal_hcd.c ****   __HAL_LOCK(hhcd); 
 139              		.loc 1 186 0
 140 00a2 7B68     		ldr	r3, [r7, #4]
 141 00a4 93F88832 		ldrb	r3, [r3, #648]	@ zero_extendqisi2
 142 00a8 012B     		cmp	r3, #1
 143 00aa 01D1     		bne	.L5
 144              		.loc 1 186 0 is_stmt 0 discriminator 1
 145 00ac 0223     		movs	r3, #2
 146 00ae 69E0     		b	.L6
 147              	.L5:
 148              		.loc 1 186 0 discriminator 2
 149 00b0 7B68     		ldr	r3, [r7, #4]
 150 00b2 0122     		movs	r2, #1
 151 00b4 83F88822 		strb	r2, [r3, #648]
 187:../STM32F2xx_HAL_Driver/Src/stm32f2xx_hal_hcd.c ****   
 188:../STM32F2xx_HAL_Driver/Src/stm32f2xx_hal_hcd.c ****   hhcd->hc[ch_num].dev_addr = dev_address;
 152              		.loc 1 188 0 is_stmt 1 discriminator 2
 153 00b8 FA78     		ldrb	r2, [r7, #3]	@ zero_extendqisi2
 154 00ba 7968     		ldr	r1, [r7, #4]
 155 00bc 1346     		mov	r3, r2
 156 00be 9B00     		lsls	r3, r3, #2
 157 00c0 1344     		add	r3, r3, r2
 158 00c2 DB00     		lsls	r3, r3, #3
 159 00c4 0B44     		add	r3, r3, r1
 160 00c6 3033     		adds	r3, r3, #48
 161 00c8 7A78     		ldrb	r2, [r7, #1]
 162 00ca 1A70     		strb	r2, [r3]
 189:../STM32F2xx_HAL_Driver/Src/stm32f2xx_hal_hcd.c ****   hhcd->hc[ch_num].max_packet = mps;
 163              		.loc 1 189 0 discriminator 2
 164 00cc FA78     		ldrb	r2, [r7, #3]	@ zero_extendqisi2
 165 00ce 7968     		ldr	r1, [r7, #4]
 166 00d0 1346     		mov	r3, r2
 167 00d2 9B00     		lsls	r3, r3, #2
 168 00d4 1344     		add	r3, r3, r2
 169 00d6 DB00     		lsls	r3, r3, #3
 170 00d8 0B44     		add	r3, r3, r1
 171 00da 3833     		adds	r3, r3, #56
 172 00dc 3A8D     		ldrh	r2, [r7, #40]	@ movhi
 173 00de 1A80     		strh	r2, [r3]	@ movhi
 190:../STM32F2xx_HAL_Driver/Src/stm32f2xx_hal_hcd.c ****   hhcd->hc[ch_num].ch_num = ch_num;
 174              		.loc 1 190 0 discriminator 2
 175 00e0 FA78     		ldrb	r2, [r7, #3]	@ zero_extendqisi2
 176 00e2 7968     		ldr	r1, [r7, #4]
 177 00e4 1346     		mov	r3, r2
 178 00e6 9B00     		lsls	r3, r3, #2
 179 00e8 1344     		add	r3, r3, r2
 180 00ea DB00     		lsls	r3, r3, #3
 181 00ec 0B44     		add	r3, r3, r1
 182 00ee 3033     		adds	r3, r3, #48
 183 00f0 FA78     		ldrb	r2, [r7, #3]
 184 00f2 5A70     		strb	r2, [r3, #1]
 191:../STM32F2xx_HAL_Driver/Src/stm32f2xx_hal_hcd.c ****   hhcd->hc[ch_num].ep_type = ep_type;
 185              		.loc 1 191 0 discriminator 2
 186 00f4 FA78     		ldrb	r2, [r7, #3]	@ zero_extendqisi2
 187 00f6 7968     		ldr	r1, [r7, #4]
 188 00f8 1346     		mov	r3, r2
 189 00fa 9B00     		lsls	r3, r3, #2
 190 00fc 1344     		add	r3, r3, r2
 191 00fe DB00     		lsls	r3, r3, #3
 192 0100 0B44     		add	r3, r3, r1
 193 0102 3033     		adds	r3, r3, #48
 194 0104 97F82420 		ldrb	r2, [r7, #36]
 195 0108 DA71     		strb	r2, [r3, #7]
 192:../STM32F2xx_HAL_Driver/Src/stm32f2xx_hal_hcd.c ****   hhcd->hc[ch_num].ep_num = epnum & 0x7F;
 196              		.loc 1 192 0 discriminator 2
 197 010a FA78     		ldrb	r2, [r7, #3]	@ zero_extendqisi2
 198 010c BB78     		ldrb	r3, [r7, #2]
 199 010e 03F07F03 		and	r3, r3, #127
 200 0112 D9B2     		uxtb	r1, r3
 201 0114 7868     		ldr	r0, [r7, #4]
 202 0116 1346     		mov	r3, r2
 203 0118 9B00     		lsls	r3, r3, #2
 204 011a 1344     		add	r3, r3, r2
 205 011c DB00     		lsls	r3, r3, #3
 206 011e 0344     		add	r3, r3, r0
 207 0120 3033     		adds	r3, r3, #48
 208 0122 0A46     		mov	r2, r1
 209 0124 9A70     		strb	r2, [r3, #2]
 193:../STM32F2xx_HAL_Driver/Src/stm32f2xx_hal_hcd.c ****   hhcd->hc[ch_num].ep_is_in = ((epnum & 0x80) == 0x80);
 210              		.loc 1 193 0 discriminator 2
 211 0126 FA78     		ldrb	r2, [r7, #3]	@ zero_extendqisi2
 212 0128 BB78     		ldrb	r3, [r7, #2]	@ zero_extendqisi2
 213 012a DB09     		lsrs	r3, r3, #7
 214 012c DBB2     		uxtb	r3, r3
 215 012e 1946     		mov	r1, r3
 216 0130 7868     		ldr	r0, [r7, #4]
 217 0132 1346     		mov	r3, r2
 218 0134 9B00     		lsls	r3, r3, #2
 219 0136 1344     		add	r3, r3, r2
 220 0138 DB00     		lsls	r3, r3, #3
 221 013a 0344     		add	r3, r3, r0
 222 013c 3033     		adds	r3, r3, #48
 223 013e 0A46     		mov	r2, r1
 224 0140 DA70     		strb	r2, [r3, #3]
 194:../STM32F2xx_HAL_Driver/Src/stm32f2xx_hal_hcd.c ****   hhcd->hc[ch_num].speed = speed;
 225              		.loc 1 194 0 discriminator 2
 226 0142 FA78     		ldrb	r2, [r7, #3]	@ zero_extendqisi2
 227 0144 7968     		ldr	r1, [r7, #4]
 228 0146 1346     		mov	r3, r2
 229 0148 9B00     		lsls	r3, r3, #2
 230 014a 1344     		add	r3, r3, r2
 231 014c DB00     		lsls	r3, r3, #3
 232 014e 0B44     		add	r3, r3, r1
 233 0150 3033     		adds	r3, r3, #48
 234 0152 97F82020 		ldrb	r2, [r7, #32]
 235 0156 1A71     		strb	r2, [r3, #4]
 195:../STM32F2xx_HAL_Driver/Src/stm32f2xx_hal_hcd.c **** 
 196:../STM32F2xx_HAL_Driver/Src/stm32f2xx_hal_hcd.c ****   status =  USB_HC_Init(hhcd->Instance, 
 236              		.loc 1 196 0 discriminator 2
 237 0158 7B68     		ldr	r3, [r7, #4]
 238 015a 1868     		ldr	r0, [r3]
 239 015c F978     		ldrb	r1, [r7, #3]	@ zero_extendqisi2
 240 015e BA78     		ldrb	r2, [r7, #2]	@ zero_extendqisi2
 241 0160 7B78     		ldrb	r3, [r7, #1]	@ zero_extendqisi2
 242 0162 97F82040 		ldrb	r4, [r7, #32]	@ zero_extendqisi2
 243 0166 0094     		str	r4, [sp]
 244 0168 97F82440 		ldrb	r4, [r7, #36]	@ zero_extendqisi2
 245 016c 0194     		str	r4, [sp, #4]
 246 016e 3C8D     		ldrh	r4, [r7, #40]
 247 0170 0294     		str	r4, [sp, #8]
 248 0172 FFF7FEFF 		bl	USB_HC_Init
 249 0176 0346     		mov	r3, r0
 250 0178 FB73     		strb	r3, [r7, #15]
 197:../STM32F2xx_HAL_Driver/Src/stm32f2xx_hal_hcd.c ****                         ch_num,
 198:../STM32F2xx_HAL_Driver/Src/stm32f2xx_hal_hcd.c ****                         epnum,
 199:../STM32F2xx_HAL_Driver/Src/stm32f2xx_hal_hcd.c ****                         dev_address,
 200:../STM32F2xx_HAL_Driver/Src/stm32f2xx_hal_hcd.c ****                         speed,
 201:../STM32F2xx_HAL_Driver/Src/stm32f2xx_hal_hcd.c ****                         ep_type,
 202:../STM32F2xx_HAL_Driver/Src/stm32f2xx_hal_hcd.c ****                         mps);
 203:../STM32F2xx_HAL_Driver/Src/stm32f2xx_hal_hcd.c ****   __HAL_UNLOCK(hhcd); 
 251              		.loc 1 203 0 discriminator 2
 252 017a 7B68     		ldr	r3, [r7, #4]
 253 017c 0022     		movs	r2, #0
 254 017e 83F88822 		strb	r2, [r3, #648]
 204:../STM32F2xx_HAL_Driver/Src/stm32f2xx_hal_hcd.c ****   
 205:../STM32F2xx_HAL_Driver/Src/stm32f2xx_hal_hcd.c ****   return status;
 255              		.loc 1 205 0 discriminator 2
 256 0182 FB7B     		ldrb	r3, [r7, #15]	@ zero_extendqisi2
 257              	.L6:
 206:../STM32F2xx_HAL_Driver/Src/stm32f2xx_hal_hcd.c **** }
 258              		.loc 1 206 0
 259 0184 1846     		mov	r0, r3
 260 0186 1437     		adds	r7, r7, #20
 261 0188 BD46     		mov	sp, r7
 262              		@ sp needed
 263 018a 90BD     		pop	{r4, r7, pc}
 264              		.cfi_endproc
 265              	.LFE56:
 267              		.align	2
 268              		.global	HAL_HCD_HC_Halt
 269              		.thumb
 270              		.thumb_func
 272              	HAL_HCD_HC_Halt:
 273              	.LFB57:
 207:../STM32F2xx_HAL_Driver/Src/stm32f2xx_hal_hcd.c **** 
 208:../STM32F2xx_HAL_Driver/Src/stm32f2xx_hal_hcd.c **** 
 209:../STM32F2xx_HAL_Driver/Src/stm32f2xx_hal_hcd.c **** 
 210:../STM32F2xx_HAL_Driver/Src/stm32f2xx_hal_hcd.c **** /**
 211:../STM32F2xx_HAL_Driver/Src/stm32f2xx_hal_hcd.c ****   * @brief  Halt a host channel
 212:../STM32F2xx_HAL_Driver/Src/stm32f2xx_hal_hcd.c ****   * @param  hhcd : HCD handle
 213:../STM32F2xx_HAL_Driver/Src/stm32f2xx_hal_hcd.c ****   * @param  ch_num : Channel number
 214:../STM32F2xx_HAL_Driver/Src/stm32f2xx_hal_hcd.c ****   *         This parameter can be a value from 1 to 15
 215:../STM32F2xx_HAL_Driver/Src/stm32f2xx_hal_hcd.c ****   * @retval HAL state
 216:../STM32F2xx_HAL_Driver/Src/stm32f2xx_hal_hcd.c ****   */
 217:../STM32F2xx_HAL_Driver/Src/stm32f2xx_hal_hcd.c **** HAL_StatusTypeDef HAL_HCD_HC_Halt(HCD_HandleTypeDef *hhcd,  
 218:../STM32F2xx_HAL_Driver/Src/stm32f2xx_hal_hcd.c ****                                   uint8_t ch_num)
 219:../STM32F2xx_HAL_Driver/Src/stm32f2xx_hal_hcd.c **** {
 274              		.loc 1 219 0
 275              		.cfi_startproc
 276              		@ args = 0, pretend = 0, frame = 16
 277              		@ frame_needed = 1, uses_anonymous_args = 0
 278 018c 80B5     		push	{r7, lr}
 279              		.cfi_def_cfa_offset 8
 280              		.cfi_offset 7, -8
 281              		.cfi_offset 14, -4
 282 018e 84B0     		sub	sp, sp, #16
 283              		.cfi_def_cfa_offset 24
 284 0190 00AF     		add	r7, sp, #0
 285              		.cfi_def_cfa_register 7
 286 0192 7860     		str	r0, [r7, #4]
 287 0194 0B46     		mov	r3, r1
 288 0196 FB70     		strb	r3, [r7, #3]
 220:../STM32F2xx_HAL_Driver/Src/stm32f2xx_hal_hcd.c ****   HAL_StatusTypeDef status = HAL_OK;
 289              		.loc 1 220 0
 290 0198 0023     		movs	r3, #0
 291 019a FB73     		strb	r3, [r7, #15]
 221:../STM32F2xx_HAL_Driver/Src/stm32f2xx_hal_hcd.c ****   
 222:../STM32F2xx_HAL_Driver/Src/stm32f2xx_hal_hcd.c ****   __HAL_LOCK(hhcd);   
 292              		.loc 1 222 0
 293 019c 7B68     		ldr	r3, [r7, #4]
 294 019e 93F88832 		ldrb	r3, [r3, #648]	@ zero_extendqisi2
 295 01a2 012B     		cmp	r3, #1
 296 01a4 01D1     		bne	.L8
 297              		.loc 1 222 0 is_stmt 0 discriminator 1
 298 01a6 0223     		movs	r3, #2
 299 01a8 0FE0     		b	.L9
 300              	.L8:
 301              		.loc 1 222 0 discriminator 2
 302 01aa 7B68     		ldr	r3, [r7, #4]
 303 01ac 0122     		movs	r2, #1
 304 01ae 83F88822 		strb	r2, [r3, #648]
 223:../STM32F2xx_HAL_Driver/Src/stm32f2xx_hal_hcd.c ****   USB_HC_Halt(hhcd->Instance, ch_num);   
 305              		.loc 1 223 0 is_stmt 1 discriminator 2
 306 01b2 7B68     		ldr	r3, [r7, #4]
 307 01b4 1A68     		ldr	r2, [r3]
 308 01b6 FB78     		ldrb	r3, [r7, #3]	@ zero_extendqisi2
 309 01b8 1046     		mov	r0, r2
 310 01ba 1946     		mov	r1, r3
 311 01bc FFF7FEFF 		bl	USB_HC_Halt
 224:../STM32F2xx_HAL_Driver/Src/stm32f2xx_hal_hcd.c ****   __HAL_UNLOCK(hhcd);
 312              		.loc 1 224 0 discriminator 2
 313 01c0 7B68     		ldr	r3, [r7, #4]
 314 01c2 0022     		movs	r2, #0
 315 01c4 83F88822 		strb	r2, [r3, #648]
 225:../STM32F2xx_HAL_Driver/Src/stm32f2xx_hal_hcd.c ****   
 226:../STM32F2xx_HAL_Driver/Src/stm32f2xx_hal_hcd.c ****   return status;
 316              		.loc 1 226 0 discriminator 2
 317 01c8 FB7B     		ldrb	r3, [r7, #15]	@ zero_extendqisi2
 318              	.L9:
 227:../STM32F2xx_HAL_Driver/Src/stm32f2xx_hal_hcd.c **** }
 319              		.loc 1 227 0
 320 01ca 1846     		mov	r0, r3
 321 01cc 1037     		adds	r7, r7, #16
 322 01ce BD46     		mov	sp, r7
 323              		@ sp needed
 324 01d0 80BD     		pop	{r7, pc}
 325              		.cfi_endproc
 326              	.LFE57:
 328 01d2 00BF     		.align	2
 329              		.global	HAL_HCD_DeInit
 330              		.thumb
 331              		.thumb_func
 333              	HAL_HCD_DeInit:
 334              	.LFB58:
 228:../STM32F2xx_HAL_Driver/Src/stm32f2xx_hal_hcd.c **** /**
 229:../STM32F2xx_HAL_Driver/Src/stm32f2xx_hal_hcd.c ****   * @brief  DeInitialize the host driver
 230:../STM32F2xx_HAL_Driver/Src/stm32f2xx_hal_hcd.c ****   * @param  hhcd : HCD handle
 231:../STM32F2xx_HAL_Driver/Src/stm32f2xx_hal_hcd.c ****   * @retval HAL state
 232:../STM32F2xx_HAL_Driver/Src/stm32f2xx_hal_hcd.c ****   */
 233:../STM32F2xx_HAL_Driver/Src/stm32f2xx_hal_hcd.c **** HAL_StatusTypeDef HAL_HCD_DeInit(HCD_HandleTypeDef *hhcd)
 234:../STM32F2xx_HAL_Driver/Src/stm32f2xx_hal_hcd.c **** {
 335              		.loc 1 234 0
 336              		.cfi_startproc
 337              		@ args = 0, pretend = 0, frame = 8
 338              		@ frame_needed = 1, uses_anonymous_args = 0
 339 01d4 80B5     		push	{r7, lr}
 340              		.cfi_def_cfa_offset 8
 341              		.cfi_offset 7, -8
 342              		.cfi_offset 14, -4
 343 01d6 82B0     		sub	sp, sp, #8
 344              		.cfi_def_cfa_offset 16
 345 01d8 00AF     		add	r7, sp, #0
 346              		.cfi_def_cfa_register 7
 347 01da 7860     		str	r0, [r7, #4]
 235:../STM32F2xx_HAL_Driver/Src/stm32f2xx_hal_hcd.c ****   /* Check the HCD handle allocation */
 236:../STM32F2xx_HAL_Driver/Src/stm32f2xx_hal_hcd.c ****   if(hhcd == NULL)
 348              		.loc 1 236 0
 349 01dc 7B68     		ldr	r3, [r7, #4]
 350 01de 002B     		cmp	r3, #0
 351 01e0 01D1     		bne	.L11
 237:../STM32F2xx_HAL_Driver/Src/stm32f2xx_hal_hcd.c ****   {
 238:../STM32F2xx_HAL_Driver/Src/stm32f2xx_hal_hcd.c ****     return HAL_ERROR;
 352              		.loc 1 238 0
 353 01e2 0123     		movs	r3, #1
 354 01e4 10E0     		b	.L12
 355              	.L11:
 239:../STM32F2xx_HAL_Driver/Src/stm32f2xx_hal_hcd.c ****   }
 240:../STM32F2xx_HAL_Driver/Src/stm32f2xx_hal_hcd.c ****   
 241:../STM32F2xx_HAL_Driver/Src/stm32f2xx_hal_hcd.c ****   hhcd->State = HCD_BUSY;
 356              		.loc 1 241 0
 357 01e6 7B68     		ldr	r3, [r7, #4]
 358 01e8 0222     		movs	r2, #2
 359 01ea 83F88922 		strb	r2, [r3, #649]
 242:../STM32F2xx_HAL_Driver/Src/stm32f2xx_hal_hcd.c ****   
 243:../STM32F2xx_HAL_Driver/Src/stm32f2xx_hal_hcd.c ****   /* DeInit the low level hardware */
 244:../STM32F2xx_HAL_Driver/Src/stm32f2xx_hal_hcd.c ****   HAL_HCD_MspDeInit(hhcd);
 360              		.loc 1 244 0
 361 01ee 7868     		ldr	r0, [r7, #4]
 362 01f0 FFF7FEFF 		bl	HAL_HCD_MspDeInit
 245:../STM32F2xx_HAL_Driver/Src/stm32f2xx_hal_hcd.c ****   
 246:../STM32F2xx_HAL_Driver/Src/stm32f2xx_hal_hcd.c ****    __HAL_HCD_DISABLE(hhcd);
 363              		.loc 1 246 0
 364 01f4 7B68     		ldr	r3, [r7, #4]
 365 01f6 1B68     		ldr	r3, [r3]
 366 01f8 1846     		mov	r0, r3
 367 01fa FFF7FEFF 		bl	USB_DisableGlobalInt
 247:../STM32F2xx_HAL_Driver/Src/stm32f2xx_hal_hcd.c ****   
 248:../STM32F2xx_HAL_Driver/Src/stm32f2xx_hal_hcd.c ****   hhcd->State = HCD_READY; 
 368              		.loc 1 248 0
 369 01fe 7B68     		ldr	r3, [r7, #4]
 370 0200 0022     		movs	r2, #0
 371 0202 83F88922 		strb	r2, [r3, #649]
 249:../STM32F2xx_HAL_Driver/Src/stm32f2xx_hal_hcd.c ****   
 250:../STM32F2xx_HAL_Driver/Src/stm32f2xx_hal_hcd.c ****   return HAL_OK;
 372              		.loc 1 250 0
 373 0206 0023     		movs	r3, #0
 374              	.L12:
 251:../STM32F2xx_HAL_Driver/Src/stm32f2xx_hal_hcd.c **** }
 375              		.loc 1 251 0
 376 0208 1846     		mov	r0, r3
 377 020a 0837     		adds	r7, r7, #8
 378 020c BD46     		mov	sp, r7
 379              		@ sp needed
 380 020e 80BD     		pop	{r7, pc}
 381              		.cfi_endproc
 382              	.LFE58:
 384              		.align	2
 385              		.weak	HAL_HCD_MspInit
 386              		.thumb
 387              		.thumb_func
 389              	HAL_HCD_MspInit:
 390              	.LFB59:
 252:../STM32F2xx_HAL_Driver/Src/stm32f2xx_hal_hcd.c **** 
 253:../STM32F2xx_HAL_Driver/Src/stm32f2xx_hal_hcd.c **** /**
 254:../STM32F2xx_HAL_Driver/Src/stm32f2xx_hal_hcd.c ****   * @brief  Initializes the HCD MSP.
 255:../STM32F2xx_HAL_Driver/Src/stm32f2xx_hal_hcd.c ****   * @param  hhcd: HCD handle
 256:../STM32F2xx_HAL_Driver/Src/stm32f2xx_hal_hcd.c ****   * @retval None
 257:../STM32F2xx_HAL_Driver/Src/stm32f2xx_hal_hcd.c ****   */
 258:../STM32F2xx_HAL_Driver/Src/stm32f2xx_hal_hcd.c **** __weak void  HAL_HCD_MspInit(HCD_HandleTypeDef *hhcd)
 259:../STM32F2xx_HAL_Driver/Src/stm32f2xx_hal_hcd.c **** {
 391              		.loc 1 259 0
 392              		.cfi_startproc
 393              		@ args = 0, pretend = 0, frame = 8
 394              		@ frame_needed = 1, uses_anonymous_args = 0
 395              		@ link register save eliminated.
 396 0210 80B4     		push	{r7}
 397              		.cfi_def_cfa_offset 4
 398              		.cfi_offset 7, -4
 399 0212 83B0     		sub	sp, sp, #12
 400              		.cfi_def_cfa_offset 16
 401 0214 00AF     		add	r7, sp, #0
 402              		.cfi_def_cfa_register 7
 403 0216 7860     		str	r0, [r7, #4]
 260:../STM32F2xx_HAL_Driver/Src/stm32f2xx_hal_hcd.c ****   /* NOTE : This function Should not be modified, when the callback is needed,
 261:../STM32F2xx_HAL_Driver/Src/stm32f2xx_hal_hcd.c ****             the HAL_PCD_MspInit could be implenetd in the user file
 262:../STM32F2xx_HAL_Driver/Src/stm32f2xx_hal_hcd.c ****    */
 263:../STM32F2xx_HAL_Driver/Src/stm32f2xx_hal_hcd.c **** }
 404              		.loc 1 263 0
 405 0218 0C37     		adds	r7, r7, #12
 406 021a BD46     		mov	sp, r7
 407              		@ sp needed
 408 021c 5DF8047B 		ldr	r7, [sp], #4
 409 0220 7047     		bx	lr
 410              		.cfi_endproc
 411              	.LFE59:
 413 0222 00BF     		.align	2
 414              		.weak	HAL_HCD_MspDeInit
 415              		.thumb
 416              		.thumb_func
 418              	HAL_HCD_MspDeInit:
 419              	.LFB60:
 264:../STM32F2xx_HAL_Driver/Src/stm32f2xx_hal_hcd.c **** 
 265:../STM32F2xx_HAL_Driver/Src/stm32f2xx_hal_hcd.c **** /**
 266:../STM32F2xx_HAL_Driver/Src/stm32f2xx_hal_hcd.c ****   * @brief  DeInitializes HCD MSP.
 267:../STM32F2xx_HAL_Driver/Src/stm32f2xx_hal_hcd.c ****   * @param  hhcd: HCD handle
 268:../STM32F2xx_HAL_Driver/Src/stm32f2xx_hal_hcd.c ****   * @retval None
 269:../STM32F2xx_HAL_Driver/Src/stm32f2xx_hal_hcd.c ****   */
 270:../STM32F2xx_HAL_Driver/Src/stm32f2xx_hal_hcd.c **** __weak void  HAL_HCD_MspDeInit(HCD_HandleTypeDef *hhhcd)
 271:../STM32F2xx_HAL_Driver/Src/stm32f2xx_hal_hcd.c **** {
 420              		.loc 1 271 0
 421              		.cfi_startproc
 422              		@ args = 0, pretend = 0, frame = 8
 423              		@ frame_needed = 1, uses_anonymous_args = 0
 424              		@ link register save eliminated.
 425 0224 80B4     		push	{r7}
 426              		.cfi_def_cfa_offset 4
 427              		.cfi_offset 7, -4
 428 0226 83B0     		sub	sp, sp, #12
 429              		.cfi_def_cfa_offset 16
 430 0228 00AF     		add	r7, sp, #0
 431              		.cfi_def_cfa_register 7
 432 022a 7860     		str	r0, [r7, #4]
 272:../STM32F2xx_HAL_Driver/Src/stm32f2xx_hal_hcd.c ****   /* NOTE : This function Should not be modified, when the callback is needed,
 273:../STM32F2xx_HAL_Driver/Src/stm32f2xx_hal_hcd.c ****             the HAL_PCD_MspDeInit could be implenetd in the user file
 274:../STM32F2xx_HAL_Driver/Src/stm32f2xx_hal_hcd.c ****    */
 275:../STM32F2xx_HAL_Driver/Src/stm32f2xx_hal_hcd.c **** }
 433              		.loc 1 275 0
 434 022c 0C37     		adds	r7, r7, #12
 435 022e BD46     		mov	sp, r7
 436              		@ sp needed
 437 0230 5DF8047B 		ldr	r7, [sp], #4
 438 0234 7047     		bx	lr
 439              		.cfi_endproc
 440              	.LFE60:
 442 0236 00BF     		.align	2
 443              		.global	HAL_HCD_HC_SubmitRequest
 444              		.thumb
 445              		.thumb_func
 447              	HAL_HCD_HC_SubmitRequest:
 448              	.LFB61:
 276:../STM32F2xx_HAL_Driver/Src/stm32f2xx_hal_hcd.c **** 
 277:../STM32F2xx_HAL_Driver/Src/stm32f2xx_hal_hcd.c **** /**
 278:../STM32F2xx_HAL_Driver/Src/stm32f2xx_hal_hcd.c ****   * @}
 279:../STM32F2xx_HAL_Driver/Src/stm32f2xx_hal_hcd.c ****   */
 280:../STM32F2xx_HAL_Driver/Src/stm32f2xx_hal_hcd.c **** 
 281:../STM32F2xx_HAL_Driver/Src/stm32f2xx_hal_hcd.c **** /** @defgroup HCD_Group2 IO operation functions 
 282:../STM32F2xx_HAL_Driver/Src/stm32f2xx_hal_hcd.c ****   *  @brief   HCD IO operation functions
 283:../STM32F2xx_HAL_Driver/Src/stm32f2xx_hal_hcd.c ****   *
 284:../STM32F2xx_HAL_Driver/Src/stm32f2xx_hal_hcd.c **** @verbatim
 285:../STM32F2xx_HAL_Driver/Src/stm32f2xx_hal_hcd.c ****  ===============================================================================
 286:../STM32F2xx_HAL_Driver/Src/stm32f2xx_hal_hcd.c ****                       ##### IO operation functions #####
 287:../STM32F2xx_HAL_Driver/Src/stm32f2xx_hal_hcd.c ****  ===============================================================================
 288:../STM32F2xx_HAL_Driver/Src/stm32f2xx_hal_hcd.c ****     This subsection provides a set of functions allowing to manage the USB Host Data 
 289:../STM32F2xx_HAL_Driver/Src/stm32f2xx_hal_hcd.c ****     Transfer
 290:../STM32F2xx_HAL_Driver/Src/stm32f2xx_hal_hcd.c ****        
 291:../STM32F2xx_HAL_Driver/Src/stm32f2xx_hal_hcd.c **** @endverbatim
 292:../STM32F2xx_HAL_Driver/Src/stm32f2xx_hal_hcd.c ****   * @{
 293:../STM32F2xx_HAL_Driver/Src/stm32f2xx_hal_hcd.c ****   */
 294:../STM32F2xx_HAL_Driver/Src/stm32f2xx_hal_hcd.c ****   
 295:../STM32F2xx_HAL_Driver/Src/stm32f2xx_hal_hcd.c **** /**                                
 296:../STM32F2xx_HAL_Driver/Src/stm32f2xx_hal_hcd.c ****   * @brief  Submit a new URB for processing 
 297:../STM32F2xx_HAL_Driver/Src/stm32f2xx_hal_hcd.c ****   * @param  hhcd : HCD handle
 298:../STM32F2xx_HAL_Driver/Src/stm32f2xx_hal_hcd.c ****   * @param  ch_num : Channel number
 299:../STM32F2xx_HAL_Driver/Src/stm32f2xx_hal_hcd.c ****   *         This parameter can be a value from 1 to 15
 300:../STM32F2xx_HAL_Driver/Src/stm32f2xx_hal_hcd.c ****   * @param  direction : Channel number
 301:../STM32F2xx_HAL_Driver/Src/stm32f2xx_hal_hcd.c ****   *          This parameter can be one of the these values:
 302:../STM32F2xx_HAL_Driver/Src/stm32f2xx_hal_hcd.c ****   *           0 : Output 
 303:../STM32F2xx_HAL_Driver/Src/stm32f2xx_hal_hcd.c ****   *           1 : Input
 304:../STM32F2xx_HAL_Driver/Src/stm32f2xx_hal_hcd.c ****   * @param  ep_type : Endpoint Type
 305:../STM32F2xx_HAL_Driver/Src/stm32f2xx_hal_hcd.c ****   *          This parameter can be one of the these values:
 306:../STM32F2xx_HAL_Driver/Src/stm32f2xx_hal_hcd.c ****   *            @arg EP_TYPE_CTRL: Control type
 307:../STM32F2xx_HAL_Driver/Src/stm32f2xx_hal_hcd.c ****   *            @arg EP_TYPE_ISOC: Isochrounous type
 308:../STM32F2xx_HAL_Driver/Src/stm32f2xx_hal_hcd.c ****   *            @arg EP_TYPE_BULK: Bulk type
 309:../STM32F2xx_HAL_Driver/Src/stm32f2xx_hal_hcd.c ****   *            @arg EP_TYPE_INTR: Interrupt type
 310:../STM32F2xx_HAL_Driver/Src/stm32f2xx_hal_hcd.c ****   * @param  token : Endpoint Type
 311:../STM32F2xx_HAL_Driver/Src/stm32f2xx_hal_hcd.c ****   *          This parameter can be one of the these values:
 312:../STM32F2xx_HAL_Driver/Src/stm32f2xx_hal_hcd.c ****   *            @arg 0: HC_PID_SETUP
 313:../STM32F2xx_HAL_Driver/Src/stm32f2xx_hal_hcd.c ****   *            @arg 1: HC_PID_DATA1
 314:../STM32F2xx_HAL_Driver/Src/stm32f2xx_hal_hcd.c ****   * @param  pbuff : pointer to URB data
 315:../STM32F2xx_HAL_Driver/Src/stm32f2xx_hal_hcd.c ****   * @param  length : Length of URB data
 316:../STM32F2xx_HAL_Driver/Src/stm32f2xx_hal_hcd.c ****   * @param  do_ping : activate do ping protocol (for high speed only)
 317:../STM32F2xx_HAL_Driver/Src/stm32f2xx_hal_hcd.c ****   *          This parameter can be one of the these values:
 318:../STM32F2xx_HAL_Driver/Src/stm32f2xx_hal_hcd.c ****   *           0 : do ping inactive 
 319:../STM32F2xx_HAL_Driver/Src/stm32f2xx_hal_hcd.c ****   *           1 : do ping active 
 320:../STM32F2xx_HAL_Driver/Src/stm32f2xx_hal_hcd.c ****   * @retval HAL state
 321:../STM32F2xx_HAL_Driver/Src/stm32f2xx_hal_hcd.c ****   */
 322:../STM32F2xx_HAL_Driver/Src/stm32f2xx_hal_hcd.c **** HAL_StatusTypeDef HAL_HCD_HC_SubmitRequest(HCD_HandleTypeDef *hhcd,
 323:../STM32F2xx_HAL_Driver/Src/stm32f2xx_hal_hcd.c ****                                             uint8_t ch_num, 
 324:../STM32F2xx_HAL_Driver/Src/stm32f2xx_hal_hcd.c ****                                             uint8_t direction ,
 325:../STM32F2xx_HAL_Driver/Src/stm32f2xx_hal_hcd.c ****                                             uint8_t ep_type,  
 326:../STM32F2xx_HAL_Driver/Src/stm32f2xx_hal_hcd.c ****                                             uint8_t token, 
 327:../STM32F2xx_HAL_Driver/Src/stm32f2xx_hal_hcd.c ****                                             uint8_t* pbuff, 
 328:../STM32F2xx_HAL_Driver/Src/stm32f2xx_hal_hcd.c ****                                             uint16_t length,
 329:../STM32F2xx_HAL_Driver/Src/stm32f2xx_hal_hcd.c ****                                             uint8_t do_ping) 
 330:../STM32F2xx_HAL_Driver/Src/stm32f2xx_hal_hcd.c **** {
 449              		.loc 1 330 0
 450              		.cfi_startproc
 451              		@ args = 16, pretend = 0, frame = 8
 452              		@ frame_needed = 1, uses_anonymous_args = 0
 453 0238 80B5     		push	{r7, lr}
 454              		.cfi_def_cfa_offset 8
 455              		.cfi_offset 7, -8
 456              		.cfi_offset 14, -4
 457 023a 82B0     		sub	sp, sp, #8
 458              		.cfi_def_cfa_offset 16
 459 023c 00AF     		add	r7, sp, #0
 460              		.cfi_def_cfa_register 7
 461 023e 7860     		str	r0, [r7, #4]
 462 0240 F970     		strb	r1, [r7, #3]
 463 0242 BA70     		strb	r2, [r7, #2]
 464 0244 7B70     		strb	r3, [r7, #1]
 331:../STM32F2xx_HAL_Driver/Src/stm32f2xx_hal_hcd.c ****   hhcd->hc[ch_num].ep_is_in = direction;
 465              		.loc 1 331 0
 466 0246 FA78     		ldrb	r2, [r7, #3]	@ zero_extendqisi2
 467 0248 7968     		ldr	r1, [r7, #4]
 468 024a 1346     		mov	r3, r2
 469 024c 9B00     		lsls	r3, r3, #2
 470 024e 1344     		add	r3, r3, r2
 471 0250 DB00     		lsls	r3, r3, #3
 472 0252 0B44     		add	r3, r3, r1
 473 0254 3033     		adds	r3, r3, #48
 474 0256 BA78     		ldrb	r2, [r7, #2]
 475 0258 DA70     		strb	r2, [r3, #3]
 332:../STM32F2xx_HAL_Driver/Src/stm32f2xx_hal_hcd.c ****   hhcd->hc[ch_num].ep_type  = ep_type; 
 476              		.loc 1 332 0
 477 025a FA78     		ldrb	r2, [r7, #3]	@ zero_extendqisi2
 478 025c 7968     		ldr	r1, [r7, #4]
 479 025e 1346     		mov	r3, r2
 480 0260 9B00     		lsls	r3, r3, #2
 481 0262 1344     		add	r3, r3, r2
 482 0264 DB00     		lsls	r3, r3, #3
 483 0266 0B44     		add	r3, r3, r1
 484 0268 3033     		adds	r3, r3, #48
 485 026a 7A78     		ldrb	r2, [r7, #1]
 486 026c DA71     		strb	r2, [r3, #7]
 333:../STM32F2xx_HAL_Driver/Src/stm32f2xx_hal_hcd.c ****   
 334:../STM32F2xx_HAL_Driver/Src/stm32f2xx_hal_hcd.c ****   if(token == 0)
 487              		.loc 1 334 0
 488 026e 3B7C     		ldrb	r3, [r7, #16]	@ zero_extendqisi2
 489 0270 002B     		cmp	r3, #0
 490 0272 0AD1     		bne	.L16
 335:../STM32F2xx_HAL_Driver/Src/stm32f2xx_hal_hcd.c ****   {
 336:../STM32F2xx_HAL_Driver/Src/stm32f2xx_hal_hcd.c ****     hhcd->hc[ch_num].data_pid = HC_PID_SETUP;
 491              		.loc 1 336 0
 492 0274 FA78     		ldrb	r2, [r7, #3]	@ zero_extendqisi2
 493 0276 7968     		ldr	r1, [r7, #4]
 494 0278 1346     		mov	r3, r2
 495 027a 9B00     		lsls	r3, r3, #2
 496 027c 1344     		add	r3, r3, r2
 497 027e DB00     		lsls	r3, r3, #3
 498 0280 0B44     		add	r3, r3, r1
 499 0282 3833     		adds	r3, r3, #56
 500 0284 0322     		movs	r2, #3
 501 0286 9A70     		strb	r2, [r3, #2]
 502 0288 09E0     		b	.L17
 503              	.L16:
 337:../STM32F2xx_HAL_Driver/Src/stm32f2xx_hal_hcd.c ****   }
 338:../STM32F2xx_HAL_Driver/Src/stm32f2xx_hal_hcd.c ****   else
 339:../STM32F2xx_HAL_Driver/Src/stm32f2xx_hal_hcd.c ****   {
 340:../STM32F2xx_HAL_Driver/Src/stm32f2xx_hal_hcd.c ****     hhcd->hc[ch_num].data_pid = HC_PID_DATA1;
 504              		.loc 1 340 0
 505 028a FA78     		ldrb	r2, [r7, #3]	@ zero_extendqisi2
 506 028c 7968     		ldr	r1, [r7, #4]
 507 028e 1346     		mov	r3, r2
 508 0290 9B00     		lsls	r3, r3, #2
 509 0292 1344     		add	r3, r3, r2
 510 0294 DB00     		lsls	r3, r3, #3
 511 0296 0B44     		add	r3, r3, r1
 512 0298 3833     		adds	r3, r3, #56
 513 029a 0222     		movs	r2, #2
 514 029c 9A70     		strb	r2, [r3, #2]
 515              	.L17:
 341:../STM32F2xx_HAL_Driver/Src/stm32f2xx_hal_hcd.c ****   }
 342:../STM32F2xx_HAL_Driver/Src/stm32f2xx_hal_hcd.c ****   
 343:../STM32F2xx_HAL_Driver/Src/stm32f2xx_hal_hcd.c ****   /* Manage Data Toggle */
 344:../STM32F2xx_HAL_Driver/Src/stm32f2xx_hal_hcd.c ****   switch(ep_type)
 516              		.loc 1 344 0
 517 029e 7B78     		ldrb	r3, [r7, #1]	@ zero_extendqisi2
 518 02a0 032B     		cmp	r3, #3
 519 02a2 00F20181 		bhi	.L18
 520 02a6 01A2     		adr	r2, .L20
 521 02a8 52F823F0 		ldr	pc, [r2, r3, lsl #2]
 522              		.p2align 2
 523              	.L20:
 524 02ac BD020000 		.word	.L19+1
 525 02b0 93040000 		.word	.L21+1
 526 02b4 51030000 		.word	.L22+1
 527 02b8 07040000 		.word	.L23+1
 528              	.L19:
 345:../STM32F2xx_HAL_Driver/Src/stm32f2xx_hal_hcd.c ****   {
 346:../STM32F2xx_HAL_Driver/Src/stm32f2xx_hal_hcd.c ****   case EP_TYPE_CTRL:
 347:../STM32F2xx_HAL_Driver/Src/stm32f2xx_hal_hcd.c ****     if((token == 1) && (direction == 0)) /*send data */
 529              		.loc 1 347 0
 530 02bc 3B7C     		ldrb	r3, [r7, #16]	@ zero_extendqisi2
 531 02be 012B     		cmp	r3, #1
 532 02c0 45D1     		bne	.L24
 533              		.loc 1 347 0 is_stmt 0 discriminator 1
 534 02c2 BB78     		ldrb	r3, [r7, #2]	@ zero_extendqisi2
 535 02c4 002B     		cmp	r3, #0
 536 02c6 42D1     		bne	.L24
 348:../STM32F2xx_HAL_Driver/Src/stm32f2xx_hal_hcd.c ****     {
 349:../STM32F2xx_HAL_Driver/Src/stm32f2xx_hal_hcd.c ****       if ( length == 0 )
 537              		.loc 1 349 0 is_stmt 1
 538 02c8 3B8B     		ldrh	r3, [r7, #24]
 539 02ca 002B     		cmp	r3, #0
 540 02cc 09D1     		bne	.L25
 350:../STM32F2xx_HAL_Driver/Src/stm32f2xx_hal_hcd.c ****       { /* For Status OUT stage, Length==0, Status Out PID = 1 */
 351:../STM32F2xx_HAL_Driver/Src/stm32f2xx_hal_hcd.c ****         hhcd->hc[ch_num].toggle_out = 1;
 541              		.loc 1 351 0
 542 02ce FA78     		ldrb	r2, [r7, #3]	@ zero_extendqisi2
 543 02d0 7968     		ldr	r1, [r7, #4]
 544 02d2 1346     		mov	r3, r2
 545 02d4 9B00     		lsls	r3, r3, #2
 546 02d6 1344     		add	r3, r3, r2
 547 02d8 DB00     		lsls	r3, r3, #3
 548 02da 0B44     		add	r3, r3, r1
 549 02dc 4833     		adds	r3, r3, #72
 550 02de 0122     		movs	r2, #1
 551 02e0 5A70     		strb	r2, [r3, #1]
 552              	.L25:
 352:../STM32F2xx_HAL_Driver/Src/stm32f2xx_hal_hcd.c ****       }
 353:../STM32F2xx_HAL_Driver/Src/stm32f2xx_hal_hcd.c ****       
 354:../STM32F2xx_HAL_Driver/Src/stm32f2xx_hal_hcd.c ****       /* Set the Data Toggle bit as per the Flag */
 355:../STM32F2xx_HAL_Driver/Src/stm32f2xx_hal_hcd.c ****       if ( hhcd->hc[ch_num].toggle_out == 0)
 553              		.loc 1 355 0
 554 02e2 FA78     		ldrb	r2, [r7, #3]	@ zero_extendqisi2
 555 02e4 7968     		ldr	r1, [r7, #4]
 556 02e6 1346     		mov	r3, r2
 557 02e8 9B00     		lsls	r3, r3, #2
 558 02ea 1344     		add	r3, r3, r2
 559 02ec DB00     		lsls	r3, r3, #3
 560 02ee 0B44     		add	r3, r3, r1
 561 02f0 4833     		adds	r3, r3, #72
 562 02f2 5B78     		ldrb	r3, [r3, #1]	@ zero_extendqisi2
 563 02f4 002B     		cmp	r3, #0
 564 02f6 0AD1     		bne	.L26
 356:../STM32F2xx_HAL_Driver/Src/stm32f2xx_hal_hcd.c ****       { /* Put the PID 0 */
 357:../STM32F2xx_HAL_Driver/Src/stm32f2xx_hal_hcd.c ****         hhcd->hc[ch_num].data_pid = HC_PID_DATA0;    
 565              		.loc 1 357 0
 566 02f8 FA78     		ldrb	r2, [r7, #3]	@ zero_extendqisi2
 567 02fa 7968     		ldr	r1, [r7, #4]
 568 02fc 1346     		mov	r3, r2
 569 02fe 9B00     		lsls	r3, r3, #2
 570 0300 1344     		add	r3, r3, r2
 571 0302 DB00     		lsls	r3, r3, #3
 572 0304 0B44     		add	r3, r3, r1
 573 0306 3833     		adds	r3, r3, #56
 574 0308 0022     		movs	r2, #0
 575 030a 9A70     		strb	r2, [r3, #2]
 576 030c 09E0     		b	.L27
 577              	.L26:
 358:../STM32F2xx_HAL_Driver/Src/stm32f2xx_hal_hcd.c ****       }
 359:../STM32F2xx_HAL_Driver/Src/stm32f2xx_hal_hcd.c ****       else
 360:../STM32F2xx_HAL_Driver/Src/stm32f2xx_hal_hcd.c ****       { /* Put the PID 1 */
 361:../STM32F2xx_HAL_Driver/Src/stm32f2xx_hal_hcd.c ****         hhcd->hc[ch_num].data_pid = HC_PID_DATA1 ;
 578              		.loc 1 361 0
 579 030e FA78     		ldrb	r2, [r7, #3]	@ zero_extendqisi2
 580 0310 7968     		ldr	r1, [r7, #4]
 581 0312 1346     		mov	r3, r2
 582 0314 9B00     		lsls	r3, r3, #2
 583 0316 1344     		add	r3, r3, r2
 584 0318 DB00     		lsls	r3, r3, #3
 585 031a 0B44     		add	r3, r3, r1
 586 031c 3833     		adds	r3, r3, #56
 587 031e 0222     		movs	r2, #2
 588 0320 9A70     		strb	r2, [r3, #2]
 589              	.L27:
 362:../STM32F2xx_HAL_Driver/Src/stm32f2xx_hal_hcd.c ****       }
 363:../STM32F2xx_HAL_Driver/Src/stm32f2xx_hal_hcd.c ****       if(hhcd->hc[ch_num].urb_state  != URB_NOTREADY)
 590              		.loc 1 363 0
 591 0322 FA78     		ldrb	r2, [r7, #3]	@ zero_extendqisi2
 592 0324 7968     		ldr	r1, [r7, #4]
 593 0326 1346     		mov	r3, r2
 594 0328 9B00     		lsls	r3, r3, #2
 595 032a 1344     		add	r3, r3, r2
 596 032c DB00     		lsls	r3, r3, #3
 597 032e 0B44     		add	r3, r3, r1
 598 0330 5033     		adds	r3, r3, #80
 599 0332 1B79     		ldrb	r3, [r3, #4]	@ zero_extendqisi2
 600 0334 022B     		cmp	r3, #2
 601 0336 0AD0     		beq	.L24
 364:../STM32F2xx_HAL_Driver/Src/stm32f2xx_hal_hcd.c ****       {
 365:../STM32F2xx_HAL_Driver/Src/stm32f2xx_hal_hcd.c ****         hhcd->hc[ch_num].do_ping = do_ping;
 602              		.loc 1 365 0
 603 0338 FA78     		ldrb	r2, [r7, #3]	@ zero_extendqisi2
 604 033a 7968     		ldr	r1, [r7, #4]
 605 033c 1346     		mov	r3, r2
 606 033e 9B00     		lsls	r3, r3, #2
 607 0340 1344     		add	r3, r3, r2
 608 0342 DB00     		lsls	r3, r3, #3
 609 0344 0B44     		add	r3, r3, r1
 610 0346 3033     		adds	r3, r3, #48
 611 0348 3A7F     		ldrb	r2, [r7, #28]
 612 034a 5A71     		strb	r2, [r3, #5]
 366:../STM32F2xx_HAL_Driver/Src/stm32f2xx_hal_hcd.c ****       }
 367:../STM32F2xx_HAL_Driver/Src/stm32f2xx_hal_hcd.c ****     }
 368:../STM32F2xx_HAL_Driver/Src/stm32f2xx_hal_hcd.c ****     break;
 613              		.loc 1 368 0
 614 034c ACE0     		b	.L18
 615              	.L24:
 616 034e ABE0     		b	.L18
 617              	.L22:
 369:../STM32F2xx_HAL_Driver/Src/stm32f2xx_hal_hcd.c ****   
 370:../STM32F2xx_HAL_Driver/Src/stm32f2xx_hal_hcd.c ****   case EP_TYPE_BULK:
 371:../STM32F2xx_HAL_Driver/Src/stm32f2xx_hal_hcd.c ****     if(direction == 0)
 618              		.loc 1 371 0
 619 0350 BB78     		ldrb	r3, [r7, #2]	@ zero_extendqisi2
 620 0352 002B     		cmp	r3, #0
 621 0354 35D1     		bne	.L28
 372:../STM32F2xx_HAL_Driver/Src/stm32f2xx_hal_hcd.c ****     {
 373:../STM32F2xx_HAL_Driver/Src/stm32f2xx_hal_hcd.c ****       /* Set the Data Toggle bit as per the Flag */
 374:../STM32F2xx_HAL_Driver/Src/stm32f2xx_hal_hcd.c ****       if ( hhcd->hc[ch_num].toggle_out == 0)
 622              		.loc 1 374 0
 623 0356 FA78     		ldrb	r2, [r7, #3]	@ zero_extendqisi2
 624 0358 7968     		ldr	r1, [r7, #4]
 625 035a 1346     		mov	r3, r2
 626 035c 9B00     		lsls	r3, r3, #2
 627 035e 1344     		add	r3, r3, r2
 628 0360 DB00     		lsls	r3, r3, #3
 629 0362 0B44     		add	r3, r3, r1
 630 0364 4833     		adds	r3, r3, #72
 631 0366 5B78     		ldrb	r3, [r3, #1]	@ zero_extendqisi2
 632 0368 002B     		cmp	r3, #0
 633 036a 0AD1     		bne	.L29
 375:../STM32F2xx_HAL_Driver/Src/stm32f2xx_hal_hcd.c ****       { /* Put the PID 0 */
 376:../STM32F2xx_HAL_Driver/Src/stm32f2xx_hal_hcd.c ****         hhcd->hc[ch_num].data_pid = HC_PID_DATA0;    
 634              		.loc 1 376 0
 635 036c FA78     		ldrb	r2, [r7, #3]	@ zero_extendqisi2
 636 036e 7968     		ldr	r1, [r7, #4]
 637 0370 1346     		mov	r3, r2
 638 0372 9B00     		lsls	r3, r3, #2
 639 0374 1344     		add	r3, r3, r2
 640 0376 DB00     		lsls	r3, r3, #3
 641 0378 0B44     		add	r3, r3, r1
 642 037a 3833     		adds	r3, r3, #56
 643 037c 0022     		movs	r2, #0
 644 037e 9A70     		strb	r2, [r3, #2]
 645 0380 09E0     		b	.L30
 646              	.L29:
 377:../STM32F2xx_HAL_Driver/Src/stm32f2xx_hal_hcd.c ****       }
 378:../STM32F2xx_HAL_Driver/Src/stm32f2xx_hal_hcd.c ****       else
 379:../STM32F2xx_HAL_Driver/Src/stm32f2xx_hal_hcd.c ****       { /* Put the PID 1 */
 380:../STM32F2xx_HAL_Driver/Src/stm32f2xx_hal_hcd.c ****         hhcd->hc[ch_num].data_pid = HC_PID_DATA1 ;
 647              		.loc 1 380 0
 648 0382 FA78     		ldrb	r2, [r7, #3]	@ zero_extendqisi2
 649 0384 7968     		ldr	r1, [r7, #4]
 650 0386 1346     		mov	r3, r2
 651 0388 9B00     		lsls	r3, r3, #2
 652 038a 1344     		add	r3, r3, r2
 653 038c DB00     		lsls	r3, r3, #3
 654 038e 0B44     		add	r3, r3, r1
 655 0390 3833     		adds	r3, r3, #56
 656 0392 0222     		movs	r2, #2
 657 0394 9A70     		strb	r2, [r3, #2]
 658              	.L30:
 381:../STM32F2xx_HAL_Driver/Src/stm32f2xx_hal_hcd.c ****       }
 382:../STM32F2xx_HAL_Driver/Src/stm32f2xx_hal_hcd.c ****       if(hhcd->hc[ch_num].urb_state  != URB_NOTREADY)
 659              		.loc 1 382 0
 660 0396 FA78     		ldrb	r2, [r7, #3]	@ zero_extendqisi2
 661 0398 7968     		ldr	r1, [r7, #4]
 662 039a 1346     		mov	r3, r2
 663 039c 9B00     		lsls	r3, r3, #2
 664 039e 1344     		add	r3, r3, r2
 665 03a0 DB00     		lsls	r3, r3, #3
 666 03a2 0B44     		add	r3, r3, r1
 667 03a4 5033     		adds	r3, r3, #80
 668 03a6 1B79     		ldrb	r3, [r3, #4]	@ zero_extendqisi2
 669 03a8 022B     		cmp	r3, #2
 670 03aa 2BD0     		beq	.L32
 383:../STM32F2xx_HAL_Driver/Src/stm32f2xx_hal_hcd.c ****       {
 384:../STM32F2xx_HAL_Driver/Src/stm32f2xx_hal_hcd.c ****         hhcd->hc[ch_num].do_ping = do_ping;
 671              		.loc 1 384 0
 672 03ac FA78     		ldrb	r2, [r7, #3]	@ zero_extendqisi2
 673 03ae 7968     		ldr	r1, [r7, #4]
 674 03b0 1346     		mov	r3, r2
 675 03b2 9B00     		lsls	r3, r3, #2
 676 03b4 1344     		add	r3, r3, r2
 677 03b6 DB00     		lsls	r3, r3, #3
 678 03b8 0B44     		add	r3, r3, r1
 679 03ba 3033     		adds	r3, r3, #48
 680 03bc 3A7F     		ldrb	r2, [r7, #28]
 681 03be 5A71     		strb	r2, [r3, #5]
 385:../STM32F2xx_HAL_Driver/Src/stm32f2xx_hal_hcd.c ****       }
 386:../STM32F2xx_HAL_Driver/Src/stm32f2xx_hal_hcd.c ****     }
 387:../STM32F2xx_HAL_Driver/Src/stm32f2xx_hal_hcd.c ****     else
 388:../STM32F2xx_HAL_Driver/Src/stm32f2xx_hal_hcd.c ****     {
 389:../STM32F2xx_HAL_Driver/Src/stm32f2xx_hal_hcd.c ****       if( hhcd->hc[ch_num].toggle_in == 0)
 390:../STM32F2xx_HAL_Driver/Src/stm32f2xx_hal_hcd.c ****       {
 391:../STM32F2xx_HAL_Driver/Src/stm32f2xx_hal_hcd.c ****         hhcd->hc[ch_num].data_pid = HC_PID_DATA0;
 392:../STM32F2xx_HAL_Driver/Src/stm32f2xx_hal_hcd.c ****       }
 393:../STM32F2xx_HAL_Driver/Src/stm32f2xx_hal_hcd.c ****       else
 394:../STM32F2xx_HAL_Driver/Src/stm32f2xx_hal_hcd.c ****       {
 395:../STM32F2xx_HAL_Driver/Src/stm32f2xx_hal_hcd.c ****         hhcd->hc[ch_num].data_pid = HC_PID_DATA1;
 396:../STM32F2xx_HAL_Driver/Src/stm32f2xx_hal_hcd.c ****       }
 397:../STM32F2xx_HAL_Driver/Src/stm32f2xx_hal_hcd.c ****     }
 398:../STM32F2xx_HAL_Driver/Src/stm32f2xx_hal_hcd.c ****     
 399:../STM32F2xx_HAL_Driver/Src/stm32f2xx_hal_hcd.c ****     break;
 682              		.loc 1 399 0
 683 03c0 72E0     		b	.L18
 684              	.L28:
 389:../STM32F2xx_HAL_Driver/Src/stm32f2xx_hal_hcd.c ****       {
 685              		.loc 1 389 0
 686 03c2 FA78     		ldrb	r2, [r7, #3]	@ zero_extendqisi2
 687 03c4 7968     		ldr	r1, [r7, #4]
 688 03c6 1346     		mov	r3, r2
 689 03c8 9B00     		lsls	r3, r3, #2
 690 03ca 1344     		add	r3, r3, r2
 691 03cc DB00     		lsls	r3, r3, #3
 692 03ce 0B44     		add	r3, r3, r1
 693 03d0 4833     		adds	r3, r3, #72
 694 03d2 1B78     		ldrb	r3, [r3]	@ zero_extendqisi2
 695 03d4 002B     		cmp	r3, #0
 696 03d6 0AD1     		bne	.L33
 391:../STM32F2xx_HAL_Driver/Src/stm32f2xx_hal_hcd.c ****       }
 697              		.loc 1 391 0
 698 03d8 FA78     		ldrb	r2, [r7, #3]	@ zero_extendqisi2
 699 03da 7968     		ldr	r1, [r7, #4]
 700 03dc 1346     		mov	r3, r2
 701 03de 9B00     		lsls	r3, r3, #2
 702 03e0 1344     		add	r3, r3, r2
 703 03e2 DB00     		lsls	r3, r3, #3
 704 03e4 0B44     		add	r3, r3, r1
 705 03e6 3833     		adds	r3, r3, #56
 706 03e8 0022     		movs	r2, #0
 707 03ea 9A70     		strb	r2, [r3, #2]
 708 03ec 0AE0     		b	.L32
 709              	.L33:
 395:../STM32F2xx_HAL_Driver/Src/stm32f2xx_hal_hcd.c ****       }
 710              		.loc 1 395 0
 711 03ee FA78     		ldrb	r2, [r7, #3]	@ zero_extendqisi2
 712 03f0 7968     		ldr	r1, [r7, #4]
 713 03f2 1346     		mov	r3, r2
 714 03f4 9B00     		lsls	r3, r3, #2
 715 03f6 1344     		add	r3, r3, r2
 716 03f8 DB00     		lsls	r3, r3, #3
 717 03fa 0B44     		add	r3, r3, r1
 718 03fc 3833     		adds	r3, r3, #56
 719 03fe 0222     		movs	r2, #2
 720 0400 9A70     		strb	r2, [r3, #2]
 721              		.loc 1 399 0
 722 0402 51E0     		b	.L18
 723              	.L32:
 724 0404 50E0     		b	.L18
 725              	.L23:
 400:../STM32F2xx_HAL_Driver/Src/stm32f2xx_hal_hcd.c ****   case EP_TYPE_INTR:
 401:../STM32F2xx_HAL_Driver/Src/stm32f2xx_hal_hcd.c ****     if(direction == 0)
 726              		.loc 1 401 0
 727 0406 BB78     		ldrb	r3, [r7, #2]	@ zero_extendqisi2
 728 0408 002B     		cmp	r3, #0
 729 040a 20D1     		bne	.L34
 402:../STM32F2xx_HAL_Driver/Src/stm32f2xx_hal_hcd.c ****     {
 403:../STM32F2xx_HAL_Driver/Src/stm32f2xx_hal_hcd.c ****       /* Set the Data Toggle bit as per the Flag */
 404:../STM32F2xx_HAL_Driver/Src/stm32f2xx_hal_hcd.c ****       if ( hhcd->hc[ch_num].toggle_out == 0)
 730              		.loc 1 404 0
 731 040c FA78     		ldrb	r2, [r7, #3]	@ zero_extendqisi2
 732 040e 7968     		ldr	r1, [r7, #4]
 733 0410 1346     		mov	r3, r2
 734 0412 9B00     		lsls	r3, r3, #2
 735 0414 1344     		add	r3, r3, r2
 736 0416 DB00     		lsls	r3, r3, #3
 737 0418 0B44     		add	r3, r3, r1
 738 041a 4833     		adds	r3, r3, #72
 739 041c 5B78     		ldrb	r3, [r3, #1]	@ zero_extendqisi2
 740 041e 002B     		cmp	r3, #0
 741 0420 0AD1     		bne	.L35
 405:../STM32F2xx_HAL_Driver/Src/stm32f2xx_hal_hcd.c ****       { /* Put the PID 0 */
 406:../STM32F2xx_HAL_Driver/Src/stm32f2xx_hal_hcd.c ****         hhcd->hc[ch_num].data_pid = HC_PID_DATA0;    
 742              		.loc 1 406 0
 743 0422 FA78     		ldrb	r2, [r7, #3]	@ zero_extendqisi2
 744 0424 7968     		ldr	r1, [r7, #4]
 745 0426 1346     		mov	r3, r2
 746 0428 9B00     		lsls	r3, r3, #2
 747 042a 1344     		add	r3, r3, r2
 748 042c DB00     		lsls	r3, r3, #3
 749 042e 0B44     		add	r3, r3, r1
 750 0430 3833     		adds	r3, r3, #56
 751 0432 0022     		movs	r2, #0
 752 0434 9A70     		strb	r2, [r3, #2]
 753 0436 2BE0     		b	.L37
 754              	.L35:
 407:../STM32F2xx_HAL_Driver/Src/stm32f2xx_hal_hcd.c ****       }
 408:../STM32F2xx_HAL_Driver/Src/stm32f2xx_hal_hcd.c ****       else
 409:../STM32F2xx_HAL_Driver/Src/stm32f2xx_hal_hcd.c ****       { /* Put the PID 1 */
 410:../STM32F2xx_HAL_Driver/Src/stm32f2xx_hal_hcd.c ****         hhcd->hc[ch_num].data_pid = HC_PID_DATA1 ;
 755              		.loc 1 410 0
 756 0438 FA78     		ldrb	r2, [r7, #3]	@ zero_extendqisi2
 757 043a 7968     		ldr	r1, [r7, #4]
 758 043c 1346     		mov	r3, r2
 759 043e 9B00     		lsls	r3, r3, #2
 760 0440 1344     		add	r3, r3, r2
 761 0442 DB00     		lsls	r3, r3, #3
 762 0444 0B44     		add	r3, r3, r1
 763 0446 3833     		adds	r3, r3, #56
 764 0448 0222     		movs	r2, #2
 765 044a 9A70     		strb	r2, [r3, #2]
 411:../STM32F2xx_HAL_Driver/Src/stm32f2xx_hal_hcd.c ****       }
 412:../STM32F2xx_HAL_Driver/Src/stm32f2xx_hal_hcd.c ****     }
 413:../STM32F2xx_HAL_Driver/Src/stm32f2xx_hal_hcd.c ****     else
 414:../STM32F2xx_HAL_Driver/Src/stm32f2xx_hal_hcd.c ****     {
 415:../STM32F2xx_HAL_Driver/Src/stm32f2xx_hal_hcd.c ****       if( hhcd->hc[ch_num].toggle_in == 0)
 416:../STM32F2xx_HAL_Driver/Src/stm32f2xx_hal_hcd.c ****       {
 417:../STM32F2xx_HAL_Driver/Src/stm32f2xx_hal_hcd.c ****         hhcd->hc[ch_num].data_pid = HC_PID_DATA0;
 418:../STM32F2xx_HAL_Driver/Src/stm32f2xx_hal_hcd.c ****       }
 419:../STM32F2xx_HAL_Driver/Src/stm32f2xx_hal_hcd.c ****       else
 420:../STM32F2xx_HAL_Driver/Src/stm32f2xx_hal_hcd.c ****       {
 421:../STM32F2xx_HAL_Driver/Src/stm32f2xx_hal_hcd.c ****         hhcd->hc[ch_num].data_pid = HC_PID_DATA1;
 422:../STM32F2xx_HAL_Driver/Src/stm32f2xx_hal_hcd.c ****       }
 423:../STM32F2xx_HAL_Driver/Src/stm32f2xx_hal_hcd.c ****     }
 424:../STM32F2xx_HAL_Driver/Src/stm32f2xx_hal_hcd.c ****     break;
 766              		.loc 1 424 0
 767 044c 2CE0     		b	.L18
 768              	.L34:
 415:../STM32F2xx_HAL_Driver/Src/stm32f2xx_hal_hcd.c ****       {
 769              		.loc 1 415 0
 770 044e FA78     		ldrb	r2, [r7, #3]	@ zero_extendqisi2
 771 0450 7968     		ldr	r1, [r7, #4]
 772 0452 1346     		mov	r3, r2
 773 0454 9B00     		lsls	r3, r3, #2
 774 0456 1344     		add	r3, r3, r2
 775 0458 DB00     		lsls	r3, r3, #3
 776 045a 0B44     		add	r3, r3, r1
 777 045c 4833     		adds	r3, r3, #72
 778 045e 1B78     		ldrb	r3, [r3]	@ zero_extendqisi2
 779 0460 002B     		cmp	r3, #0
 780 0462 0AD1     		bne	.L38
 417:../STM32F2xx_HAL_Driver/Src/stm32f2xx_hal_hcd.c ****       }
 781              		.loc 1 417 0
 782 0464 FA78     		ldrb	r2, [r7, #3]	@ zero_extendqisi2
 783 0466 7968     		ldr	r1, [r7, #4]
 784 0468 1346     		mov	r3, r2
 785 046a 9B00     		lsls	r3, r3, #2
 786 046c 1344     		add	r3, r3, r2
 787 046e DB00     		lsls	r3, r3, #3
 788 0470 0B44     		add	r3, r3, r1
 789 0472 3833     		adds	r3, r3, #56
 790 0474 0022     		movs	r2, #0
 791 0476 9A70     		strb	r2, [r3, #2]
 792 0478 0AE0     		b	.L37
 793              	.L38:
 421:../STM32F2xx_HAL_Driver/Src/stm32f2xx_hal_hcd.c ****       }
 794              		.loc 1 421 0
 795 047a FA78     		ldrb	r2, [r7, #3]	@ zero_extendqisi2
 796 047c 7968     		ldr	r1, [r7, #4]
 797 047e 1346     		mov	r3, r2
 798 0480 9B00     		lsls	r3, r3, #2
 799 0482 1344     		add	r3, r3, r2
 800 0484 DB00     		lsls	r3, r3, #3
 801 0486 0B44     		add	r3, r3, r1
 802 0488 3833     		adds	r3, r3, #56
 803 048a 0222     		movs	r2, #2
 804 048c 9A70     		strb	r2, [r3, #2]
 805              		.loc 1 424 0
 806 048e 0BE0     		b	.L18
 807              	.L37:
 808 0490 0AE0     		b	.L18
 809              	.L21:
 425:../STM32F2xx_HAL_Driver/Src/stm32f2xx_hal_hcd.c ****     
 426:../STM32F2xx_HAL_Driver/Src/stm32f2xx_hal_hcd.c ****   case EP_TYPE_ISOC: 
 427:../STM32F2xx_HAL_Driver/Src/stm32f2xx_hal_hcd.c ****     hhcd->hc[ch_num].data_pid = HC_PID_DATA0;
 810              		.loc 1 427 0
 811 0492 FA78     		ldrb	r2, [r7, #3]	@ zero_extendqisi2
 812 0494 7968     		ldr	r1, [r7, #4]
 813 0496 1346     		mov	r3, r2
 814 0498 9B00     		lsls	r3, r3, #2
 815 049a 1344     		add	r3, r3, r2
 816 049c DB00     		lsls	r3, r3, #3
 817 049e 0B44     		add	r3, r3, r1
 818 04a0 3833     		adds	r3, r3, #56
 819 04a2 0022     		movs	r2, #0
 820 04a4 9A70     		strb	r2, [r3, #2]
 428:../STM32F2xx_HAL_Driver/Src/stm32f2xx_hal_hcd.c ****     break;
 821              		.loc 1 428 0
 822 04a6 00BF     		nop
 823              	.L18:
 429:../STM32F2xx_HAL_Driver/Src/stm32f2xx_hal_hcd.c ****       
 430:../STM32F2xx_HAL_Driver/Src/stm32f2xx_hal_hcd.c ****   }
 431:../STM32F2xx_HAL_Driver/Src/stm32f2xx_hal_hcd.c ****   
 432:../STM32F2xx_HAL_Driver/Src/stm32f2xx_hal_hcd.c ****   hhcd->hc[ch_num].xfer_buff = pbuff;
 824              		.loc 1 432 0
 825 04a8 FA78     		ldrb	r2, [r7, #3]	@ zero_extendqisi2
 826 04aa 7968     		ldr	r1, [r7, #4]
 827 04ac 1346     		mov	r3, r2
 828 04ae 9B00     		lsls	r3, r3, #2
 829 04b0 1344     		add	r3, r3, r2
 830 04b2 DB00     		lsls	r3, r3, #3
 831 04b4 0B44     		add	r3, r3, r1
 832 04b6 3C33     		adds	r3, r3, #60
 833 04b8 7A69     		ldr	r2, [r7, #20]
 834 04ba 1A60     		str	r2, [r3]
 433:../STM32F2xx_HAL_Driver/Src/stm32f2xx_hal_hcd.c ****   hhcd->hc[ch_num].xfer_len  = length;
 835              		.loc 1 433 0
 836 04bc FA78     		ldrb	r2, [r7, #3]	@ zero_extendqisi2
 837 04be 398B     		ldrh	r1, [r7, #24]
 838 04c0 7868     		ldr	r0, [r7, #4]
 839 04c2 1346     		mov	r3, r2
 840 04c4 9B00     		lsls	r3, r3, #2
 841 04c6 1344     		add	r3, r3, r2
 842 04c8 DB00     		lsls	r3, r3, #3
 843 04ca 0344     		add	r3, r3, r0
 844 04cc 4033     		adds	r3, r3, #64
 845 04ce 1960     		str	r1, [r3]
 434:../STM32F2xx_HAL_Driver/Src/stm32f2xx_hal_hcd.c ****   hhcd->hc[ch_num].urb_state =   URB_IDLE;  
 846              		.loc 1 434 0
 847 04d0 FA78     		ldrb	r2, [r7, #3]	@ zero_extendqisi2
 848 04d2 7968     		ldr	r1, [r7, #4]
 849 04d4 1346     		mov	r3, r2
 850 04d6 9B00     		lsls	r3, r3, #2
 851 04d8 1344     		add	r3, r3, r2
 852 04da DB00     		lsls	r3, r3, #3
 853 04dc 0B44     		add	r3, r3, r1
 854 04de 5033     		adds	r3, r3, #80
 855 04e0 0022     		movs	r2, #0
 856 04e2 1A71     		strb	r2, [r3, #4]
 435:../STM32F2xx_HAL_Driver/Src/stm32f2xx_hal_hcd.c ****   hhcd->hc[ch_num].xfer_count = 0 ;
 857              		.loc 1 435 0
 858 04e4 FA78     		ldrb	r2, [r7, #3]	@ zero_extendqisi2
 859 04e6 7968     		ldr	r1, [r7, #4]
 860 04e8 1346     		mov	r3, r2
 861 04ea 9B00     		lsls	r3, r3, #2
 862 04ec 1344     		add	r3, r3, r2
 863 04ee DB00     		lsls	r3, r3, #3
 864 04f0 0B44     		add	r3, r3, r1
 865 04f2 4433     		adds	r3, r3, #68
 866 04f4 0022     		movs	r2, #0
 867 04f6 1A60     		str	r2, [r3]
 436:../STM32F2xx_HAL_Driver/Src/stm32f2xx_hal_hcd.c ****   hhcd->hc[ch_num].ch_num = ch_num;
 868              		.loc 1 436 0
 869 04f8 FA78     		ldrb	r2, [r7, #3]	@ zero_extendqisi2
 870 04fa 7968     		ldr	r1, [r7, #4]
 871 04fc 1346     		mov	r3, r2
 872 04fe 9B00     		lsls	r3, r3, #2
 873 0500 1344     		add	r3, r3, r2
 874 0502 DB00     		lsls	r3, r3, #3
 875 0504 0B44     		add	r3, r3, r1
 876 0506 3033     		adds	r3, r3, #48
 877 0508 FA78     		ldrb	r2, [r7, #3]
 878 050a 5A70     		strb	r2, [r3, #1]
 437:../STM32F2xx_HAL_Driver/Src/stm32f2xx_hal_hcd.c ****   hhcd->hc[ch_num].state = HC_IDLE;
 879              		.loc 1 437 0
 880 050c FA78     		ldrb	r2, [r7, #3]	@ zero_extendqisi2
 881 050e 7968     		ldr	r1, [r7, #4]
 882 0510 1346     		mov	r3, r2
 883 0512 9B00     		lsls	r3, r3, #2
 884 0514 1344     		add	r3, r3, r2
 885 0516 DB00     		lsls	r3, r3, #3
 886 0518 0B44     		add	r3, r3, r1
 887 051a 5033     		adds	r3, r3, #80
 888 051c 0022     		movs	r2, #0
 889 051e 5A71     		strb	r2, [r3, #5]
 438:../STM32F2xx_HAL_Driver/Src/stm32f2xx_hal_hcd.c ****   
 439:../STM32F2xx_HAL_Driver/Src/stm32f2xx_hal_hcd.c ****   return USB_HC_StartXfer(hhcd->Instance, &(hhcd->hc[ch_num]), hhcd->Init.dma_enable);
 890              		.loc 1 439 0
 891 0520 7B68     		ldr	r3, [r7, #4]
 892 0522 1968     		ldr	r1, [r3]
 893 0524 FA78     		ldrb	r2, [r7, #3]	@ zero_extendqisi2
 894 0526 1346     		mov	r3, r2
 895 0528 9B00     		lsls	r3, r3, #2
 896 052a 1344     		add	r3, r3, r2
 897 052c DB00     		lsls	r3, r3, #3
 898 052e 3033     		adds	r3, r3, #48
 899 0530 7A68     		ldr	r2, [r7, #4]
 900 0532 1A44     		add	r2, r2, r3
 901 0534 7B68     		ldr	r3, [r7, #4]
 902 0536 1B69     		ldr	r3, [r3, #16]
 903 0538 DBB2     		uxtb	r3, r3
 904 053a 0846     		mov	r0, r1
 905 053c 1146     		mov	r1, r2
 906 053e 1A46     		mov	r2, r3
 907 0540 FFF7FEFF 		bl	USB_HC_StartXfer
 908 0544 0346     		mov	r3, r0
 440:../STM32F2xx_HAL_Driver/Src/stm32f2xx_hal_hcd.c **** }
 909              		.loc 1 440 0
 910 0546 1846     		mov	r0, r3
 911 0548 0837     		adds	r7, r7, #8
 912 054a BD46     		mov	sp, r7
 913              		@ sp needed
 914 054c 80BD     		pop	{r7, pc}
 915              		.cfi_endproc
 916              	.LFE61:
 918 054e 00BF     		.align	2
 919              		.global	HAL_HCD_IRQHandler
 920              		.thumb
 921              		.thumb_func
 923              	HAL_HCD_IRQHandler:
 924              	.LFB62:
 441:../STM32F2xx_HAL_Driver/Src/stm32f2xx_hal_hcd.c **** 
 442:../STM32F2xx_HAL_Driver/Src/stm32f2xx_hal_hcd.c **** /**
 443:../STM32F2xx_HAL_Driver/Src/stm32f2xx_hal_hcd.c ****   * @brief  This function handles HCD interrupt request.
 444:../STM32F2xx_HAL_Driver/Src/stm32f2xx_hal_hcd.c ****   * @param  hhcd: HCD handle
 445:../STM32F2xx_HAL_Driver/Src/stm32f2xx_hal_hcd.c ****   * @retval none
 446:../STM32F2xx_HAL_Driver/Src/stm32f2xx_hal_hcd.c ****   */
 447:../STM32F2xx_HAL_Driver/Src/stm32f2xx_hal_hcd.c **** void HAL_HCD_IRQHandler(HCD_HandleTypeDef *hhcd)
 448:../STM32F2xx_HAL_Driver/Src/stm32f2xx_hal_hcd.c **** {
 925              		.loc 1 448 0
 926              		.cfi_startproc
 927              		@ args = 0, pretend = 0, frame = 24
 928              		@ frame_needed = 1, uses_anonymous_args = 0
 929 0550 80B5     		push	{r7, lr}
 930              		.cfi_def_cfa_offset 8
 931              		.cfi_offset 7, -8
 932              		.cfi_offset 14, -4
 933 0552 86B0     		sub	sp, sp, #24
 934              		.cfi_def_cfa_offset 32
 935 0554 00AF     		add	r7, sp, #0
 936              		.cfi_def_cfa_register 7
 937 0556 7860     		str	r0, [r7, #4]
 449:../STM32F2xx_HAL_Driver/Src/stm32f2xx_hal_hcd.c ****   USB_OTG_GlobalTypeDef *USBx = hhcd->Instance;
 938              		.loc 1 449 0
 939 0558 7B68     		ldr	r3, [r7, #4]
 940 055a 1B68     		ldr	r3, [r3]
 941 055c 3B61     		str	r3, [r7, #16]
 450:../STM32F2xx_HAL_Driver/Src/stm32f2xx_hal_hcd.c ****   uint32_t i = 0 , interrupt = 0;
 942              		.loc 1 450 0
 943 055e 0023     		movs	r3, #0
 944 0560 7B61     		str	r3, [r7, #20]
 945 0562 0023     		movs	r3, #0
 946 0564 FB60     		str	r3, [r7, #12]
 451:../STM32F2xx_HAL_Driver/Src/stm32f2xx_hal_hcd.c ****   
 452:../STM32F2xx_HAL_Driver/Src/stm32f2xx_hal_hcd.c ****   /* ensure that we are in device mode */
 453:../STM32F2xx_HAL_Driver/Src/stm32f2xx_hal_hcd.c ****   if (USB_GetMode(hhcd->Instance) == USB_OTG_MODE_HOST)
 947              		.loc 1 453 0
 948 0566 7B68     		ldr	r3, [r7, #4]
 949 0568 1B68     		ldr	r3, [r3]
 950 056a 1846     		mov	r0, r3
 951 056c FFF7FEFF 		bl	USB_GetMode
 952 0570 0346     		mov	r3, r0
 953 0572 012B     		cmp	r3, #1
 954 0574 40F0F980 		bne	.L40
 454:../STM32F2xx_HAL_Driver/Src/stm32f2xx_hal_hcd.c ****   {
 455:../STM32F2xx_HAL_Driver/Src/stm32f2xx_hal_hcd.c ****     /* avoid spurious interrupt */
 456:../STM32F2xx_HAL_Driver/Src/stm32f2xx_hal_hcd.c ****     if(__HAL_HCD_IS_INVALID_INTERRUPT(hhcd)) 
 955              		.loc 1 456 0
 956 0578 7B68     		ldr	r3, [r7, #4]
 957 057a 1B68     		ldr	r3, [r3]
 958 057c 1846     		mov	r0, r3
 959 057e FFF7FEFF 		bl	USB_ReadInterrupts
 960 0582 0346     		mov	r3, r0
 961 0584 002B     		cmp	r3, #0
 962 0586 00D1     		bne	.L42
 457:../STM32F2xx_HAL_Driver/Src/stm32f2xx_hal_hcd.c ****     {
 458:../STM32F2xx_HAL_Driver/Src/stm32f2xx_hal_hcd.c ****       return;
 963              		.loc 1 458 0
 964 0588 EFE0     		b	.L40
 965              	.L42:
 459:../STM32F2xx_HAL_Driver/Src/stm32f2xx_hal_hcd.c ****     }
 460:../STM32F2xx_HAL_Driver/Src/stm32f2xx_hal_hcd.c ****     
 461:../STM32F2xx_HAL_Driver/Src/stm32f2xx_hal_hcd.c ****     if(__HAL_HCD_GET_FLAG(hhcd, USB_OTG_GINTSTS_PXFR_INCOMPISOOUT))
 966              		.loc 1 461 0
 967 058a 7B68     		ldr	r3, [r7, #4]
 968 058c 1B68     		ldr	r3, [r3]
 969 058e 1846     		mov	r0, r3
 970 0590 FFF7FEFF 		bl	USB_ReadInterrupts
 971 0594 0346     		mov	r3, r0
 972 0596 03F40013 		and	r3, r3, #2097152
 973 059a 002B     		cmp	r3, #0
 974 059c 07D0     		beq	.L43
 462:../STM32F2xx_HAL_Driver/Src/stm32f2xx_hal_hcd.c ****     {
 463:../STM32F2xx_HAL_Driver/Src/stm32f2xx_hal_hcd.c ****      /* incorrect mode, acknowledge the interrupt */
 464:../STM32F2xx_HAL_Driver/Src/stm32f2xx_hal_hcd.c ****       __HAL_HCD_CLEAR_FLAG(hhcd, USB_OTG_GINTSTS_PXFR_INCOMPISOOUT);
 975              		.loc 1 464 0
 976 059e 7B68     		ldr	r3, [r7, #4]
 977 05a0 1B68     		ldr	r3, [r3]
 978 05a2 7A68     		ldr	r2, [r7, #4]
 979 05a4 1268     		ldr	r2, [r2]
 980 05a6 5269     		ldr	r2, [r2, #20]
 981 05a8 42F40012 		orr	r2, r2, #2097152
 982 05ac 5A61     		str	r2, [r3, #20]
 983              	.L43:
 465:../STM32F2xx_HAL_Driver/Src/stm32f2xx_hal_hcd.c ****     }
 466:../STM32F2xx_HAL_Driver/Src/stm32f2xx_hal_hcd.c ****     
 467:../STM32F2xx_HAL_Driver/Src/stm32f2xx_hal_hcd.c ****     if(__HAL_HCD_GET_FLAG(hhcd, USB_OTG_GINTSTS_IISOIXFR))
 984              		.loc 1 467 0
 985 05ae 7B68     		ldr	r3, [r7, #4]
 986 05b0 1B68     		ldr	r3, [r3]
 987 05b2 1846     		mov	r0, r3
 988 05b4 FFF7FEFF 		bl	USB_ReadInterrupts
 989 05b8 0346     		mov	r3, r0
 990 05ba 03F48013 		and	r3, r3, #1048576
 991 05be 002B     		cmp	r3, #0
 992 05c0 07D0     		beq	.L44
 468:../STM32F2xx_HAL_Driver/Src/stm32f2xx_hal_hcd.c ****     {
 469:../STM32F2xx_HAL_Driver/Src/stm32f2xx_hal_hcd.c ****      /* incorrect mode, acknowledge the interrupt */
 470:../STM32F2xx_HAL_Driver/Src/stm32f2xx_hal_hcd.c ****       __HAL_HCD_CLEAR_FLAG(hhcd, USB_OTG_GINTSTS_IISOIXFR);
 993              		.loc 1 470 0
 994 05c2 7B68     		ldr	r3, [r7, #4]
 995 05c4 1B68     		ldr	r3, [r3]
 996 05c6 7A68     		ldr	r2, [r7, #4]
 997 05c8 1268     		ldr	r2, [r2]
 998 05ca 5269     		ldr	r2, [r2, #20]
 999 05cc 42F48012 		orr	r2, r2, #1048576
 1000 05d0 5A61     		str	r2, [r3, #20]
 1001              	.L44:
 471:../STM32F2xx_HAL_Driver/Src/stm32f2xx_hal_hcd.c ****     }
 472:../STM32F2xx_HAL_Driver/Src/stm32f2xx_hal_hcd.c **** 
 473:../STM32F2xx_HAL_Driver/Src/stm32f2xx_hal_hcd.c ****     if(__HAL_HCD_GET_FLAG(hhcd, USB_OTG_GINTSTS_PTXFE))
 1002              		.loc 1 473 0
 1003 05d2 7B68     		ldr	r3, [r7, #4]
 1004 05d4 1B68     		ldr	r3, [r3]
 1005 05d6 1846     		mov	r0, r3
 1006 05d8 FFF7FEFF 		bl	USB_ReadInterrupts
 1007 05dc 0346     		mov	r3, r0
 1008 05de 03F08063 		and	r3, r3, #67108864
 1009 05e2 002B     		cmp	r3, #0
 1010 05e4 07D0     		beq	.L45
 474:../STM32F2xx_HAL_Driver/Src/stm32f2xx_hal_hcd.c ****     {
 475:../STM32F2xx_HAL_Driver/Src/stm32f2xx_hal_hcd.c ****      /* incorrect mode, acknowledge the interrupt */
 476:../STM32F2xx_HAL_Driver/Src/stm32f2xx_hal_hcd.c ****       __HAL_HCD_CLEAR_FLAG(hhcd, USB_OTG_GINTSTS_PTXFE);
 1011              		.loc 1 476 0
 1012 05e6 7B68     		ldr	r3, [r7, #4]
 1013 05e8 1B68     		ldr	r3, [r3]
 1014 05ea 7A68     		ldr	r2, [r7, #4]
 1015 05ec 1268     		ldr	r2, [r2]
 1016 05ee 5269     		ldr	r2, [r2, #20]
 1017 05f0 42F08062 		orr	r2, r2, #67108864
 1018 05f4 5A61     		str	r2, [r3, #20]
 1019              	.L45:
 477:../STM32F2xx_HAL_Driver/Src/stm32f2xx_hal_hcd.c ****     }   
 478:../STM32F2xx_HAL_Driver/Src/stm32f2xx_hal_hcd.c ****     
 479:../STM32F2xx_HAL_Driver/Src/stm32f2xx_hal_hcd.c ****     if(__HAL_HCD_GET_FLAG(hhcd, USB_OTG_GINTSTS_MMIS))
 1020              		.loc 1 479 0
 1021 05f6 7B68     		ldr	r3, [r7, #4]
 1022 05f8 1B68     		ldr	r3, [r3]
 1023 05fa 1846     		mov	r0, r3
 1024 05fc FFF7FEFF 		bl	USB_ReadInterrupts
 1025 0600 0346     		mov	r3, r0
 1026 0602 03F00203 		and	r3, r3, #2
 1027 0606 002B     		cmp	r3, #0
 1028 0608 07D0     		beq	.L46
 480:../STM32F2xx_HAL_Driver/Src/stm32f2xx_hal_hcd.c ****     {
 481:../STM32F2xx_HAL_Driver/Src/stm32f2xx_hal_hcd.c ****      /* incorrect mode, acknowledge the interrupt */
 482:../STM32F2xx_HAL_Driver/Src/stm32f2xx_hal_hcd.c ****       __HAL_HCD_CLEAR_FLAG(hhcd, USB_OTG_GINTSTS_MMIS);
 1029              		.loc 1 482 0
 1030 060a 7B68     		ldr	r3, [r7, #4]
 1031 060c 1B68     		ldr	r3, [r3]
 1032 060e 7A68     		ldr	r2, [r7, #4]
 1033 0610 1268     		ldr	r2, [r2]
 1034 0612 5269     		ldr	r2, [r2, #20]
 1035 0614 42F00202 		orr	r2, r2, #2
 1036 0618 5A61     		str	r2, [r3, #20]
 1037              	.L46:
 483:../STM32F2xx_HAL_Driver/Src/stm32f2xx_hal_hcd.c ****     }     
 484:../STM32F2xx_HAL_Driver/Src/stm32f2xx_hal_hcd.c ****     
 485:../STM32F2xx_HAL_Driver/Src/stm32f2xx_hal_hcd.c ****     /* Handle Host Disconnect Interrupts */
 486:../STM32F2xx_HAL_Driver/Src/stm32f2xx_hal_hcd.c ****     if(__HAL_HCD_GET_FLAG(hhcd, USB_OTG_GINTSTS_DISCINT))
 1038              		.loc 1 486 0
 1039 061a 7B68     		ldr	r3, [r7, #4]
 1040 061c 1B68     		ldr	r3, [r3]
 1041 061e 1846     		mov	r0, r3
 1042 0620 FFF7FEFF 		bl	USB_ReadInterrupts
 1043 0624 0346     		mov	r3, r0
 1044 0626 03F00053 		and	r3, r3, #536870912
 1045 062a 002B     		cmp	r3, #0
 1046 062c 1AD0     		beq	.L47
 487:../STM32F2xx_HAL_Driver/Src/stm32f2xx_hal_hcd.c ****     {
 488:../STM32F2xx_HAL_Driver/Src/stm32f2xx_hal_hcd.c ****       
 489:../STM32F2xx_HAL_Driver/Src/stm32f2xx_hal_hcd.c ****       /* Cleanup HPRT */
 490:../STM32F2xx_HAL_Driver/Src/stm32f2xx_hal_hcd.c ****       USBx_HPRT0 &= ~(USB_OTG_HPRT_PENA | USB_OTG_HPRT_PCDET |\
 1047              		.loc 1 490 0
 1048 062e 3B69     		ldr	r3, [r7, #16]
 1049 0630 03F58863 		add	r3, r3, #1088
 1050 0634 3A69     		ldr	r2, [r7, #16]
 1051 0636 02F58862 		add	r2, r2, #1088
 1052 063a 1268     		ldr	r2, [r2]
 1053 063c 22F02E02 		bic	r2, r2, #46
 1054 0640 1A60     		str	r2, [r3]
 491:../STM32F2xx_HAL_Driver/Src/stm32f2xx_hal_hcd.c ****         USB_OTG_HPRT_PENCHNG | USB_OTG_HPRT_POCCHNG );
 492:../STM32F2xx_HAL_Driver/Src/stm32f2xx_hal_hcd.c ****        
 493:../STM32F2xx_HAL_Driver/Src/stm32f2xx_hal_hcd.c ****       /* Handle Host Port Interrupts */
 494:../STM32F2xx_HAL_Driver/Src/stm32f2xx_hal_hcd.c ****       HAL_HCD_Disconnect_Callback(hhcd);
 1055              		.loc 1 494 0
 1056 0642 7868     		ldr	r0, [r7, #4]
 1057 0644 FFF7FEFF 		bl	HAL_HCD_Disconnect_Callback
 495:../STM32F2xx_HAL_Driver/Src/stm32f2xx_hal_hcd.c ****        USB_InitFSLSPClkSel(hhcd->Instance ,HCFG_48_MHZ );
 1058              		.loc 1 495 0
 1059 0648 7B68     		ldr	r3, [r7, #4]
 1060 064a 1B68     		ldr	r3, [r3]
 1061 064c 1846     		mov	r0, r3
 1062 064e 0121     		movs	r1, #1
 1063 0650 FFF7FEFF 		bl	USB_InitFSLSPClkSel
 496:../STM32F2xx_HAL_Driver/Src/stm32f2xx_hal_hcd.c ****       __HAL_HCD_CLEAR_FLAG(hhcd, USB_OTG_GINTSTS_DISCINT);
 1064              		.loc 1 496 0
 1065 0654 7B68     		ldr	r3, [r7, #4]
 1066 0656 1B68     		ldr	r3, [r3]
 1067 0658 7A68     		ldr	r2, [r7, #4]
 1068 065a 1268     		ldr	r2, [r2]
 1069 065c 5269     		ldr	r2, [r2, #20]
 1070 065e 42F00052 		orr	r2, r2, #536870912
 1071 0662 5A61     		str	r2, [r3, #20]
 1072              	.L47:
 497:../STM32F2xx_HAL_Driver/Src/stm32f2xx_hal_hcd.c ****     }
 498:../STM32F2xx_HAL_Driver/Src/stm32f2xx_hal_hcd.c ****     
 499:../STM32F2xx_HAL_Driver/Src/stm32f2xx_hal_hcd.c ****     /* Handle Host Port Interrupts */
 500:../STM32F2xx_HAL_Driver/Src/stm32f2xx_hal_hcd.c ****     if(__HAL_HCD_GET_FLAG(hhcd, USB_OTG_GINTSTS_HPRTINT))
 1073              		.loc 1 500 0
 1074 0664 7B68     		ldr	r3, [r7, #4]
 1075 0666 1B68     		ldr	r3, [r3]
 1076 0668 1846     		mov	r0, r3
 1077 066a FFF7FEFF 		bl	USB_ReadInterrupts
 1078 066e 0346     		mov	r3, r0
 1079 0670 03F08073 		and	r3, r3, #16777216
 1080 0674 002B     		cmp	r3, #0
 1081 0676 02D0     		beq	.L48
 501:../STM32F2xx_HAL_Driver/Src/stm32f2xx_hal_hcd.c ****     {
 502:../STM32F2xx_HAL_Driver/Src/stm32f2xx_hal_hcd.c ****       HCD_Port_IRQHandler (hhcd);
 1082              		.loc 1 502 0
 1083 0678 7868     		ldr	r0, [r7, #4]
 1084 067a 01F07FF8 		bl	HCD_Port_IRQHandler
 1085              	.L48:
 503:../STM32F2xx_HAL_Driver/Src/stm32f2xx_hal_hcd.c ****     }
 504:../STM32F2xx_HAL_Driver/Src/stm32f2xx_hal_hcd.c ****     
 505:../STM32F2xx_HAL_Driver/Src/stm32f2xx_hal_hcd.c ****     /* Handle Host SOF Interrupts */
 506:../STM32F2xx_HAL_Driver/Src/stm32f2xx_hal_hcd.c ****     if(__HAL_HCD_GET_FLAG(hhcd, USB_OTG_GINTSTS_SOF))
 1086              		.loc 1 506 0
 1087 067e 7B68     		ldr	r3, [r7, #4]
 1088 0680 1B68     		ldr	r3, [r3]
 1089 0682 1846     		mov	r0, r3
 1090 0684 FFF7FEFF 		bl	USB_ReadInterrupts
 1091 0688 0346     		mov	r3, r0
 1092 068a 03F00803 		and	r3, r3, #8
 1093 068e 002B     		cmp	r3, #0
 1094 0690 0AD0     		beq	.L49
 507:../STM32F2xx_HAL_Driver/Src/stm32f2xx_hal_hcd.c ****     {
 508:../STM32F2xx_HAL_Driver/Src/stm32f2xx_hal_hcd.c ****       HAL_HCD_SOF_Callback(hhcd);
 1095              		.loc 1 508 0
 1096 0692 7868     		ldr	r0, [r7, #4]
 1097 0694 FFF7FEFF 		bl	HAL_HCD_SOF_Callback
 509:../STM32F2xx_HAL_Driver/Src/stm32f2xx_hal_hcd.c ****       __HAL_HCD_CLEAR_FLAG(hhcd, USB_OTG_GINTSTS_SOF);
 1098              		.loc 1 509 0
 1099 0698 7B68     		ldr	r3, [r7, #4]
 1100 069a 1B68     		ldr	r3, [r3]
 1101 069c 7A68     		ldr	r2, [r7, #4]
 1102 069e 1268     		ldr	r2, [r2]
 1103 06a0 5269     		ldr	r2, [r2, #20]
 1104 06a2 42F00802 		orr	r2, r2, #8
 1105 06a6 5A61     		str	r2, [r3, #20]
 1106              	.L49:
 510:../STM32F2xx_HAL_Driver/Src/stm32f2xx_hal_hcd.c ****     }
 511:../STM32F2xx_HAL_Driver/Src/stm32f2xx_hal_hcd.c ****           
 512:../STM32F2xx_HAL_Driver/Src/stm32f2xx_hal_hcd.c ****     /* Handle Host channel Interrupts */
 513:../STM32F2xx_HAL_Driver/Src/stm32f2xx_hal_hcd.c ****     if(__HAL_HCD_GET_FLAG(hhcd, USB_OTG_GINTSTS_HCINT))
 1107              		.loc 1 513 0
 1108 06a8 7B68     		ldr	r3, [r7, #4]
 1109 06aa 1B68     		ldr	r3, [r3]
 1110 06ac 1846     		mov	r0, r3
 1111 06ae FFF7FEFF 		bl	USB_ReadInterrupts
 1112 06b2 0346     		mov	r3, r0
 1113 06b4 03F00073 		and	r3, r3, #33554432
 1114 06b8 002B     		cmp	r3, #0
 1115 06ba 39D0     		beq	.L50
 514:../STM32F2xx_HAL_Driver/Src/stm32f2xx_hal_hcd.c ****     {
 515:../STM32F2xx_HAL_Driver/Src/stm32f2xx_hal_hcd.c ****       
 516:../STM32F2xx_HAL_Driver/Src/stm32f2xx_hal_hcd.c ****       interrupt = USB_HC_ReadInterrupt(hhcd->Instance);
 1116              		.loc 1 516 0
 1117 06bc 7B68     		ldr	r3, [r7, #4]
 1118 06be 1B68     		ldr	r3, [r3]
 1119 06c0 1846     		mov	r0, r3
 1120 06c2 FFF7FEFF 		bl	USB_HC_ReadInterrupt
 1121 06c6 F860     		str	r0, [r7, #12]
 517:../STM32F2xx_HAL_Driver/Src/stm32f2xx_hal_hcd.c ****       for (i = 0; i < hhcd->Init.Host_channels ; i++)
 1122              		.loc 1 517 0
 1123 06c8 0023     		movs	r3, #0
 1124 06ca 7B61     		str	r3, [r7, #20]
 1125 06cc 23E0     		b	.L51
 1126              	.L54:
 518:../STM32F2xx_HAL_Driver/Src/stm32f2xx_hal_hcd.c ****       {
 519:../STM32F2xx_HAL_Driver/Src/stm32f2xx_hal_hcd.c ****         if (interrupt & (1 << i))
 1127              		.loc 1 519 0
 1128 06ce 7B69     		ldr	r3, [r7, #20]
 1129 06d0 0122     		movs	r2, #1
 1130 06d2 02FA03F3 		lsl	r3, r2, r3
 1131 06d6 1A46     		mov	r2, r3
 1132 06d8 FB68     		ldr	r3, [r7, #12]
 1133 06da 1340     		ands	r3, r3, r2
 1134 06dc 002B     		cmp	r3, #0
 1135 06de 17D0     		beq	.L52
 520:../STM32F2xx_HAL_Driver/Src/stm32f2xx_hal_hcd.c ****         {
 521:../STM32F2xx_HAL_Driver/Src/stm32f2xx_hal_hcd.c ****           if ((USBx_HC(i)->HCCHAR) &  USB_OTG_HCCHAR_EPDIR)
 1136              		.loc 1 521 0
 1137 06e0 7B69     		ldr	r3, [r7, #20]
 1138 06e2 5A01     		lsls	r2, r3, #5
 1139 06e4 3B69     		ldr	r3, [r7, #16]
 1140 06e6 1344     		add	r3, r3, r2
 1141 06e8 03F5A063 		add	r3, r3, #1280
 1142 06ec 1B68     		ldr	r3, [r3]
 1143 06ee 03F40043 		and	r3, r3, #32768
 1144 06f2 002B     		cmp	r3, #0
 1145 06f4 06D0     		beq	.L53
 522:../STM32F2xx_HAL_Driver/Src/stm32f2xx_hal_hcd.c ****           {
 523:../STM32F2xx_HAL_Driver/Src/stm32f2xx_hal_hcd.c ****             HCD_HC_IN_IRQHandler (hhcd, i);
 1146              		.loc 1 523 0
 1147 06f6 7B69     		ldr	r3, [r7, #20]
 1148 06f8 DBB2     		uxtb	r3, r3
 1149 06fa 7868     		ldr	r0, [r7, #4]
 1150 06fc 1946     		mov	r1, r3
 1151 06fe 00F01FF9 		bl	HCD_HC_IN_IRQHandler
 1152 0702 05E0     		b	.L52
 1153              	.L53:
 524:../STM32F2xx_HAL_Driver/Src/stm32f2xx_hal_hcd.c ****           }
 525:../STM32F2xx_HAL_Driver/Src/stm32f2xx_hal_hcd.c ****           else
 526:../STM32F2xx_HAL_Driver/Src/stm32f2xx_hal_hcd.c ****           {
 527:../STM32F2xx_HAL_Driver/Src/stm32f2xx_hal_hcd.c ****             HCD_HC_OUT_IRQHandler (hhcd, i);
 1154              		.loc 1 527 0
 1155 0704 7B69     		ldr	r3, [r7, #20]
 1156 0706 DBB2     		uxtb	r3, r3
 1157 0708 7868     		ldr	r0, [r7, #4]
 1158 070a 1946     		mov	r1, r3
 1159 070c 00F052FC 		bl	HCD_HC_OUT_IRQHandler
 1160              	.L52:
 517:../STM32F2xx_HAL_Driver/Src/stm32f2xx_hal_hcd.c ****       {
 1161              		.loc 1 517 0
 1162 0710 7B69     		ldr	r3, [r7, #20]
 1163 0712 0133     		adds	r3, r3, #1
 1164 0714 7B61     		str	r3, [r7, #20]
 1165              	.L51:
 517:../STM32F2xx_HAL_Driver/Src/stm32f2xx_hal_hcd.c ****       {
 1166              		.loc 1 517 0 is_stmt 0 discriminator 1
 1167 0716 7B68     		ldr	r3, [r7, #4]
 1168 0718 9A68     		ldr	r2, [r3, #8]
 1169 071a 7B69     		ldr	r3, [r7, #20]
 1170 071c 9A42     		cmp	r2, r3
 1171 071e D6D8     		bhi	.L54
 528:../STM32F2xx_HAL_Driver/Src/stm32f2xx_hal_hcd.c ****           }
 529:../STM32F2xx_HAL_Driver/Src/stm32f2xx_hal_hcd.c ****         }
 530:../STM32F2xx_HAL_Driver/Src/stm32f2xx_hal_hcd.c ****       }
 531:../STM32F2xx_HAL_Driver/Src/stm32f2xx_hal_hcd.c ****       __HAL_HCD_CLEAR_FLAG(hhcd, USB_OTG_GINTSTS_HCINT);
 1172              		.loc 1 531 0 is_stmt 1
 1173 0720 7B68     		ldr	r3, [r7, #4]
 1174 0722 1B68     		ldr	r3, [r3]
 1175 0724 7A68     		ldr	r2, [r7, #4]
 1176 0726 1268     		ldr	r2, [r2]
 1177 0728 5269     		ldr	r2, [r2, #20]
 1178 072a 42F00072 		orr	r2, r2, #33554432
 1179 072e 5A61     		str	r2, [r3, #20]
 1180              	.L50:
 532:../STM32F2xx_HAL_Driver/Src/stm32f2xx_hal_hcd.c ****     } 
 533:../STM32F2xx_HAL_Driver/Src/stm32f2xx_hal_hcd.c ****     
 534:../STM32F2xx_HAL_Driver/Src/stm32f2xx_hal_hcd.c ****         /* Handle Rx Queue Level Interrupts */
 535:../STM32F2xx_HAL_Driver/Src/stm32f2xx_hal_hcd.c ****     if(__HAL_HCD_GET_FLAG(hhcd, USB_OTG_GINTSTS_RXFLVL))
 1181              		.loc 1 535 0
 1182 0730 7B68     		ldr	r3, [r7, #4]
 1183 0732 1B68     		ldr	r3, [r3]
 1184 0734 1846     		mov	r0, r3
 1185 0736 FFF7FEFF 		bl	USB_ReadInterrupts
 1186 073a 0346     		mov	r3, r0
 1187 073c 03F01003 		and	r3, r3, #16
 1188 0740 002B     		cmp	r3, #0
 1189 0742 12D0     		beq	.L40
 536:../STM32F2xx_HAL_Driver/Src/stm32f2xx_hal_hcd.c ****     {
 537:../STM32F2xx_HAL_Driver/Src/stm32f2xx_hal_hcd.c ****       USB_MASK_INTERRUPT(hhcd->Instance, USB_OTG_GINTSTS_RXFLVL);
 1190              		.loc 1 537 0
 1191 0744 7B68     		ldr	r3, [r7, #4]
 1192 0746 1B68     		ldr	r3, [r3]
 1193 0748 7A68     		ldr	r2, [r7, #4]
 1194 074a 1268     		ldr	r2, [r2]
 1195 074c 9269     		ldr	r2, [r2, #24]
 1196 074e 22F01002 		bic	r2, r2, #16
 1197 0752 9A61     		str	r2, [r3, #24]
 538:../STM32F2xx_HAL_Driver/Src/stm32f2xx_hal_hcd.c ****       
 539:../STM32F2xx_HAL_Driver/Src/stm32f2xx_hal_hcd.c ****       HCD_RXQLVL_IRQHandler (hhcd);
 1198              		.loc 1 539 0
 1199 0754 7868     		ldr	r0, [r7, #4]
 1200 0756 00F059FF 		bl	HCD_RXQLVL_IRQHandler
 540:../STM32F2xx_HAL_Driver/Src/stm32f2xx_hal_hcd.c ****       
 541:../STM32F2xx_HAL_Driver/Src/stm32f2xx_hal_hcd.c ****       USB_UNMASK_INTERRUPT(hhcd->Instance, USB_OTG_GINTSTS_RXFLVL);
 1201              		.loc 1 541 0
 1202 075a 7B68     		ldr	r3, [r7, #4]
 1203 075c 1B68     		ldr	r3, [r3]
 1204 075e 7A68     		ldr	r2, [r7, #4]
 1205 0760 1268     		ldr	r2, [r2]
 1206 0762 9269     		ldr	r2, [r2, #24]
 1207 0764 42F01002 		orr	r2, r2, #16
 1208 0768 9A61     		str	r2, [r3, #24]
 1209              	.L40:
 542:../STM32F2xx_HAL_Driver/Src/stm32f2xx_hal_hcd.c ****     }
 543:../STM32F2xx_HAL_Driver/Src/stm32f2xx_hal_hcd.c ****     
 544:../STM32F2xx_HAL_Driver/Src/stm32f2xx_hal_hcd.c ****   }
 545:../STM32F2xx_HAL_Driver/Src/stm32f2xx_hal_hcd.c **** }
 1210              		.loc 1 545 0
 1211 076a 1837     		adds	r7, r7, #24
 1212 076c BD46     		mov	sp, r7
 1213              		@ sp needed
 1214 076e 80BD     		pop	{r7, pc}
 1215              		.cfi_endproc
 1216              	.LFE62:
 1218              		.align	2
 1219              		.weak	HAL_HCD_SOF_Callback
 1220              		.thumb
 1221              		.thumb_func
 1223              	HAL_HCD_SOF_Callback:
 1224              	.LFB63:
 546:../STM32F2xx_HAL_Driver/Src/stm32f2xx_hal_hcd.c **** 
 547:../STM32F2xx_HAL_Driver/Src/stm32f2xx_hal_hcd.c **** /**
 548:../STM32F2xx_HAL_Driver/Src/stm32f2xx_hal_hcd.c ****   * @brief  SOF callback.
 549:../STM32F2xx_HAL_Driver/Src/stm32f2xx_hal_hcd.c ****   * @param  hhcd: HCD handle
 550:../STM32F2xx_HAL_Driver/Src/stm32f2xx_hal_hcd.c ****   * @retval None
 551:../STM32F2xx_HAL_Driver/Src/stm32f2xx_hal_hcd.c ****   */
 552:../STM32F2xx_HAL_Driver/Src/stm32f2xx_hal_hcd.c **** __weak void HAL_HCD_SOF_Callback(HCD_HandleTypeDef *hhcd)
 553:../STM32F2xx_HAL_Driver/Src/stm32f2xx_hal_hcd.c **** {
 1225              		.loc 1 553 0
 1226              		.cfi_startproc
 1227              		@ args = 0, pretend = 0, frame = 8
 1228              		@ frame_needed = 1, uses_anonymous_args = 0
 1229              		@ link register save eliminated.
 1230 0770 80B4     		push	{r7}
 1231              		.cfi_def_cfa_offset 4
 1232              		.cfi_offset 7, -4
 1233 0772 83B0     		sub	sp, sp, #12
 1234              		.cfi_def_cfa_offset 16
 1235 0774 00AF     		add	r7, sp, #0
 1236              		.cfi_def_cfa_register 7
 1237 0776 7860     		str	r0, [r7, #4]
 554:../STM32F2xx_HAL_Driver/Src/stm32f2xx_hal_hcd.c ****   /* NOTE : This function Should not be modified, when the callback is needed,
 555:../STM32F2xx_HAL_Driver/Src/stm32f2xx_hal_hcd.c ****             the HAL_HCD_SOF_Callback could be implenetd in the user file
 556:../STM32F2xx_HAL_Driver/Src/stm32f2xx_hal_hcd.c ****    */
 557:../STM32F2xx_HAL_Driver/Src/stm32f2xx_hal_hcd.c **** }
 1238              		.loc 1 557 0
 1239 0778 0C37     		adds	r7, r7, #12
 1240 077a BD46     		mov	sp, r7
 1241              		@ sp needed
 1242 077c 5DF8047B 		ldr	r7, [sp], #4
 1243 0780 7047     		bx	lr
 1244              		.cfi_endproc
 1245              	.LFE63:
 1247 0782 00BF     		.align	2
 1248              		.weak	HAL_HCD_Connect_Callback
 1249              		.thumb
 1250              		.thumb_func
 1252              	HAL_HCD_Connect_Callback:
 1253              	.LFB64:
 558:../STM32F2xx_HAL_Driver/Src/stm32f2xx_hal_hcd.c **** 
 559:../STM32F2xx_HAL_Driver/Src/stm32f2xx_hal_hcd.c **** /**
 560:../STM32F2xx_HAL_Driver/Src/stm32f2xx_hal_hcd.c ****   * @brief Connexion Event callback.
 561:../STM32F2xx_HAL_Driver/Src/stm32f2xx_hal_hcd.c ****   * @param  hhcd: HCD handle
 562:../STM32F2xx_HAL_Driver/Src/stm32f2xx_hal_hcd.c ****   * @retval None
 563:../STM32F2xx_HAL_Driver/Src/stm32f2xx_hal_hcd.c ****   */
 564:../STM32F2xx_HAL_Driver/Src/stm32f2xx_hal_hcd.c **** __weak void HAL_HCD_Connect_Callback(HCD_HandleTypeDef *hhcd)
 565:../STM32F2xx_HAL_Driver/Src/stm32f2xx_hal_hcd.c **** {
 1254              		.loc 1 565 0
 1255              		.cfi_startproc
 1256              		@ args = 0, pretend = 0, frame = 8
 1257              		@ frame_needed = 1, uses_anonymous_args = 0
 1258              		@ link register save eliminated.
 1259 0784 80B4     		push	{r7}
 1260              		.cfi_def_cfa_offset 4
 1261              		.cfi_offset 7, -4
 1262 0786 83B0     		sub	sp, sp, #12
 1263              		.cfi_def_cfa_offset 16
 1264 0788 00AF     		add	r7, sp, #0
 1265              		.cfi_def_cfa_register 7
 1266 078a 7860     		str	r0, [r7, #4]
 566:../STM32F2xx_HAL_Driver/Src/stm32f2xx_hal_hcd.c ****   /* NOTE : This function Should not be modified, when the callback is needed,
 567:../STM32F2xx_HAL_Driver/Src/stm32f2xx_hal_hcd.c ****             the HAL_HCD_Connect_Callback could be implenetd in the user file
 568:../STM32F2xx_HAL_Driver/Src/stm32f2xx_hal_hcd.c ****    */
 569:../STM32F2xx_HAL_Driver/Src/stm32f2xx_hal_hcd.c **** }
 1267              		.loc 1 569 0
 1268 078c 0C37     		adds	r7, r7, #12
 1269 078e BD46     		mov	sp, r7
 1270              		@ sp needed
 1271 0790 5DF8047B 		ldr	r7, [sp], #4
 1272 0794 7047     		bx	lr
 1273              		.cfi_endproc
 1274              	.LFE64:
 1276 0796 00BF     		.align	2
 1277              		.weak	HAL_HCD_Disconnect_Callback
 1278              		.thumb
 1279              		.thumb_func
 1281              	HAL_HCD_Disconnect_Callback:
 1282              	.LFB65:
 570:../STM32F2xx_HAL_Driver/Src/stm32f2xx_hal_hcd.c **** 
 571:../STM32F2xx_HAL_Driver/Src/stm32f2xx_hal_hcd.c **** /**
 572:../STM32F2xx_HAL_Driver/Src/stm32f2xx_hal_hcd.c ****   * @brief  Disonnexion Event callback.
 573:../STM32F2xx_HAL_Driver/Src/stm32f2xx_hal_hcd.c ****   * @param  hhcd: HCD handle
 574:../STM32F2xx_HAL_Driver/Src/stm32f2xx_hal_hcd.c ****   * @retval None
 575:../STM32F2xx_HAL_Driver/Src/stm32f2xx_hal_hcd.c ****   */
 576:../STM32F2xx_HAL_Driver/Src/stm32f2xx_hal_hcd.c **** __weak void HAL_HCD_Disconnect_Callback(HCD_HandleTypeDef *hhcd)
 577:../STM32F2xx_HAL_Driver/Src/stm32f2xx_hal_hcd.c **** {
 1283              		.loc 1 577 0
 1284              		.cfi_startproc
 1285              		@ args = 0, pretend = 0, frame = 8
 1286              		@ frame_needed = 1, uses_anonymous_args = 0
 1287              		@ link register save eliminated.
 1288 0798 80B4     		push	{r7}
 1289              		.cfi_def_cfa_offset 4
 1290              		.cfi_offset 7, -4
 1291 079a 83B0     		sub	sp, sp, #12
 1292              		.cfi_def_cfa_offset 16
 1293 079c 00AF     		add	r7, sp, #0
 1294              		.cfi_def_cfa_register 7
 1295 079e 7860     		str	r0, [r7, #4]
 578:../STM32F2xx_HAL_Driver/Src/stm32f2xx_hal_hcd.c ****   /* NOTE : This function Should not be modified, when the callback is needed,
 579:../STM32F2xx_HAL_Driver/Src/stm32f2xx_hal_hcd.c ****             the HAL_HCD_Disconnect_Callback could be implenetd in the user file
 580:../STM32F2xx_HAL_Driver/Src/stm32f2xx_hal_hcd.c ****    */
 581:../STM32F2xx_HAL_Driver/Src/stm32f2xx_hal_hcd.c **** } 
 1296              		.loc 1 581 0
 1297 07a0 0C37     		adds	r7, r7, #12
 1298 07a2 BD46     		mov	sp, r7
 1299              		@ sp needed
 1300 07a4 5DF8047B 		ldr	r7, [sp], #4
 1301 07a8 7047     		bx	lr
 1302              		.cfi_endproc
 1303              	.LFE65:
 1305 07aa 00BF     		.align	2
 1306              		.weak	HAL_HCD_HC_NotifyURBChange_Callback
 1307              		.thumb
 1308              		.thumb_func
 1310              	HAL_HCD_HC_NotifyURBChange_Callback:
 1311              	.LFB66:
 582:../STM32F2xx_HAL_Driver/Src/stm32f2xx_hal_hcd.c **** 
 583:../STM32F2xx_HAL_Driver/Src/stm32f2xx_hal_hcd.c **** /**
 584:../STM32F2xx_HAL_Driver/Src/stm32f2xx_hal_hcd.c ****   * @brief  Notify URB state change callback.
 585:../STM32F2xx_HAL_Driver/Src/stm32f2xx_hal_hcd.c ****   * @param  hhcd: HCD handle
 586:../STM32F2xx_HAL_Driver/Src/stm32f2xx_hal_hcd.c ****   * @param  chnum : Channel number
 587:../STM32F2xx_HAL_Driver/Src/stm32f2xx_hal_hcd.c ****   *         This parameter can be a value from 1 to 15
 588:../STM32F2xx_HAL_Driver/Src/stm32f2xx_hal_hcd.c ****   * @param  urb_state:
 589:../STM32F2xx_HAL_Driver/Src/stm32f2xx_hal_hcd.c ****   *          This parameter can be one of the these values:
 590:../STM32F2xx_HAL_Driver/Src/stm32f2xx_hal_hcd.c ****   *            @arg URB_IDLE
 591:../STM32F2xx_HAL_Driver/Src/stm32f2xx_hal_hcd.c ****   *            @arg URB_DONE
 592:../STM32F2xx_HAL_Driver/Src/stm32f2xx_hal_hcd.c ****   *            @arg URB_NOTREADY
 593:../STM32F2xx_HAL_Driver/Src/stm32f2xx_hal_hcd.c ****   *            @arg URB_NYET 
 594:../STM32F2xx_HAL_Driver/Src/stm32f2xx_hal_hcd.c ****   *            @arg URB_ERROR  
 595:../STM32F2xx_HAL_Driver/Src/stm32f2xx_hal_hcd.c ****   *            @arg URB_STALL    
 596:../STM32F2xx_HAL_Driver/Src/stm32f2xx_hal_hcd.c ****   * @retval None
 597:../STM32F2xx_HAL_Driver/Src/stm32f2xx_hal_hcd.c ****   */
 598:../STM32F2xx_HAL_Driver/Src/stm32f2xx_hal_hcd.c **** __weak void HAL_HCD_HC_NotifyURBChange_Callback(HCD_HandleTypeDef *hhcd, uint8_t chnum, HCD_URBStat
 599:../STM32F2xx_HAL_Driver/Src/stm32f2xx_hal_hcd.c **** {
 1312              		.loc 1 599 0
 1313              		.cfi_startproc
 1314              		@ args = 0, pretend = 0, frame = 8
 1315              		@ frame_needed = 1, uses_anonymous_args = 0
 1316              		@ link register save eliminated.
 1317 07ac 80B4     		push	{r7}
 1318              		.cfi_def_cfa_offset 4
 1319              		.cfi_offset 7, -4
 1320 07ae 83B0     		sub	sp, sp, #12
 1321              		.cfi_def_cfa_offset 16
 1322 07b0 00AF     		add	r7, sp, #0
 1323              		.cfi_def_cfa_register 7
 1324 07b2 7860     		str	r0, [r7, #4]
 1325 07b4 1346     		mov	r3, r2
 1326 07b6 0A46     		mov	r2, r1
 1327 07b8 FA70     		strb	r2, [r7, #3]
 1328 07ba BB70     		strb	r3, [r7, #2]
 600:../STM32F2xx_HAL_Driver/Src/stm32f2xx_hal_hcd.c ****   /* NOTE : This function Should not be modified, when the callback is needed,
 601:../STM32F2xx_HAL_Driver/Src/stm32f2xx_hal_hcd.c ****             the HAL_HCD_HC_NotifyURBChange_Callback could be implenetd in the user file
 602:../STM32F2xx_HAL_Driver/Src/stm32f2xx_hal_hcd.c ****    */
 603:../STM32F2xx_HAL_Driver/Src/stm32f2xx_hal_hcd.c **** }
 1329              		.loc 1 603 0
 1330 07bc 0C37     		adds	r7, r7, #12
 1331 07be BD46     		mov	sp, r7
 1332              		@ sp needed
 1333 07c0 5DF8047B 		ldr	r7, [sp], #4
 1334 07c4 7047     		bx	lr
 1335              		.cfi_endproc
 1336              	.LFE66:
 1338 07c6 00BF     		.align	2
 1339              		.global	HAL_HCD_Start
 1340              		.thumb
 1341              		.thumb_func
 1343              	HAL_HCD_Start:
 1344              	.LFB67:
 604:../STM32F2xx_HAL_Driver/Src/stm32f2xx_hal_hcd.c **** 
 605:../STM32F2xx_HAL_Driver/Src/stm32f2xx_hal_hcd.c **** /**
 606:../STM32F2xx_HAL_Driver/Src/stm32f2xx_hal_hcd.c ****   * @}
 607:../STM32F2xx_HAL_Driver/Src/stm32f2xx_hal_hcd.c ****   */
 608:../STM32F2xx_HAL_Driver/Src/stm32f2xx_hal_hcd.c **** 
 609:../STM32F2xx_HAL_Driver/Src/stm32f2xx_hal_hcd.c **** /** @defgroup HCD_Group3 Peripheral Control functions 
 610:../STM32F2xx_HAL_Driver/Src/stm32f2xx_hal_hcd.c ****  *  @brief   management functions 
 611:../STM32F2xx_HAL_Driver/Src/stm32f2xx_hal_hcd.c ****  *
 612:../STM32F2xx_HAL_Driver/Src/stm32f2xx_hal_hcd.c **** @verbatim   
 613:../STM32F2xx_HAL_Driver/Src/stm32f2xx_hal_hcd.c ****  ===============================================================================
 614:../STM32F2xx_HAL_Driver/Src/stm32f2xx_hal_hcd.c ****                       ##### Peripheral Control functions #####
 615:../STM32F2xx_HAL_Driver/Src/stm32f2xx_hal_hcd.c ****  ===============================================================================  
 616:../STM32F2xx_HAL_Driver/Src/stm32f2xx_hal_hcd.c ****     [..]
 617:../STM32F2xx_HAL_Driver/Src/stm32f2xx_hal_hcd.c ****     This subsection provides a set of functions allowing to control the HCD data 
 618:../STM32F2xx_HAL_Driver/Src/stm32f2xx_hal_hcd.c ****     transfers.
 619:../STM32F2xx_HAL_Driver/Src/stm32f2xx_hal_hcd.c **** 
 620:../STM32F2xx_HAL_Driver/Src/stm32f2xx_hal_hcd.c **** @endverbatim
 621:../STM32F2xx_HAL_Driver/Src/stm32f2xx_hal_hcd.c ****   * @{
 622:../STM32F2xx_HAL_Driver/Src/stm32f2xx_hal_hcd.c ****   */
 623:../STM32F2xx_HAL_Driver/Src/stm32f2xx_hal_hcd.c **** 
 624:../STM32F2xx_HAL_Driver/Src/stm32f2xx_hal_hcd.c **** /**
 625:../STM32F2xx_HAL_Driver/Src/stm32f2xx_hal_hcd.c ****   * @brief  Start the host driver
 626:../STM32F2xx_HAL_Driver/Src/stm32f2xx_hal_hcd.c ****   * @param  hhcd : HCD handle
 627:../STM32F2xx_HAL_Driver/Src/stm32f2xx_hal_hcd.c ****   * @retval HAL state
 628:../STM32F2xx_HAL_Driver/Src/stm32f2xx_hal_hcd.c ****   */
 629:../STM32F2xx_HAL_Driver/Src/stm32f2xx_hal_hcd.c **** HAL_StatusTypeDef HAL_HCD_Start(HCD_HandleTypeDef *hhcd)
 630:../STM32F2xx_HAL_Driver/Src/stm32f2xx_hal_hcd.c **** { 
 1345              		.loc 1 630 0
 1346              		.cfi_startproc
 1347              		@ args = 0, pretend = 0, frame = 8
 1348              		@ frame_needed = 1, uses_anonymous_args = 0
 1349 07c8 80B5     		push	{r7, lr}
 1350              		.cfi_def_cfa_offset 8
 1351              		.cfi_offset 7, -8
 1352              		.cfi_offset 14, -4
 1353 07ca 82B0     		sub	sp, sp, #8
 1354              		.cfi_def_cfa_offset 16
 1355 07cc 00AF     		add	r7, sp, #0
 1356              		.cfi_def_cfa_register 7
 1357 07ce 7860     		str	r0, [r7, #4]
 631:../STM32F2xx_HAL_Driver/Src/stm32f2xx_hal_hcd.c ****   __HAL_LOCK(hhcd); 
 1358              		.loc 1 631 0
 1359 07d0 7B68     		ldr	r3, [r7, #4]
 1360 07d2 93F88832 		ldrb	r3, [r3, #648]	@ zero_extendqisi2
 1361 07d6 012B     		cmp	r3, #1
 1362 07d8 01D1     		bne	.L60
 1363              		.loc 1 631 0 is_stmt 0 discriminator 1
 1364 07da 0223     		movs	r3, #2
 1365 07dc 13E0     		b	.L61
 1366              	.L60:
 1367              		.loc 1 631 0 discriminator 2
 1368 07de 7B68     		ldr	r3, [r7, #4]
 1369 07e0 0122     		movs	r2, #1
 1370 07e2 83F88822 		strb	r2, [r3, #648]
 632:../STM32F2xx_HAL_Driver/Src/stm32f2xx_hal_hcd.c ****   __HAL_HCD_ENABLE(hhcd);
 1371              		.loc 1 632 0 is_stmt 1 discriminator 2
 1372 07e6 7B68     		ldr	r3, [r7, #4]
 1373 07e8 1B68     		ldr	r3, [r3]
 1374 07ea 1846     		mov	r0, r3
 1375 07ec FFF7FEFF 		bl	USB_EnableGlobalInt
 633:../STM32F2xx_HAL_Driver/Src/stm32f2xx_hal_hcd.c ****   USB_DriveVbus(hhcd->Instance, 1);  
 1376              		.loc 1 633 0 discriminator 2
 1377 07f0 7B68     		ldr	r3, [r7, #4]
 1378 07f2 1B68     		ldr	r3, [r3]
 1379 07f4 1846     		mov	r0, r3
 1380 07f6 0121     		movs	r1, #1
 1381 07f8 FFF7FEFF 		bl	USB_DriveVbus
 634:../STM32F2xx_HAL_Driver/Src/stm32f2xx_hal_hcd.c ****   __HAL_UNLOCK(hhcd); 
 1382              		.loc 1 634 0 discriminator 2
 1383 07fc 7B68     		ldr	r3, [r7, #4]
 1384 07fe 0022     		movs	r2, #0
 1385 0800 83F88822 		strb	r2, [r3, #648]
 635:../STM32F2xx_HAL_Driver/Src/stm32f2xx_hal_hcd.c ****   return HAL_OK;
 1386              		.loc 1 635 0 discriminator 2
 1387 0804 0023     		movs	r3, #0
 1388              	.L61:
 636:../STM32F2xx_HAL_Driver/Src/stm32f2xx_hal_hcd.c **** }
 1389              		.loc 1 636 0
 1390 0806 1846     		mov	r0, r3
 1391 0808 0837     		adds	r7, r7, #8
 1392 080a BD46     		mov	sp, r7
 1393              		@ sp needed
 1394 080c 80BD     		pop	{r7, pc}
 1395              		.cfi_endproc
 1396              	.LFE67:
 1398 080e 00BF     		.align	2
 1399              		.global	HAL_HCD_Stop
 1400              		.thumb
 1401              		.thumb_func
 1403              	HAL_HCD_Stop:
 1404              	.LFB68:
 637:../STM32F2xx_HAL_Driver/Src/stm32f2xx_hal_hcd.c **** 
 638:../STM32F2xx_HAL_Driver/Src/stm32f2xx_hal_hcd.c **** /**
 639:../STM32F2xx_HAL_Driver/Src/stm32f2xx_hal_hcd.c ****   * @brief  Stop the host driver
 640:../STM32F2xx_HAL_Driver/Src/stm32f2xx_hal_hcd.c ****   * @param  hhcd : HCD handle
 641:../STM32F2xx_HAL_Driver/Src/stm32f2xx_hal_hcd.c ****   * @retval HAL state
 642:../STM32F2xx_HAL_Driver/Src/stm32f2xx_hal_hcd.c ****   */
 643:../STM32F2xx_HAL_Driver/Src/stm32f2xx_hal_hcd.c **** 
 644:../STM32F2xx_HAL_Driver/Src/stm32f2xx_hal_hcd.c **** HAL_StatusTypeDef HAL_HCD_Stop(HCD_HandleTypeDef *hhcd)
 645:../STM32F2xx_HAL_Driver/Src/stm32f2xx_hal_hcd.c **** { 
 1405              		.loc 1 645 0
 1406              		.cfi_startproc
 1407              		@ args = 0, pretend = 0, frame = 8
 1408              		@ frame_needed = 1, uses_anonymous_args = 0
 1409 0810 80B5     		push	{r7, lr}
 1410              		.cfi_def_cfa_offset 8
 1411              		.cfi_offset 7, -8
 1412              		.cfi_offset 14, -4
 1413 0812 82B0     		sub	sp, sp, #8
 1414              		.cfi_def_cfa_offset 16
 1415 0814 00AF     		add	r7, sp, #0
 1416              		.cfi_def_cfa_register 7
 1417 0816 7860     		str	r0, [r7, #4]
 646:../STM32F2xx_HAL_Driver/Src/stm32f2xx_hal_hcd.c ****   __HAL_LOCK(hhcd); 
 1418              		.loc 1 646 0
 1419 0818 7B68     		ldr	r3, [r7, #4]
 1420 081a 93F88832 		ldrb	r3, [r3, #648]	@ zero_extendqisi2
 1421 081e 012B     		cmp	r3, #1
 1422 0820 01D1     		bne	.L63
 1423              		.loc 1 646 0 is_stmt 0 discriminator 1
 1424 0822 0223     		movs	r3, #2
 1425 0824 0DE0     		b	.L64
 1426              	.L63:
 1427              		.loc 1 646 0 discriminator 2
 1428 0826 7B68     		ldr	r3, [r7, #4]
 1429 0828 0122     		movs	r2, #1
 1430 082a 83F88822 		strb	r2, [r3, #648]
 647:../STM32F2xx_HAL_Driver/Src/stm32f2xx_hal_hcd.c ****   USB_StopHost(hhcd->Instance);
 1431              		.loc 1 647 0 is_stmt 1 discriminator 2
 1432 082e 7B68     		ldr	r3, [r7, #4]
 1433 0830 1B68     		ldr	r3, [r3]
 1434 0832 1846     		mov	r0, r3
 1435 0834 FFF7FEFF 		bl	USB_StopHost
 648:../STM32F2xx_HAL_Driver/Src/stm32f2xx_hal_hcd.c ****   __HAL_UNLOCK(hhcd); 
 1436              		.loc 1 648 0 discriminator 2
 1437 0838 7B68     		ldr	r3, [r7, #4]
 1438 083a 0022     		movs	r2, #0
 1439 083c 83F88822 		strb	r2, [r3, #648]
 649:../STM32F2xx_HAL_Driver/Src/stm32f2xx_hal_hcd.c ****   return HAL_OK;
 1440              		.loc 1 649 0 discriminator 2
 1441 0840 0023     		movs	r3, #0
 1442              	.L64:
 650:../STM32F2xx_HAL_Driver/Src/stm32f2xx_hal_hcd.c **** }
 1443              		.loc 1 650 0
 1444 0842 1846     		mov	r0, r3
 1445 0844 0837     		adds	r7, r7, #8
 1446 0846 BD46     		mov	sp, r7
 1447              		@ sp needed
 1448 0848 80BD     		pop	{r7, pc}
 1449              		.cfi_endproc
 1450              	.LFE68:
 1452 084a 00BF     		.align	2
 1453              		.global	HAL_HCD_ResetPort
 1454              		.thumb
 1455              		.thumb_func
 1457              	HAL_HCD_ResetPort:
 1458              	.LFB69:
 651:../STM32F2xx_HAL_Driver/Src/stm32f2xx_hal_hcd.c **** 
 652:../STM32F2xx_HAL_Driver/Src/stm32f2xx_hal_hcd.c **** /**
 653:../STM32F2xx_HAL_Driver/Src/stm32f2xx_hal_hcd.c ****   * @brief  Reset the host port
 654:../STM32F2xx_HAL_Driver/Src/stm32f2xx_hal_hcd.c ****   * @param  hhcd : HCD handle
 655:../STM32F2xx_HAL_Driver/Src/stm32f2xx_hal_hcd.c ****   * @retval HAL state
 656:../STM32F2xx_HAL_Driver/Src/stm32f2xx_hal_hcd.c ****   */
 657:../STM32F2xx_HAL_Driver/Src/stm32f2xx_hal_hcd.c **** HAL_StatusTypeDef HAL_HCD_ResetPort(HCD_HandleTypeDef *hhcd)
 658:../STM32F2xx_HAL_Driver/Src/stm32f2xx_hal_hcd.c **** {
 1459              		.loc 1 658 0
 1460              		.cfi_startproc
 1461              		@ args = 0, pretend = 0, frame = 8
 1462              		@ frame_needed = 1, uses_anonymous_args = 0
 1463 084c 80B5     		push	{r7, lr}
 1464              		.cfi_def_cfa_offset 8
 1465              		.cfi_offset 7, -8
 1466              		.cfi_offset 14, -4
 1467 084e 82B0     		sub	sp, sp, #8
 1468              		.cfi_def_cfa_offset 16
 1469 0850 00AF     		add	r7, sp, #0
 1470              		.cfi_def_cfa_register 7
 1471 0852 7860     		str	r0, [r7, #4]
 659:../STM32F2xx_HAL_Driver/Src/stm32f2xx_hal_hcd.c ****   return (USB_ResetPort(hhcd->Instance));
 1472              		.loc 1 659 0
 1473 0854 7B68     		ldr	r3, [r7, #4]
 1474 0856 1B68     		ldr	r3, [r3]
 1475 0858 1846     		mov	r0, r3
 1476 085a FFF7FEFF 		bl	USB_ResetPort
 1477 085e 0346     		mov	r3, r0
 660:../STM32F2xx_HAL_Driver/Src/stm32f2xx_hal_hcd.c **** }
 1478              		.loc 1 660 0
 1479 0860 1846     		mov	r0, r3
 1480 0862 0837     		adds	r7, r7, #8
 1481 0864 BD46     		mov	sp, r7
 1482              		@ sp needed
 1483 0866 80BD     		pop	{r7, pc}
 1484              		.cfi_endproc
 1485              	.LFE69:
 1487              		.align	2
 1488              		.global	HAL_HCD_GetState
 1489              		.thumb
 1490              		.thumb_func
 1492              	HAL_HCD_GetState:
 1493              	.LFB70:
 661:../STM32F2xx_HAL_Driver/Src/stm32f2xx_hal_hcd.c **** 
 662:../STM32F2xx_HAL_Driver/Src/stm32f2xx_hal_hcd.c **** /**
 663:../STM32F2xx_HAL_Driver/Src/stm32f2xx_hal_hcd.c ****   * @}
 664:../STM32F2xx_HAL_Driver/Src/stm32f2xx_hal_hcd.c ****   */
 665:../STM32F2xx_HAL_Driver/Src/stm32f2xx_hal_hcd.c **** 
 666:../STM32F2xx_HAL_Driver/Src/stm32f2xx_hal_hcd.c **** /** @defgroup HCD_Group4 Peripheral State functions 
 667:../STM32F2xx_HAL_Driver/Src/stm32f2xx_hal_hcd.c ****  *  @brief   Peripheral State functions 
 668:../STM32F2xx_HAL_Driver/Src/stm32f2xx_hal_hcd.c ****  *
 669:../STM32F2xx_HAL_Driver/Src/stm32f2xx_hal_hcd.c **** @verbatim   
 670:../STM32F2xx_HAL_Driver/Src/stm32f2xx_hal_hcd.c ****  ===============================================================================
 671:../STM32F2xx_HAL_Driver/Src/stm32f2xx_hal_hcd.c ****                       ##### Peripheral State functions #####
 672:../STM32F2xx_HAL_Driver/Src/stm32f2xx_hal_hcd.c ****  ===============================================================================  
 673:../STM32F2xx_HAL_Driver/Src/stm32f2xx_hal_hcd.c ****     [..]
 674:../STM32F2xx_HAL_Driver/Src/stm32f2xx_hal_hcd.c ****     This subsection permit to get in run-time the status of the peripheral 
 675:../STM32F2xx_HAL_Driver/Src/stm32f2xx_hal_hcd.c ****     and the data flow.
 676:../STM32F2xx_HAL_Driver/Src/stm32f2xx_hal_hcd.c **** 
 677:../STM32F2xx_HAL_Driver/Src/stm32f2xx_hal_hcd.c **** @endverbatim
 678:../STM32F2xx_HAL_Driver/Src/stm32f2xx_hal_hcd.c ****   * @{
 679:../STM32F2xx_HAL_Driver/Src/stm32f2xx_hal_hcd.c ****   */
 680:../STM32F2xx_HAL_Driver/Src/stm32f2xx_hal_hcd.c **** 
 681:../STM32F2xx_HAL_Driver/Src/stm32f2xx_hal_hcd.c **** /**
 682:../STM32F2xx_HAL_Driver/Src/stm32f2xx_hal_hcd.c ****   * @brief  Return the HCD state
 683:../STM32F2xx_HAL_Driver/Src/stm32f2xx_hal_hcd.c ****   * @param  hhcd : HCD handle
 684:../STM32F2xx_HAL_Driver/Src/stm32f2xx_hal_hcd.c ****   * @retval HAL state
 685:../STM32F2xx_HAL_Driver/Src/stm32f2xx_hal_hcd.c ****   */
 686:../STM32F2xx_HAL_Driver/Src/stm32f2xx_hal_hcd.c **** HCD_StateTypeDef HAL_HCD_GetState(HCD_HandleTypeDef *hhcd)
 687:../STM32F2xx_HAL_Driver/Src/stm32f2xx_hal_hcd.c **** {
 1494              		.loc 1 687 0
 1495              		.cfi_startproc
 1496              		@ args = 0, pretend = 0, frame = 8
 1497              		@ frame_needed = 1, uses_anonymous_args = 0
 1498              		@ link register save eliminated.
 1499 0868 80B4     		push	{r7}
 1500              		.cfi_def_cfa_offset 4
 1501              		.cfi_offset 7, -4
 1502 086a 83B0     		sub	sp, sp, #12
 1503              		.cfi_def_cfa_offset 16
 1504 086c 00AF     		add	r7, sp, #0
 1505              		.cfi_def_cfa_register 7
 1506 086e 7860     		str	r0, [r7, #4]
 688:../STM32F2xx_HAL_Driver/Src/stm32f2xx_hal_hcd.c ****   return hhcd->State;
 1507              		.loc 1 688 0
 1508 0870 7B68     		ldr	r3, [r7, #4]
 1509 0872 93F88932 		ldrb	r3, [r3, #649]
 1510 0876 DBB2     		uxtb	r3, r3
 689:../STM32F2xx_HAL_Driver/Src/stm32f2xx_hal_hcd.c **** }
 1511              		.loc 1 689 0
 1512 0878 1846     		mov	r0, r3
 1513 087a 0C37     		adds	r7, r7, #12
 1514 087c BD46     		mov	sp, r7
 1515              		@ sp needed
 1516 087e 5DF8047B 		ldr	r7, [sp], #4
 1517 0882 7047     		bx	lr
 1518              		.cfi_endproc
 1519              	.LFE70:
 1521              		.align	2
 1522              		.global	HAL_HCD_HC_GetURBState
 1523              		.thumb
 1524              		.thumb_func
 1526              	HAL_HCD_HC_GetURBState:
 1527              	.LFB71:
 690:../STM32F2xx_HAL_Driver/Src/stm32f2xx_hal_hcd.c **** 
 691:../STM32F2xx_HAL_Driver/Src/stm32f2xx_hal_hcd.c **** /**
 692:../STM32F2xx_HAL_Driver/Src/stm32f2xx_hal_hcd.c ****   * @brief  Return  URB state for a channel
 693:../STM32F2xx_HAL_Driver/Src/stm32f2xx_hal_hcd.c ****   * @param  hhcd : HCD handle
 694:../STM32F2xx_HAL_Driver/Src/stm32f2xx_hal_hcd.c ****   * @param  chnum : Channel number
 695:../STM32F2xx_HAL_Driver/Src/stm32f2xx_hal_hcd.c ****   *         This parameter can be a value from 1 to 15
 696:../STM32F2xx_HAL_Driver/Src/stm32f2xx_hal_hcd.c ****   * @retval URB state
 697:../STM32F2xx_HAL_Driver/Src/stm32f2xx_hal_hcd.c ****   *          This parameter can be one of the these values:
 698:../STM32F2xx_HAL_Driver/Src/stm32f2xx_hal_hcd.c ****   *            @arg URB_IDLE
 699:../STM32F2xx_HAL_Driver/Src/stm32f2xx_hal_hcd.c ****   *            @arg URB_DONE
 700:../STM32F2xx_HAL_Driver/Src/stm32f2xx_hal_hcd.c ****   *            @arg URB_NOTREADY
 701:../STM32F2xx_HAL_Driver/Src/stm32f2xx_hal_hcd.c ****   *            @arg URB_NYET 
 702:../STM32F2xx_HAL_Driver/Src/stm32f2xx_hal_hcd.c ****   *            @arg URB_ERROR  
 703:../STM32F2xx_HAL_Driver/Src/stm32f2xx_hal_hcd.c ****   *            @arg URB_STALL      
 704:../STM32F2xx_HAL_Driver/Src/stm32f2xx_hal_hcd.c ****   */
 705:../STM32F2xx_HAL_Driver/Src/stm32f2xx_hal_hcd.c **** HCD_URBStateTypeDef HAL_HCD_HC_GetURBState(HCD_HandleTypeDef *hhcd, uint8_t chnum)
 706:../STM32F2xx_HAL_Driver/Src/stm32f2xx_hal_hcd.c **** {
 1528              		.loc 1 706 0
 1529              		.cfi_startproc
 1530              		@ args = 0, pretend = 0, frame = 8
 1531              		@ frame_needed = 1, uses_anonymous_args = 0
 1532              		@ link register save eliminated.
 1533 0884 80B4     		push	{r7}
 1534              		.cfi_def_cfa_offset 4
 1535              		.cfi_offset 7, -4
 1536 0886 83B0     		sub	sp, sp, #12
 1537              		.cfi_def_cfa_offset 16
 1538 0888 00AF     		add	r7, sp, #0
 1539              		.cfi_def_cfa_register 7
 1540 088a 7860     		str	r0, [r7, #4]
 1541 088c 0B46     		mov	r3, r1
 1542 088e FB70     		strb	r3, [r7, #3]
 707:../STM32F2xx_HAL_Driver/Src/stm32f2xx_hal_hcd.c ****   return hhcd->hc[chnum].urb_state;
 1543              		.loc 1 707 0
 1544 0890 FA78     		ldrb	r2, [r7, #3]	@ zero_extendqisi2
 1545 0892 7968     		ldr	r1, [r7, #4]
 1546 0894 1346     		mov	r3, r2
 1547 0896 9B00     		lsls	r3, r3, #2
 1548 0898 1344     		add	r3, r3, r2
 1549 089a DB00     		lsls	r3, r3, #3
 1550 089c 0B44     		add	r3, r3, r1
 1551 089e 5033     		adds	r3, r3, #80
 1552 08a0 1B79     		ldrb	r3, [r3, #4]	@ zero_extendqisi2
 708:../STM32F2xx_HAL_Driver/Src/stm32f2xx_hal_hcd.c **** }
 1553              		.loc 1 708 0
 1554 08a2 1846     		mov	r0, r3
 1555 08a4 0C37     		adds	r7, r7, #12
 1556 08a6 BD46     		mov	sp, r7
 1557              		@ sp needed
 1558 08a8 5DF8047B 		ldr	r7, [sp], #4
 1559 08ac 7047     		bx	lr
 1560              		.cfi_endproc
 1561              	.LFE71:
 1563 08ae 00BF     		.align	2
 1564              		.global	HAL_HCD_HC_GetXferCount
 1565              		.thumb
 1566              		.thumb_func
 1568              	HAL_HCD_HC_GetXferCount:
 1569              	.LFB72:
 709:../STM32F2xx_HAL_Driver/Src/stm32f2xx_hal_hcd.c **** 
 710:../STM32F2xx_HAL_Driver/Src/stm32f2xx_hal_hcd.c **** 
 711:../STM32F2xx_HAL_Driver/Src/stm32f2xx_hal_hcd.c **** /**
 712:../STM32F2xx_HAL_Driver/Src/stm32f2xx_hal_hcd.c ****   * @brief  Return the last host transfer size
 713:../STM32F2xx_HAL_Driver/Src/stm32f2xx_hal_hcd.c ****   * @param  hhcd : HCD handle
 714:../STM32F2xx_HAL_Driver/Src/stm32f2xx_hal_hcd.c ****   * @param  chnum : Channel number
 715:../STM32F2xx_HAL_Driver/Src/stm32f2xx_hal_hcd.c ****   *         This parameter can be a value from 1 to 15
 716:../STM32F2xx_HAL_Driver/Src/stm32f2xx_hal_hcd.c ****   * @retval last transfer size in byte
 717:../STM32F2xx_HAL_Driver/Src/stm32f2xx_hal_hcd.c ****   */
 718:../STM32F2xx_HAL_Driver/Src/stm32f2xx_hal_hcd.c **** uint32_t HAL_HCD_HC_GetXferCount(HCD_HandleTypeDef *hhcd, uint8_t chnum)
 719:../STM32F2xx_HAL_Driver/Src/stm32f2xx_hal_hcd.c **** {
 1570              		.loc 1 719 0
 1571              		.cfi_startproc
 1572              		@ args = 0, pretend = 0, frame = 8
 1573              		@ frame_needed = 1, uses_anonymous_args = 0
 1574              		@ link register save eliminated.
 1575 08b0 80B4     		push	{r7}
 1576              		.cfi_def_cfa_offset 4
 1577              		.cfi_offset 7, -4
 1578 08b2 83B0     		sub	sp, sp, #12
 1579              		.cfi_def_cfa_offset 16
 1580 08b4 00AF     		add	r7, sp, #0
 1581              		.cfi_def_cfa_register 7
 1582 08b6 7860     		str	r0, [r7, #4]
 1583 08b8 0B46     		mov	r3, r1
 1584 08ba FB70     		strb	r3, [r7, #3]
 720:../STM32F2xx_HAL_Driver/Src/stm32f2xx_hal_hcd.c ****   return hhcd->hc[chnum].xfer_count; 
 1585              		.loc 1 720 0
 1586 08bc FA78     		ldrb	r2, [r7, #3]	@ zero_extendqisi2
 1587 08be 7968     		ldr	r1, [r7, #4]
 1588 08c0 1346     		mov	r3, r2
 1589 08c2 9B00     		lsls	r3, r3, #2
 1590 08c4 1344     		add	r3, r3, r2
 1591 08c6 DB00     		lsls	r3, r3, #3
 1592 08c8 0B44     		add	r3, r3, r1
 1593 08ca 4433     		adds	r3, r3, #68
 1594 08cc 1B68     		ldr	r3, [r3]
 721:../STM32F2xx_HAL_Driver/Src/stm32f2xx_hal_hcd.c **** }
 1595              		.loc 1 721 0
 1596 08ce 1846     		mov	r0, r3
 1597 08d0 0C37     		adds	r7, r7, #12
 1598 08d2 BD46     		mov	sp, r7
 1599              		@ sp needed
 1600 08d4 5DF8047B 		ldr	r7, [sp], #4
 1601 08d8 7047     		bx	lr
 1602              		.cfi_endproc
 1603              	.LFE72:
 1605 08da 00BF     		.align	2
 1606              		.global	HAL_HCD_HC_GetState
 1607              		.thumb
 1608              		.thumb_func
 1610              	HAL_HCD_HC_GetState:
 1611              	.LFB73:
 722:../STM32F2xx_HAL_Driver/Src/stm32f2xx_hal_hcd.c ****   
 723:../STM32F2xx_HAL_Driver/Src/stm32f2xx_hal_hcd.c **** /**
 724:../STM32F2xx_HAL_Driver/Src/stm32f2xx_hal_hcd.c ****   * @brief  Return the Host Channel state
 725:../STM32F2xx_HAL_Driver/Src/stm32f2xx_hal_hcd.c ****   * @param  hhcd : HCD handle
 726:../STM32F2xx_HAL_Driver/Src/stm32f2xx_hal_hcd.c ****   * @param  chnum : Channel number
 727:../STM32F2xx_HAL_Driver/Src/stm32f2xx_hal_hcd.c ****   *         This parameter can be a value from 1 to 15
 728:../STM32F2xx_HAL_Driver/Src/stm32f2xx_hal_hcd.c ****   * @retval Host channel state
 729:../STM32F2xx_HAL_Driver/Src/stm32f2xx_hal_hcd.c ****   *          This parameter can be one of the these values:
 730:../STM32F2xx_HAL_Driver/Src/stm32f2xx_hal_hcd.c ****   *            @arg HC_IDLE
 731:../STM32F2xx_HAL_Driver/Src/stm32f2xx_hal_hcd.c ****   *            @arg HC_XFRC
 732:../STM32F2xx_HAL_Driver/Src/stm32f2xx_hal_hcd.c ****   *            @arg HC_HALTED
 733:../STM32F2xx_HAL_Driver/Src/stm32f2xx_hal_hcd.c ****   *            @arg HC_NYET 
 734:../STM32F2xx_HAL_Driver/Src/stm32f2xx_hal_hcd.c ****   *            @arg HC_NAK  
 735:../STM32F2xx_HAL_Driver/Src/stm32f2xx_hal_hcd.c ****   *            @arg HC_STALL 
 736:../STM32F2xx_HAL_Driver/Src/stm32f2xx_hal_hcd.c ****   *            @arg HC_XACTERR  
 737:../STM32F2xx_HAL_Driver/Src/stm32f2xx_hal_hcd.c ****   *            @arg HC_BBLERR  
 738:../STM32F2xx_HAL_Driver/Src/stm32f2xx_hal_hcd.c ****   *            @arg HC_DATATGLERR    
 739:../STM32F2xx_HAL_Driver/Src/stm32f2xx_hal_hcd.c ****   */
 740:../STM32F2xx_HAL_Driver/Src/stm32f2xx_hal_hcd.c **** HCD_HCStateTypeDef  HAL_HCD_HC_GetState(HCD_HandleTypeDef *hhcd, uint8_t chnum)
 741:../STM32F2xx_HAL_Driver/Src/stm32f2xx_hal_hcd.c **** {
 1612              		.loc 1 741 0
 1613              		.cfi_startproc
 1614              		@ args = 0, pretend = 0, frame = 8
 1615              		@ frame_needed = 1, uses_anonymous_args = 0
 1616              		@ link register save eliminated.
 1617 08dc 80B4     		push	{r7}
 1618              		.cfi_def_cfa_offset 4
 1619              		.cfi_offset 7, -4
 1620 08de 83B0     		sub	sp, sp, #12
 1621              		.cfi_def_cfa_offset 16
 1622 08e0 00AF     		add	r7, sp, #0
 1623              		.cfi_def_cfa_register 7
 1624 08e2 7860     		str	r0, [r7, #4]
 1625 08e4 0B46     		mov	r3, r1
 1626 08e6 FB70     		strb	r3, [r7, #3]
 742:../STM32F2xx_HAL_Driver/Src/stm32f2xx_hal_hcd.c ****   return hhcd->hc[chnum].state;
 1627              		.loc 1 742 0
 1628 08e8 FA78     		ldrb	r2, [r7, #3]	@ zero_extendqisi2
 1629 08ea 7968     		ldr	r1, [r7, #4]
 1630 08ec 1346     		mov	r3, r2
 1631 08ee 9B00     		lsls	r3, r3, #2
 1632 08f0 1344     		add	r3, r3, r2
 1633 08f2 DB00     		lsls	r3, r3, #3
 1634 08f4 0B44     		add	r3, r3, r1
 1635 08f6 5033     		adds	r3, r3, #80
 1636 08f8 5B79     		ldrb	r3, [r3, #5]	@ zero_extendqisi2
 743:../STM32F2xx_HAL_Driver/Src/stm32f2xx_hal_hcd.c **** }
 1637              		.loc 1 743 0
 1638 08fa 1846     		mov	r0, r3
 1639 08fc 0C37     		adds	r7, r7, #12
 1640 08fe BD46     		mov	sp, r7
 1641              		@ sp needed
 1642 0900 5DF8047B 		ldr	r7, [sp], #4
 1643 0904 7047     		bx	lr
 1644              		.cfi_endproc
 1645              	.LFE73:
 1647 0906 00BF     		.align	2
 1648              		.global	HAL_HCD_GetCurrentFrame
 1649              		.thumb
 1650              		.thumb_func
 1652              	HAL_HCD_GetCurrentFrame:
 1653              	.LFB74:
 744:../STM32F2xx_HAL_Driver/Src/stm32f2xx_hal_hcd.c **** 
 745:../STM32F2xx_HAL_Driver/Src/stm32f2xx_hal_hcd.c **** /**
 746:../STM32F2xx_HAL_Driver/Src/stm32f2xx_hal_hcd.c ****   * @brief  Return the current Host frame number
 747:../STM32F2xx_HAL_Driver/Src/stm32f2xx_hal_hcd.c ****   * @param  hhcd : HCD handle
 748:../STM32F2xx_HAL_Driver/Src/stm32f2xx_hal_hcd.c ****   * @retval current Host frame number
 749:../STM32F2xx_HAL_Driver/Src/stm32f2xx_hal_hcd.c ****   */
 750:../STM32F2xx_HAL_Driver/Src/stm32f2xx_hal_hcd.c **** uint32_t HAL_HCD_GetCurrentFrame(HCD_HandleTypeDef *hhcd)
 751:../STM32F2xx_HAL_Driver/Src/stm32f2xx_hal_hcd.c **** {
 1654              		.loc 1 751 0
 1655              		.cfi_startproc
 1656              		@ args = 0, pretend = 0, frame = 8
 1657              		@ frame_needed = 1, uses_anonymous_args = 0
 1658 0908 80B5     		push	{r7, lr}
 1659              		.cfi_def_cfa_offset 8
 1660              		.cfi_offset 7, -8
 1661              		.cfi_offset 14, -4
 1662 090a 82B0     		sub	sp, sp, #8
 1663              		.cfi_def_cfa_offset 16
 1664 090c 00AF     		add	r7, sp, #0
 1665              		.cfi_def_cfa_register 7
 1666 090e 7860     		str	r0, [r7, #4]
 752:../STM32F2xx_HAL_Driver/Src/stm32f2xx_hal_hcd.c ****   return (USB_GetCurrentFrame(hhcd->Instance));
 1667              		.loc 1 752 0
 1668 0910 7B68     		ldr	r3, [r7, #4]
 1669 0912 1B68     		ldr	r3, [r3]
 1670 0914 1846     		mov	r0, r3
 1671 0916 FFF7FEFF 		bl	USB_GetCurrentFrame
 1672 091a 0346     		mov	r3, r0
 753:../STM32F2xx_HAL_Driver/Src/stm32f2xx_hal_hcd.c **** }
 1673              		.loc 1 753 0
 1674 091c 1846     		mov	r0, r3
 1675 091e 0837     		adds	r7, r7, #8
 1676 0920 BD46     		mov	sp, r7
 1677              		@ sp needed
 1678 0922 80BD     		pop	{r7, pc}
 1679              		.cfi_endproc
 1680              	.LFE74:
 1682              		.align	2
 1683              		.global	HAL_HCD_GetCurrentSpeed
 1684              		.thumb
 1685              		.thumb_func
 1687              	HAL_HCD_GetCurrentSpeed:
 1688              	.LFB75:
 754:../STM32F2xx_HAL_Driver/Src/stm32f2xx_hal_hcd.c **** 
 755:../STM32F2xx_HAL_Driver/Src/stm32f2xx_hal_hcd.c **** /**
 756:../STM32F2xx_HAL_Driver/Src/stm32f2xx_hal_hcd.c ****   * @brief  Return the Host enumeration speed
 757:../STM32F2xx_HAL_Driver/Src/stm32f2xx_hal_hcd.c ****   * @param  hhcd : HCD handle
 758:../STM32F2xx_HAL_Driver/Src/stm32f2xx_hal_hcd.c ****   * @retval Enumeration speed
 759:../STM32F2xx_HAL_Driver/Src/stm32f2xx_hal_hcd.c ****   */
 760:../STM32F2xx_HAL_Driver/Src/stm32f2xx_hal_hcd.c **** uint32_t HAL_HCD_GetCurrentSpeed(HCD_HandleTypeDef *hhcd)
 761:../STM32F2xx_HAL_Driver/Src/stm32f2xx_hal_hcd.c **** {
 1689              		.loc 1 761 0
 1690              		.cfi_startproc
 1691              		@ args = 0, pretend = 0, frame = 8
 1692              		@ frame_needed = 1, uses_anonymous_args = 0
 1693 0924 80B5     		push	{r7, lr}
 1694              		.cfi_def_cfa_offset 8
 1695              		.cfi_offset 7, -8
 1696              		.cfi_offset 14, -4
 1697 0926 82B0     		sub	sp, sp, #8
 1698              		.cfi_def_cfa_offset 16
 1699 0928 00AF     		add	r7, sp, #0
 1700              		.cfi_def_cfa_register 7
 1701 092a 7860     		str	r0, [r7, #4]
 762:../STM32F2xx_HAL_Driver/Src/stm32f2xx_hal_hcd.c ****   return (USB_GetHostSpeed(hhcd->Instance));
 1702              		.loc 1 762 0
 1703 092c 7B68     		ldr	r3, [r7, #4]
 1704 092e 1B68     		ldr	r3, [r3]
 1705 0930 1846     		mov	r0, r3
 1706 0932 FFF7FEFF 		bl	USB_GetHostSpeed
 1707 0936 0346     		mov	r3, r0
 763:../STM32F2xx_HAL_Driver/Src/stm32f2xx_hal_hcd.c **** }
 1708              		.loc 1 763 0
 1709 0938 1846     		mov	r0, r3
 1710 093a 0837     		adds	r7, r7, #8
 1711 093c BD46     		mov	sp, r7
 1712              		@ sp needed
 1713 093e 80BD     		pop	{r7, pc}
 1714              		.cfi_endproc
 1715              	.LFE75:
 1717              		.align	2
 1718              		.thumb
 1719              		.thumb_func
 1721              	HCD_HC_IN_IRQHandler:
 1722              	.LFB76:
 764:../STM32F2xx_HAL_Driver/Src/stm32f2xx_hal_hcd.c **** 
 765:../STM32F2xx_HAL_Driver/Src/stm32f2xx_hal_hcd.c **** /**
 766:../STM32F2xx_HAL_Driver/Src/stm32f2xx_hal_hcd.c ****   * @}
 767:../STM32F2xx_HAL_Driver/Src/stm32f2xx_hal_hcd.c ****   */
 768:../STM32F2xx_HAL_Driver/Src/stm32f2xx_hal_hcd.c **** 
 769:../STM32F2xx_HAL_Driver/Src/stm32f2xx_hal_hcd.c **** /**
 770:../STM32F2xx_HAL_Driver/Src/stm32f2xx_hal_hcd.c ****   * @brief  This function handles Host Channel IN interrupt requests.
 771:../STM32F2xx_HAL_Driver/Src/stm32f2xx_hal_hcd.c ****   * @param  hhcd: HCD handle
 772:../STM32F2xx_HAL_Driver/Src/stm32f2xx_hal_hcd.c ****   * @param  chnum : Channel number
 773:../STM32F2xx_HAL_Driver/Src/stm32f2xx_hal_hcd.c ****   *         This parameter can be a value from 1 to 15
 774:../STM32F2xx_HAL_Driver/Src/stm32f2xx_hal_hcd.c ****   * @retval none
 775:../STM32F2xx_HAL_Driver/Src/stm32f2xx_hal_hcd.c ****   */
 776:../STM32F2xx_HAL_Driver/Src/stm32f2xx_hal_hcd.c **** static void HCD_HC_IN_IRQHandler   (HCD_HandleTypeDef *hhcd, uint8_t chnum)
 777:../STM32F2xx_HAL_Driver/Src/stm32f2xx_hal_hcd.c **** {
 1723              		.loc 1 777 0
 1724              		.cfi_startproc
 1725              		@ args = 0, pretend = 0, frame = 16
 1726              		@ frame_needed = 1, uses_anonymous_args = 0
 1727 0940 90B5     		push	{r4, r7, lr}
 1728              		.cfi_def_cfa_offset 12
 1729              		.cfi_offset 4, -12
 1730              		.cfi_offset 7, -8
 1731              		.cfi_offset 14, -4
 1732 0942 85B0     		sub	sp, sp, #20
 1733              		.cfi_def_cfa_offset 32
 1734 0944 00AF     		add	r7, sp, #0
 1735              		.cfi_def_cfa_register 7
 1736 0946 7860     		str	r0, [r7, #4]
 1737 0948 0B46     		mov	r3, r1
 1738 094a FB70     		strb	r3, [r7, #3]
 778:../STM32F2xx_HAL_Driver/Src/stm32f2xx_hal_hcd.c ****   USB_OTG_GlobalTypeDef *USBx = hhcd->Instance;
 1739              		.loc 1 778 0
 1740 094c 7B68     		ldr	r3, [r7, #4]
 1741 094e 1B68     		ldr	r3, [r3]
 1742 0950 FB60     		str	r3, [r7, #12]
 779:../STM32F2xx_HAL_Driver/Src/stm32f2xx_hal_hcd.c ****     
 780:../STM32F2xx_HAL_Driver/Src/stm32f2xx_hal_hcd.c ****   if ((USBx_HC(chnum)->HCINT) &  USB_OTG_HCINT_AHBERR)
 1743              		.loc 1 780 0
 1744 0952 FB78     		ldrb	r3, [r7, #3]	@ zero_extendqisi2
 1745 0954 5A01     		lsls	r2, r3, #5
 1746 0956 FB68     		ldr	r3, [r7, #12]
 1747 0958 1344     		add	r3, r3, r2
 1748 095a 03F5A063 		add	r3, r3, #1280
 1749 095e 9B68     		ldr	r3, [r3, #8]
 1750 0960 03F00403 		and	r3, r3, #4
 1751 0964 002B     		cmp	r3, #0
 1752 0966 18D0     		beq	.L80
 781:../STM32F2xx_HAL_Driver/Src/stm32f2xx_hal_hcd.c ****   {
 782:../STM32F2xx_HAL_Driver/Src/stm32f2xx_hal_hcd.c ****     __HAL_HCD_CLEAR_HC_INT(chnum, USB_OTG_HCINT_AHBERR);
 1753              		.loc 1 782 0
 1754 0968 FB78     		ldrb	r3, [r7, #3]	@ zero_extendqisi2
 1755 096a 5A01     		lsls	r2, r3, #5
 1756 096c FB68     		ldr	r3, [r7, #12]
 1757 096e 1344     		add	r3, r3, r2
 1758 0970 03F5A063 		add	r3, r3, #1280
 1759 0974 0422     		movs	r2, #4
 1760 0976 9A60     		str	r2, [r3, #8]
 783:../STM32F2xx_HAL_Driver/Src/stm32f2xx_hal_hcd.c ****     __HAL_HCD_UNMASK_HALT_HC_INT(chnum);
 1761              		.loc 1 783 0
 1762 0978 FB78     		ldrb	r3, [r7, #3]	@ zero_extendqisi2
 1763 097a 5A01     		lsls	r2, r3, #5
 1764 097c FB68     		ldr	r3, [r7, #12]
 1765 097e 1344     		add	r3, r3, r2
 1766 0980 03F5A063 		add	r3, r3, #1280
 1767 0984 FA78     		ldrb	r2, [r7, #3]	@ zero_extendqisi2
 1768 0986 5101     		lsls	r1, r2, #5
 1769 0988 FA68     		ldr	r2, [r7, #12]
 1770 098a 0A44     		add	r2, r2, r1
 1771 098c 02F5A062 		add	r2, r2, #1280
 1772 0990 D268     		ldr	r2, [r2, #12]
 1773 0992 42F00202 		orr	r2, r2, #2
 1774 0996 DA60     		str	r2, [r3, #12]
 1775 0998 8DE0     		b	.L81
 1776              	.L80:
 784:../STM32F2xx_HAL_Driver/Src/stm32f2xx_hal_hcd.c ****   }  
 785:../STM32F2xx_HAL_Driver/Src/stm32f2xx_hal_hcd.c ****   else if ((USBx_HC(chnum)->HCINT) &  USB_OTG_HCINT_ACK)
 1777              		.loc 1 785 0
 1778 099a FB78     		ldrb	r3, [r7, #3]	@ zero_extendqisi2
 1779 099c 5A01     		lsls	r2, r3, #5
 1780 099e FB68     		ldr	r3, [r7, #12]
 1781 09a0 1344     		add	r3, r3, r2
 1782 09a2 03F5A063 		add	r3, r3, #1280
 1783 09a6 9B68     		ldr	r3, [r3, #8]
 1784 09a8 03F02003 		and	r3, r3, #32
 1785 09ac 002B     		cmp	r3, #0
 1786 09ae 08D0     		beq	.L82
 786:../STM32F2xx_HAL_Driver/Src/stm32f2xx_hal_hcd.c ****   {
 787:../STM32F2xx_HAL_Driver/Src/stm32f2xx_hal_hcd.c ****     __HAL_HCD_CLEAR_HC_INT(chnum, USB_OTG_HCINT_ACK);
 1787              		.loc 1 787 0
 1788 09b0 FB78     		ldrb	r3, [r7, #3]	@ zero_extendqisi2
 1789 09b2 5A01     		lsls	r2, r3, #5
 1790 09b4 FB68     		ldr	r3, [r7, #12]
 1791 09b6 1344     		add	r3, r3, r2
 1792 09b8 03F5A063 		add	r3, r3, #1280
 1793 09bc 2022     		movs	r2, #32
 1794 09be 9A60     		str	r2, [r3, #8]
 1795 09c0 79E0     		b	.L81
 1796              	.L82:
 788:../STM32F2xx_HAL_Driver/Src/stm32f2xx_hal_hcd.c ****   }
 789:../STM32F2xx_HAL_Driver/Src/stm32f2xx_hal_hcd.c ****   
 790:../STM32F2xx_HAL_Driver/Src/stm32f2xx_hal_hcd.c ****   else if ((USBx_HC(chnum)->HCINT) &  USB_OTG_HCINT_STALL)  
 1797              		.loc 1 790 0
 1798 09c2 FB78     		ldrb	r3, [r7, #3]	@ zero_extendqisi2
 1799 09c4 5A01     		lsls	r2, r3, #5
 1800 09c6 FB68     		ldr	r3, [r7, #12]
 1801 09c8 1344     		add	r3, r3, r2
 1802 09ca 03F5A063 		add	r3, r3, #1280
 1803 09ce 9B68     		ldr	r3, [r3, #8]
 1804 09d0 03F00803 		and	r3, r3, #8
 1805 09d4 002B     		cmp	r3, #0
 1806 09d6 31D0     		beq	.L83
 791:../STM32F2xx_HAL_Driver/Src/stm32f2xx_hal_hcd.c ****   {
 792:../STM32F2xx_HAL_Driver/Src/stm32f2xx_hal_hcd.c ****     __HAL_HCD_UNMASK_HALT_HC_INT(chnum);
 1807              		.loc 1 792 0
 1808 09d8 FB78     		ldrb	r3, [r7, #3]	@ zero_extendqisi2
 1809 09da 5A01     		lsls	r2, r3, #5
 1810 09dc FB68     		ldr	r3, [r7, #12]
 1811 09de 1344     		add	r3, r3, r2
 1812 09e0 03F5A063 		add	r3, r3, #1280
 1813 09e4 FA78     		ldrb	r2, [r7, #3]	@ zero_extendqisi2
 1814 09e6 5101     		lsls	r1, r2, #5
 1815 09e8 FA68     		ldr	r2, [r7, #12]
 1816 09ea 0A44     		add	r2, r2, r1
 1817 09ec 02F5A062 		add	r2, r2, #1280
 1818 09f0 D268     		ldr	r2, [r2, #12]
 1819 09f2 42F00202 		orr	r2, r2, #2
 1820 09f6 DA60     		str	r2, [r3, #12]
 793:../STM32F2xx_HAL_Driver/Src/stm32f2xx_hal_hcd.c ****     hhcd->hc[chnum].state = HC_STALL;
 1821              		.loc 1 793 0
 1822 09f8 FA78     		ldrb	r2, [r7, #3]	@ zero_extendqisi2
 1823 09fa 7968     		ldr	r1, [r7, #4]
 1824 09fc 1346     		mov	r3, r2
 1825 09fe 9B00     		lsls	r3, r3, #2
 1826 0a00 1344     		add	r3, r3, r2
 1827 0a02 DB00     		lsls	r3, r3, #3
 1828 0a04 0B44     		add	r3, r3, r1
 1829 0a06 5033     		adds	r3, r3, #80
 1830 0a08 0522     		movs	r2, #5
 1831 0a0a 5A71     		strb	r2, [r3, #5]
 794:../STM32F2xx_HAL_Driver/Src/stm32f2xx_hal_hcd.c ****     __HAL_HCD_CLEAR_HC_INT(chnum, USB_OTG_HCINT_NAK);
 1832              		.loc 1 794 0
 1833 0a0c FB78     		ldrb	r3, [r7, #3]	@ zero_extendqisi2
 1834 0a0e 5A01     		lsls	r2, r3, #5
 1835 0a10 FB68     		ldr	r3, [r7, #12]
 1836 0a12 1344     		add	r3, r3, r2
 1837 0a14 03F5A063 		add	r3, r3, #1280
 1838 0a18 1022     		movs	r2, #16
 1839 0a1a 9A60     		str	r2, [r3, #8]
 795:../STM32F2xx_HAL_Driver/Src/stm32f2xx_hal_hcd.c ****     __HAL_HCD_CLEAR_HC_INT(chnum, USB_OTG_HCINT_STALL);    
 1840              		.loc 1 795 0
 1841 0a1c FB78     		ldrb	r3, [r7, #3]	@ zero_extendqisi2
 1842 0a1e 5A01     		lsls	r2, r3, #5
 1843 0a20 FB68     		ldr	r3, [r7, #12]
 1844 0a22 1344     		add	r3, r3, r2
 1845 0a24 03F5A063 		add	r3, r3, #1280
 1846 0a28 0822     		movs	r2, #8
 1847 0a2a 9A60     		str	r2, [r3, #8]
 796:../STM32F2xx_HAL_Driver/Src/stm32f2xx_hal_hcd.c ****     USB_HC_Halt(hhcd->Instance, chnum);    
 1848              		.loc 1 796 0
 1849 0a2c 7B68     		ldr	r3, [r7, #4]
 1850 0a2e 1A68     		ldr	r2, [r3]
 1851 0a30 FB78     		ldrb	r3, [r7, #3]	@ zero_extendqisi2
 1852 0a32 1046     		mov	r0, r2
 1853 0a34 1946     		mov	r1, r3
 1854 0a36 FFF7FEFF 		bl	USB_HC_Halt
 1855 0a3a 3CE0     		b	.L81
 1856              	.L83:
 797:../STM32F2xx_HAL_Driver/Src/stm32f2xx_hal_hcd.c ****   }
 798:../STM32F2xx_HAL_Driver/Src/stm32f2xx_hal_hcd.c ****   else if ((USBx_HC(chnum)->HCINT) &  USB_OTG_HCINT_DTERR)
 1857              		.loc 1 798 0
 1858 0a3c FB78     		ldrb	r3, [r7, #3]	@ zero_extendqisi2
 1859 0a3e 5A01     		lsls	r2, r3, #5
 1860 0a40 FB68     		ldr	r3, [r7, #12]
 1861 0a42 1344     		add	r3, r3, r2
 1862 0a44 03F5A063 		add	r3, r3, #1280
 1863 0a48 9B68     		ldr	r3, [r3, #8]
 1864 0a4a 03F48063 		and	r3, r3, #1024
 1865 0a4e 002B     		cmp	r3, #0
 1866 0a50 31D0     		beq	.L81
 799:../STM32F2xx_HAL_Driver/Src/stm32f2xx_hal_hcd.c ****   {
 800:../STM32F2xx_HAL_Driver/Src/stm32f2xx_hal_hcd.c ****     __HAL_HCD_UNMASK_HALT_HC_INT(chnum);
 1867              		.loc 1 800 0
 1868 0a52 FB78     		ldrb	r3, [r7, #3]	@ zero_extendqisi2
 1869 0a54 5A01     		lsls	r2, r3, #5
 1870 0a56 FB68     		ldr	r3, [r7, #12]
 1871 0a58 1344     		add	r3, r3, r2
 1872 0a5a 03F5A063 		add	r3, r3, #1280
 1873 0a5e FA78     		ldrb	r2, [r7, #3]	@ zero_extendqisi2
 1874 0a60 5101     		lsls	r1, r2, #5
 1875 0a62 FA68     		ldr	r2, [r7, #12]
 1876 0a64 0A44     		add	r2, r2, r1
 1877 0a66 02F5A062 		add	r2, r2, #1280
 1878 0a6a D268     		ldr	r2, [r2, #12]
 1879 0a6c 42F00202 		orr	r2, r2, #2
 1880 0a70 DA60     		str	r2, [r3, #12]
 801:../STM32F2xx_HAL_Driver/Src/stm32f2xx_hal_hcd.c ****     USB_HC_Halt(hhcd->Instance, chnum);  
 1881              		.loc 1 801 0
 1882 0a72 7B68     		ldr	r3, [r7, #4]
 1883 0a74 1A68     		ldr	r2, [r3]
 1884 0a76 FB78     		ldrb	r3, [r7, #3]	@ zero_extendqisi2
 1885 0a78 1046     		mov	r0, r2
 1886 0a7a 1946     		mov	r1, r3
 1887 0a7c FFF7FEFF 		bl	USB_HC_Halt
 802:../STM32F2xx_HAL_Driver/Src/stm32f2xx_hal_hcd.c ****     __HAL_HCD_CLEAR_HC_INT(chnum, USB_OTG_HCINT_NAK);    
 1888              		.loc 1 802 0
 1889 0a80 FB78     		ldrb	r3, [r7, #3]	@ zero_extendqisi2
 1890 0a82 5A01     		lsls	r2, r3, #5
 1891 0a84 FB68     		ldr	r3, [r7, #12]
 1892 0a86 1344     		add	r3, r3, r2
 1893 0a88 03F5A063 		add	r3, r3, #1280
 1894 0a8c 1022     		movs	r2, #16
 1895 0a8e 9A60     		str	r2, [r3, #8]
 803:../STM32F2xx_HAL_Driver/Src/stm32f2xx_hal_hcd.c ****     hhcd->hc[chnum].state = HC_DATATGLERR;
 1896              		.loc 1 803 0
 1897 0a90 FA78     		ldrb	r2, [r7, #3]	@ zero_extendqisi2
 1898 0a92 7968     		ldr	r1, [r7, #4]
 1899 0a94 1346     		mov	r3, r2
 1900 0a96 9B00     		lsls	r3, r3, #2
 1901 0a98 1344     		add	r3, r3, r2
 1902 0a9a DB00     		lsls	r3, r3, #3
 1903 0a9c 0B44     		add	r3, r3, r1
 1904 0a9e 5033     		adds	r3, r3, #80
 1905 0aa0 0822     		movs	r2, #8
 1906 0aa2 5A71     		strb	r2, [r3, #5]
 804:../STM32F2xx_HAL_Driver/Src/stm32f2xx_hal_hcd.c ****     __HAL_HCD_CLEAR_HC_INT(chnum, USB_OTG_HCINT_DTERR);
 1907              		.loc 1 804 0
 1908 0aa4 FB78     		ldrb	r3, [r7, #3]	@ zero_extendqisi2
 1909 0aa6 5A01     		lsls	r2, r3, #5
 1910 0aa8 FB68     		ldr	r3, [r7, #12]
 1911 0aaa 1344     		add	r3, r3, r2
 1912 0aac 03F5A063 		add	r3, r3, #1280
 1913 0ab0 4FF48062 		mov	r2, #1024
 1914 0ab4 9A60     		str	r2, [r3, #8]
 1915              	.L81:
 805:../STM32F2xx_HAL_Driver/Src/stm32f2xx_hal_hcd.c ****   }    
 806:../STM32F2xx_HAL_Driver/Src/stm32f2xx_hal_hcd.c ****   
 807:../STM32F2xx_HAL_Driver/Src/stm32f2xx_hal_hcd.c ****   if ((USBx_HC(chnum)->HCINT) &  USB_OTG_HCINT_FRMOR)
 1916              		.loc 1 807 0
 1917 0ab6 FB78     		ldrb	r3, [r7, #3]	@ zero_extendqisi2
 1918 0ab8 5A01     		lsls	r2, r3, #5
 1919 0aba FB68     		ldr	r3, [r7, #12]
 1920 0abc 1344     		add	r3, r3, r2
 1921 0abe 03F5A063 		add	r3, r3, #1280
 1922 0ac2 9B68     		ldr	r3, [r3, #8]
 1923 0ac4 03F40073 		and	r3, r3, #512
 1924 0ac8 002B     		cmp	r3, #0
 1925 0aca 20D0     		beq	.L84
 808:../STM32F2xx_HAL_Driver/Src/stm32f2xx_hal_hcd.c ****   {
 809:../STM32F2xx_HAL_Driver/Src/stm32f2xx_hal_hcd.c ****     __HAL_HCD_UNMASK_HALT_HC_INT(chnum); 
 1926              		.loc 1 809 0
 1927 0acc FB78     		ldrb	r3, [r7, #3]	@ zero_extendqisi2
 1928 0ace 5A01     		lsls	r2, r3, #5
 1929 0ad0 FB68     		ldr	r3, [r7, #12]
 1930 0ad2 1344     		add	r3, r3, r2
 1931 0ad4 03F5A063 		add	r3, r3, #1280
 1932 0ad8 FA78     		ldrb	r2, [r7, #3]	@ zero_extendqisi2
 1933 0ada 5101     		lsls	r1, r2, #5
 1934 0adc FA68     		ldr	r2, [r7, #12]
 1935 0ade 0A44     		add	r2, r2, r1
 1936 0ae0 02F5A062 		add	r2, r2, #1280
 1937 0ae4 D268     		ldr	r2, [r2, #12]
 1938 0ae6 42F00202 		orr	r2, r2, #2
 1939 0aea DA60     		str	r2, [r3, #12]
 810:../STM32F2xx_HAL_Driver/Src/stm32f2xx_hal_hcd.c ****     USB_HC_Halt(hhcd->Instance, chnum);  
 1940              		.loc 1 810 0
 1941 0aec 7B68     		ldr	r3, [r7, #4]
 1942 0aee 1A68     		ldr	r2, [r3]
 1943 0af0 FB78     		ldrb	r3, [r7, #3]	@ zero_extendqisi2
 1944 0af2 1046     		mov	r0, r2
 1945 0af4 1946     		mov	r1, r3
 1946 0af6 FFF7FEFF 		bl	USB_HC_Halt
 811:../STM32F2xx_HAL_Driver/Src/stm32f2xx_hal_hcd.c ****     __HAL_HCD_CLEAR_HC_INT(chnum, USB_OTG_HCINT_FRMOR);
 1947              		.loc 1 811 0
 1948 0afa FB78     		ldrb	r3, [r7, #3]	@ zero_extendqisi2
 1949 0afc 5A01     		lsls	r2, r3, #5
 1950 0afe FB68     		ldr	r3, [r7, #12]
 1951 0b00 1344     		add	r3, r3, r2
 1952 0b02 03F5A063 		add	r3, r3, #1280
 1953 0b06 4FF40072 		mov	r2, #512
 1954 0b0a 9A60     		str	r2, [r3, #8]
 1955 0b0c 4EE2     		b	.L79
 1956              	.L84:
 812:../STM32F2xx_HAL_Driver/Src/stm32f2xx_hal_hcd.c ****   }
 813:../STM32F2xx_HAL_Driver/Src/stm32f2xx_hal_hcd.c ****   
 814:../STM32F2xx_HAL_Driver/Src/stm32f2xx_hal_hcd.c ****   else if ((USBx_HC(chnum)->HCINT) &  USB_OTG_HCINT_XFRC)
 1957              		.loc 1 814 0
 1958 0b0e FB78     		ldrb	r3, [r7, #3]	@ zero_extendqisi2
 1959 0b10 5A01     		lsls	r2, r3, #5
 1960 0b12 FB68     		ldr	r3, [r7, #12]
 1961 0b14 1344     		add	r3, r3, r2
 1962 0b16 03F5A063 		add	r3, r3, #1280
 1963 0b1a 9B68     		ldr	r3, [r3, #8]
 1964 0b1c 03F00103 		and	r3, r3, #1
 1965 0b20 002B     		cmp	r3, #0
 1966 0b22 00F0BD80 		beq	.L86
 815:../STM32F2xx_HAL_Driver/Src/stm32f2xx_hal_hcd.c ****   {
 816:../STM32F2xx_HAL_Driver/Src/stm32f2xx_hal_hcd.c ****     
 817:../STM32F2xx_HAL_Driver/Src/stm32f2xx_hal_hcd.c ****     if (hhcd->Init.dma_enable)
 1967              		.loc 1 817 0
 1968 0b26 7B68     		ldr	r3, [r7, #4]
 1969 0b28 1B69     		ldr	r3, [r3, #16]
 1970 0b2a 002B     		cmp	r3, #0
 1971 0b2c 1BD0     		beq	.L87
 818:../STM32F2xx_HAL_Driver/Src/stm32f2xx_hal_hcd.c ****     {
 819:../STM32F2xx_HAL_Driver/Src/stm32f2xx_hal_hcd.c ****       hhcd->hc[chnum].xfer_count = hhcd->hc[chnum].xfer_len - \
 1972              		.loc 1 819 0
 1973 0b2e FA78     		ldrb	r2, [r7, #3]	@ zero_extendqisi2
 1974 0b30 F978     		ldrb	r1, [r7, #3]	@ zero_extendqisi2
 1975 0b32 7868     		ldr	r0, [r7, #4]
 1976 0b34 0B46     		mov	r3, r1
 1977 0b36 9B00     		lsls	r3, r3, #2
 1978 0b38 0B44     		add	r3, r3, r1
 1979 0b3a DB00     		lsls	r3, r3, #3
 1980 0b3c 0344     		add	r3, r3, r0
 1981 0b3e 4033     		adds	r3, r3, #64
 1982 0b40 1968     		ldr	r1, [r3]
 820:../STM32F2xx_HAL_Driver/Src/stm32f2xx_hal_hcd.c ****                                (USBx_HC(chnum)->HCTSIZ & USB_OTG_HCTSIZ_XFRSIZ);
 1983              		.loc 1 820 0
 1984 0b42 FB78     		ldrb	r3, [r7, #3]	@ zero_extendqisi2
 1985 0b44 5801     		lsls	r0, r3, #5
 1986 0b46 FB68     		ldr	r3, [r7, #12]
 1987 0b48 0344     		add	r3, r3, r0
 1988 0b4a 03F5A063 		add	r3, r3, #1280
 1989 0b4e 1B69     		ldr	r3, [r3, #16]
 1990 0b50 C3F31203 		ubfx	r3, r3, #0, #19
 819:../STM32F2xx_HAL_Driver/Src/stm32f2xx_hal_hcd.c ****                                (USBx_HC(chnum)->HCTSIZ & USB_OTG_HCTSIZ_XFRSIZ);
 1991              		.loc 1 819 0
 1992 0b54 C91A     		subs	r1, r1, r3
 1993 0b56 7868     		ldr	r0, [r7, #4]
 1994 0b58 1346     		mov	r3, r2
 1995 0b5a 9B00     		lsls	r3, r3, #2
 1996 0b5c 1344     		add	r3, r3, r2
 1997 0b5e DB00     		lsls	r3, r3, #3
 1998 0b60 0344     		add	r3, r3, r0
 1999 0b62 4433     		adds	r3, r3, #68
 2000 0b64 1960     		str	r1, [r3]
 2001              	.L87:
 821:../STM32F2xx_HAL_Driver/Src/stm32f2xx_hal_hcd.c ****     }
 822:../STM32F2xx_HAL_Driver/Src/stm32f2xx_hal_hcd.c ****     
 823:../STM32F2xx_HAL_Driver/Src/stm32f2xx_hal_hcd.c ****     hhcd->hc[chnum].state = HC_XFRC;
 2002              		.loc 1 823 0
 2003 0b66 FA78     		ldrb	r2, [r7, #3]	@ zero_extendqisi2
 2004 0b68 7968     		ldr	r1, [r7, #4]
 2005 0b6a 1346     		mov	r3, r2
 2006 0b6c 9B00     		lsls	r3, r3, #2
 2007 0b6e 1344     		add	r3, r3, r2
 2008 0b70 DB00     		lsls	r3, r3, #3
 2009 0b72 0B44     		add	r3, r3, r1
 2010 0b74 5033     		adds	r3, r3, #80
 2011 0b76 0122     		movs	r2, #1
 2012 0b78 5A71     		strb	r2, [r3, #5]
 824:../STM32F2xx_HAL_Driver/Src/stm32f2xx_hal_hcd.c ****     hhcd->hc[chnum].ErrCnt = 0;
 2013              		.loc 1 824 0
 2014 0b7a FA78     		ldrb	r2, [r7, #3]	@ zero_extendqisi2
 2015 0b7c 7968     		ldr	r1, [r7, #4]
 2016 0b7e 1346     		mov	r3, r2
 2017 0b80 9B00     		lsls	r3, r3, #2
 2018 0b82 1344     		add	r3, r3, r2
 2019 0b84 DB00     		lsls	r3, r3, #3
 2020 0b86 0B44     		add	r3, r3, r1
 2021 0b88 5033     		adds	r3, r3, #80
 2022 0b8a 0022     		movs	r2, #0
 2023 0b8c 1A60     		str	r2, [r3]
 825:../STM32F2xx_HAL_Driver/Src/stm32f2xx_hal_hcd.c ****     __HAL_HCD_CLEAR_HC_INT(chnum, USB_OTG_HCINT_XFRC);
 2024              		.loc 1 825 0
 2025 0b8e FB78     		ldrb	r3, [r7, #3]	@ zero_extendqisi2
 2026 0b90 5A01     		lsls	r2, r3, #5
 2027 0b92 FB68     		ldr	r3, [r7, #12]
 2028 0b94 1344     		add	r3, r3, r2
 2029 0b96 03F5A063 		add	r3, r3, #1280
 2030 0b9a 0122     		movs	r2, #1
 2031 0b9c 9A60     		str	r2, [r3, #8]
 826:../STM32F2xx_HAL_Driver/Src/stm32f2xx_hal_hcd.c ****     
 827:../STM32F2xx_HAL_Driver/Src/stm32f2xx_hal_hcd.c ****     
 828:../STM32F2xx_HAL_Driver/Src/stm32f2xx_hal_hcd.c ****     if ((hhcd->hc[chnum].ep_type == EP_TYPE_CTRL)||
 2032              		.loc 1 828 0
 2033 0b9e FA78     		ldrb	r2, [r7, #3]	@ zero_extendqisi2
 2034 0ba0 7968     		ldr	r1, [r7, #4]
 2035 0ba2 1346     		mov	r3, r2
 2036 0ba4 9B00     		lsls	r3, r3, #2
 2037 0ba6 1344     		add	r3, r3, r2
 2038 0ba8 DB00     		lsls	r3, r3, #3
 2039 0baa 0B44     		add	r3, r3, r1
 2040 0bac 3033     		adds	r3, r3, #48
 2041 0bae DB79     		ldrb	r3, [r3, #7]	@ zero_extendqisi2
 2042 0bb0 002B     		cmp	r3, #0
 2043 0bb2 0AD0     		beq	.L88
 829:../STM32F2xx_HAL_Driver/Src/stm32f2xx_hal_hcd.c ****         (hhcd->hc[chnum].ep_type == EP_TYPE_BULK))
 2044              		.loc 1 829 0 discriminator 1
 2045 0bb4 FA78     		ldrb	r2, [r7, #3]	@ zero_extendqisi2
 2046 0bb6 7968     		ldr	r1, [r7, #4]
 2047 0bb8 1346     		mov	r3, r2
 2048 0bba 9B00     		lsls	r3, r3, #2
 2049 0bbc 1344     		add	r3, r3, r2
 2050 0bbe DB00     		lsls	r3, r3, #3
 2051 0bc0 0B44     		add	r3, r3, r1
 2052 0bc2 3033     		adds	r3, r3, #48
 2053 0bc4 DB79     		ldrb	r3, [r3, #7]	@ zero_extendqisi2
 828:../STM32F2xx_HAL_Driver/Src/stm32f2xx_hal_hcd.c ****         (hhcd->hc[chnum].ep_type == EP_TYPE_BULK))
 2054              		.loc 1 828 0 discriminator 1
 2055 0bc6 022B     		cmp	r3, #2
 2056 0bc8 1FD1     		bne	.L89
 2057              	.L88:
 830:../STM32F2xx_HAL_Driver/Src/stm32f2xx_hal_hcd.c ****     {
 831:../STM32F2xx_HAL_Driver/Src/stm32f2xx_hal_hcd.c ****       __HAL_HCD_UNMASK_HALT_HC_INT(chnum); 
 2058              		.loc 1 831 0
 2059 0bca FB78     		ldrb	r3, [r7, #3]	@ zero_extendqisi2
 2060 0bcc 5A01     		lsls	r2, r3, #5
 2061 0bce FB68     		ldr	r3, [r7, #12]
 2062 0bd0 1344     		add	r3, r3, r2
 2063 0bd2 03F5A063 		add	r3, r3, #1280
 2064 0bd6 FA78     		ldrb	r2, [r7, #3]	@ zero_extendqisi2
 2065 0bd8 5101     		lsls	r1, r2, #5
 2066 0bda FA68     		ldr	r2, [r7, #12]
 2067 0bdc 0A44     		add	r2, r2, r1
 2068 0bde 02F5A062 		add	r2, r2, #1280
 2069 0be2 D268     		ldr	r2, [r2, #12]
 2070 0be4 42F00202 		orr	r2, r2, #2
 2071 0be8 DA60     		str	r2, [r3, #12]
 832:../STM32F2xx_HAL_Driver/Src/stm32f2xx_hal_hcd.c ****       USB_HC_Halt(hhcd->Instance, chnum); 
 2072              		.loc 1 832 0
 2073 0bea 7B68     		ldr	r3, [r7, #4]
 2074 0bec 1A68     		ldr	r2, [r3]
 2075 0bee FB78     		ldrb	r3, [r7, #3]	@ zero_extendqisi2
 2076 0bf0 1046     		mov	r0, r2
 2077 0bf2 1946     		mov	r1, r3
 2078 0bf4 FFF7FEFF 		bl	USB_HC_Halt
 833:../STM32F2xx_HAL_Driver/Src/stm32f2xx_hal_hcd.c ****       __HAL_HCD_CLEAR_HC_INT(chnum, USB_OTG_HCINT_NAK);
 2079              		.loc 1 833 0
 2080 0bf8 FB78     		ldrb	r3, [r7, #3]	@ zero_extendqisi2
 2081 0bfa 5A01     		lsls	r2, r3, #5
 2082 0bfc FB68     		ldr	r3, [r7, #12]
 2083 0bfe 1344     		add	r3, r3, r2
 2084 0c00 03F5A063 		add	r3, r3, #1280
 2085 0c04 1022     		movs	r2, #16
 2086 0c06 9A60     		str	r2, [r3, #8]
 2087 0c08 33E0     		b	.L90
 2088              	.L89:
 834:../STM32F2xx_HAL_Driver/Src/stm32f2xx_hal_hcd.c ****       
 835:../STM32F2xx_HAL_Driver/Src/stm32f2xx_hal_hcd.c ****     }
 836:../STM32F2xx_HAL_Driver/Src/stm32f2xx_hal_hcd.c ****     else if(hhcd->hc[chnum].ep_type == EP_TYPE_INTR)
 2089              		.loc 1 836 0
 2090 0c0a FA78     		ldrb	r2, [r7, #3]	@ zero_extendqisi2
 2091 0c0c 7968     		ldr	r1, [r7, #4]
 2092 0c0e 1346     		mov	r3, r2
 2093 0c10 9B00     		lsls	r3, r3, #2
 2094 0c12 1344     		add	r3, r3, r2
 2095 0c14 DB00     		lsls	r3, r3, #3
 2096 0c16 0B44     		add	r3, r3, r1
 2097 0c18 3033     		adds	r3, r3, #48
 2098 0c1a DB79     		ldrb	r3, [r3, #7]	@ zero_extendqisi2
 2099 0c1c 032B     		cmp	r3, #3
 2100 0c1e 28D1     		bne	.L90
 837:../STM32F2xx_HAL_Driver/Src/stm32f2xx_hal_hcd.c ****     {
 838:../STM32F2xx_HAL_Driver/Src/stm32f2xx_hal_hcd.c ****       USBx_HC(chnum)->HCCHAR |= USB_OTG_HCCHAR_ODDFRM;
 2101              		.loc 1 838 0
 2102 0c20 FB78     		ldrb	r3, [r7, #3]	@ zero_extendqisi2
 2103 0c22 5A01     		lsls	r2, r3, #5
 2104 0c24 FB68     		ldr	r3, [r7, #12]
 2105 0c26 1344     		add	r3, r3, r2
 2106 0c28 03F5A063 		add	r3, r3, #1280
 2107 0c2c FA78     		ldrb	r2, [r7, #3]	@ zero_extendqisi2
 2108 0c2e 5101     		lsls	r1, r2, #5
 2109 0c30 FA68     		ldr	r2, [r7, #12]
 2110 0c32 0A44     		add	r2, r2, r1
 2111 0c34 02F5A062 		add	r2, r2, #1280
 2112 0c38 1268     		ldr	r2, [r2]
 2113 0c3a 42F00052 		orr	r2, r2, #536870912
 2114 0c3e 1A60     		str	r2, [r3]
 839:../STM32F2xx_HAL_Driver/Src/stm32f2xx_hal_hcd.c ****       hhcd->hc[chnum].urb_state = URB_DONE; 
 2115              		.loc 1 839 0
 2116 0c40 FA78     		ldrb	r2, [r7, #3]	@ zero_extendqisi2
 2117 0c42 7968     		ldr	r1, [r7, #4]
 2118 0c44 1346     		mov	r3, r2
 2119 0c46 9B00     		lsls	r3, r3, #2
 2120 0c48 1344     		add	r3, r3, r2
 2121 0c4a DB00     		lsls	r3, r3, #3
 2122 0c4c 0B44     		add	r3, r3, r1
 2123 0c4e 5033     		adds	r3, r3, #80
 2124 0c50 0122     		movs	r2, #1
 2125 0c52 1A71     		strb	r2, [r3, #4]
 840:../STM32F2xx_HAL_Driver/Src/stm32f2xx_hal_hcd.c ****       HAL_HCD_HC_NotifyURBChange_Callback(hhcd, chnum, hhcd->hc[chnum].urb_state);
 2126              		.loc 1 840 0
 2127 0c54 FA78     		ldrb	r2, [r7, #3]	@ zero_extendqisi2
 2128 0c56 7968     		ldr	r1, [r7, #4]
 2129 0c58 1346     		mov	r3, r2
 2130 0c5a 9B00     		lsls	r3, r3, #2
 2131 0c5c 1344     		add	r3, r3, r2
 2132 0c5e DB00     		lsls	r3, r3, #3
 2133 0c60 0B44     		add	r3, r3, r1
 2134 0c62 5033     		adds	r3, r3, #80
 2135 0c64 1B79     		ldrb	r3, [r3, #4]	@ zero_extendqisi2
 2136 0c66 FA78     		ldrb	r2, [r7, #3]	@ zero_extendqisi2
 2137 0c68 7868     		ldr	r0, [r7, #4]
 2138 0c6a 1146     		mov	r1, r2
 2139 0c6c 1A46     		mov	r2, r3
 2140 0c6e FFF7FEFF 		bl	HAL_HCD_HC_NotifyURBChange_Callback
 2141              	.L90:
 841:../STM32F2xx_HAL_Driver/Src/stm32f2xx_hal_hcd.c ****     }
 842:../STM32F2xx_HAL_Driver/Src/stm32f2xx_hal_hcd.c ****     hhcd->hc[chnum].toggle_in ^= 1;
 2142              		.loc 1 842 0
 2143 0c72 FA78     		ldrb	r2, [r7, #3]	@ zero_extendqisi2
 2144 0c74 F978     		ldrb	r1, [r7, #3]	@ zero_extendqisi2
 2145 0c76 7868     		ldr	r0, [r7, #4]
 2146 0c78 0B46     		mov	r3, r1
 2147 0c7a 9B00     		lsls	r3, r3, #2
 2148 0c7c 0B44     		add	r3, r3, r1
 2149 0c7e DB00     		lsls	r3, r3, #3
 2150 0c80 0344     		add	r3, r3, r0
 2151 0c82 4833     		adds	r3, r3, #72
 2152 0c84 1B78     		ldrb	r3, [r3]	@ zero_extendqisi2
 2153 0c86 83F00103 		eor	r3, r3, #1
 2154 0c8a D9B2     		uxtb	r1, r3
 2155 0c8c 7868     		ldr	r0, [r7, #4]
 2156 0c8e 1346     		mov	r3, r2
 2157 0c90 9B00     		lsls	r3, r3, #2
 2158 0c92 1344     		add	r3, r3, r2
 2159 0c94 DB00     		lsls	r3, r3, #3
 2160 0c96 0344     		add	r3, r3, r0
 2161 0c98 4833     		adds	r3, r3, #72
 2162 0c9a 0A46     		mov	r2, r1
 2163 0c9c 1A70     		strb	r2, [r3]
 2164 0c9e 85E1     		b	.L79
 2165              	.L86:
 843:../STM32F2xx_HAL_Driver/Src/stm32f2xx_hal_hcd.c ****     
 844:../STM32F2xx_HAL_Driver/Src/stm32f2xx_hal_hcd.c ****   }
 845:../STM32F2xx_HAL_Driver/Src/stm32f2xx_hal_hcd.c ****   else if ((USBx_HC(chnum)->HCINT) &  USB_OTG_HCINT_CHH)
 2166              		.loc 1 845 0
 2167 0ca0 FB78     		ldrb	r3, [r7, #3]	@ zero_extendqisi2
 2168 0ca2 5A01     		lsls	r2, r3, #5
 2169 0ca4 FB68     		ldr	r3, [r7, #12]
 2170 0ca6 1344     		add	r3, r3, r2
 2171 0ca8 03F5A063 		add	r3, r3, #1280
 2172 0cac 9B68     		ldr	r3, [r3, #8]
 2173 0cae 03F00203 		and	r3, r3, #2
 2174 0cb2 002B     		cmp	r3, #0
 2175 0cb4 00F0BD80 		beq	.L91
 846:../STM32F2xx_HAL_Driver/Src/stm32f2xx_hal_hcd.c ****   {
 847:../STM32F2xx_HAL_Driver/Src/stm32f2xx_hal_hcd.c ****     __HAL_HCD_MASK_HALT_HC_INT(chnum); 
 2176              		.loc 1 847 0
 2177 0cb8 FB78     		ldrb	r3, [r7, #3]	@ zero_extendqisi2
 2178 0cba 5A01     		lsls	r2, r3, #5
 2179 0cbc FB68     		ldr	r3, [r7, #12]
 2180 0cbe 1344     		add	r3, r3, r2
 2181 0cc0 03F5A063 		add	r3, r3, #1280
 2182 0cc4 FA78     		ldrb	r2, [r7, #3]	@ zero_extendqisi2
 2183 0cc6 5101     		lsls	r1, r2, #5
 2184 0cc8 FA68     		ldr	r2, [r7, #12]
 2185 0cca 0A44     		add	r2, r2, r1
 2186 0ccc 02F5A062 		add	r2, r2, #1280
 2187 0cd0 D268     		ldr	r2, [r2, #12]
 2188 0cd2 22F00202 		bic	r2, r2, #2
 2189 0cd6 DA60     		str	r2, [r3, #12]
 848:../STM32F2xx_HAL_Driver/Src/stm32f2xx_hal_hcd.c ****     
 849:../STM32F2xx_HAL_Driver/Src/stm32f2xx_hal_hcd.c ****     if(hhcd->hc[chnum].state == HC_XFRC)
 2190              		.loc 1 849 0
 2191 0cd8 FA78     		ldrb	r2, [r7, #3]	@ zero_extendqisi2
 2192 0cda 7968     		ldr	r1, [r7, #4]
 2193 0cdc 1346     		mov	r3, r2
 2194 0cde 9B00     		lsls	r3, r3, #2
 2195 0ce0 1344     		add	r3, r3, r2
 2196 0ce2 DB00     		lsls	r3, r3, #3
 2197 0ce4 0B44     		add	r3, r3, r1
 2198 0ce6 5033     		adds	r3, r3, #80
 2199 0ce8 5B79     		ldrb	r3, [r3, #5]	@ zero_extendqisi2
 2200 0cea 012B     		cmp	r3, #1
 2201 0cec 0AD1     		bne	.L92
 850:../STM32F2xx_HAL_Driver/Src/stm32f2xx_hal_hcd.c ****     {
 851:../STM32F2xx_HAL_Driver/Src/stm32f2xx_hal_hcd.c ****       hhcd->hc[chnum].urb_state  = URB_DONE;      
 2202              		.loc 1 851 0
 2203 0cee FA78     		ldrb	r2, [r7, #3]	@ zero_extendqisi2
 2204 0cf0 7968     		ldr	r1, [r7, #4]
 2205 0cf2 1346     		mov	r3, r2
 2206 0cf4 9B00     		lsls	r3, r3, #2
 2207 0cf6 1344     		add	r3, r3, r2
 2208 0cf8 DB00     		lsls	r3, r3, #3
 2209 0cfa 0B44     		add	r3, r3, r1
 2210 0cfc 5033     		adds	r3, r3, #80
 2211 0cfe 0122     		movs	r2, #1
 2212 0d00 1A71     		strb	r2, [r3, #4]
 2213 0d02 7EE0     		b	.L93
 2214              	.L92:
 852:../STM32F2xx_HAL_Driver/Src/stm32f2xx_hal_hcd.c ****     }
 853:../STM32F2xx_HAL_Driver/Src/stm32f2xx_hal_hcd.c ****     
 854:../STM32F2xx_HAL_Driver/Src/stm32f2xx_hal_hcd.c ****     else if (hhcd->hc[chnum].state == HC_STALL) 
 2215              		.loc 1 854 0
 2216 0d04 FA78     		ldrb	r2, [r7, #3]	@ zero_extendqisi2
 2217 0d06 7968     		ldr	r1, [r7, #4]
 2218 0d08 1346     		mov	r3, r2
 2219 0d0a 9B00     		lsls	r3, r3, #2
 2220 0d0c 1344     		add	r3, r3, r2
 2221 0d0e DB00     		lsls	r3, r3, #3
 2222 0d10 0B44     		add	r3, r3, r1
 2223 0d12 5033     		adds	r3, r3, #80
 2224 0d14 5B79     		ldrb	r3, [r3, #5]	@ zero_extendqisi2
 2225 0d16 052B     		cmp	r3, #5
 2226 0d18 0AD1     		bne	.L94
 855:../STM32F2xx_HAL_Driver/Src/stm32f2xx_hal_hcd.c ****     {
 856:../STM32F2xx_HAL_Driver/Src/stm32f2xx_hal_hcd.c ****       hhcd->hc[chnum].urb_state  = URB_STALL;
 2227              		.loc 1 856 0
 2228 0d1a FA78     		ldrb	r2, [r7, #3]	@ zero_extendqisi2
 2229 0d1c 7968     		ldr	r1, [r7, #4]
 2230 0d1e 1346     		mov	r3, r2
 2231 0d20 9B00     		lsls	r3, r3, #2
 2232 0d22 1344     		add	r3, r3, r2
 2233 0d24 DB00     		lsls	r3, r3, #3
 2234 0d26 0B44     		add	r3, r3, r1
 2235 0d28 5033     		adds	r3, r3, #80
 2236 0d2a 0522     		movs	r2, #5
 2237 0d2c 1A71     		strb	r2, [r3, #4]
 2238 0d2e 68E0     		b	.L93
 2239              	.L94:
 857:../STM32F2xx_HAL_Driver/Src/stm32f2xx_hal_hcd.c ****     }   
 858:../STM32F2xx_HAL_Driver/Src/stm32f2xx_hal_hcd.c ****     
 859:../STM32F2xx_HAL_Driver/Src/stm32f2xx_hal_hcd.c ****     else if((hhcd->hc[chnum].state == HC_XACTERR) ||
 2240              		.loc 1 859 0
 2241 0d30 FA78     		ldrb	r2, [r7, #3]	@ zero_extendqisi2
 2242 0d32 7968     		ldr	r1, [r7, #4]
 2243 0d34 1346     		mov	r3, r2
 2244 0d36 9B00     		lsls	r3, r3, #2
 2245 0d38 1344     		add	r3, r3, r2
 2246 0d3a DB00     		lsls	r3, r3, #3
 2247 0d3c 0B44     		add	r3, r3, r1
 2248 0d3e 5033     		adds	r3, r3, #80
 2249 0d40 5B79     		ldrb	r3, [r3, #5]	@ zero_extendqisi2
 2250 0d42 062B     		cmp	r3, #6
 2251 0d44 0AD0     		beq	.L95
 860:../STM32F2xx_HAL_Driver/Src/stm32f2xx_hal_hcd.c ****             (hhcd->hc[chnum].state == HC_DATATGLERR))
 2252              		.loc 1 860 0 discriminator 1
 2253 0d46 FA78     		ldrb	r2, [r7, #3]	@ zero_extendqisi2
 2254 0d48 7968     		ldr	r1, [r7, #4]
 2255 0d4a 1346     		mov	r3, r2
 2256 0d4c 9B00     		lsls	r3, r3, #2
 2257 0d4e 1344     		add	r3, r3, r2
 2258 0d50 DB00     		lsls	r3, r3, #3
 2259 0d52 0B44     		add	r3, r3, r1
 2260 0d54 5033     		adds	r3, r3, #80
 2261 0d56 5B79     		ldrb	r3, [r3, #5]	@ zero_extendqisi2
 859:../STM32F2xx_HAL_Driver/Src/stm32f2xx_hal_hcd.c ****             (hhcd->hc[chnum].state == HC_DATATGLERR))
 2262              		.loc 1 859 0 discriminator 1
 2263 0d58 082B     		cmp	r3, #8
 2264 0d5a 52D1     		bne	.L93
 2265              	.L95:
 861:../STM32F2xx_HAL_Driver/Src/stm32f2xx_hal_hcd.c ****     {
 862:../STM32F2xx_HAL_Driver/Src/stm32f2xx_hal_hcd.c ****       if(hhcd->hc[chnum].ErrCnt++ > 3)
 2266              		.loc 1 862 0
 2267 0d5c FA78     		ldrb	r2, [r7, #3]	@ zero_extendqisi2
 2268 0d5e 7968     		ldr	r1, [r7, #4]
 2269 0d60 1346     		mov	r3, r2
 2270 0d62 9B00     		lsls	r3, r3, #2
 2271 0d64 1344     		add	r3, r3, r2
 2272 0d66 DB00     		lsls	r3, r3, #3
 2273 0d68 0B44     		add	r3, r3, r1
 2274 0d6a 5033     		adds	r3, r3, #80
 2275 0d6c 1968     		ldr	r1, [r3]
 2276 0d6e 481C     		adds	r0, r1, #1
 2277 0d70 7C68     		ldr	r4, [r7, #4]
 2278 0d72 1346     		mov	r3, r2
 2279 0d74 9B00     		lsls	r3, r3, #2
 2280 0d76 1344     		add	r3, r3, r2
 2281 0d78 DB00     		lsls	r3, r3, #3
 2282 0d7a 2344     		add	r3, r3, r4
 2283 0d7c 5033     		adds	r3, r3, #80
 2284 0d7e 1860     		str	r0, [r3]
 2285 0d80 0329     		cmp	r1, #3
 2286 0d82 14D9     		bls	.L96
 863:../STM32F2xx_HAL_Driver/Src/stm32f2xx_hal_hcd.c ****       {      
 864:../STM32F2xx_HAL_Driver/Src/stm32f2xx_hal_hcd.c ****         hhcd->hc[chnum].ErrCnt = 0;
 2287              		.loc 1 864 0
 2288 0d84 FA78     		ldrb	r2, [r7, #3]	@ zero_extendqisi2
 2289 0d86 7968     		ldr	r1, [r7, #4]
 2290 0d88 1346     		mov	r3, r2
 2291 0d8a 9B00     		lsls	r3, r3, #2
 2292 0d8c 1344     		add	r3, r3, r2
 2293 0d8e DB00     		lsls	r3, r3, #3
 2294 0d90 0B44     		add	r3, r3, r1
 2295 0d92 5033     		adds	r3, r3, #80
 2296 0d94 0022     		movs	r2, #0
 2297 0d96 1A60     		str	r2, [r3]
 865:../STM32F2xx_HAL_Driver/Src/stm32f2xx_hal_hcd.c ****         hhcd->hc[chnum].urb_state = URB_ERROR;
 2298              		.loc 1 865 0
 2299 0d98 FA78     		ldrb	r2, [r7, #3]	@ zero_extendqisi2
 2300 0d9a 7968     		ldr	r1, [r7, #4]
 2301 0d9c 1346     		mov	r3, r2
 2302 0d9e 9B00     		lsls	r3, r3, #2
 2303 0da0 1344     		add	r3, r3, r2
 2304 0da2 DB00     		lsls	r3, r3, #3
 2305 0da4 0B44     		add	r3, r3, r1
 2306 0da6 5033     		adds	r3, r3, #80
 2307 0da8 0422     		movs	r2, #4
 2308 0daa 1A71     		strb	r2, [r3, #4]
 2309 0dac 09E0     		b	.L97
 2310              	.L96:
 866:../STM32F2xx_HAL_Driver/Src/stm32f2xx_hal_hcd.c ****       }
 867:../STM32F2xx_HAL_Driver/Src/stm32f2xx_hal_hcd.c ****       else
 868:../STM32F2xx_HAL_Driver/Src/stm32f2xx_hal_hcd.c ****       {
 869:../STM32F2xx_HAL_Driver/Src/stm32f2xx_hal_hcd.c ****         hhcd->hc[chnum].urb_state = URB_NOTREADY;
 2311              		.loc 1 869 0
 2312 0dae FA78     		ldrb	r2, [r7, #3]	@ zero_extendqisi2
 2313 0db0 7968     		ldr	r1, [r7, #4]
 2314 0db2 1346     		mov	r3, r2
 2315 0db4 9B00     		lsls	r3, r3, #2
 2316 0db6 1344     		add	r3, r3, r2
 2317 0db8 DB00     		lsls	r3, r3, #3
 2318 0dba 0B44     		add	r3, r3, r1
 2319 0dbc 5033     		adds	r3, r3, #80
 2320 0dbe 0222     		movs	r2, #2
 2321 0dc0 1A71     		strb	r2, [r3, #4]
 2322              	.L97:
 870:../STM32F2xx_HAL_Driver/Src/stm32f2xx_hal_hcd.c ****       }
 871:../STM32F2xx_HAL_Driver/Src/stm32f2xx_hal_hcd.c ****       
 872:../STM32F2xx_HAL_Driver/Src/stm32f2xx_hal_hcd.c ****       /* re-activate the channel  */
 873:../STM32F2xx_HAL_Driver/Src/stm32f2xx_hal_hcd.c ****       USBx_HC(chnum)->HCCHAR &= ~USB_OTG_HCCHAR_CHDIS;         
 2323              		.loc 1 873 0
 2324 0dc2 FB78     		ldrb	r3, [r7, #3]	@ zero_extendqisi2
 2325 0dc4 5A01     		lsls	r2, r3, #5
 2326 0dc6 FB68     		ldr	r3, [r7, #12]
 2327 0dc8 1344     		add	r3, r3, r2
 2328 0dca 03F5A063 		add	r3, r3, #1280
 2329 0dce FA78     		ldrb	r2, [r7, #3]	@ zero_extendqisi2
 2330 0dd0 5101     		lsls	r1, r2, #5
 2331 0dd2 FA68     		ldr	r2, [r7, #12]
 2332 0dd4 0A44     		add	r2, r2, r1
 2333 0dd6 02F5A062 		add	r2, r2, #1280
 2334 0dda 1268     		ldr	r2, [r2]
 2335 0ddc 22F08042 		bic	r2, r2, #1073741824
 2336 0de0 1A60     		str	r2, [r3]
 874:../STM32F2xx_HAL_Driver/Src/stm32f2xx_hal_hcd.c ****       USBx_HC(chnum)->HCCHAR |= USB_OTG_HCCHAR_CHENA;      
 2337              		.loc 1 874 0
 2338 0de2 FB78     		ldrb	r3, [r7, #3]	@ zero_extendqisi2
 2339 0de4 5A01     		lsls	r2, r3, #5
 2340 0de6 FB68     		ldr	r3, [r7, #12]
 2341 0de8 1344     		add	r3, r3, r2
 2342 0dea 03F5A063 		add	r3, r3, #1280
 2343 0dee FA78     		ldrb	r2, [r7, #3]	@ zero_extendqisi2
 2344 0df0 5101     		lsls	r1, r2, #5
 2345 0df2 FA68     		ldr	r2, [r7, #12]
 2346 0df4 0A44     		add	r2, r2, r1
 2347 0df6 02F5A062 		add	r2, r2, #1280
 2348 0dfa 1268     		ldr	r2, [r2]
 2349 0dfc 42F00042 		orr	r2, r2, #-2147483648
 2350 0e00 1A60     		str	r2, [r3]
 2351              	.L93:
 875:../STM32F2xx_HAL_Driver/Src/stm32f2xx_hal_hcd.c ****     }
 876:../STM32F2xx_HAL_Driver/Src/stm32f2xx_hal_hcd.c ****     __HAL_HCD_CLEAR_HC_INT(chnum, USB_OTG_HCINT_CHH);
 2352              		.loc 1 876 0 discriminator 1
 2353 0e02 FB78     		ldrb	r3, [r7, #3]	@ zero_extendqisi2
 2354 0e04 5A01     		lsls	r2, r3, #5
 2355 0e06 FB68     		ldr	r3, [r7, #12]
 2356 0e08 1344     		add	r3, r3, r2
 2357 0e0a 03F5A063 		add	r3, r3, #1280
 2358 0e0e 0222     		movs	r2, #2
 2359 0e10 9A60     		str	r2, [r3, #8]
 877:../STM32F2xx_HAL_Driver/Src/stm32f2xx_hal_hcd.c ****     HAL_HCD_HC_NotifyURBChange_Callback(hhcd, chnum, hhcd->hc[chnum].urb_state);
 2360              		.loc 1 877 0 discriminator 1
 2361 0e12 FA78     		ldrb	r2, [r7, #3]	@ zero_extendqisi2
 2362 0e14 7968     		ldr	r1, [r7, #4]
 2363 0e16 1346     		mov	r3, r2
 2364 0e18 9B00     		lsls	r3, r3, #2
 2365 0e1a 1344     		add	r3, r3, r2
 2366 0e1c DB00     		lsls	r3, r3, #3
 2367 0e1e 0B44     		add	r3, r3, r1
 2368 0e20 5033     		adds	r3, r3, #80
 2369 0e22 1B79     		ldrb	r3, [r3, #4]	@ zero_extendqisi2
 2370 0e24 FA78     		ldrb	r2, [r7, #3]	@ zero_extendqisi2
 2371 0e26 7868     		ldr	r0, [r7, #4]
 2372 0e28 1146     		mov	r1, r2
 2373 0e2a 1A46     		mov	r2, r3
 2374 0e2c FFF7FEFF 		bl	HAL_HCD_HC_NotifyURBChange_Callback
 2375 0e30 BCE0     		b	.L79
 2376              	.L91:
 878:../STM32F2xx_HAL_Driver/Src/stm32f2xx_hal_hcd.c ****   }  
 879:../STM32F2xx_HAL_Driver/Src/stm32f2xx_hal_hcd.c ****   
 880:../STM32F2xx_HAL_Driver/Src/stm32f2xx_hal_hcd.c ****   else if ((USBx_HC(chnum)->HCINT) &  USB_OTG_HCINT_TXERR)
 2377              		.loc 1 880 0
 2378 0e32 FB78     		ldrb	r3, [r7, #3]	@ zero_extendqisi2
 2379 0e34 5A01     		lsls	r2, r3, #5
 2380 0e36 FB68     		ldr	r3, [r7, #12]
 2381 0e38 1344     		add	r3, r3, r2
 2382 0e3a 03F5A063 		add	r3, r3, #1280
 2383 0e3e 9B68     		ldr	r3, [r3, #8]
 2384 0e40 03F08003 		and	r3, r3, #128
 2385 0e44 002B     		cmp	r3, #0
 2386 0e46 3BD0     		beq	.L98
 881:../STM32F2xx_HAL_Driver/Src/stm32f2xx_hal_hcd.c ****   {
 882:../STM32F2xx_HAL_Driver/Src/stm32f2xx_hal_hcd.c ****     __HAL_HCD_UNMASK_HALT_HC_INT(chnum); 
 2387              		.loc 1 882 0
 2388 0e48 FB78     		ldrb	r3, [r7, #3]	@ zero_extendqisi2
 2389 0e4a 5A01     		lsls	r2, r3, #5
 2390 0e4c FB68     		ldr	r3, [r7, #12]
 2391 0e4e 1344     		add	r3, r3, r2
 2392 0e50 03F5A063 		add	r3, r3, #1280
 2393 0e54 FA78     		ldrb	r2, [r7, #3]	@ zero_extendqisi2
 2394 0e56 5101     		lsls	r1, r2, #5
 2395 0e58 FA68     		ldr	r2, [r7, #12]
 2396 0e5a 0A44     		add	r2, r2, r1
 2397 0e5c 02F5A062 		add	r2, r2, #1280
 2398 0e60 D268     		ldr	r2, [r2, #12]
 2399 0e62 42F00202 		orr	r2, r2, #2
 2400 0e66 DA60     		str	r2, [r3, #12]
 883:../STM32F2xx_HAL_Driver/Src/stm32f2xx_hal_hcd.c ****      hhcd->hc[chnum].ErrCnt++;
 2401              		.loc 1 883 0
 2402 0e68 FA78     		ldrb	r2, [r7, #3]	@ zero_extendqisi2
 2403 0e6a 7968     		ldr	r1, [r7, #4]
 2404 0e6c 1346     		mov	r3, r2
 2405 0e6e 9B00     		lsls	r3, r3, #2
 2406 0e70 1344     		add	r3, r3, r2
 2407 0e72 DB00     		lsls	r3, r3, #3
 2408 0e74 0B44     		add	r3, r3, r1
 2409 0e76 5033     		adds	r3, r3, #80
 2410 0e78 1B68     		ldr	r3, [r3]
 2411 0e7a 591C     		adds	r1, r3, #1
 2412 0e7c 7868     		ldr	r0, [r7, #4]
 2413 0e7e 1346     		mov	r3, r2
 2414 0e80 9B00     		lsls	r3, r3, #2
 2415 0e82 1344     		add	r3, r3, r2
 2416 0e84 DB00     		lsls	r3, r3, #3
 2417 0e86 0344     		add	r3, r3, r0
 2418 0e88 5033     		adds	r3, r3, #80
 2419 0e8a 1960     		str	r1, [r3]
 884:../STM32F2xx_HAL_Driver/Src/stm32f2xx_hal_hcd.c ****      hhcd->hc[chnum].state = HC_XACTERR;
 2420              		.loc 1 884 0
 2421 0e8c FA78     		ldrb	r2, [r7, #3]	@ zero_extendqisi2
 2422 0e8e 7968     		ldr	r1, [r7, #4]
 2423 0e90 1346     		mov	r3, r2
 2424 0e92 9B00     		lsls	r3, r3, #2
 2425 0e94 1344     		add	r3, r3, r2
 2426 0e96 DB00     		lsls	r3, r3, #3
 2427 0e98 0B44     		add	r3, r3, r1
 2428 0e9a 5033     		adds	r3, r3, #80
 2429 0e9c 0622     		movs	r2, #6
 2430 0e9e 5A71     		strb	r2, [r3, #5]
 885:../STM32F2xx_HAL_Driver/Src/stm32f2xx_hal_hcd.c ****      USB_HC_Halt(hhcd->Instance, chnum);     
 2431              		.loc 1 885 0
 2432 0ea0 7B68     		ldr	r3, [r7, #4]
 2433 0ea2 1A68     		ldr	r2, [r3]
 2434 0ea4 FB78     		ldrb	r3, [r7, #3]	@ zero_extendqisi2
 2435 0ea6 1046     		mov	r0, r2
 2436 0ea8 1946     		mov	r1, r3
 2437 0eaa FFF7FEFF 		bl	USB_HC_Halt
 886:../STM32F2xx_HAL_Driver/Src/stm32f2xx_hal_hcd.c ****      __HAL_HCD_CLEAR_HC_INT(chnum, USB_OTG_HCINT_TXERR);
 2438              		.loc 1 886 0
 2439 0eae FB78     		ldrb	r3, [r7, #3]	@ zero_extendqisi2
 2440 0eb0 5A01     		lsls	r2, r3, #5
 2441 0eb2 FB68     		ldr	r3, [r7, #12]
 2442 0eb4 1344     		add	r3, r3, r2
 2443 0eb6 03F5A063 		add	r3, r3, #1280
 2444 0eba 8022     		movs	r2, #128
 2445 0ebc 9A60     		str	r2, [r3, #8]
 2446 0ebe 75E0     		b	.L79
 2447              	.L98:
 887:../STM32F2xx_HAL_Driver/Src/stm32f2xx_hal_hcd.c ****   }
 888:../STM32F2xx_HAL_Driver/Src/stm32f2xx_hal_hcd.c ****   else if ((USBx_HC(chnum)->HCINT) &  USB_OTG_HCINT_NAK)
 2448              		.loc 1 888 0
 2449 0ec0 FB78     		ldrb	r3, [r7, #3]	@ zero_extendqisi2
 2450 0ec2 5A01     		lsls	r2, r3, #5
 2451 0ec4 FB68     		ldr	r3, [r7, #12]
 2452 0ec6 1344     		add	r3, r3, r2
 2453 0ec8 03F5A063 		add	r3, r3, #1280
 2454 0ecc 9B68     		ldr	r3, [r3, #8]
 2455 0ece 03F01003 		and	r3, r3, #16
 2456 0ed2 002B     		cmp	r3, #0
 2457 0ed4 6AD0     		beq	.L79
 889:../STM32F2xx_HAL_Driver/Src/stm32f2xx_hal_hcd.c ****   {  
 890:../STM32F2xx_HAL_Driver/Src/stm32f2xx_hal_hcd.c ****     if(hhcd->hc[chnum].ep_type == EP_TYPE_INTR)
 2458              		.loc 1 890 0
 2459 0ed6 FA78     		ldrb	r2, [r7, #3]	@ zero_extendqisi2
 2460 0ed8 7968     		ldr	r1, [r7, #4]
 2461 0eda 1346     		mov	r3, r2
 2462 0edc 9B00     		lsls	r3, r3, #2
 2463 0ede 1344     		add	r3, r3, r2
 2464 0ee0 DB00     		lsls	r3, r3, #3
 2465 0ee2 0B44     		add	r3, r3, r1
 2466 0ee4 3033     		adds	r3, r3, #48
 2467 0ee6 DB79     		ldrb	r3, [r3, #7]	@ zero_extendqisi2
 2468 0ee8 032B     		cmp	r3, #3
 2469 0eea 17D1     		bne	.L99
 891:../STM32F2xx_HAL_Driver/Src/stm32f2xx_hal_hcd.c ****     {
 892:../STM32F2xx_HAL_Driver/Src/stm32f2xx_hal_hcd.c ****       __HAL_HCD_UNMASK_HALT_HC_INT(chnum); 
 2470              		.loc 1 892 0
 2471 0eec FB78     		ldrb	r3, [r7, #3]	@ zero_extendqisi2
 2472 0eee 5A01     		lsls	r2, r3, #5
 2473 0ef0 FB68     		ldr	r3, [r7, #12]
 2474 0ef2 1344     		add	r3, r3, r2
 2475 0ef4 03F5A063 		add	r3, r3, #1280
 2476 0ef8 FA78     		ldrb	r2, [r7, #3]	@ zero_extendqisi2
 2477 0efa 5101     		lsls	r1, r2, #5
 2478 0efc FA68     		ldr	r2, [r7, #12]
 2479 0efe 0A44     		add	r2, r2, r1
 2480 0f00 02F5A062 		add	r2, r2, #1280
 2481 0f04 D268     		ldr	r2, [r2, #12]
 2482 0f06 42F00202 		orr	r2, r2, #2
 2483 0f0a DA60     		str	r2, [r3, #12]
 893:../STM32F2xx_HAL_Driver/Src/stm32f2xx_hal_hcd.c ****       USB_HC_Halt(hhcd->Instance, chnum);  
 2484              		.loc 1 893 0
 2485 0f0c 7B68     		ldr	r3, [r7, #4]
 2486 0f0e 1A68     		ldr	r2, [r3]
 2487 0f10 FB78     		ldrb	r3, [r7, #3]	@ zero_extendqisi2
 2488 0f12 1046     		mov	r0, r2
 2489 0f14 1946     		mov	r1, r3
 2490 0f16 FFF7FEFF 		bl	USB_HC_Halt
 2491 0f1a 35E0     		b	.L100
 2492              	.L99:
 894:../STM32F2xx_HAL_Driver/Src/stm32f2xx_hal_hcd.c ****     }
 895:../STM32F2xx_HAL_Driver/Src/stm32f2xx_hal_hcd.c ****     else if  ((hhcd->hc[chnum].ep_type == EP_TYPE_CTRL)||
 2493              		.loc 1 895 0
 2494 0f1c FA78     		ldrb	r2, [r7, #3]	@ zero_extendqisi2
 2495 0f1e 7968     		ldr	r1, [r7, #4]
 2496 0f20 1346     		mov	r3, r2
 2497 0f22 9B00     		lsls	r3, r3, #2
 2498 0f24 1344     		add	r3, r3, r2
 2499 0f26 DB00     		lsls	r3, r3, #3
 2500 0f28 0B44     		add	r3, r3, r1
 2501 0f2a 3033     		adds	r3, r3, #48
 2502 0f2c DB79     		ldrb	r3, [r3, #7]	@ zero_extendqisi2
 2503 0f2e 002B     		cmp	r3, #0
 2504 0f30 0AD0     		beq	.L101
 896:../STM32F2xx_HAL_Driver/Src/stm32f2xx_hal_hcd.c ****               (hhcd->hc[chnum].ep_type == EP_TYPE_BULK))
 2505              		.loc 1 896 0 discriminator 1
 2506 0f32 FA78     		ldrb	r2, [r7, #3]	@ zero_extendqisi2
 2507 0f34 7968     		ldr	r1, [r7, #4]
 2508 0f36 1346     		mov	r3, r2
 2509 0f38 9B00     		lsls	r3, r3, #2
 2510 0f3a 1344     		add	r3, r3, r2
 2511 0f3c DB00     		lsls	r3, r3, #3
 2512 0f3e 0B44     		add	r3, r3, r1
 2513 0f40 3033     		adds	r3, r3, #48
 2514 0f42 DB79     		ldrb	r3, [r3, #7]	@ zero_extendqisi2
 895:../STM32F2xx_HAL_Driver/Src/stm32f2xx_hal_hcd.c ****               (hhcd->hc[chnum].ep_type == EP_TYPE_BULK))
 2515              		.loc 1 895 0 discriminator 1
 2516 0f44 022B     		cmp	r3, #2
 2517 0f46 1FD1     		bne	.L100
 2518              	.L101:
 897:../STM32F2xx_HAL_Driver/Src/stm32f2xx_hal_hcd.c ****     {
 898:../STM32F2xx_HAL_Driver/Src/stm32f2xx_hal_hcd.c ****       /* re-activate the channel  */
 899:../STM32F2xx_HAL_Driver/Src/stm32f2xx_hal_hcd.c ****       USBx_HC(chnum)->HCCHAR &= ~USB_OTG_HCCHAR_CHDIS;         
 2519              		.loc 1 899 0
 2520 0f48 FB78     		ldrb	r3, [r7, #3]	@ zero_extendqisi2
 2521 0f4a 5A01     		lsls	r2, r3, #5
 2522 0f4c FB68     		ldr	r3, [r7, #12]
 2523 0f4e 1344     		add	r3, r3, r2
 2524 0f50 03F5A063 		add	r3, r3, #1280
 2525 0f54 FA78     		ldrb	r2, [r7, #3]	@ zero_extendqisi2
 2526 0f56 5101     		lsls	r1, r2, #5
 2527 0f58 FA68     		ldr	r2, [r7, #12]
 2528 0f5a 0A44     		add	r2, r2, r1
 2529 0f5c 02F5A062 		add	r2, r2, #1280
 2530 0f60 1268     		ldr	r2, [r2]
 2531 0f62 22F08042 		bic	r2, r2, #1073741824
 2532 0f66 1A60     		str	r2, [r3]
 900:../STM32F2xx_HAL_Driver/Src/stm32f2xx_hal_hcd.c ****       USBx_HC(chnum)->HCCHAR |= USB_OTG_HCCHAR_CHENA;
 2533              		.loc 1 900 0
 2534 0f68 FB78     		ldrb	r3, [r7, #3]	@ zero_extendqisi2
 2535 0f6a 5A01     		lsls	r2, r3, #5
 2536 0f6c FB68     		ldr	r3, [r7, #12]
 2537 0f6e 1344     		add	r3, r3, r2
 2538 0f70 03F5A063 		add	r3, r3, #1280
 2539 0f74 FA78     		ldrb	r2, [r7, #3]	@ zero_extendqisi2
 2540 0f76 5101     		lsls	r1, r2, #5
 2541 0f78 FA68     		ldr	r2, [r7, #12]
 2542 0f7a 0A44     		add	r2, r2, r1
 2543 0f7c 02F5A062 		add	r2, r2, #1280
 2544 0f80 1268     		ldr	r2, [r2]
 2545 0f82 42F00042 		orr	r2, r2, #-2147483648
 2546 0f86 1A60     		str	r2, [r3]
 2547              	.L100:
 901:../STM32F2xx_HAL_Driver/Src/stm32f2xx_hal_hcd.c ****    
 902:../STM32F2xx_HAL_Driver/Src/stm32f2xx_hal_hcd.c ****     }
 903:../STM32F2xx_HAL_Driver/Src/stm32f2xx_hal_hcd.c ****     hhcd->hc[chnum].state = HC_NAK;
 2548              		.loc 1 903 0
 2549 0f88 FA78     		ldrb	r2, [r7, #3]	@ zero_extendqisi2
 2550 0f8a 7968     		ldr	r1, [r7, #4]
 2551 0f8c 1346     		mov	r3, r2
 2552 0f8e 9B00     		lsls	r3, r3, #2
 2553 0f90 1344     		add	r3, r3, r2
 2554 0f92 DB00     		lsls	r3, r3, #3
 2555 0f94 0B44     		add	r3, r3, r1
 2556 0f96 5033     		adds	r3, r3, #80
 2557 0f98 0322     		movs	r2, #3
 2558 0f9a 5A71     		strb	r2, [r3, #5]
 904:../STM32F2xx_HAL_Driver/Src/stm32f2xx_hal_hcd.c ****      __HAL_HCD_CLEAR_HC_INT(chnum, USB_OTG_HCINT_NAK);
 2559              		.loc 1 904 0
 2560 0f9c FB78     		ldrb	r3, [r7, #3]	@ zero_extendqisi2
 2561 0f9e 5A01     		lsls	r2, r3, #5
 2562 0fa0 FB68     		ldr	r3, [r7, #12]
 2563 0fa2 1344     		add	r3, r3, r2
 2564 0fa4 03F5A063 		add	r3, r3, #1280
 2565 0fa8 1022     		movs	r2, #16
 2566 0faa 9A60     		str	r2, [r3, #8]
 2567              	.L79:
 905:../STM32F2xx_HAL_Driver/Src/stm32f2xx_hal_hcd.c ****   }
 906:../STM32F2xx_HAL_Driver/Src/stm32f2xx_hal_hcd.c **** }
 2568              		.loc 1 906 0
 2569 0fac 1437     		adds	r7, r7, #20
 2570 0fae BD46     		mov	sp, r7
 2571              		@ sp needed
 2572 0fb0 90BD     		pop	{r4, r7, pc}
 2573              		.cfi_endproc
 2574              	.LFE76:
 2576 0fb2 00BF     		.align	2
 2577              		.thumb
 2578              		.thumb_func
 2580              	HCD_HC_OUT_IRQHandler:
 2581              	.LFB77:
 907:../STM32F2xx_HAL_Driver/Src/stm32f2xx_hal_hcd.c **** 
 908:../STM32F2xx_HAL_Driver/Src/stm32f2xx_hal_hcd.c **** /**
 909:../STM32F2xx_HAL_Driver/Src/stm32f2xx_hal_hcd.c ****   * @brief  This function handles Host Channel OUT interrupt requests.
 910:../STM32F2xx_HAL_Driver/Src/stm32f2xx_hal_hcd.c ****   * @param  hhcd: HCD handle
 911:../STM32F2xx_HAL_Driver/Src/stm32f2xx_hal_hcd.c ****   * @param  chnum : Channel number
 912:../STM32F2xx_HAL_Driver/Src/stm32f2xx_hal_hcd.c ****   *         This parameter can be a value from 1 to 15
 913:../STM32F2xx_HAL_Driver/Src/stm32f2xx_hal_hcd.c ****   * @retval none
 914:../STM32F2xx_HAL_Driver/Src/stm32f2xx_hal_hcd.c ****   */
 915:../STM32F2xx_HAL_Driver/Src/stm32f2xx_hal_hcd.c **** static void HCD_HC_OUT_IRQHandler  (HCD_HandleTypeDef *hhcd, uint8_t chnum)
 916:../STM32F2xx_HAL_Driver/Src/stm32f2xx_hal_hcd.c **** {
 2582              		.loc 1 916 0
 2583              		.cfi_startproc
 2584              		@ args = 0, pretend = 0, frame = 16
 2585              		@ frame_needed = 1, uses_anonymous_args = 0
 2586 0fb4 90B5     		push	{r4, r7, lr}
 2587              		.cfi_def_cfa_offset 12
 2588              		.cfi_offset 4, -12
 2589              		.cfi_offset 7, -8
 2590              		.cfi_offset 14, -4
 2591 0fb6 85B0     		sub	sp, sp, #20
 2592              		.cfi_def_cfa_offset 32
 2593 0fb8 00AF     		add	r7, sp, #0
 2594              		.cfi_def_cfa_register 7
 2595 0fba 7860     		str	r0, [r7, #4]
 2596 0fbc 0B46     		mov	r3, r1
 2597 0fbe FB70     		strb	r3, [r7, #3]
 917:../STM32F2xx_HAL_Driver/Src/stm32f2xx_hal_hcd.c ****   USB_OTG_GlobalTypeDef *USBx = hhcd->Instance;
 2598              		.loc 1 917 0
 2599 0fc0 7B68     		ldr	r3, [r7, #4]
 2600 0fc2 1B68     		ldr	r3, [r3]
 2601 0fc4 FB60     		str	r3, [r7, #12]
 918:../STM32F2xx_HAL_Driver/Src/stm32f2xx_hal_hcd.c ****   
 919:../STM32F2xx_HAL_Driver/Src/stm32f2xx_hal_hcd.c ****   if ((USBx_HC(chnum)->HCINT) &  USB_OTG_HCINT_AHBERR)
 2602              		.loc 1 919 0
 2603 0fc6 FB78     		ldrb	r3, [r7, #3]	@ zero_extendqisi2
 2604 0fc8 5A01     		lsls	r2, r3, #5
 2605 0fca FB68     		ldr	r3, [r7, #12]
 2606 0fcc 1344     		add	r3, r3, r2
 2607 0fce 03F5A063 		add	r3, r3, #1280
 2608 0fd2 9B68     		ldr	r3, [r3, #8]
 2609 0fd4 03F00403 		and	r3, r3, #4
 2610 0fd8 002B     		cmp	r3, #0
 2611 0fda 18D0     		beq	.L103
 920:../STM32F2xx_HAL_Driver/Src/stm32f2xx_hal_hcd.c ****   {
 921:../STM32F2xx_HAL_Driver/Src/stm32f2xx_hal_hcd.c ****     __HAL_HCD_CLEAR_HC_INT(chnum, USB_OTG_HCINT_AHBERR);
 2612              		.loc 1 921 0
 2613 0fdc FB78     		ldrb	r3, [r7, #3]	@ zero_extendqisi2
 2614 0fde 5A01     		lsls	r2, r3, #5
 2615 0fe0 FB68     		ldr	r3, [r7, #12]
 2616 0fe2 1344     		add	r3, r3, r2
 2617 0fe4 03F5A063 		add	r3, r3, #1280
 2618 0fe8 0422     		movs	r2, #4
 2619 0fea 9A60     		str	r2, [r3, #8]
 922:../STM32F2xx_HAL_Driver/Src/stm32f2xx_hal_hcd.c ****     __HAL_HCD_UNMASK_HALT_HC_INT(chnum);
 2620              		.loc 1 922 0
 2621 0fec FB78     		ldrb	r3, [r7, #3]	@ zero_extendqisi2
 2622 0fee 5A01     		lsls	r2, r3, #5
 2623 0ff0 FB68     		ldr	r3, [r7, #12]
 2624 0ff2 1344     		add	r3, r3, r2
 2625 0ff4 03F5A063 		add	r3, r3, #1280
 2626 0ff8 FA78     		ldrb	r2, [r7, #3]	@ zero_extendqisi2
 2627 0ffa 5101     		lsls	r1, r2, #5
 2628 0ffc FA68     		ldr	r2, [r7, #12]
 2629 0ffe 0A44     		add	r2, r2, r1
 2630 1000 02F5A062 		add	r2, r2, #1280
 2631 1004 D268     		ldr	r2, [r2, #12]
 2632 1006 42F00202 		orr	r2, r2, #2
 2633 100a DA60     		str	r2, [r3, #12]
 2634 100c FBE2     		b	.L102
 2635              	.L103:
 923:../STM32F2xx_HAL_Driver/Src/stm32f2xx_hal_hcd.c ****   }  
 924:../STM32F2xx_HAL_Driver/Src/stm32f2xx_hal_hcd.c ****   else if ((USBx_HC(chnum)->HCINT) &  USB_OTG_HCINT_ACK)
 2636              		.loc 1 924 0
 2637 100e FB78     		ldrb	r3, [r7, #3]	@ zero_extendqisi2
 2638 1010 5A01     		lsls	r2, r3, #5
 2639 1012 FB68     		ldr	r3, [r7, #12]
 2640 1014 1344     		add	r3, r3, r2
 2641 1016 03F5A063 		add	r3, r3, #1280
 2642 101a 9B68     		ldr	r3, [r3, #8]
 2643 101c 03F02003 		and	r3, r3, #32
 2644 1020 002B     		cmp	r3, #0
 2645 1022 3FD0     		beq	.L105
 925:../STM32F2xx_HAL_Driver/Src/stm32f2xx_hal_hcd.c ****   {
 926:../STM32F2xx_HAL_Driver/Src/stm32f2xx_hal_hcd.c ****     __HAL_HCD_CLEAR_HC_INT(chnum, USB_OTG_HCINT_ACK);
 2646              		.loc 1 926 0
 2647 1024 FB78     		ldrb	r3, [r7, #3]	@ zero_extendqisi2
 2648 1026 5A01     		lsls	r2, r3, #5
 2649 1028 FB68     		ldr	r3, [r7, #12]
 2650 102a 1344     		add	r3, r3, r2
 2651 102c 03F5A063 		add	r3, r3, #1280
 2652 1030 2022     		movs	r2, #32
 2653 1032 9A60     		str	r2, [r3, #8]
 927:../STM32F2xx_HAL_Driver/Src/stm32f2xx_hal_hcd.c ****     
 928:../STM32F2xx_HAL_Driver/Src/stm32f2xx_hal_hcd.c ****     if( hhcd->hc[chnum].do_ping == 1)
 2654              		.loc 1 928 0
 2655 1034 FA78     		ldrb	r2, [r7, #3]	@ zero_extendqisi2
 2656 1036 7968     		ldr	r1, [r7, #4]
 2657 1038 1346     		mov	r3, r2
 2658 103a 9B00     		lsls	r3, r3, #2
 2659 103c 1344     		add	r3, r3, r2
 2660 103e DB00     		lsls	r3, r3, #3
 2661 1040 0B44     		add	r3, r3, r1
 2662 1042 3033     		adds	r3, r3, #48
 2663 1044 5B79     		ldrb	r3, [r3, #5]	@ zero_extendqisi2
 2664 1046 012B     		cmp	r3, #1
 2665 1048 40F0DD82 		bne	.L102
 929:../STM32F2xx_HAL_Driver/Src/stm32f2xx_hal_hcd.c ****     {
 930:../STM32F2xx_HAL_Driver/Src/stm32f2xx_hal_hcd.c ****       hhcd->hc[chnum].state = HC_NYET;     
 2666              		.loc 1 930 0
 2667 104c FA78     		ldrb	r2, [r7, #3]	@ zero_extendqisi2
 2668 104e 7968     		ldr	r1, [r7, #4]
 2669 1050 1346     		mov	r3, r2
 2670 1052 9B00     		lsls	r3, r3, #2
 2671 1054 1344     		add	r3, r3, r2
 2672 1056 DB00     		lsls	r3, r3, #3
 2673 1058 0B44     		add	r3, r3, r1
 2674 105a 5033     		adds	r3, r3, #80
 2675 105c 0422     		movs	r2, #4
 2676 105e 5A71     		strb	r2, [r3, #5]
 931:../STM32F2xx_HAL_Driver/Src/stm32f2xx_hal_hcd.c ****       __HAL_HCD_UNMASK_HALT_HC_INT(chnum); 
 2677              		.loc 1 931 0
 2678 1060 FB78     		ldrb	r3, [r7, #3]	@ zero_extendqisi2
 2679 1062 5A01     		lsls	r2, r3, #5
 2680 1064 FB68     		ldr	r3, [r7, #12]
 2681 1066 1344     		add	r3, r3, r2
 2682 1068 03F5A063 		add	r3, r3, #1280
 2683 106c FA78     		ldrb	r2, [r7, #3]	@ zero_extendqisi2
 2684 106e 5101     		lsls	r1, r2, #5
 2685 1070 FA68     		ldr	r2, [r7, #12]
 2686 1072 0A44     		add	r2, r2, r1
 2687 1074 02F5A062 		add	r2, r2, #1280
 2688 1078 D268     		ldr	r2, [r2, #12]
 2689 107a 42F00202 		orr	r2, r2, #2
 2690 107e DA60     		str	r2, [r3, #12]
 932:../STM32F2xx_HAL_Driver/Src/stm32f2xx_hal_hcd.c ****       USB_HC_Halt(hhcd->Instance, chnum); 
 2691              		.loc 1 932 0
 2692 1080 7B68     		ldr	r3, [r7, #4]
 2693 1082 1A68     		ldr	r2, [r3]
 2694 1084 FB78     		ldrb	r3, [r7, #3]	@ zero_extendqisi2
 2695 1086 1046     		mov	r0, r2
 2696 1088 1946     		mov	r1, r3
 2697 108a FFF7FEFF 		bl	USB_HC_Halt
 933:../STM32F2xx_HAL_Driver/Src/stm32f2xx_hal_hcd.c ****       hhcd->hc[chnum].urb_state  = URB_NOTREADY;
 2698              		.loc 1 933 0
 2699 108e FA78     		ldrb	r2, [r7, #3]	@ zero_extendqisi2
 2700 1090 7968     		ldr	r1, [r7, #4]
 2701 1092 1346     		mov	r3, r2
 2702 1094 9B00     		lsls	r3, r3, #2
 2703 1096 1344     		add	r3, r3, r2
 2704 1098 DB00     		lsls	r3, r3, #3
 2705 109a 0B44     		add	r3, r3, r1
 2706 109c 5033     		adds	r3, r3, #80
 2707 109e 0222     		movs	r2, #2
 2708 10a0 1A71     		strb	r2, [r3, #4]
 2709 10a2 B0E2     		b	.L102
 2710              	.L105:
 934:../STM32F2xx_HAL_Driver/Src/stm32f2xx_hal_hcd.c ****     }
 935:../STM32F2xx_HAL_Driver/Src/stm32f2xx_hal_hcd.c ****   }
 936:../STM32F2xx_HAL_Driver/Src/stm32f2xx_hal_hcd.c ****   
 937:../STM32F2xx_HAL_Driver/Src/stm32f2xx_hal_hcd.c ****   else if ((USBx_HC(chnum)->HCINT) &  USB_OTG_HCINT_NYET)
 2711              		.loc 1 937 0
 2712 10a4 FB78     		ldrb	r3, [r7, #3]	@ zero_extendqisi2
 2713 10a6 5A01     		lsls	r2, r3, #5
 2714 10a8 FB68     		ldr	r3, [r7, #12]
 2715 10aa 1344     		add	r3, r3, r2
 2716 10ac 03F5A063 		add	r3, r3, #1280
 2717 10b0 9B68     		ldr	r3, [r3, #8]
 2718 10b2 03F04003 		and	r3, r3, #64
 2719 10b6 002B     		cmp	r3, #0
 2720 10b8 33D0     		beq	.L107
 938:../STM32F2xx_HAL_Driver/Src/stm32f2xx_hal_hcd.c ****   {
 939:../STM32F2xx_HAL_Driver/Src/stm32f2xx_hal_hcd.c ****     hhcd->hc[chnum].state = HC_NYET;
 2721              		.loc 1 939 0
 2722 10ba FA78     		ldrb	r2, [r7, #3]	@ zero_extendqisi2
 2723 10bc 7968     		ldr	r1, [r7, #4]
 2724 10be 1346     		mov	r3, r2
 2725 10c0 9B00     		lsls	r3, r3, #2
 2726 10c2 1344     		add	r3, r3, r2
 2727 10c4 DB00     		lsls	r3, r3, #3
 2728 10c6 0B44     		add	r3, r3, r1
 2729 10c8 5033     		adds	r3, r3, #80
 2730 10ca 0422     		movs	r2, #4
 2731 10cc 5A71     		strb	r2, [r3, #5]
 940:../STM32F2xx_HAL_Driver/Src/stm32f2xx_hal_hcd.c ****     hhcd->hc[chnum].ErrCnt= 0;    
 2732              		.loc 1 940 0
 2733 10ce FA78     		ldrb	r2, [r7, #3]	@ zero_extendqisi2
 2734 10d0 7968     		ldr	r1, [r7, #4]
 2735 10d2 1346     		mov	r3, r2
 2736 10d4 9B00     		lsls	r3, r3, #2
 2737 10d6 1344     		add	r3, r3, r2
 2738 10d8 DB00     		lsls	r3, r3, #3
 2739 10da 0B44     		add	r3, r3, r1
 2740 10dc 5033     		adds	r3, r3, #80
 2741 10de 0022     		movs	r2, #0
 2742 10e0 1A60     		str	r2, [r3]
 941:../STM32F2xx_HAL_Driver/Src/stm32f2xx_hal_hcd.c ****     __HAL_HCD_UNMASK_HALT_HC_INT(chnum); 
 2743              		.loc 1 941 0
 2744 10e2 FB78     		ldrb	r3, [r7, #3]	@ zero_extendqisi2
 2745 10e4 5A01     		lsls	r2, r3, #5
 2746 10e6 FB68     		ldr	r3, [r7, #12]
 2747 10e8 1344     		add	r3, r3, r2
 2748 10ea 03F5A063 		add	r3, r3, #1280
 2749 10ee FA78     		ldrb	r2, [r7, #3]	@ zero_extendqisi2
 2750 10f0 5101     		lsls	r1, r2, #5
 2751 10f2 FA68     		ldr	r2, [r7, #12]
 2752 10f4 0A44     		add	r2, r2, r1
 2753 10f6 02F5A062 		add	r2, r2, #1280
 2754 10fa D268     		ldr	r2, [r2, #12]
 2755 10fc 42F00202 		orr	r2, r2, #2
 2756 1100 DA60     		str	r2, [r3, #12]
 942:../STM32F2xx_HAL_Driver/Src/stm32f2xx_hal_hcd.c ****     USB_HC_Halt(hhcd->Instance, chnum);      
 2757              		.loc 1 942 0
 2758 1102 7B68     		ldr	r3, [r7, #4]
 2759 1104 1A68     		ldr	r2, [r3]
 2760 1106 FB78     		ldrb	r3, [r7, #3]	@ zero_extendqisi2
 2761 1108 1046     		mov	r0, r2
 2762 110a 1946     		mov	r1, r3
 2763 110c FFF7FEFF 		bl	USB_HC_Halt
 943:../STM32F2xx_HAL_Driver/Src/stm32f2xx_hal_hcd.c ****     __HAL_HCD_CLEAR_HC_INT(chnum, USB_OTG_HCINT_NYET);
 2764              		.loc 1 943 0
 2765 1110 FB78     		ldrb	r3, [r7, #3]	@ zero_extendqisi2
 2766 1112 5A01     		lsls	r2, r3, #5
 2767 1114 FB68     		ldr	r3, [r7, #12]
 2768 1116 1344     		add	r3, r3, r2
 2769 1118 03F5A063 		add	r3, r3, #1280
 2770 111c 4022     		movs	r2, #64
 2771 111e 9A60     		str	r2, [r3, #8]
 2772 1120 71E2     		b	.L102
 2773              	.L107:
 944:../STM32F2xx_HAL_Driver/Src/stm32f2xx_hal_hcd.c ****     
 945:../STM32F2xx_HAL_Driver/Src/stm32f2xx_hal_hcd.c ****   }  
 946:../STM32F2xx_HAL_Driver/Src/stm32f2xx_hal_hcd.c ****   
 947:../STM32F2xx_HAL_Driver/Src/stm32f2xx_hal_hcd.c ****   else if ((USBx_HC(chnum)->HCINT) &  USB_OTG_HCINT_FRMOR)
 2774              		.loc 1 947 0
 2775 1122 FB78     		ldrb	r3, [r7, #3]	@ zero_extendqisi2
 2776 1124 5A01     		lsls	r2, r3, #5
 2777 1126 FB68     		ldr	r3, [r7, #12]
 2778 1128 1344     		add	r3, r3, r2
 2779 112a 03F5A063 		add	r3, r3, #1280
 2780 112e 9B68     		ldr	r3, [r3, #8]
 2781 1130 03F40073 		and	r3, r3, #512
 2782 1134 002B     		cmp	r3, #0
 2783 1136 20D0     		beq	.L108
 948:../STM32F2xx_HAL_Driver/Src/stm32f2xx_hal_hcd.c ****   {
 949:../STM32F2xx_HAL_Driver/Src/stm32f2xx_hal_hcd.c ****     __HAL_HCD_UNMASK_HALT_HC_INT(chnum); 
 2784              		.loc 1 949 0
 2785 1138 FB78     		ldrb	r3, [r7, #3]	@ zero_extendqisi2
 2786 113a 5A01     		lsls	r2, r3, #5
 2787 113c FB68     		ldr	r3, [r7, #12]
 2788 113e 1344     		add	r3, r3, r2
 2789 1140 03F5A063 		add	r3, r3, #1280
 2790 1144 FA78     		ldrb	r2, [r7, #3]	@ zero_extendqisi2
 2791 1146 5101     		lsls	r1, r2, #5
 2792 1148 FA68     		ldr	r2, [r7, #12]
 2793 114a 0A44     		add	r2, r2, r1
 2794 114c 02F5A062 		add	r2, r2, #1280
 2795 1150 D268     		ldr	r2, [r2, #12]
 2796 1152 42F00202 		orr	r2, r2, #2
 2797 1156 DA60     		str	r2, [r3, #12]
 950:../STM32F2xx_HAL_Driver/Src/stm32f2xx_hal_hcd.c ****     USB_HC_Halt(hhcd->Instance, chnum);  
 2798              		.loc 1 950 0
 2799 1158 7B68     		ldr	r3, [r7, #4]
 2800 115a 1A68     		ldr	r2, [r3]
 2801 115c FB78     		ldrb	r3, [r7, #3]	@ zero_extendqisi2
 2802 115e 1046     		mov	r0, r2
 2803 1160 1946     		mov	r1, r3
 2804 1162 FFF7FEFF 		bl	USB_HC_Halt
 951:../STM32F2xx_HAL_Driver/Src/stm32f2xx_hal_hcd.c ****     __HAL_HCD_CLEAR_HC_INT(chnum, USB_OTG_HCINT_FRMOR);
 2805              		.loc 1 951 0
 2806 1166 FB78     		ldrb	r3, [r7, #3]	@ zero_extendqisi2
 2807 1168 5A01     		lsls	r2, r3, #5
 2808 116a FB68     		ldr	r3, [r7, #12]
 2809 116c 1344     		add	r3, r3, r2
 2810 116e 03F5A063 		add	r3, r3, #1280
 2811 1172 4FF40072 		mov	r2, #512
 2812 1176 9A60     		str	r2, [r3, #8]
 2813 1178 45E2     		b	.L102
 2814              	.L108:
 952:../STM32F2xx_HAL_Driver/Src/stm32f2xx_hal_hcd.c ****   }
 953:../STM32F2xx_HAL_Driver/Src/stm32f2xx_hal_hcd.c ****   
 954:../STM32F2xx_HAL_Driver/Src/stm32f2xx_hal_hcd.c ****   else if ((USBx_HC(chnum)->HCINT) &  USB_OTG_HCINT_XFRC)
 2815              		.loc 1 954 0
 2816 117a FB78     		ldrb	r3, [r7, #3]	@ zero_extendqisi2
 2817 117c 5A01     		lsls	r2, r3, #5
 2818 117e FB68     		ldr	r3, [r7, #12]
 2819 1180 1344     		add	r3, r3, r2
 2820 1182 03F5A063 		add	r3, r3, #1280
 2821 1186 9B68     		ldr	r3, [r3, #8]
 2822 1188 03F00103 		and	r3, r3, #1
 2823 118c 002B     		cmp	r3, #0
 2824 118e 33D0     		beq	.L109
 955:../STM32F2xx_HAL_Driver/Src/stm32f2xx_hal_hcd.c ****   {
 956:../STM32F2xx_HAL_Driver/Src/stm32f2xx_hal_hcd.c ****       hhcd->hc[chnum].ErrCnt = 0;  
 2825              		.loc 1 956 0
 2826 1190 FA78     		ldrb	r2, [r7, #3]	@ zero_extendqisi2
 2827 1192 7968     		ldr	r1, [r7, #4]
 2828 1194 1346     		mov	r3, r2
 2829 1196 9B00     		lsls	r3, r3, #2
 2830 1198 1344     		add	r3, r3, r2
 2831 119a DB00     		lsls	r3, r3, #3
 2832 119c 0B44     		add	r3, r3, r1
 2833 119e 5033     		adds	r3, r3, #80
 2834 11a0 0022     		movs	r2, #0
 2835 11a2 1A60     		str	r2, [r3]
 957:../STM32F2xx_HAL_Driver/Src/stm32f2xx_hal_hcd.c ****     __HAL_HCD_UNMASK_HALT_HC_INT(chnum);
 2836              		.loc 1 957 0
 2837 11a4 FB78     		ldrb	r3, [r7, #3]	@ zero_extendqisi2
 2838 11a6 5A01     		lsls	r2, r3, #5
 2839 11a8 FB68     		ldr	r3, [r7, #12]
 2840 11aa 1344     		add	r3, r3, r2
 2841 11ac 03F5A063 		add	r3, r3, #1280
 2842 11b0 FA78     		ldrb	r2, [r7, #3]	@ zero_extendqisi2
 2843 11b2 5101     		lsls	r1, r2, #5
 2844 11b4 FA68     		ldr	r2, [r7, #12]
 2845 11b6 0A44     		add	r2, r2, r1
 2846 11b8 02F5A062 		add	r2, r2, #1280
 2847 11bc D268     		ldr	r2, [r2, #12]
 2848 11be 42F00202 		orr	r2, r2, #2
 2849 11c2 DA60     		str	r2, [r3, #12]
 958:../STM32F2xx_HAL_Driver/Src/stm32f2xx_hal_hcd.c ****     USB_HC_Halt(hhcd->Instance, chnum);   
 2850              		.loc 1 958 0
 2851 11c4 7B68     		ldr	r3, [r7, #4]
 2852 11c6 1A68     		ldr	r2, [r3]
 2853 11c8 FB78     		ldrb	r3, [r7, #3]	@ zero_extendqisi2
 2854 11ca 1046     		mov	r0, r2
 2855 11cc 1946     		mov	r1, r3
 2856 11ce FFF7FEFF 		bl	USB_HC_Halt
 959:../STM32F2xx_HAL_Driver/Src/stm32f2xx_hal_hcd.c ****     __HAL_HCD_CLEAR_HC_INT(chnum, USB_OTG_HCINT_XFRC);
 2857              		.loc 1 959 0
 2858 11d2 FB78     		ldrb	r3, [r7, #3]	@ zero_extendqisi2
 2859 11d4 5A01     		lsls	r2, r3, #5
 2860 11d6 FB68     		ldr	r3, [r7, #12]
 2861 11d8 1344     		add	r3, r3, r2
 2862 11da 03F5A063 		add	r3, r3, #1280
 2863 11de 0122     		movs	r2, #1
 2864 11e0 9A60     		str	r2, [r3, #8]
 960:../STM32F2xx_HAL_Driver/Src/stm32f2xx_hal_hcd.c ****     hhcd->hc[chnum].state = HC_XFRC;
 2865              		.loc 1 960 0
 2866 11e2 FA78     		ldrb	r2, [r7, #3]	@ zero_extendqisi2
 2867 11e4 7968     		ldr	r1, [r7, #4]
 2868 11e6 1346     		mov	r3, r2
 2869 11e8 9B00     		lsls	r3, r3, #2
 2870 11ea 1344     		add	r3, r3, r2
 2871 11ec DB00     		lsls	r3, r3, #3
 2872 11ee 0B44     		add	r3, r3, r1
 2873 11f0 5033     		adds	r3, r3, #80
 2874 11f2 0122     		movs	r2, #1
 2875 11f4 5A71     		strb	r2, [r3, #5]
 2876 11f6 06E2     		b	.L102
 2877              	.L109:
 961:../STM32F2xx_HAL_Driver/Src/stm32f2xx_hal_hcd.c **** 
 962:../STM32F2xx_HAL_Driver/Src/stm32f2xx_hal_hcd.c ****   }  
 963:../STM32F2xx_HAL_Driver/Src/stm32f2xx_hal_hcd.c **** 
 964:../STM32F2xx_HAL_Driver/Src/stm32f2xx_hal_hcd.c ****   else if ((USBx_HC(chnum)->HCINT) &  USB_OTG_HCINT_STALL)  
 2878              		.loc 1 964 0
 2879 11f8 FB78     		ldrb	r3, [r7, #3]	@ zero_extendqisi2
 2880 11fa 5A01     		lsls	r2, r3, #5
 2881 11fc FB68     		ldr	r3, [r7, #12]
 2882 11fe 1344     		add	r3, r3, r2
 2883 1200 03F5A063 		add	r3, r3, #1280
 2884 1204 9B68     		ldr	r3, [r3, #8]
 2885 1206 03F00803 		and	r3, r3, #8
 2886 120a 002B     		cmp	r3, #0
 2887 120c 29D0     		beq	.L110
 965:../STM32F2xx_HAL_Driver/Src/stm32f2xx_hal_hcd.c ****   {
 966:../STM32F2xx_HAL_Driver/Src/stm32f2xx_hal_hcd.c ****     __HAL_HCD_CLEAR_HC_INT(chnum, USB_OTG_HCINT_STALL);  
 2888              		.loc 1 966 0
 2889 120e FB78     		ldrb	r3, [r7, #3]	@ zero_extendqisi2
 2890 1210 5A01     		lsls	r2, r3, #5
 2891 1212 FB68     		ldr	r3, [r7, #12]
 2892 1214 1344     		add	r3, r3, r2
 2893 1216 03F5A063 		add	r3, r3, #1280
 2894 121a 0822     		movs	r2, #8
 2895 121c 9A60     		str	r2, [r3, #8]
 967:../STM32F2xx_HAL_Driver/Src/stm32f2xx_hal_hcd.c ****     __HAL_HCD_UNMASK_HALT_HC_INT(chnum);
 2896              		.loc 1 967 0
 2897 121e FB78     		ldrb	r3, [r7, #3]	@ zero_extendqisi2
 2898 1220 5A01     		lsls	r2, r3, #5
 2899 1222 FB68     		ldr	r3, [r7, #12]
 2900 1224 1344     		add	r3, r3, r2
 2901 1226 03F5A063 		add	r3, r3, #1280
 2902 122a FA78     		ldrb	r2, [r7, #3]	@ zero_extendqisi2
 2903 122c 5101     		lsls	r1, r2, #5
 2904 122e FA68     		ldr	r2, [r7, #12]
 2905 1230 0A44     		add	r2, r2, r1
 2906 1232 02F5A062 		add	r2, r2, #1280
 2907 1236 D268     		ldr	r2, [r2, #12]
 2908 1238 42F00202 		orr	r2, r2, #2
 2909 123c DA60     		str	r2, [r3, #12]
 968:../STM32F2xx_HAL_Driver/Src/stm32f2xx_hal_hcd.c ****     USB_HC_Halt(hhcd->Instance, chnum);   
 2910              		.loc 1 968 0
 2911 123e 7B68     		ldr	r3, [r7, #4]
 2912 1240 1A68     		ldr	r2, [r3]
 2913 1242 FB78     		ldrb	r3, [r7, #3]	@ zero_extendqisi2
 2914 1244 1046     		mov	r0, r2
 2915 1246 1946     		mov	r1, r3
 2916 1248 FFF7FEFF 		bl	USB_HC_Halt
 969:../STM32F2xx_HAL_Driver/Src/stm32f2xx_hal_hcd.c ****     hhcd->hc[chnum].state = HC_STALL;    
 2917              		.loc 1 969 0
 2918 124c FA78     		ldrb	r2, [r7, #3]	@ zero_extendqisi2
 2919 124e 7968     		ldr	r1, [r7, #4]
 2920 1250 1346     		mov	r3, r2
 2921 1252 9B00     		lsls	r3, r3, #2
 2922 1254 1344     		add	r3, r3, r2
 2923 1256 DB00     		lsls	r3, r3, #3
 2924 1258 0B44     		add	r3, r3, r1
 2925 125a 5033     		adds	r3, r3, #80
 2926 125c 0522     		movs	r2, #5
 2927 125e 5A71     		strb	r2, [r3, #5]
 2928 1260 D1E1     		b	.L102
 2929              	.L110:
 970:../STM32F2xx_HAL_Driver/Src/stm32f2xx_hal_hcd.c ****   }
 971:../STM32F2xx_HAL_Driver/Src/stm32f2xx_hal_hcd.c **** 
 972:../STM32F2xx_HAL_Driver/Src/stm32f2xx_hal_hcd.c ****   else if ((USBx_HC(chnum)->HCINT) &  USB_OTG_HCINT_NAK)
 2930              		.loc 1 972 0
 2931 1262 FB78     		ldrb	r3, [r7, #3]	@ zero_extendqisi2
 2932 1264 5A01     		lsls	r2, r3, #5
 2933 1266 FB68     		ldr	r3, [r7, #12]
 2934 1268 1344     		add	r3, r3, r2
 2935 126a 03F5A063 		add	r3, r3, #1280
 2936 126e 9B68     		ldr	r3, [r3, #8]
 2937 1270 03F01003 		and	r3, r3, #16
 2938 1274 002B     		cmp	r3, #0
 2939 1276 33D0     		beq	.L111
 973:../STM32F2xx_HAL_Driver/Src/stm32f2xx_hal_hcd.c ****   {  
 974:../STM32F2xx_HAL_Driver/Src/stm32f2xx_hal_hcd.c ****     hhcd->hc[chnum].ErrCnt = 0;  
 2940              		.loc 1 974 0
 2941 1278 FA78     		ldrb	r2, [r7, #3]	@ zero_extendqisi2
 2942 127a 7968     		ldr	r1, [r7, #4]
 2943 127c 1346     		mov	r3, r2
 2944 127e 9B00     		lsls	r3, r3, #2
 2945 1280 1344     		add	r3, r3, r2
 2946 1282 DB00     		lsls	r3, r3, #3
 2947 1284 0B44     		add	r3, r3, r1
 2948 1286 5033     		adds	r3, r3, #80
 2949 1288 0022     		movs	r2, #0
 2950 128a 1A60     		str	r2, [r3]
 975:../STM32F2xx_HAL_Driver/Src/stm32f2xx_hal_hcd.c ****     __HAL_HCD_UNMASK_HALT_HC_INT(chnum); 
 2951              		.loc 1 975 0
 2952 128c FB78     		ldrb	r3, [r7, #3]	@ zero_extendqisi2
 2953 128e 5A01     		lsls	r2, r3, #5
 2954 1290 FB68     		ldr	r3, [r7, #12]
 2955 1292 1344     		add	r3, r3, r2
 2956 1294 03F5A063 		add	r3, r3, #1280
 2957 1298 FA78     		ldrb	r2, [r7, #3]	@ zero_extendqisi2
 2958 129a 5101     		lsls	r1, r2, #5
 2959 129c FA68     		ldr	r2, [r7, #12]
 2960 129e 0A44     		add	r2, r2, r1
 2961 12a0 02F5A062 		add	r2, r2, #1280
 2962 12a4 D268     		ldr	r2, [r2, #12]
 2963 12a6 42F00202 		orr	r2, r2, #2
 2964 12aa DA60     		str	r2, [r3, #12]
 976:../STM32F2xx_HAL_Driver/Src/stm32f2xx_hal_hcd.c ****     USB_HC_Halt(hhcd->Instance, chnum);   
 2965              		.loc 1 976 0
 2966 12ac 7B68     		ldr	r3, [r7, #4]
 2967 12ae 1A68     		ldr	r2, [r3]
 2968 12b0 FB78     		ldrb	r3, [r7, #3]	@ zero_extendqisi2
 2969 12b2 1046     		mov	r0, r2
 2970 12b4 1946     		mov	r1, r3
 2971 12b6 FFF7FEFF 		bl	USB_HC_Halt
 977:../STM32F2xx_HAL_Driver/Src/stm32f2xx_hal_hcd.c ****     hhcd->hc[chnum].state = HC_NAK;
 2972              		.loc 1 977 0
 2973 12ba FA78     		ldrb	r2, [r7, #3]	@ zero_extendqisi2
 2974 12bc 7968     		ldr	r1, [r7, #4]
 2975 12be 1346     		mov	r3, r2
 2976 12c0 9B00     		lsls	r3, r3, #2
 2977 12c2 1344     		add	r3, r3, r2
 2978 12c4 DB00     		lsls	r3, r3, #3
 2979 12c6 0B44     		add	r3, r3, r1
 2980 12c8 5033     		adds	r3, r3, #80
 2981 12ca 0322     		movs	r2, #3
 2982 12cc 5A71     		strb	r2, [r3, #5]
 978:../STM32F2xx_HAL_Driver/Src/stm32f2xx_hal_hcd.c ****     __HAL_HCD_CLEAR_HC_INT(chnum, USB_OTG_HCINT_NAK);
 2983              		.loc 1 978 0
 2984 12ce FB78     		ldrb	r3, [r7, #3]	@ zero_extendqisi2
 2985 12d0 5A01     		lsls	r2, r3, #5
 2986 12d2 FB68     		ldr	r3, [r7, #12]
 2987 12d4 1344     		add	r3, r3, r2
 2988 12d6 03F5A063 		add	r3, r3, #1280
 2989 12da 1022     		movs	r2, #16
 2990 12dc 9A60     		str	r2, [r3, #8]
 2991 12de 92E1     		b	.L102
 2992              	.L111:
 979:../STM32F2xx_HAL_Driver/Src/stm32f2xx_hal_hcd.c ****   }
 980:../STM32F2xx_HAL_Driver/Src/stm32f2xx_hal_hcd.c **** 
 981:../STM32F2xx_HAL_Driver/Src/stm32f2xx_hal_hcd.c ****   else if ((USBx_HC(chnum)->HCINT) &  USB_OTG_HCINT_TXERR)
 2993              		.loc 1 981 0
 2994 12e0 FB78     		ldrb	r3, [r7, #3]	@ zero_extendqisi2
 2995 12e2 5A01     		lsls	r2, r3, #5
 2996 12e4 FB68     		ldr	r3, [r7, #12]
 2997 12e6 1344     		add	r3, r3, r2
 2998 12e8 03F5A063 		add	r3, r3, #1280
 2999 12ec 9B68     		ldr	r3, [r3, #8]
 3000 12ee 03F08003 		and	r3, r3, #128
 3001 12f2 002B     		cmp	r3, #0
 3002 12f4 29D0     		beq	.L112
 982:../STM32F2xx_HAL_Driver/Src/stm32f2xx_hal_hcd.c ****   {
 983:../STM32F2xx_HAL_Driver/Src/stm32f2xx_hal_hcd.c ****     __HAL_HCD_UNMASK_HALT_HC_INT(chnum); 
 3003              		.loc 1 983 0
 3004 12f6 FB78     		ldrb	r3, [r7, #3]	@ zero_extendqisi2
 3005 12f8 5A01     		lsls	r2, r3, #5
 3006 12fa FB68     		ldr	r3, [r7, #12]
 3007 12fc 1344     		add	r3, r3, r2
 3008 12fe 03F5A063 		add	r3, r3, #1280
 3009 1302 FA78     		ldrb	r2, [r7, #3]	@ zero_extendqisi2
 3010 1304 5101     		lsls	r1, r2, #5
 3011 1306 FA68     		ldr	r2, [r7, #12]
 3012 1308 0A44     		add	r2, r2, r1
 3013 130a 02F5A062 		add	r2, r2, #1280
 3014 130e D268     		ldr	r2, [r2, #12]
 3015 1310 42F00202 		orr	r2, r2, #2
 3016 1314 DA60     		str	r2, [r3, #12]
 984:../STM32F2xx_HAL_Driver/Src/stm32f2xx_hal_hcd.c ****     USB_HC_Halt(hhcd->Instance, chnum);      
 3017              		.loc 1 984 0
 3018 1316 7B68     		ldr	r3, [r7, #4]
 3019 1318 1A68     		ldr	r2, [r3]
 3020 131a FB78     		ldrb	r3, [r7, #3]	@ zero_extendqisi2
 3021 131c 1046     		mov	r0, r2
 3022 131e 1946     		mov	r1, r3
 3023 1320 FFF7FEFF 		bl	USB_HC_Halt
 985:../STM32F2xx_HAL_Driver/Src/stm32f2xx_hal_hcd.c ****     hhcd->hc[chnum].state = HC_XACTERR;  
 3024              		.loc 1 985 0
 3025 1324 FA78     		ldrb	r2, [r7, #3]	@ zero_extendqisi2
 3026 1326 7968     		ldr	r1, [r7, #4]
 3027 1328 1346     		mov	r3, r2
 3028 132a 9B00     		lsls	r3, r3, #2
 3029 132c 1344     		add	r3, r3, r2
 3030 132e DB00     		lsls	r3, r3, #3
 3031 1330 0B44     		add	r3, r3, r1
 3032 1332 5033     		adds	r3, r3, #80
 3033 1334 0622     		movs	r2, #6
 3034 1336 5A71     		strb	r2, [r3, #5]
 986:../STM32F2xx_HAL_Driver/Src/stm32f2xx_hal_hcd.c ****      __HAL_HCD_CLEAR_HC_INT(chnum, USB_OTG_HCINT_TXERR);
 3035              		.loc 1 986 0
 3036 1338 FB78     		ldrb	r3, [r7, #3]	@ zero_extendqisi2
 3037 133a 5A01     		lsls	r2, r3, #5
 3038 133c FB68     		ldr	r3, [r7, #12]
 3039 133e 1344     		add	r3, r3, r2
 3040 1340 03F5A063 		add	r3, r3, #1280
 3041 1344 8022     		movs	r2, #128
 3042 1346 9A60     		str	r2, [r3, #8]
 3043 1348 5DE1     		b	.L102
 3044              	.L112:
 987:../STM32F2xx_HAL_Driver/Src/stm32f2xx_hal_hcd.c ****   }
 988:../STM32F2xx_HAL_Driver/Src/stm32f2xx_hal_hcd.c ****   
 989:../STM32F2xx_HAL_Driver/Src/stm32f2xx_hal_hcd.c ****   else if ((USBx_HC(chnum)->HCINT) &  USB_OTG_HCINT_DTERR)
 3045              		.loc 1 989 0
 3046 134a FB78     		ldrb	r3, [r7, #3]	@ zero_extendqisi2
 3047 134c 5A01     		lsls	r2, r3, #5
 3048 134e FB68     		ldr	r3, [r7, #12]
 3049 1350 1344     		add	r3, r3, r2
 3050 1352 03F5A063 		add	r3, r3, #1280
 3051 1356 9B68     		ldr	r3, [r3, #8]
 3052 1358 03F48063 		and	r3, r3, #1024
 3053 135c 002B     		cmp	r3, #0
 3054 135e 32D0     		beq	.L113
 990:../STM32F2xx_HAL_Driver/Src/stm32f2xx_hal_hcd.c ****   {
 991:../STM32F2xx_HAL_Driver/Src/stm32f2xx_hal_hcd.c ****     __HAL_HCD_UNMASK_HALT_HC_INT(chnum); 
 3055              		.loc 1 991 0
 3056 1360 FB78     		ldrb	r3, [r7, #3]	@ zero_extendqisi2
 3057 1362 5A01     		lsls	r2, r3, #5
 3058 1364 FB68     		ldr	r3, [r7, #12]
 3059 1366 1344     		add	r3, r3, r2
 3060 1368 03F5A063 		add	r3, r3, #1280
 3061 136c FA78     		ldrb	r2, [r7, #3]	@ zero_extendqisi2
 3062 136e 5101     		lsls	r1, r2, #5
 3063 1370 FA68     		ldr	r2, [r7, #12]
 3064 1372 0A44     		add	r2, r2, r1
 3065 1374 02F5A062 		add	r2, r2, #1280
 3066 1378 D268     		ldr	r2, [r2, #12]
 3067 137a 42F00202 		orr	r2, r2, #2
 3068 137e DA60     		str	r2, [r3, #12]
 992:../STM32F2xx_HAL_Driver/Src/stm32f2xx_hal_hcd.c ****     USB_HC_Halt(hhcd->Instance, chnum);      
 3069              		.loc 1 992 0
 3070 1380 7B68     		ldr	r3, [r7, #4]
 3071 1382 1A68     		ldr	r2, [r3]
 3072 1384 FB78     		ldrb	r3, [r7, #3]	@ zero_extendqisi2
 3073 1386 1046     		mov	r0, r2
 3074 1388 1946     		mov	r1, r3
 3075 138a FFF7FEFF 		bl	USB_HC_Halt
 993:../STM32F2xx_HAL_Driver/Src/stm32f2xx_hal_hcd.c ****     __HAL_HCD_CLEAR_HC_INT(chnum, USB_OTG_HCINT_NAK);
 3076              		.loc 1 993 0
 3077 138e FB78     		ldrb	r3, [r7, #3]	@ zero_extendqisi2
 3078 1390 5A01     		lsls	r2, r3, #5
 3079 1392 FB68     		ldr	r3, [r7, #12]
 3080 1394 1344     		add	r3, r3, r2
 3081 1396 03F5A063 		add	r3, r3, #1280
 3082 139a 1022     		movs	r2, #16
 3083 139c 9A60     		str	r2, [r3, #8]
 994:../STM32F2xx_HAL_Driver/Src/stm32f2xx_hal_hcd.c ****     __HAL_HCD_CLEAR_HC_INT(chnum, USB_OTG_HCINT_DTERR);    
 3084              		.loc 1 994 0
 3085 139e FB78     		ldrb	r3, [r7, #3]	@ zero_extendqisi2
 3086 13a0 5A01     		lsls	r2, r3, #5
 3087 13a2 FB68     		ldr	r3, [r7, #12]
 3088 13a4 1344     		add	r3, r3, r2
 3089 13a6 03F5A063 		add	r3, r3, #1280
 3090 13aa 4FF48062 		mov	r2, #1024
 3091 13ae 9A60     		str	r2, [r3, #8]
 995:../STM32F2xx_HAL_Driver/Src/stm32f2xx_hal_hcd.c ****     hhcd->hc[chnum].state = HC_DATATGLERR;
 3092              		.loc 1 995 0
 3093 13b0 FA78     		ldrb	r2, [r7, #3]	@ zero_extendqisi2
 3094 13b2 7968     		ldr	r1, [r7, #4]
 3095 13b4 1346     		mov	r3, r2
 3096 13b6 9B00     		lsls	r3, r3, #2
 3097 13b8 1344     		add	r3, r3, r2
 3098 13ba DB00     		lsls	r3, r3, #3
 3099 13bc 0B44     		add	r3, r3, r1
 3100 13be 5033     		adds	r3, r3, #80
 3101 13c0 0822     		movs	r2, #8
 3102 13c2 5A71     		strb	r2, [r3, #5]
 3103 13c4 1FE1     		b	.L102
 3104              	.L113:
 996:../STM32F2xx_HAL_Driver/Src/stm32f2xx_hal_hcd.c ****   }
 997:../STM32F2xx_HAL_Driver/Src/stm32f2xx_hal_hcd.c ****   
 998:../STM32F2xx_HAL_Driver/Src/stm32f2xx_hal_hcd.c ****   
 999:../STM32F2xx_HAL_Driver/Src/stm32f2xx_hal_hcd.c ****   else if ((USBx_HC(chnum)->HCINT) &  USB_OTG_HCINT_CHH)
 3105              		.loc 1 999 0
 3106 13c6 FB78     		ldrb	r3, [r7, #3]	@ zero_extendqisi2
 3107 13c8 5A01     		lsls	r2, r3, #5
 3108 13ca FB68     		ldr	r3, [r7, #12]
 3109 13cc 1344     		add	r3, r3, r2
 3110 13ce 03F5A063 		add	r3, r3, #1280
 3111 13d2 9B68     		ldr	r3, [r3, #8]
 3112 13d4 03F00203 		and	r3, r3, #2
 3113 13d8 002B     		cmp	r3, #0
 3114 13da 00F01481 		beq	.L102
1000:../STM32F2xx_HAL_Driver/Src/stm32f2xx_hal_hcd.c ****   {
1001:../STM32F2xx_HAL_Driver/Src/stm32f2xx_hal_hcd.c ****     __HAL_HCD_MASK_HALT_HC_INT(chnum); 
 3115              		.loc 1 1001 0
 3116 13de FB78     		ldrb	r3, [r7, #3]	@ zero_extendqisi2
 3117 13e0 5A01     		lsls	r2, r3, #5
 3118 13e2 FB68     		ldr	r3, [r7, #12]
 3119 13e4 1344     		add	r3, r3, r2
 3120 13e6 03F5A063 		add	r3, r3, #1280
 3121 13ea FA78     		ldrb	r2, [r7, #3]	@ zero_extendqisi2
 3122 13ec 5101     		lsls	r1, r2, #5
 3123 13ee FA68     		ldr	r2, [r7, #12]
 3124 13f0 0A44     		add	r2, r2, r1
 3125 13f2 02F5A062 		add	r2, r2, #1280
 3126 13f6 D268     		ldr	r2, [r2, #12]
 3127 13f8 22F00202 		bic	r2, r2, #2
 3128 13fc DA60     		str	r2, [r3, #12]
1002:../STM32F2xx_HAL_Driver/Src/stm32f2xx_hal_hcd.c ****     
1003:../STM32F2xx_HAL_Driver/Src/stm32f2xx_hal_hcd.c ****     if(hhcd->hc[chnum].state == HC_XFRC)
 3129              		.loc 1 1003 0
 3130 13fe FA78     		ldrb	r2, [r7, #3]	@ zero_extendqisi2
 3131 1400 7968     		ldr	r1, [r7, #4]
 3132 1402 1346     		mov	r3, r2
 3133 1404 9B00     		lsls	r3, r3, #2
 3134 1406 1344     		add	r3, r3, r2
 3135 1408 DB00     		lsls	r3, r3, #3
 3136 140a 0B44     		add	r3, r3, r1
 3137 140c 5033     		adds	r3, r3, #80
 3138 140e 5B79     		ldrb	r3, [r3, #5]	@ zero_extendqisi2
 3139 1410 012B     		cmp	r3, #1
 3140 1412 2CD1     		bne	.L114
1004:../STM32F2xx_HAL_Driver/Src/stm32f2xx_hal_hcd.c ****     {
1005:../STM32F2xx_HAL_Driver/Src/stm32f2xx_hal_hcd.c ****       hhcd->hc[chnum].urb_state  = URB_DONE;
 3141              		.loc 1 1005 0
 3142 1414 FA78     		ldrb	r2, [r7, #3]	@ zero_extendqisi2
 3143 1416 7968     		ldr	r1, [r7, #4]
 3144 1418 1346     		mov	r3, r2
 3145 141a 9B00     		lsls	r3, r3, #2
 3146 141c 1344     		add	r3, r3, r2
 3147 141e DB00     		lsls	r3, r3, #3
 3148 1420 0B44     		add	r3, r3, r1
 3149 1422 5033     		adds	r3, r3, #80
 3150 1424 0122     		movs	r2, #1
 3151 1426 1A71     		strb	r2, [r3, #4]
1006:../STM32F2xx_HAL_Driver/Src/stm32f2xx_hal_hcd.c ****       if (hhcd->hc[chnum].ep_type == EP_TYPE_BULK)
 3152              		.loc 1 1006 0
 3153 1428 FA78     		ldrb	r2, [r7, #3]	@ zero_extendqisi2
 3154 142a 7968     		ldr	r1, [r7, #4]
 3155 142c 1346     		mov	r3, r2
 3156 142e 9B00     		lsls	r3, r3, #2
 3157 1430 1344     		add	r3, r3, r2
 3158 1432 DB00     		lsls	r3, r3, #3
 3159 1434 0B44     		add	r3, r3, r1
 3160 1436 3033     		adds	r3, r3, #48
 3161 1438 DB79     		ldrb	r3, [r3, #7]	@ zero_extendqisi2
 3162 143a 022B     		cmp	r3, #2
 3163 143c 40F0CC80 		bne	.L116
1007:../STM32F2xx_HAL_Driver/Src/stm32f2xx_hal_hcd.c ****       {
1008:../STM32F2xx_HAL_Driver/Src/stm32f2xx_hal_hcd.c ****         hhcd->hc[chnum].toggle_out ^= 1; 
 3164              		.loc 1 1008 0
 3165 1440 FA78     		ldrb	r2, [r7, #3]	@ zero_extendqisi2
 3166 1442 F978     		ldrb	r1, [r7, #3]	@ zero_extendqisi2
 3167 1444 7868     		ldr	r0, [r7, #4]
 3168 1446 0B46     		mov	r3, r1
 3169 1448 9B00     		lsls	r3, r3, #2
 3170 144a 0B44     		add	r3, r3, r1
 3171 144c DB00     		lsls	r3, r3, #3
 3172 144e 0344     		add	r3, r3, r0
 3173 1450 4833     		adds	r3, r3, #72
 3174 1452 5B78     		ldrb	r3, [r3, #1]	@ zero_extendqisi2
 3175 1454 83F00103 		eor	r3, r3, #1
 3176 1458 D9B2     		uxtb	r1, r3
 3177 145a 7868     		ldr	r0, [r7, #4]
 3178 145c 1346     		mov	r3, r2
 3179 145e 9B00     		lsls	r3, r3, #2
 3180 1460 1344     		add	r3, r3, r2
 3181 1462 DB00     		lsls	r3, r3, #3
 3182 1464 0344     		add	r3, r3, r0
 3183 1466 4833     		adds	r3, r3, #72
 3184 1468 0A46     		mov	r2, r1
 3185 146a 5A70     		strb	r2, [r3, #1]
 3186 146c B4E0     		b	.L116
 3187              	.L114:
1009:../STM32F2xx_HAL_Driver/Src/stm32f2xx_hal_hcd.c ****       }      
1010:../STM32F2xx_HAL_Driver/Src/stm32f2xx_hal_hcd.c ****     }
1011:../STM32F2xx_HAL_Driver/Src/stm32f2xx_hal_hcd.c ****     else if (hhcd->hc[chnum].state == HC_NAK) 
 3188              		.loc 1 1011 0
 3189 146e FA78     		ldrb	r2, [r7, #3]	@ zero_extendqisi2
 3190 1470 7968     		ldr	r1, [r7, #4]
 3191 1472 1346     		mov	r3, r2
 3192 1474 9B00     		lsls	r3, r3, #2
 3193 1476 1344     		add	r3, r3, r2
 3194 1478 DB00     		lsls	r3, r3, #3
 3195 147a 0B44     		add	r3, r3, r1
 3196 147c 5033     		adds	r3, r3, #80
 3197 147e 5B79     		ldrb	r3, [r3, #5]	@ zero_extendqisi2
 3198 1480 032B     		cmp	r3, #3
 3199 1482 0AD1     		bne	.L117
1012:../STM32F2xx_HAL_Driver/Src/stm32f2xx_hal_hcd.c ****     {
1013:../STM32F2xx_HAL_Driver/Src/stm32f2xx_hal_hcd.c ****       hhcd->hc[chnum].urb_state  = URB_NOTREADY;
 3200              		.loc 1 1013 0
 3201 1484 FA78     		ldrb	r2, [r7, #3]	@ zero_extendqisi2
 3202 1486 7968     		ldr	r1, [r7, #4]
 3203 1488 1346     		mov	r3, r2
 3204 148a 9B00     		lsls	r3, r3, #2
 3205 148c 1344     		add	r3, r3, r2
 3206 148e DB00     		lsls	r3, r3, #3
 3207 1490 0B44     		add	r3, r3, r1
 3208 1492 5033     		adds	r3, r3, #80
 3209 1494 0222     		movs	r2, #2
 3210 1496 1A71     		strb	r2, [r3, #4]
 3211 1498 9EE0     		b	.L116
 3212              	.L117:
1014:../STM32F2xx_HAL_Driver/Src/stm32f2xx_hal_hcd.c ****     }  
1015:../STM32F2xx_HAL_Driver/Src/stm32f2xx_hal_hcd.c ****     
1016:../STM32F2xx_HAL_Driver/Src/stm32f2xx_hal_hcd.c ****     else if (hhcd->hc[chnum].state == HC_NYET) 
 3213              		.loc 1 1016 0
 3214 149a FA78     		ldrb	r2, [r7, #3]	@ zero_extendqisi2
 3215 149c 7968     		ldr	r1, [r7, #4]
 3216 149e 1346     		mov	r3, r2
 3217 14a0 9B00     		lsls	r3, r3, #2
 3218 14a2 1344     		add	r3, r3, r2
 3219 14a4 DB00     		lsls	r3, r3, #3
 3220 14a6 0B44     		add	r3, r3, r1
 3221 14a8 5033     		adds	r3, r3, #80
 3222 14aa 5B79     		ldrb	r3, [r3, #5]	@ zero_extendqisi2
 3223 14ac 042B     		cmp	r3, #4
 3224 14ae 14D1     		bne	.L118
1017:../STM32F2xx_HAL_Driver/Src/stm32f2xx_hal_hcd.c ****     {
1018:../STM32F2xx_HAL_Driver/Src/stm32f2xx_hal_hcd.c ****       hhcd->hc[chnum].urb_state  = URB_NOTREADY;
 3225              		.loc 1 1018 0
 3226 14b0 FA78     		ldrb	r2, [r7, #3]	@ zero_extendqisi2
 3227 14b2 7968     		ldr	r1, [r7, #4]
 3228 14b4 1346     		mov	r3, r2
 3229 14b6 9B00     		lsls	r3, r3, #2
 3230 14b8 1344     		add	r3, r3, r2
 3231 14ba DB00     		lsls	r3, r3, #3
 3232 14bc 0B44     		add	r3, r3, r1
 3233 14be 5033     		adds	r3, r3, #80
 3234 14c0 0222     		movs	r2, #2
 3235 14c2 1A71     		strb	r2, [r3, #4]
1019:../STM32F2xx_HAL_Driver/Src/stm32f2xx_hal_hcd.c ****       hhcd->hc[chnum].do_ping = 0;
 3236              		.loc 1 1019 0
 3237 14c4 FA78     		ldrb	r2, [r7, #3]	@ zero_extendqisi2
 3238 14c6 7968     		ldr	r1, [r7, #4]
 3239 14c8 1346     		mov	r3, r2
 3240 14ca 9B00     		lsls	r3, r3, #2
 3241 14cc 1344     		add	r3, r3, r2
 3242 14ce DB00     		lsls	r3, r3, #3
 3243 14d0 0B44     		add	r3, r3, r1
 3244 14d2 3033     		adds	r3, r3, #48
 3245 14d4 0022     		movs	r2, #0
 3246 14d6 5A71     		strb	r2, [r3, #5]
 3247 14d8 7EE0     		b	.L116
 3248              	.L118:
1020:../STM32F2xx_HAL_Driver/Src/stm32f2xx_hal_hcd.c ****     }   
1021:../STM32F2xx_HAL_Driver/Src/stm32f2xx_hal_hcd.c ****     
1022:../STM32F2xx_HAL_Driver/Src/stm32f2xx_hal_hcd.c ****     else if (hhcd->hc[chnum].state == HC_STALL) 
 3249              		.loc 1 1022 0
 3250 14da FA78     		ldrb	r2, [r7, #3]	@ zero_extendqisi2
 3251 14dc 7968     		ldr	r1, [r7, #4]
 3252 14de 1346     		mov	r3, r2
 3253 14e0 9B00     		lsls	r3, r3, #2
 3254 14e2 1344     		add	r3, r3, r2
 3255 14e4 DB00     		lsls	r3, r3, #3
 3256 14e6 0B44     		add	r3, r3, r1
 3257 14e8 5033     		adds	r3, r3, #80
 3258 14ea 5B79     		ldrb	r3, [r3, #5]	@ zero_extendqisi2
 3259 14ec 052B     		cmp	r3, #5
 3260 14ee 0AD1     		bne	.L119
1023:../STM32F2xx_HAL_Driver/Src/stm32f2xx_hal_hcd.c ****     {
1024:../STM32F2xx_HAL_Driver/Src/stm32f2xx_hal_hcd.c ****       hhcd->hc[chnum].urb_state  = URB_STALL;
 3261              		.loc 1 1024 0
 3262 14f0 FA78     		ldrb	r2, [r7, #3]	@ zero_extendqisi2
 3263 14f2 7968     		ldr	r1, [r7, #4]
 3264 14f4 1346     		mov	r3, r2
 3265 14f6 9B00     		lsls	r3, r3, #2
 3266 14f8 1344     		add	r3, r3, r2
 3267 14fa DB00     		lsls	r3, r3, #3
 3268 14fc 0B44     		add	r3, r3, r1
 3269 14fe 5033     		adds	r3, r3, #80
 3270 1500 0522     		movs	r2, #5
 3271 1502 1A71     		strb	r2, [r3, #4]
 3272 1504 68E0     		b	.L116
 3273              	.L119:
1025:../STM32F2xx_HAL_Driver/Src/stm32f2xx_hal_hcd.c ****     } 
1026:../STM32F2xx_HAL_Driver/Src/stm32f2xx_hal_hcd.c ****     
1027:../STM32F2xx_HAL_Driver/Src/stm32f2xx_hal_hcd.c ****     else if((hhcd->hc[chnum].state == HC_XACTERR) ||
 3274              		.loc 1 1027 0
 3275 1506 FA78     		ldrb	r2, [r7, #3]	@ zero_extendqisi2
 3276 1508 7968     		ldr	r1, [r7, #4]
 3277 150a 1346     		mov	r3, r2
 3278 150c 9B00     		lsls	r3, r3, #2
 3279 150e 1344     		add	r3, r3, r2
 3280 1510 DB00     		lsls	r3, r3, #3
 3281 1512 0B44     		add	r3, r3, r1
 3282 1514 5033     		adds	r3, r3, #80
 3283 1516 5B79     		ldrb	r3, [r3, #5]	@ zero_extendqisi2
 3284 1518 062B     		cmp	r3, #6
 3285 151a 0AD0     		beq	.L120
1028:../STM32F2xx_HAL_Driver/Src/stm32f2xx_hal_hcd.c ****             (hhcd->hc[chnum].state == HC_DATATGLERR))
 3286              		.loc 1 1028 0 discriminator 1
 3287 151c FA78     		ldrb	r2, [r7, #3]	@ zero_extendqisi2
 3288 151e 7968     		ldr	r1, [r7, #4]
 3289 1520 1346     		mov	r3, r2
 3290 1522 9B00     		lsls	r3, r3, #2
 3291 1524 1344     		add	r3, r3, r2
 3292 1526 DB00     		lsls	r3, r3, #3
 3293 1528 0B44     		add	r3, r3, r1
 3294 152a 5033     		adds	r3, r3, #80
 3295 152c 5B79     		ldrb	r3, [r3, #5]	@ zero_extendqisi2
1027:../STM32F2xx_HAL_Driver/Src/stm32f2xx_hal_hcd.c ****             (hhcd->hc[chnum].state == HC_DATATGLERR))
 3296              		.loc 1 1027 0 discriminator 1
 3297 152e 082B     		cmp	r3, #8
 3298 1530 52D1     		bne	.L116
 3299              	.L120:
1029:../STM32F2xx_HAL_Driver/Src/stm32f2xx_hal_hcd.c ****     {
1030:../STM32F2xx_HAL_Driver/Src/stm32f2xx_hal_hcd.c ****       if(hhcd->hc[chnum].ErrCnt++ > 3)
 3300              		.loc 1 1030 0
 3301 1532 FA78     		ldrb	r2, [r7, #3]	@ zero_extendqisi2
 3302 1534 7968     		ldr	r1, [r7, #4]
 3303 1536 1346     		mov	r3, r2
 3304 1538 9B00     		lsls	r3, r3, #2
 3305 153a 1344     		add	r3, r3, r2
 3306 153c DB00     		lsls	r3, r3, #3
 3307 153e 0B44     		add	r3, r3, r1
 3308 1540 5033     		adds	r3, r3, #80
 3309 1542 1968     		ldr	r1, [r3]
 3310 1544 481C     		adds	r0, r1, #1
 3311 1546 7C68     		ldr	r4, [r7, #4]
 3312 1548 1346     		mov	r3, r2
 3313 154a 9B00     		lsls	r3, r3, #2
 3314 154c 1344     		add	r3, r3, r2
 3315 154e DB00     		lsls	r3, r3, #3
 3316 1550 2344     		add	r3, r3, r4
 3317 1552 5033     		adds	r3, r3, #80
 3318 1554 1860     		str	r0, [r3]
 3319 1556 0329     		cmp	r1, #3
 3320 1558 14D9     		bls	.L121
1031:../STM32F2xx_HAL_Driver/Src/stm32f2xx_hal_hcd.c ****       {      
1032:../STM32F2xx_HAL_Driver/Src/stm32f2xx_hal_hcd.c ****         hhcd->hc[chnum].ErrCnt = 0;
 3321              		.loc 1 1032 0
 3322 155a FA78     		ldrb	r2, [r7, #3]	@ zero_extendqisi2
 3323 155c 7968     		ldr	r1, [r7, #4]
 3324 155e 1346     		mov	r3, r2
 3325 1560 9B00     		lsls	r3, r3, #2
 3326 1562 1344     		add	r3, r3, r2
 3327 1564 DB00     		lsls	r3, r3, #3
 3328 1566 0B44     		add	r3, r3, r1
 3329 1568 5033     		adds	r3, r3, #80
 3330 156a 0022     		movs	r2, #0
 3331 156c 1A60     		str	r2, [r3]
1033:../STM32F2xx_HAL_Driver/Src/stm32f2xx_hal_hcd.c ****         hhcd->hc[chnum].urb_state = URB_ERROR;
 3332              		.loc 1 1033 0
 3333 156e FA78     		ldrb	r2, [r7, #3]	@ zero_extendqisi2
 3334 1570 7968     		ldr	r1, [r7, #4]
 3335 1572 1346     		mov	r3, r2
 3336 1574 9B00     		lsls	r3, r3, #2
 3337 1576 1344     		add	r3, r3, r2
 3338 1578 DB00     		lsls	r3, r3, #3
 3339 157a 0B44     		add	r3, r3, r1
 3340 157c 5033     		adds	r3, r3, #80
 3341 157e 0422     		movs	r2, #4
 3342 1580 1A71     		strb	r2, [r3, #4]
 3343 1582 09E0     		b	.L122
 3344              	.L121:
1034:../STM32F2xx_HAL_Driver/Src/stm32f2xx_hal_hcd.c ****       }
1035:../STM32F2xx_HAL_Driver/Src/stm32f2xx_hal_hcd.c ****       else
1036:../STM32F2xx_HAL_Driver/Src/stm32f2xx_hal_hcd.c ****       {
1037:../STM32F2xx_HAL_Driver/Src/stm32f2xx_hal_hcd.c ****         hhcd->hc[chnum].urb_state = URB_NOTREADY;
 3345              		.loc 1 1037 0
 3346 1584 FA78     		ldrb	r2, [r7, #3]	@ zero_extendqisi2
 3347 1586 7968     		ldr	r1, [r7, #4]
 3348 1588 1346     		mov	r3, r2
 3349 158a 9B00     		lsls	r3, r3, #2
 3350 158c 1344     		add	r3, r3, r2
 3351 158e DB00     		lsls	r3, r3, #3
 3352 1590 0B44     		add	r3, r3, r1
 3353 1592 5033     		adds	r3, r3, #80
 3354 1594 0222     		movs	r2, #2
 3355 1596 1A71     		strb	r2, [r3, #4]
 3356              	.L122:
1038:../STM32F2xx_HAL_Driver/Src/stm32f2xx_hal_hcd.c ****       }
1039:../STM32F2xx_HAL_Driver/Src/stm32f2xx_hal_hcd.c ****       
1040:../STM32F2xx_HAL_Driver/Src/stm32f2xx_hal_hcd.c ****       /* re-activate the channel  */
1041:../STM32F2xx_HAL_Driver/Src/stm32f2xx_hal_hcd.c ****       USBx_HC(chnum)->HCCHAR &= ~USB_OTG_HCCHAR_CHDIS;         
 3357              		.loc 1 1041 0
 3358 1598 FB78     		ldrb	r3, [r7, #3]	@ zero_extendqisi2
 3359 159a 5A01     		lsls	r2, r3, #5
 3360 159c FB68     		ldr	r3, [r7, #12]
 3361 159e 1344     		add	r3, r3, r2
 3362 15a0 03F5A063 		add	r3, r3, #1280
 3363 15a4 FA78     		ldrb	r2, [r7, #3]	@ zero_extendqisi2
 3364 15a6 5101     		lsls	r1, r2, #5
 3365 15a8 FA68     		ldr	r2, [r7, #12]
 3366 15aa 0A44     		add	r2, r2, r1
 3367 15ac 02F5A062 		add	r2, r2, #1280
 3368 15b0 1268     		ldr	r2, [r2]
 3369 15b2 22F08042 		bic	r2, r2, #1073741824
 3370 15b6 1A60     		str	r2, [r3]
1042:../STM32F2xx_HAL_Driver/Src/stm32f2xx_hal_hcd.c ****       USBx_HC(chnum)->HCCHAR |= USB_OTG_HCCHAR_CHENA;      
 3371              		.loc 1 1042 0
 3372 15b8 FB78     		ldrb	r3, [r7, #3]	@ zero_extendqisi2
 3373 15ba 5A01     		lsls	r2, r3, #5
 3374 15bc FB68     		ldr	r3, [r7, #12]
 3375 15be 1344     		add	r3, r3, r2
 3376 15c0 03F5A063 		add	r3, r3, #1280
 3377 15c4 FA78     		ldrb	r2, [r7, #3]	@ zero_extendqisi2
 3378 15c6 5101     		lsls	r1, r2, #5
 3379 15c8 FA68     		ldr	r2, [r7, #12]
 3380 15ca 0A44     		add	r2, r2, r1
 3381 15cc 02F5A062 		add	r2, r2, #1280
 3382 15d0 1268     		ldr	r2, [r2]
 3383 15d2 42F00042 		orr	r2, r2, #-2147483648
 3384 15d6 1A60     		str	r2, [r3]
 3385              	.L116:
1043:../STM32F2xx_HAL_Driver/Src/stm32f2xx_hal_hcd.c ****     }
1044:../STM32F2xx_HAL_Driver/Src/stm32f2xx_hal_hcd.c ****     
1045:../STM32F2xx_HAL_Driver/Src/stm32f2xx_hal_hcd.c ****     __HAL_HCD_CLEAR_HC_INT(chnum, USB_OTG_HCINT_CHH);
 3386              		.loc 1 1045 0
 3387 15d8 FB78     		ldrb	r3, [r7, #3]	@ zero_extendqisi2
 3388 15da 5A01     		lsls	r2, r3, #5
 3389 15dc FB68     		ldr	r3, [r7, #12]
 3390 15de 1344     		add	r3, r3, r2
 3391 15e0 03F5A063 		add	r3, r3, #1280
 3392 15e4 0222     		movs	r2, #2
 3393 15e6 9A60     		str	r2, [r3, #8]
1046:../STM32F2xx_HAL_Driver/Src/stm32f2xx_hal_hcd.c ****     HAL_HCD_HC_NotifyURBChange_Callback(hhcd, chnum, hhcd->hc[chnum].urb_state);  
 3394              		.loc 1 1046 0
 3395 15e8 FA78     		ldrb	r2, [r7, #3]	@ zero_extendqisi2
 3396 15ea 7968     		ldr	r1, [r7, #4]
 3397 15ec 1346     		mov	r3, r2
 3398 15ee 9B00     		lsls	r3, r3, #2
 3399 15f0 1344     		add	r3, r3, r2
 3400 15f2 DB00     		lsls	r3, r3, #3
 3401 15f4 0B44     		add	r3, r3, r1
 3402 15f6 5033     		adds	r3, r3, #80
 3403 15f8 1B79     		ldrb	r3, [r3, #4]	@ zero_extendqisi2
 3404 15fa FA78     		ldrb	r2, [r7, #3]	@ zero_extendqisi2
 3405 15fc 7868     		ldr	r0, [r7, #4]
 3406 15fe 1146     		mov	r1, r2
 3407 1600 1A46     		mov	r2, r3
 3408 1602 FFF7FEFF 		bl	HAL_HCD_HC_NotifyURBChange_Callback
 3409              	.L102:
1047:../STM32F2xx_HAL_Driver/Src/stm32f2xx_hal_hcd.c ****   }
1048:../STM32F2xx_HAL_Driver/Src/stm32f2xx_hal_hcd.c **** } 
 3410              		.loc 1 1048 0
 3411 1606 1437     		adds	r7, r7, #20
 3412 1608 BD46     		mov	sp, r7
 3413              		@ sp needed
 3414 160a 90BD     		pop	{r4, r7, pc}
 3415              		.cfi_endproc
 3416              	.LFE77:
 3418              		.align	2
 3419              		.thumb
 3420              		.thumb_func
 3422              	HCD_RXQLVL_IRQHandler:
 3423              	.LFB78:
1049:../STM32F2xx_HAL_Driver/Src/stm32f2xx_hal_hcd.c **** 
1050:../STM32F2xx_HAL_Driver/Src/stm32f2xx_hal_hcd.c **** /**
1051:../STM32F2xx_HAL_Driver/Src/stm32f2xx_hal_hcd.c ****   * @brief  This function handles Rx Queue Level interrupt requests.
1052:../STM32F2xx_HAL_Driver/Src/stm32f2xx_hal_hcd.c ****   * @param  hhcd: HCD handle
1053:../STM32F2xx_HAL_Driver/Src/stm32f2xx_hal_hcd.c ****   * @retval none
1054:../STM32F2xx_HAL_Driver/Src/stm32f2xx_hal_hcd.c ****   */
1055:../STM32F2xx_HAL_Driver/Src/stm32f2xx_hal_hcd.c **** static void HCD_RXQLVL_IRQHandler  (HCD_HandleTypeDef *hhcd)
1056:../STM32F2xx_HAL_Driver/Src/stm32f2xx_hal_hcd.c **** {
 3424              		.loc 1 1056 0
 3425              		.cfi_startproc
 3426              		@ args = 0, pretend = 0, frame = 32
 3427              		@ frame_needed = 1, uses_anonymous_args = 0
 3428 160c 80B5     		push	{r7, lr}
 3429              		.cfi_def_cfa_offset 8
 3430              		.cfi_offset 7, -8
 3431              		.cfi_offset 14, -4
 3432 160e 88B0     		sub	sp, sp, #32
 3433              		.cfi_def_cfa_offset 40
 3434 1610 00AF     		add	r7, sp, #0
 3435              		.cfi_def_cfa_register 7
 3436 1612 7860     		str	r0, [r7, #4]
1057:../STM32F2xx_HAL_Driver/Src/stm32f2xx_hal_hcd.c ****   USB_OTG_GlobalTypeDef *USBx = hhcd->Instance;  
 3437              		.loc 1 1057 0
 3438 1614 7B68     		ldr	r3, [r7, #4]
 3439 1616 1B68     		ldr	r3, [r3]
 3440 1618 FB61     		str	r3, [r7, #28]
1058:../STM32F2xx_HAL_Driver/Src/stm32f2xx_hal_hcd.c ****   uint8_t                       channelnum =0;  
 3441              		.loc 1 1058 0
 3442 161a 0023     		movs	r3, #0
 3443 161c FB76     		strb	r3, [r7, #27]
1059:../STM32F2xx_HAL_Driver/Src/stm32f2xx_hal_hcd.c ****   uint32_t                      pktsts;
1060:../STM32F2xx_HAL_Driver/Src/stm32f2xx_hal_hcd.c ****   uint32_t                      pktcnt; 
1061:../STM32F2xx_HAL_Driver/Src/stm32f2xx_hal_hcd.c ****   uint32_t                      temp = 0;
 3444              		.loc 1 1061 0
 3445 161e 0023     		movs	r3, #0
 3446 1620 7B61     		str	r3, [r7, #20]
1062:../STM32F2xx_HAL_Driver/Src/stm32f2xx_hal_hcd.c ****   
1063:../STM32F2xx_HAL_Driver/Src/stm32f2xx_hal_hcd.c ****   temp = hhcd->Instance->GRXSTSP ;
 3447              		.loc 1 1063 0
 3448 1622 7B68     		ldr	r3, [r7, #4]
 3449 1624 1B68     		ldr	r3, [r3]
 3450 1626 1B6A     		ldr	r3, [r3, #32]
 3451 1628 7B61     		str	r3, [r7, #20]
1064:../STM32F2xx_HAL_Driver/Src/stm32f2xx_hal_hcd.c ****   channelnum = temp &  USB_OTG_GRXSTSP_EPNUM;  
 3452              		.loc 1 1064 0
 3453 162a 7B69     		ldr	r3, [r7, #20]
 3454 162c DBB2     		uxtb	r3, r3
 3455 162e 03F00F03 		and	r3, r3, #15
 3456 1632 FB76     		strb	r3, [r7, #27]
1065:../STM32F2xx_HAL_Driver/Src/stm32f2xx_hal_hcd.c ****   pktsts = (temp &  USB_OTG_GRXSTSP_PKTSTS) >> 17;
 3457              		.loc 1 1065 0
 3458 1634 7B69     		ldr	r3, [r7, #20]
 3459 1636 03F4F013 		and	r3, r3, #1966080
 3460 163a 5B0C     		lsrs	r3, r3, #17
 3461 163c 3B61     		str	r3, [r7, #16]
1066:../STM32F2xx_HAL_Driver/Src/stm32f2xx_hal_hcd.c ****   pktcnt = (temp &  USB_OTG_GRXSTSP_BCNT) >> 4;
 3462              		.loc 1 1066 0
 3463 163e 7A69     		ldr	r2, [r7, #20]
 3464 1640 47F6F073 		movw	r3, #32752
 3465 1644 1340     		ands	r3, r3, r2
 3466 1646 1B09     		lsrs	r3, r3, #4
 3467 1648 FB60     		str	r3, [r7, #12]
1067:../STM32F2xx_HAL_Driver/Src/stm32f2xx_hal_hcd.c ****     
1068:../STM32F2xx_HAL_Driver/Src/stm32f2xx_hal_hcd.c ****   switch (pktsts)
 3468              		.loc 1 1068 0
 3469 164a 3B69     		ldr	r3, [r7, #16]
 3470 164c 022B     		cmp	r3, #2
 3471 164e 03D0     		beq	.L125
 3472 1650 052B     		cmp	r3, #5
 3473 1652 00F08F80 		beq	.L129
1069:../STM32F2xx_HAL_Driver/Src/stm32f2xx_hal_hcd.c ****   {
1070:../STM32F2xx_HAL_Driver/Src/stm32f2xx_hal_hcd.c ****   case GRXSTS_PKTSTS_IN:
1071:../STM32F2xx_HAL_Driver/Src/stm32f2xx_hal_hcd.c ****     /* Read the data into the host buffer. */
1072:../STM32F2xx_HAL_Driver/Src/stm32f2xx_hal_hcd.c ****     if ((pktcnt > 0) && (hhcd->hc[channelnum].xfer_buff != (void  *)0))
1073:../STM32F2xx_HAL_Driver/Src/stm32f2xx_hal_hcd.c ****     {  
1074:../STM32F2xx_HAL_Driver/Src/stm32f2xx_hal_hcd.c ****       
1075:../STM32F2xx_HAL_Driver/Src/stm32f2xx_hal_hcd.c ****       USB_ReadPacket(hhcd->Instance, hhcd->hc[channelnum].xfer_buff, pktcnt);
1076:../STM32F2xx_HAL_Driver/Src/stm32f2xx_hal_hcd.c ****      
1077:../STM32F2xx_HAL_Driver/Src/stm32f2xx_hal_hcd.c ****       /*manage multiple Xfer */
1078:../STM32F2xx_HAL_Driver/Src/stm32f2xx_hal_hcd.c ****       hhcd->hc[channelnum].xfer_buff += pktcnt;           
1079:../STM32F2xx_HAL_Driver/Src/stm32f2xx_hal_hcd.c ****       hhcd->hc[channelnum].xfer_count  += pktcnt;
1080:../STM32F2xx_HAL_Driver/Src/stm32f2xx_hal_hcd.c ****         
1081:../STM32F2xx_HAL_Driver/Src/stm32f2xx_hal_hcd.c ****       if((USBx_HC(channelnum)->HCTSIZ & USB_OTG_HCTSIZ_PKTCNT) > 0)
1082:../STM32F2xx_HAL_Driver/Src/stm32f2xx_hal_hcd.c ****       {
1083:../STM32F2xx_HAL_Driver/Src/stm32f2xx_hal_hcd.c ****         /* re-activate the channel when more packets are expected */
1084:../STM32F2xx_HAL_Driver/Src/stm32f2xx_hal_hcd.c ****         USBx_HC(channelnum)->HCCHAR &= ~USB_OTG_HCCHAR_CHDIS; 
1085:../STM32F2xx_HAL_Driver/Src/stm32f2xx_hal_hcd.c ****         USBx_HC(channelnum)->HCCHAR |= USB_OTG_HCCHAR_CHENA;
1086:../STM32F2xx_HAL_Driver/Src/stm32f2xx_hal_hcd.c ****         hhcd->hc[channelnum].toggle_in ^= 1;
1087:../STM32F2xx_HAL_Driver/Src/stm32f2xx_hal_hcd.c ****       }
1088:../STM32F2xx_HAL_Driver/Src/stm32f2xx_hal_hcd.c ****     }
1089:../STM32F2xx_HAL_Driver/Src/stm32f2xx_hal_hcd.c ****     break;
1090:../STM32F2xx_HAL_Driver/Src/stm32f2xx_hal_hcd.c **** 
1091:../STM32F2xx_HAL_Driver/Src/stm32f2xx_hal_hcd.c ****   case GRXSTS_PKTSTS_DATA_TOGGLE_ERR:
1092:../STM32F2xx_HAL_Driver/Src/stm32f2xx_hal_hcd.c ****     break;
1093:../STM32F2xx_HAL_Driver/Src/stm32f2xx_hal_hcd.c ****   case GRXSTS_PKTSTS_IN_XFER_COMP:
1094:../STM32F2xx_HAL_Driver/Src/stm32f2xx_hal_hcd.c ****   case GRXSTS_PKTSTS_CH_HALTED:
1095:../STM32F2xx_HAL_Driver/Src/stm32f2xx_hal_hcd.c ****   default:
1096:../STM32F2xx_HAL_Driver/Src/stm32f2xx_hal_hcd.c ****     break;
 3474              		.loc 1 1096 0
 3475 1656 8EE0     		b	.L123
 3476              	.L125:
1072:../STM32F2xx_HAL_Driver/Src/stm32f2xx_hal_hcd.c ****     {  
 3477              		.loc 1 1072 0
 3478 1658 FB68     		ldr	r3, [r7, #12]
 3479 165a 002B     		cmp	r3, #0
 3480 165c 00F08980 		beq	.L127
1072:../STM32F2xx_HAL_Driver/Src/stm32f2xx_hal_hcd.c ****     {  
 3481              		.loc 1 1072 0 is_stmt 0 discriminator 1
 3482 1660 FA7E     		ldrb	r2, [r7, #27]	@ zero_extendqisi2
 3483 1662 7968     		ldr	r1, [r7, #4]
 3484 1664 1346     		mov	r3, r2
 3485 1666 9B00     		lsls	r3, r3, #2
 3486 1668 1344     		add	r3, r3, r2
 3487 166a DB00     		lsls	r3, r3, #3
 3488 166c 0B44     		add	r3, r3, r1
 3489 166e 3C33     		adds	r3, r3, #60
 3490 1670 1B68     		ldr	r3, [r3]
 3491 1672 002B     		cmp	r3, #0
 3492 1674 7DD0     		beq	.L127
1075:../STM32F2xx_HAL_Driver/Src/stm32f2xx_hal_hcd.c ****      
 3493              		.loc 1 1075 0 is_stmt 1
 3494 1676 7B68     		ldr	r3, [r7, #4]
 3495 1678 1968     		ldr	r1, [r3]
 3496 167a FA7E     		ldrb	r2, [r7, #27]	@ zero_extendqisi2
 3497 167c 7868     		ldr	r0, [r7, #4]
 3498 167e 1346     		mov	r3, r2
 3499 1680 9B00     		lsls	r3, r3, #2
 3500 1682 1344     		add	r3, r3, r2
 3501 1684 DB00     		lsls	r3, r3, #3
 3502 1686 0344     		add	r3, r3, r0
 3503 1688 3C33     		adds	r3, r3, #60
 3504 168a 1A68     		ldr	r2, [r3]
 3505 168c FB68     		ldr	r3, [r7, #12]
 3506 168e 9BB2     		uxth	r3, r3
 3507 1690 0846     		mov	r0, r1
 3508 1692 1146     		mov	r1, r2
 3509 1694 1A46     		mov	r2, r3
 3510 1696 FFF7FEFF 		bl	USB_ReadPacket
1078:../STM32F2xx_HAL_Driver/Src/stm32f2xx_hal_hcd.c ****       hhcd->hc[channelnum].xfer_count  += pktcnt;
 3511              		.loc 1 1078 0
 3512 169a FA7E     		ldrb	r2, [r7, #27]	@ zero_extendqisi2
 3513 169c F97E     		ldrb	r1, [r7, #27]	@ zero_extendqisi2
 3514 169e 7868     		ldr	r0, [r7, #4]
 3515 16a0 0B46     		mov	r3, r1
 3516 16a2 9B00     		lsls	r3, r3, #2
 3517 16a4 0B44     		add	r3, r3, r1
 3518 16a6 DB00     		lsls	r3, r3, #3
 3519 16a8 0344     		add	r3, r3, r0
 3520 16aa 3C33     		adds	r3, r3, #60
 3521 16ac 1968     		ldr	r1, [r3]
 3522 16ae FB68     		ldr	r3, [r7, #12]
 3523 16b0 1944     		add	r1, r1, r3
 3524 16b2 7868     		ldr	r0, [r7, #4]
 3525 16b4 1346     		mov	r3, r2
 3526 16b6 9B00     		lsls	r3, r3, #2
 3527 16b8 1344     		add	r3, r3, r2
 3528 16ba DB00     		lsls	r3, r3, #3
 3529 16bc 0344     		add	r3, r3, r0
 3530 16be 3C33     		adds	r3, r3, #60
 3531 16c0 1960     		str	r1, [r3]
1079:../STM32F2xx_HAL_Driver/Src/stm32f2xx_hal_hcd.c ****         
 3532              		.loc 1 1079 0
 3533 16c2 FA7E     		ldrb	r2, [r7, #27]	@ zero_extendqisi2
 3534 16c4 F97E     		ldrb	r1, [r7, #27]	@ zero_extendqisi2
 3535 16c6 7868     		ldr	r0, [r7, #4]
 3536 16c8 0B46     		mov	r3, r1
 3537 16ca 9B00     		lsls	r3, r3, #2
 3538 16cc 0B44     		add	r3, r3, r1
 3539 16ce DB00     		lsls	r3, r3, #3
 3540 16d0 0344     		add	r3, r3, r0
 3541 16d2 4433     		adds	r3, r3, #68
 3542 16d4 1968     		ldr	r1, [r3]
 3543 16d6 FB68     		ldr	r3, [r7, #12]
 3544 16d8 1944     		add	r1, r1, r3
 3545 16da 7868     		ldr	r0, [r7, #4]
 3546 16dc 1346     		mov	r3, r2
 3547 16de 9B00     		lsls	r3, r3, #2
 3548 16e0 1344     		add	r3, r3, r2
 3549 16e2 DB00     		lsls	r3, r3, #3
 3550 16e4 0344     		add	r3, r3, r0
 3551 16e6 4433     		adds	r3, r3, #68
 3552 16e8 1960     		str	r1, [r3]
1081:../STM32F2xx_HAL_Driver/Src/stm32f2xx_hal_hcd.c ****       {
 3553              		.loc 1 1081 0
 3554 16ea FB7E     		ldrb	r3, [r7, #27]	@ zero_extendqisi2
 3555 16ec 5A01     		lsls	r2, r3, #5
 3556 16ee FB69     		ldr	r3, [r7, #28]
 3557 16f0 1344     		add	r3, r3, r2
 3558 16f2 03F5A063 		add	r3, r3, #1280
 3559 16f6 1A69     		ldr	r2, [r3, #16]
 3560 16f8 0023     		movs	r3, #0
 3561 16fa C1F6F873 		movt	r3, 8184
 3562 16fe 1340     		ands	r3, r3, r2
 3563 1700 002B     		cmp	r3, #0
 3564 1702 36D0     		beq	.L127
1084:../STM32F2xx_HAL_Driver/Src/stm32f2xx_hal_hcd.c ****         USBx_HC(channelnum)->HCCHAR |= USB_OTG_HCCHAR_CHENA;
 3565              		.loc 1 1084 0
 3566 1704 FB7E     		ldrb	r3, [r7, #27]	@ zero_extendqisi2
 3567 1706 5A01     		lsls	r2, r3, #5
 3568 1708 FB69     		ldr	r3, [r7, #28]
 3569 170a 1344     		add	r3, r3, r2
 3570 170c 03F5A063 		add	r3, r3, #1280
 3571 1710 FA7E     		ldrb	r2, [r7, #27]	@ zero_extendqisi2
 3572 1712 5101     		lsls	r1, r2, #5
 3573 1714 FA69     		ldr	r2, [r7, #28]
 3574 1716 0A44     		add	r2, r2, r1
 3575 1718 02F5A062 		add	r2, r2, #1280
 3576 171c 1268     		ldr	r2, [r2]
 3577 171e 22F08042 		bic	r2, r2, #1073741824
 3578 1722 1A60     		str	r2, [r3]
1085:../STM32F2xx_HAL_Driver/Src/stm32f2xx_hal_hcd.c ****         hhcd->hc[channelnum].toggle_in ^= 1;
 3579              		.loc 1 1085 0
 3580 1724 FB7E     		ldrb	r3, [r7, #27]	@ zero_extendqisi2
 3581 1726 5A01     		lsls	r2, r3, #5
 3582 1728 FB69     		ldr	r3, [r7, #28]
 3583 172a 1344     		add	r3, r3, r2
 3584 172c 03F5A063 		add	r3, r3, #1280
 3585 1730 FA7E     		ldrb	r2, [r7, #27]	@ zero_extendqisi2
 3586 1732 5101     		lsls	r1, r2, #5
 3587 1734 FA69     		ldr	r2, [r7, #28]
 3588 1736 0A44     		add	r2, r2, r1
 3589 1738 02F5A062 		add	r2, r2, #1280
 3590 173c 1268     		ldr	r2, [r2]
 3591 173e 42F00042 		orr	r2, r2, #-2147483648
 3592 1742 1A60     		str	r2, [r3]
1086:../STM32F2xx_HAL_Driver/Src/stm32f2xx_hal_hcd.c ****       }
 3593              		.loc 1 1086 0
 3594 1744 FA7E     		ldrb	r2, [r7, #27]	@ zero_extendqisi2
 3595 1746 F97E     		ldrb	r1, [r7, #27]	@ zero_extendqisi2
 3596 1748 7868     		ldr	r0, [r7, #4]
 3597 174a 0B46     		mov	r3, r1
 3598 174c 9B00     		lsls	r3, r3, #2
 3599 174e 0B44     		add	r3, r3, r1
 3600 1750 DB00     		lsls	r3, r3, #3
 3601 1752 0344     		add	r3, r3, r0
 3602 1754 4833     		adds	r3, r3, #72
 3603 1756 1B78     		ldrb	r3, [r3]	@ zero_extendqisi2
 3604 1758 83F00103 		eor	r3, r3, #1
 3605 175c D9B2     		uxtb	r1, r3
 3606 175e 7868     		ldr	r0, [r7, #4]
 3607 1760 1346     		mov	r3, r2
 3608 1762 9B00     		lsls	r3, r3, #2
 3609 1764 1344     		add	r3, r3, r2
 3610 1766 DB00     		lsls	r3, r3, #3
 3611 1768 0344     		add	r3, r3, r0
 3612 176a 4833     		adds	r3, r3, #72
 3613 176c 0A46     		mov	r2, r1
 3614 176e 1A70     		strb	r2, [r3]
1089:../STM32F2xx_HAL_Driver/Src/stm32f2xx_hal_hcd.c **** 
 3615              		.loc 1 1089 0
 3616 1770 01E0     		b	.L123
 3617              	.L127:
 3618 1772 00E0     		b	.L123
 3619              	.L129:
1092:../STM32F2xx_HAL_Driver/Src/stm32f2xx_hal_hcd.c ****   case GRXSTS_PKTSTS_IN_XFER_COMP:
 3620              		.loc 1 1092 0
 3621 1774 00BF     		nop
 3622              	.L123:
1097:../STM32F2xx_HAL_Driver/Src/stm32f2xx_hal_hcd.c ****   }
1098:../STM32F2xx_HAL_Driver/Src/stm32f2xx_hal_hcd.c **** }
 3623              		.loc 1 1098 0
 3624 1776 2037     		adds	r7, r7, #32
 3625 1778 BD46     		mov	sp, r7
 3626              		@ sp needed
 3627 177a 80BD     		pop	{r7, pc}
 3628              		.cfi_endproc
 3629              	.LFE78:
 3631              		.align	2
 3632              		.thumb
 3633              		.thumb_func
 3635              	HCD_Port_IRQHandler:
 3636              	.LFB79:
1099:../STM32F2xx_HAL_Driver/Src/stm32f2xx_hal_hcd.c **** 
1100:../STM32F2xx_HAL_Driver/Src/stm32f2xx_hal_hcd.c **** /**
1101:../STM32F2xx_HAL_Driver/Src/stm32f2xx_hal_hcd.c ****   * @brief  This function handles Host Port interrupt requests.
1102:../STM32F2xx_HAL_Driver/Src/stm32f2xx_hal_hcd.c ****   * @param  hhcd: HCD handle
1103:../STM32F2xx_HAL_Driver/Src/stm32f2xx_hal_hcd.c ****   * @retval none
1104:../STM32F2xx_HAL_Driver/Src/stm32f2xx_hal_hcd.c ****   */
1105:../STM32F2xx_HAL_Driver/Src/stm32f2xx_hal_hcd.c **** static void HCD_Port_IRQHandler  (HCD_HandleTypeDef *hhcd)
1106:../STM32F2xx_HAL_Driver/Src/stm32f2xx_hal_hcd.c **** {
 3637              		.loc 1 1106 0
 3638              		.cfi_startproc
 3639              		@ args = 0, pretend = 0, frame = 24
 3640              		@ frame_needed = 1, uses_anonymous_args = 0
 3641 177c 80B5     		push	{r7, lr}
 3642              		.cfi_def_cfa_offset 8
 3643              		.cfi_offset 7, -8
 3644              		.cfi_offset 14, -4
 3645 177e 86B0     		sub	sp, sp, #24
 3646              		.cfi_def_cfa_offset 32
 3647 1780 00AF     		add	r7, sp, #0
 3648              		.cfi_def_cfa_register 7
 3649 1782 7860     		str	r0, [r7, #4]
1107:../STM32F2xx_HAL_Driver/Src/stm32f2xx_hal_hcd.c ****   USB_OTG_GlobalTypeDef *USBx = hhcd->Instance;  
 3650              		.loc 1 1107 0
 3651 1784 7B68     		ldr	r3, [r7, #4]
 3652 1786 1B68     		ldr	r3, [r3]
 3653 1788 7B61     		str	r3, [r7, #20]
1108:../STM32F2xx_HAL_Driver/Src/stm32f2xx_hal_hcd.c ****   __IO uint32_t hprt0, hprt0_dup;
1109:../STM32F2xx_HAL_Driver/Src/stm32f2xx_hal_hcd.c ****   
1110:../STM32F2xx_HAL_Driver/Src/stm32f2xx_hal_hcd.c ****   /* Handle Host Port Interrupts */
1111:../STM32F2xx_HAL_Driver/Src/stm32f2xx_hal_hcd.c ****   hprt0 = USBx_HPRT0;
 3654              		.loc 1 1111 0
 3655 178a 7B69     		ldr	r3, [r7, #20]
 3656 178c 03F58863 		add	r3, r3, #1088
 3657 1790 1B68     		ldr	r3, [r3]
 3658 1792 3B61     		str	r3, [r7, #16]
1112:../STM32F2xx_HAL_Driver/Src/stm32f2xx_hal_hcd.c ****   hprt0_dup = USBx_HPRT0;
 3659              		.loc 1 1112 0
 3660 1794 7B69     		ldr	r3, [r7, #20]
 3661 1796 03F58863 		add	r3, r3, #1088
 3662 179a 1B68     		ldr	r3, [r3]
 3663 179c FB60     		str	r3, [r7, #12]
1113:../STM32F2xx_HAL_Driver/Src/stm32f2xx_hal_hcd.c ****   
1114:../STM32F2xx_HAL_Driver/Src/stm32f2xx_hal_hcd.c ****   hprt0_dup &= ~(USB_OTG_HPRT_PENA | USB_OTG_HPRT_PCDET |\
 3664              		.loc 1 1114 0
 3665 179e FB68     		ldr	r3, [r7, #12]
 3666 17a0 23F02E03 		bic	r3, r3, #46
 3667 17a4 FB60     		str	r3, [r7, #12]
1115:../STM32F2xx_HAL_Driver/Src/stm32f2xx_hal_hcd.c ****                  USB_OTG_HPRT_PENCHNG | USB_OTG_HPRT_POCCHNG );
1116:../STM32F2xx_HAL_Driver/Src/stm32f2xx_hal_hcd.c ****   
1117:../STM32F2xx_HAL_Driver/Src/stm32f2xx_hal_hcd.c ****   /* Check wether Port Connect Detected */
1118:../STM32F2xx_HAL_Driver/Src/stm32f2xx_hal_hcd.c ****   if((hprt0 & USB_OTG_HPRT_PCDET) == USB_OTG_HPRT_PCDET)
 3668              		.loc 1 1118 0
 3669 17a6 3B69     		ldr	r3, [r7, #16]
 3670 17a8 03F00203 		and	r3, r3, #2
 3671 17ac 002B     		cmp	r3, #0
 3672 17ae 13D0     		beq	.L131
1119:../STM32F2xx_HAL_Driver/Src/stm32f2xx_hal_hcd.c ****   {
1120:../STM32F2xx_HAL_Driver/Src/stm32f2xx_hal_hcd.c ****     if((hprt0 & USB_OTG_HPRT_PCSTS) == USB_OTG_HPRT_PCSTS)
 3673              		.loc 1 1120 0
 3674 17b0 3B69     		ldr	r3, [r7, #16]
 3675 17b2 03F00103 		and	r3, r3, #1
 3676 17b6 002B     		cmp	r3, #0
 3677 17b8 0AD0     		beq	.L132
1121:../STM32F2xx_HAL_Driver/Src/stm32f2xx_hal_hcd.c ****     {
1122:../STM32F2xx_HAL_Driver/Src/stm32f2xx_hal_hcd.c ****       USB_MASK_INTERRUPT(hhcd->Instance, USB_OTG_GINTSTS_DISCINT);
 3678              		.loc 1 1122 0
 3679 17ba 7B68     		ldr	r3, [r7, #4]
 3680 17bc 1B68     		ldr	r3, [r3]
 3681 17be 7A68     		ldr	r2, [r7, #4]
 3682 17c0 1268     		ldr	r2, [r2]
 3683 17c2 9269     		ldr	r2, [r2, #24]
 3684 17c4 22F00052 		bic	r2, r2, #536870912
 3685 17c8 9A61     		str	r2, [r3, #24]
1123:../STM32F2xx_HAL_Driver/Src/stm32f2xx_hal_hcd.c ****       HAL_HCD_Connect_Callback(hhcd);
 3686              		.loc 1 1123 0
 3687 17ca 7868     		ldr	r0, [r7, #4]
 3688 17cc FFF7FEFF 		bl	HAL_HCD_Connect_Callback
 3689              	.L132:
1124:../STM32F2xx_HAL_Driver/Src/stm32f2xx_hal_hcd.c ****     }
1125:../STM32F2xx_HAL_Driver/Src/stm32f2xx_hal_hcd.c ****     hprt0_dup  |= USB_OTG_HPRT_PCDET;
 3690              		.loc 1 1125 0
 3691 17d0 FB68     		ldr	r3, [r7, #12]
 3692 17d2 43F00203 		orr	r3, r3, #2
 3693 17d6 FB60     		str	r3, [r7, #12]
 3694              	.L131:
1126:../STM32F2xx_HAL_Driver/Src/stm32f2xx_hal_hcd.c ****     
1127:../STM32F2xx_HAL_Driver/Src/stm32f2xx_hal_hcd.c ****   }
1128:../STM32F2xx_HAL_Driver/Src/stm32f2xx_hal_hcd.c ****   
1129:../STM32F2xx_HAL_Driver/Src/stm32f2xx_hal_hcd.c ****   /* Check whether Port Enable Changed */
1130:../STM32F2xx_HAL_Driver/Src/stm32f2xx_hal_hcd.c ****   if((hprt0 & USB_OTG_HPRT_PENCHNG) == USB_OTG_HPRT_PENCHNG)
 3695              		.loc 1 1130 0
 3696 17d8 3B69     		ldr	r3, [r7, #16]
 3697 17da 03F00803 		and	r3, r3, #8
 3698 17de 002B     		cmp	r3, #0
 3699 17e0 4CD0     		beq	.L133
1131:../STM32F2xx_HAL_Driver/Src/stm32f2xx_hal_hcd.c ****   {
1132:../STM32F2xx_HAL_Driver/Src/stm32f2xx_hal_hcd.c ****     hprt0_dup |= USB_OTG_HPRT_PENCHNG;
 3700              		.loc 1 1132 0
 3701 17e2 FB68     		ldr	r3, [r7, #12]
 3702 17e4 43F00803 		orr	r3, r3, #8
 3703 17e8 FB60     		str	r3, [r7, #12]
1133:../STM32F2xx_HAL_Driver/Src/stm32f2xx_hal_hcd.c ****     
1134:../STM32F2xx_HAL_Driver/Src/stm32f2xx_hal_hcd.c ****     if((hprt0 & USB_OTG_HPRT_PENA) == USB_OTG_HPRT_PENA)
 3704              		.loc 1 1134 0
 3705 17ea 3B69     		ldr	r3, [r7, #16]
 3706 17ec 03F00403 		and	r3, r3, #4
 3707 17f0 002B     		cmp	r3, #0
 3708 17f2 31D0     		beq	.L134
1135:../STM32F2xx_HAL_Driver/Src/stm32f2xx_hal_hcd.c ****     {    
1136:../STM32F2xx_HAL_Driver/Src/stm32f2xx_hal_hcd.c ****       if(hhcd->Init.phy_itface  == USB_OTG_EMBEDDED_PHY)
 3709              		.loc 1 1136 0
 3710 17f4 7B68     		ldr	r3, [r7, #4]
 3711 17f6 9B69     		ldr	r3, [r3, #24]
 3712 17f8 022B     		cmp	r3, #2
 3713 17fa 13D1     		bne	.L135
1137:../STM32F2xx_HAL_Driver/Src/stm32f2xx_hal_hcd.c ****       {
1138:../STM32F2xx_HAL_Driver/Src/stm32f2xx_hal_hcd.c ****         if ((hprt0 & USB_OTG_HPRT_PSPD) == (HPRT0_PRTSPD_LOW_SPEED << 17))
 3714              		.loc 1 1138 0
 3715 17fc 3B69     		ldr	r3, [r7, #16]
 3716 17fe 03F4C023 		and	r3, r3, #393216
 3717 1802 B3F5802F 		cmp	r3, #262144
 3718 1806 06D1     		bne	.L136
1139:../STM32F2xx_HAL_Driver/Src/stm32f2xx_hal_hcd.c ****         {
1140:../STM32F2xx_HAL_Driver/Src/stm32f2xx_hal_hcd.c ****           USB_InitFSLSPClkSel(hhcd->Instance ,HCFG_6_MHZ );
 3719              		.loc 1 1140 0
 3720 1808 7B68     		ldr	r3, [r7, #4]
 3721 180a 1B68     		ldr	r3, [r3]
 3722 180c 1846     		mov	r0, r3
 3723 180e 0221     		movs	r1, #2
 3724 1810 FFF7FEFF 		bl	USB_InitFSLSPClkSel
 3725 1814 10E0     		b	.L138
 3726              	.L136:
1141:../STM32F2xx_HAL_Driver/Src/stm32f2xx_hal_hcd.c ****         }
1142:../STM32F2xx_HAL_Driver/Src/stm32f2xx_hal_hcd.c ****         else
1143:../STM32F2xx_HAL_Driver/Src/stm32f2xx_hal_hcd.c ****         {
1144:../STM32F2xx_HAL_Driver/Src/stm32f2xx_hal_hcd.c ****           USB_InitFSLSPClkSel(hhcd->Instance ,HCFG_48_MHZ );
 3727              		.loc 1 1144 0
 3728 1816 7B68     		ldr	r3, [r7, #4]
 3729 1818 1B68     		ldr	r3, [r3]
 3730 181a 1846     		mov	r0, r3
 3731 181c 0121     		movs	r1, #1
 3732 181e FFF7FEFF 		bl	USB_InitFSLSPClkSel
 3733 1822 09E0     		b	.L138
 3734              	.L135:
1145:../STM32F2xx_HAL_Driver/Src/stm32f2xx_hal_hcd.c ****         }
1146:../STM32F2xx_HAL_Driver/Src/stm32f2xx_hal_hcd.c ****       }
1147:../STM32F2xx_HAL_Driver/Src/stm32f2xx_hal_hcd.c ****       else
1148:../STM32F2xx_HAL_Driver/Src/stm32f2xx_hal_hcd.c ****       {
1149:../STM32F2xx_HAL_Driver/Src/stm32f2xx_hal_hcd.c ****         if(hhcd->Init.speed == HCD_SPEED_FULL)
 3735              		.loc 1 1149 0
 3736 1824 7B68     		ldr	r3, [r7, #4]
 3737 1826 DB68     		ldr	r3, [r3, #12]
 3738 1828 032B     		cmp	r3, #3
 3739 182a 05D1     		bne	.L138
1150:../STM32F2xx_HAL_Driver/Src/stm32f2xx_hal_hcd.c ****         {
1151:../STM32F2xx_HAL_Driver/Src/stm32f2xx_hal_hcd.c ****           USBx_HOST->HFIR = (uint32_t)60000;
 3740              		.loc 1 1151 0
 3741 182c 7B69     		ldr	r3, [r7, #20]
 3742 182e 03F58063 		add	r3, r3, #1024
 3743 1832 4EF66022 		movw	r2, #60000
 3744 1836 5A60     		str	r2, [r3, #4]
 3745              	.L138:
1152:../STM32F2xx_HAL_Driver/Src/stm32f2xx_hal_hcd.c ****         }
1153:../STM32F2xx_HAL_Driver/Src/stm32f2xx_hal_hcd.c ****       }
1154:../STM32F2xx_HAL_Driver/Src/stm32f2xx_hal_hcd.c ****       HAL_HCD_Connect_Callback(hhcd);
 3746              		.loc 1 1154 0
 3747 1838 7868     		ldr	r0, [r7, #4]
 3748 183a FFF7FEFF 		bl	HAL_HCD_Connect_Callback
1155:../STM32F2xx_HAL_Driver/Src/stm32f2xx_hal_hcd.c ****       
