   1              		.syntax unified
   2              		.cpu cortex-m3
   3              		.fpu softvfp
   4              		.eabi_attribute 20, 1
   5              		.eabi_attribute 21, 1
   6              		.eabi_attribute 23, 3
   7              		.eabi_attribute 24, 1
   8              		.eabi_attribute 25, 1
   9              		.eabi_attribute 26, 1
  10              		.eabi_attribute 30, 6
  11              		.eabi_attribute 34, 1
  12              		.eabi_attribute 18, 4
  13              		.thumb
  14              		.file	"stm32f2xx_hal_tim_ex.c"
  15              		.text
  16              	.Ltext0:
  17              		.cfi_sections	.debug_frame
  18              		.align	2
  19              		.global	HAL_TIMEx_HallSensor_Init
  20              		.thumb
  21              		.thumb_func
  23              	HAL_TIMEx_HallSensor_Init:
  24              	.LFB55:
  25              		.file 1 "../STM32F2xx_HAL_Driver/Src/stm32f2xx_hal_tim_ex.c"
   1:../STM32F2xx_HAL_Driver/Src/stm32f2xx_hal_tim_ex.c **** /**
   2:../STM32F2xx_HAL_Driver/Src/stm32f2xx_hal_tim_ex.c ****   ******************************************************************************
   3:../STM32F2xx_HAL_Driver/Src/stm32f2xx_hal_tim_ex.c ****   * @file    stm32f2xx_hal_tim_ex.c
   4:../STM32F2xx_HAL_Driver/Src/stm32f2xx_hal_tim_ex.c ****   * @author  MCD Application Team
   5:../STM32F2xx_HAL_Driver/Src/stm32f2xx_hal_tim_ex.c ****   * @version V1.0.1
   6:../STM32F2xx_HAL_Driver/Src/stm32f2xx_hal_tim_ex.c ****   * @date    25-March-2014
   7:../STM32F2xx_HAL_Driver/Src/stm32f2xx_hal_tim_ex.c ****   * @brief   TIM HAL module driver.
   8:../STM32F2xx_HAL_Driver/Src/stm32f2xx_hal_tim_ex.c ****   *          This file provides firmware functions to manage the following 
   9:../STM32F2xx_HAL_Driver/Src/stm32f2xx_hal_tim_ex.c ****   *          functionalities of the Timer extension peripheral:
  10:../STM32F2xx_HAL_Driver/Src/stm32f2xx_hal_tim_ex.c ****   *           + Time Hall Sensor Interface Initialization
  11:../STM32F2xx_HAL_Driver/Src/stm32f2xx_hal_tim_ex.c ****   *           + Time Hall Sensor Interface Start
  12:../STM32F2xx_HAL_Driver/Src/stm32f2xx_hal_tim_ex.c ****   *           + Time Complementary signal bread and dead time configuration  
  13:../STM32F2xx_HAL_Driver/Src/stm32f2xx_hal_tim_ex.c ****   *           + Time Master and Slave synchronization configuration
  14:../STM32F2xx_HAL_Driver/Src/stm32f2xx_hal_tim_ex.c ****   @verbatim 
  15:../STM32F2xx_HAL_Driver/Src/stm32f2xx_hal_tim_ex.c ****   ==============================================================================
  16:../STM32F2xx_HAL_Driver/Src/stm32f2xx_hal_tim_ex.c ****                       ##### TIMER Extended features #####
  17:../STM32F2xx_HAL_Driver/Src/stm32f2xx_hal_tim_ex.c ****   ==============================================================================
  18:../STM32F2xx_HAL_Driver/Src/stm32f2xx_hal_tim_ex.c ****   [..] 
  19:../STM32F2xx_HAL_Driver/Src/stm32f2xx_hal_tim_ex.c ****     The Timer Extension features include: 
  20:../STM32F2xx_HAL_Driver/Src/stm32f2xx_hal_tim_ex.c ****     (#) Complementary outputs with programmable dead-time for :
  21:../STM32F2xx_HAL_Driver/Src/stm32f2xx_hal_tim_ex.c ****         (++) Input Capture
  22:../STM32F2xx_HAL_Driver/Src/stm32f2xx_hal_tim_ex.c ****         (++) Output Compare
  23:../STM32F2xx_HAL_Driver/Src/stm32f2xx_hal_tim_ex.c ****         (++) PWM generation (Edge and Center-aligned Mode)
  24:../STM32F2xx_HAL_Driver/Src/stm32f2xx_hal_tim_ex.c ****         (++) One-pulse mode output
  25:../STM32F2xx_HAL_Driver/Src/stm32f2xx_hal_tim_ex.c ****     (#) Synchronization circuit to control the timer with external signals and to 
  26:../STM32F2xx_HAL_Driver/Src/stm32f2xx_hal_tim_ex.c ****         interconnect several timers together.
  27:../STM32F2xx_HAL_Driver/Src/stm32f2xx_hal_tim_ex.c ****     (#) Break input to put the timer output signals in reset state or in a known state.
  28:../STM32F2xx_HAL_Driver/Src/stm32f2xx_hal_tim_ex.c ****     (#) Supports incremental (quadrature) encoder and hall-sensor circuitry for 
  29:../STM32F2xx_HAL_Driver/Src/stm32f2xx_hal_tim_ex.c ****         positioning purposes                
  30:../STM32F2xx_HAL_Driver/Src/stm32f2xx_hal_tim_ex.c ****    
  31:../STM32F2xx_HAL_Driver/Src/stm32f2xx_hal_tim_ex.c ****                         ##### How to use this driver #####
  32:../STM32F2xx_HAL_Driver/Src/stm32f2xx_hal_tim_ex.c ****   ==============================================================================
  33:../STM32F2xx_HAL_Driver/Src/stm32f2xx_hal_tim_ex.c ****   [..]
  34:../STM32F2xx_HAL_Driver/Src/stm32f2xx_hal_tim_ex.c ****      (#) Initialize the TIM low level resources by implementing the following functions 
  35:../STM32F2xx_HAL_Driver/Src/stm32f2xx_hal_tim_ex.c ****          depending from feature used :
  36:../STM32F2xx_HAL_Driver/Src/stm32f2xx_hal_tim_ex.c ****            (++) Complementary Output Compare : HAL_TIM_OC_MspInit()
  37:../STM32F2xx_HAL_Driver/Src/stm32f2xx_hal_tim_ex.c ****            (++) Complementary PWM generation : HAL_TIM_PWM_MspInit()
  38:../STM32F2xx_HAL_Driver/Src/stm32f2xx_hal_tim_ex.c ****            (++) Complementary One-pulse mode output : HAL_TIM_OnePulse_MspInit()
  39:../STM32F2xx_HAL_Driver/Src/stm32f2xx_hal_tim_ex.c ****            (++) Hall Sensor output : HAL_TIM_HallSensor_MspInit()
  40:../STM32F2xx_HAL_Driver/Src/stm32f2xx_hal_tim_ex.c ****            
  41:../STM32F2xx_HAL_Driver/Src/stm32f2xx_hal_tim_ex.c ****      (#) Initialize the TIM low level resources :
  42:../STM32F2xx_HAL_Driver/Src/stm32f2xx_hal_tim_ex.c ****         (##) Enable the TIM interface clock using __TIMx_CLK_ENABLE(); 
  43:../STM32F2xx_HAL_Driver/Src/stm32f2xx_hal_tim_ex.c ****         (##) TIM pins configuration
  44:../STM32F2xx_HAL_Driver/Src/stm32f2xx_hal_tim_ex.c ****             (+++) Enable the clock for the TIM GPIOs using the following function:
  45:../STM32F2xx_HAL_Driver/Src/stm32f2xx_hal_tim_ex.c ****                  __GPIOx_CLK_ENABLE();   
  46:../STM32F2xx_HAL_Driver/Src/stm32f2xx_hal_tim_ex.c ****             (+++) Configure these TIM pins in Alternate function mode using HAL_GPIO_Init();  
  47:../STM32F2xx_HAL_Driver/Src/stm32f2xx_hal_tim_ex.c **** 
  48:../STM32F2xx_HAL_Driver/Src/stm32f2xx_hal_tim_ex.c ****      (#) The external Clock can be configured, if needed (the default clock is the 
  49:../STM32F2xx_HAL_Driver/Src/stm32f2xx_hal_tim_ex.c ****          internal clock from the APBx), using the following function:
  50:../STM32F2xx_HAL_Driver/Src/stm32f2xx_hal_tim_ex.c ****          HAL_TIM_ConfigClockSource, the clock configuration should be done before 
  51:../STM32F2xx_HAL_Driver/Src/stm32f2xx_hal_tim_ex.c ****          any start function.
  52:../STM32F2xx_HAL_Driver/Src/stm32f2xx_hal_tim_ex.c ****   
  53:../STM32F2xx_HAL_Driver/Src/stm32f2xx_hal_tim_ex.c ****     (#) Configure the TIM in the desired functioning mode using one of the 
  54:../STM32F2xx_HAL_Driver/Src/stm32f2xx_hal_tim_ex.c ****         initialization function of this driver:
  55:../STM32F2xx_HAL_Driver/Src/stm32f2xx_hal_tim_ex.c ****         (++) HAL_TIMEx_HallSensor_Init and HAL_TIMEx_ConfigCommutationEvent: to use the 
  56:../STM32F2xx_HAL_Driver/Src/stm32f2xx_hal_tim_ex.c ****              Timer Hall Sensor Interface and the commutation event with the corresponding 
  57:../STM32F2xx_HAL_Driver/Src/stm32f2xx_hal_tim_ex.c ****              Interrupt and DMA request if needed (Note that One Timer is used to interface 
  58:../STM32F2xx_HAL_Driver/Src/stm32f2xx_hal_tim_ex.c ****              with the Hall sensor Interface and another Timer should be used to use 
  59:../STM32F2xx_HAL_Driver/Src/stm32f2xx_hal_tim_ex.c ****              the commutation event).
  60:../STM32F2xx_HAL_Driver/Src/stm32f2xx_hal_tim_ex.c **** 
  61:../STM32F2xx_HAL_Driver/Src/stm32f2xx_hal_tim_ex.c ****     (#) Activate the TIM peripheral using one of the start functions: 
  62:../STM32F2xx_HAL_Driver/Src/stm32f2xx_hal_tim_ex.c ****            (++) Complementary Output Compare : HAL_TIMEx_OCN_Start(), HAL_TIMEx_OCN_Start_DMA(), HA
  63:../STM32F2xx_HAL_Driver/Src/stm32f2xx_hal_tim_ex.c ****            (++) Complementary PWM generation : HAL_TIMEx_PWMN_Start(), HAL_TIMEx_PWMN_Start_DMA(), 
  64:../STM32F2xx_HAL_Driver/Src/stm32f2xx_hal_tim_ex.c ****            (++) Complementary One-pulse mode output : HAL_TIMEx_OnePulseN_Start(), HAL_TIMEx_OnePul
  65:../STM32F2xx_HAL_Driver/Src/stm32f2xx_hal_tim_ex.c ****            (++) Hall Sensor output : HAL_TIMEx_HallSensor_Start(), HAL_TIMEx_HallSensor_Start_DMA()
  66:../STM32F2xx_HAL_Driver/Src/stm32f2xx_hal_tim_ex.c **** 
  67:../STM32F2xx_HAL_Driver/Src/stm32f2xx_hal_tim_ex.c ****   
  68:../STM32F2xx_HAL_Driver/Src/stm32f2xx_hal_tim_ex.c ****   @endverbatim
  69:../STM32F2xx_HAL_Driver/Src/stm32f2xx_hal_tim_ex.c ****   ******************************************************************************
  70:../STM32F2xx_HAL_Driver/Src/stm32f2xx_hal_tim_ex.c ****   * @attention
  71:../STM32F2xx_HAL_Driver/Src/stm32f2xx_hal_tim_ex.c ****   *
  72:../STM32F2xx_HAL_Driver/Src/stm32f2xx_hal_tim_ex.c ****   * <h2><center>&copy; COPYRIGHT(c) 2014 STMicroelectronics</center></h2>
  73:../STM32F2xx_HAL_Driver/Src/stm32f2xx_hal_tim_ex.c ****   *
  74:../STM32F2xx_HAL_Driver/Src/stm32f2xx_hal_tim_ex.c ****   * Redistribution and use in source and binary forms, with or without modification,
  75:../STM32F2xx_HAL_Driver/Src/stm32f2xx_hal_tim_ex.c ****   * are permitted provided that the following conditions are met:
  76:../STM32F2xx_HAL_Driver/Src/stm32f2xx_hal_tim_ex.c ****   *   1. Redistributions of source code must retain the above copyright notice,
  77:../STM32F2xx_HAL_Driver/Src/stm32f2xx_hal_tim_ex.c ****   *      this list of conditions and the following disclaimer.
  78:../STM32F2xx_HAL_Driver/Src/stm32f2xx_hal_tim_ex.c ****   *   2. Redistributions in binary form must reproduce the above copyright notice,
  79:../STM32F2xx_HAL_Driver/Src/stm32f2xx_hal_tim_ex.c ****   *      this list of conditions and the following disclaimer in the documentation
  80:../STM32F2xx_HAL_Driver/Src/stm32f2xx_hal_tim_ex.c ****   *      and/or other materials provided with the distribution.
  81:../STM32F2xx_HAL_Driver/Src/stm32f2xx_hal_tim_ex.c ****   *   3. Neither the name of STMicroelectronics nor the names of its contributors
  82:../STM32F2xx_HAL_Driver/Src/stm32f2xx_hal_tim_ex.c ****   *      may be used to endorse or promote products derived from this software
  83:../STM32F2xx_HAL_Driver/Src/stm32f2xx_hal_tim_ex.c ****   *      without specific prior written permission.
  84:../STM32F2xx_HAL_Driver/Src/stm32f2xx_hal_tim_ex.c ****   *
  85:../STM32F2xx_HAL_Driver/Src/stm32f2xx_hal_tim_ex.c ****   * THIS SOFTWARE IS PROVIDED BY THE COPYRIGHT HOLDERS AND CONTRIBUTORS "AS IS"
  86:../STM32F2xx_HAL_Driver/Src/stm32f2xx_hal_tim_ex.c ****   * AND ANY EXPRESS OR IMPLIED WARRANTIES, INCLUDING, BUT NOT LIMITED TO, THE
  87:../STM32F2xx_HAL_Driver/Src/stm32f2xx_hal_tim_ex.c ****   * IMPLIED WARRANTIES OF MERCHANTABILITY AND FITNESS FOR A PARTICULAR PURPOSE ARE
  88:../STM32F2xx_HAL_Driver/Src/stm32f2xx_hal_tim_ex.c ****   * DISCLAIMED. IN NO EVENT SHALL THE COPYRIGHT HOLDER OR CONTRIBUTORS BE LIABLE
  89:../STM32F2xx_HAL_Driver/Src/stm32f2xx_hal_tim_ex.c ****   * FOR ANY DIRECT, INDIRECT, INCIDENTAL, SPECIAL, EXEMPLARY, OR CONSEQUENTIAL
  90:../STM32F2xx_HAL_Driver/Src/stm32f2xx_hal_tim_ex.c ****   * DAMAGES (INCLUDING, BUT NOT LIMITED TO, PROCUREMENT OF SUBSTITUTE GOODS OR
  91:../STM32F2xx_HAL_Driver/Src/stm32f2xx_hal_tim_ex.c ****   * SERVICES; LOSS OF USE, DATA, OR PROFITS; OR BUSINESS INTERRUPTION) HOWEVER
  92:../STM32F2xx_HAL_Driver/Src/stm32f2xx_hal_tim_ex.c ****   * CAUSED AND ON ANY THEORY OF LIABILITY, WHETHER IN CONTRACT, STRICT LIABILITY,
  93:../STM32F2xx_HAL_Driver/Src/stm32f2xx_hal_tim_ex.c ****   * OR TORT (INCLUDING NEGLIGENCE OR OTHERWISE) ARISING IN ANY WAY OUT OF THE USE
  94:../STM32F2xx_HAL_Driver/Src/stm32f2xx_hal_tim_ex.c ****   * OF THIS SOFTWARE, EVEN IF ADVISED OF THE POSSIBILITY OF SUCH DAMAGE.
  95:../STM32F2xx_HAL_Driver/Src/stm32f2xx_hal_tim_ex.c ****   *
  96:../STM32F2xx_HAL_Driver/Src/stm32f2xx_hal_tim_ex.c ****   ******************************************************************************
  97:../STM32F2xx_HAL_Driver/Src/stm32f2xx_hal_tim_ex.c ****   */ 
  98:../STM32F2xx_HAL_Driver/Src/stm32f2xx_hal_tim_ex.c **** 
  99:../STM32F2xx_HAL_Driver/Src/stm32f2xx_hal_tim_ex.c **** /* Includes ------------------------------------------------------------------*/
 100:../STM32F2xx_HAL_Driver/Src/stm32f2xx_hal_tim_ex.c **** #include "stm32f2xx_hal.h"
 101:../STM32F2xx_HAL_Driver/Src/stm32f2xx_hal_tim_ex.c **** 
 102:../STM32F2xx_HAL_Driver/Src/stm32f2xx_hal_tim_ex.c **** /** @addtogroup STM32F2xx_HAL_Driver
 103:../STM32F2xx_HAL_Driver/Src/stm32f2xx_hal_tim_ex.c ****   * @{
 104:../STM32F2xx_HAL_Driver/Src/stm32f2xx_hal_tim_ex.c ****   */
 105:../STM32F2xx_HAL_Driver/Src/stm32f2xx_hal_tim_ex.c **** 
 106:../STM32F2xx_HAL_Driver/Src/stm32f2xx_hal_tim_ex.c **** /** @defgroup TIMEx 
 107:../STM32F2xx_HAL_Driver/Src/stm32f2xx_hal_tim_ex.c ****   * @brief TIM HAL module driver
 108:../STM32F2xx_HAL_Driver/Src/stm32f2xx_hal_tim_ex.c ****   * @{
 109:../STM32F2xx_HAL_Driver/Src/stm32f2xx_hal_tim_ex.c ****   */
 110:../STM32F2xx_HAL_Driver/Src/stm32f2xx_hal_tim_ex.c **** 
 111:../STM32F2xx_HAL_Driver/Src/stm32f2xx_hal_tim_ex.c **** #ifdef HAL_TIM_MODULE_ENABLED
 112:../STM32F2xx_HAL_Driver/Src/stm32f2xx_hal_tim_ex.c **** 
 113:../STM32F2xx_HAL_Driver/Src/stm32f2xx_hal_tim_ex.c **** /* Private typedef -----------------------------------------------------------*/
 114:../STM32F2xx_HAL_Driver/Src/stm32f2xx_hal_tim_ex.c **** /* Private define ------------------------------------------------------------*/
 115:../STM32F2xx_HAL_Driver/Src/stm32f2xx_hal_tim_ex.c **** /* Private macro -------------------------------------------------------------*/
 116:../STM32F2xx_HAL_Driver/Src/stm32f2xx_hal_tim_ex.c **** /* Private variables ---------------------------------------------------------*/
 117:../STM32F2xx_HAL_Driver/Src/stm32f2xx_hal_tim_ex.c **** /* Private function prototypes -----------------------------------------------*/
 118:../STM32F2xx_HAL_Driver/Src/stm32f2xx_hal_tim_ex.c **** static void TIM_CCxNChannelCmd(TIM_TypeDef* TIMx, uint32_t Channel, uint32_t ChannelNState);    
 119:../STM32F2xx_HAL_Driver/Src/stm32f2xx_hal_tim_ex.c **** /* Private functions ---------------------------------------------------------*/
 120:../STM32F2xx_HAL_Driver/Src/stm32f2xx_hal_tim_ex.c **** 
 121:../STM32F2xx_HAL_Driver/Src/stm32f2xx_hal_tim_ex.c **** /** @defgroup TIMEx_Private_Functions
 122:../STM32F2xx_HAL_Driver/Src/stm32f2xx_hal_tim_ex.c ****   * @{
 123:../STM32F2xx_HAL_Driver/Src/stm32f2xx_hal_tim_ex.c ****   */
 124:../STM32F2xx_HAL_Driver/Src/stm32f2xx_hal_tim_ex.c **** 
 125:../STM32F2xx_HAL_Driver/Src/stm32f2xx_hal_tim_ex.c **** /** @defgroup TIMEx_Group1 Timer Hall Sensor functions 
 126:../STM32F2xx_HAL_Driver/Src/stm32f2xx_hal_tim_ex.c ****  *  @brief    Timer Hall Sensor functions 
 127:../STM32F2xx_HAL_Driver/Src/stm32f2xx_hal_tim_ex.c ****  *
 128:../STM32F2xx_HAL_Driver/Src/stm32f2xx_hal_tim_ex.c **** @verbatim    
 129:../STM32F2xx_HAL_Driver/Src/stm32f2xx_hal_tim_ex.c ****   ==============================================================================
 130:../STM32F2xx_HAL_Driver/Src/stm32f2xx_hal_tim_ex.c ****                       ##### Timer Hall Sensor functions #####
 131:../STM32F2xx_HAL_Driver/Src/stm32f2xx_hal_tim_ex.c ****   ==============================================================================
 132:../STM32F2xx_HAL_Driver/Src/stm32f2xx_hal_tim_ex.c ****   [..]  
 133:../STM32F2xx_HAL_Driver/Src/stm32f2xx_hal_tim_ex.c ****     This section provides functions allowing to:
 134:../STM32F2xx_HAL_Driver/Src/stm32f2xx_hal_tim_ex.c ****     (+) Initialize and configure TIM HAL Sensor. 
 135:../STM32F2xx_HAL_Driver/Src/stm32f2xx_hal_tim_ex.c ****     (+) De-initialize TIM HAL Sensor.
 136:../STM32F2xx_HAL_Driver/Src/stm32f2xx_hal_tim_ex.c ****     (+) Start the Hall Sensor Interface.
 137:../STM32F2xx_HAL_Driver/Src/stm32f2xx_hal_tim_ex.c ****     (+) Stop the Hall Sensor Interface.
 138:../STM32F2xx_HAL_Driver/Src/stm32f2xx_hal_tim_ex.c ****     (+) Start the Hall Sensor Interface and enable interrupts.
 139:../STM32F2xx_HAL_Driver/Src/stm32f2xx_hal_tim_ex.c ****     (+) Stop the Hall Sensor Interface and disable interrupts.
 140:../STM32F2xx_HAL_Driver/Src/stm32f2xx_hal_tim_ex.c ****     (+) Start the Hall Sensor Interface and enable DMA transfers.
 141:../STM32F2xx_HAL_Driver/Src/stm32f2xx_hal_tim_ex.c ****     (+) Stop the Hall Sensor Interface and disable DMA transfers.
 142:../STM32F2xx_HAL_Driver/Src/stm32f2xx_hal_tim_ex.c ****  
 143:../STM32F2xx_HAL_Driver/Src/stm32f2xx_hal_tim_ex.c **** @endverbatim
 144:../STM32F2xx_HAL_Driver/Src/stm32f2xx_hal_tim_ex.c ****   * @{
 145:../STM32F2xx_HAL_Driver/Src/stm32f2xx_hal_tim_ex.c ****   */
 146:../STM32F2xx_HAL_Driver/Src/stm32f2xx_hal_tim_ex.c **** /**
 147:../STM32F2xx_HAL_Driver/Src/stm32f2xx_hal_tim_ex.c ****   * @brief  Initializes the TIM Hall Sensor Interface and create the associated handle.
 148:../STM32F2xx_HAL_Driver/Src/stm32f2xx_hal_tim_ex.c ****   * @param  htim: TIM Encoder Interface handle
 149:../STM32F2xx_HAL_Driver/Src/stm32f2xx_hal_tim_ex.c ****   * @param  sConfig: TIM Hall Sensor configuration structure
 150:../STM32F2xx_HAL_Driver/Src/stm32f2xx_hal_tim_ex.c ****   * @retval HAL status
 151:../STM32F2xx_HAL_Driver/Src/stm32f2xx_hal_tim_ex.c ****   */
 152:../STM32F2xx_HAL_Driver/Src/stm32f2xx_hal_tim_ex.c **** HAL_StatusTypeDef HAL_TIMEx_HallSensor_Init(TIM_HandleTypeDef *htim, TIM_HallSensor_InitTypeDef* sC
 153:../STM32F2xx_HAL_Driver/Src/stm32f2xx_hal_tim_ex.c **** {
  26              		.loc 1 153 0
  27              		.cfi_startproc
  28              		@ args = 0, pretend = 0, frame = 40
  29              		@ frame_needed = 1, uses_anonymous_args = 0
  30 0000 80B5     		push	{r7, lr}
  31              		.cfi_def_cfa_offset 8
  32              		.cfi_offset 7, -8
  33              		.cfi_offset 14, -4
  34 0002 8AB0     		sub	sp, sp, #40
  35              		.cfi_def_cfa_offset 48
  36 0004 00AF     		add	r7, sp, #0
  37              		.cfi_def_cfa_register 7
  38 0006 7860     		str	r0, [r7, #4]
  39 0008 3960     		str	r1, [r7]
 154:../STM32F2xx_HAL_Driver/Src/stm32f2xx_hal_tim_ex.c ****   TIM_OC_InitTypeDef OC_Config;
 155:../STM32F2xx_HAL_Driver/Src/stm32f2xx_hal_tim_ex.c ****     
 156:../STM32F2xx_HAL_Driver/Src/stm32f2xx_hal_tim_ex.c ****   /* Check the TIM handle allocation */
 157:../STM32F2xx_HAL_Driver/Src/stm32f2xx_hal_tim_ex.c ****   if(htim == NULL)
  40              		.loc 1 157 0
  41 000a 7B68     		ldr	r3, [r7, #4]
  42 000c 002B     		cmp	r3, #0
  43 000e 01D1     		bne	.L2
 158:../STM32F2xx_HAL_Driver/Src/stm32f2xx_hal_tim_ex.c ****   {
 159:../STM32F2xx_HAL_Driver/Src/stm32f2xx_hal_tim_ex.c ****     return HAL_ERROR;
  44              		.loc 1 159 0
  45 0010 0123     		movs	r3, #1
  46 0012 7EE0     		b	.L4
  47              	.L2:
 160:../STM32F2xx_HAL_Driver/Src/stm32f2xx_hal_tim_ex.c ****   }
 161:../STM32F2xx_HAL_Driver/Src/stm32f2xx_hal_tim_ex.c ****   
 162:../STM32F2xx_HAL_Driver/Src/stm32f2xx_hal_tim_ex.c ****   assert_param(IS_TIM_XOR_INSTANCE(htim->Instance));
 163:../STM32F2xx_HAL_Driver/Src/stm32f2xx_hal_tim_ex.c ****   assert_param(IS_TIM_COUNTER_MODE(htim->Init.CounterMode));
 164:../STM32F2xx_HAL_Driver/Src/stm32f2xx_hal_tim_ex.c ****   assert_param(IS_TIM_CLOCKDIVISION_DIV(htim->Init.ClockDivision));
 165:../STM32F2xx_HAL_Driver/Src/stm32f2xx_hal_tim_ex.c ****   assert_param(IS_TIM_IC_POLARITY(sConfig->IC1Polarity));
 166:../STM32F2xx_HAL_Driver/Src/stm32f2xx_hal_tim_ex.c ****   assert_param(IS_TIM_IC_PRESCALER(sConfig->IC1Prescaler));
 167:../STM32F2xx_HAL_Driver/Src/stm32f2xx_hal_tim_ex.c ****   assert_param(IS_TIM_IC_FILTER(sConfig->IC1Filter));
 168:../STM32F2xx_HAL_Driver/Src/stm32f2xx_hal_tim_ex.c **** 
 169:../STM32F2xx_HAL_Driver/Src/stm32f2xx_hal_tim_ex.c ****   /* Set the TIM state */
 170:../STM32F2xx_HAL_Driver/Src/stm32f2xx_hal_tim_ex.c ****   htim->State= HAL_TIM_STATE_BUSY;
  48              		.loc 1 170 0
  49 0014 7B68     		ldr	r3, [r7, #4]
  50 0016 0222     		movs	r2, #2
  51 0018 83F83920 		strb	r2, [r3, #57]
 171:../STM32F2xx_HAL_Driver/Src/stm32f2xx_hal_tim_ex.c ****   
 172:../STM32F2xx_HAL_Driver/Src/stm32f2xx_hal_tim_ex.c ****   /* Init the low level hardware : GPIO, CLOCK, NVIC and DMA */
 173:../STM32F2xx_HAL_Driver/Src/stm32f2xx_hal_tim_ex.c ****   HAL_TIMEx_HallSensor_MspInit(htim);
  52              		.loc 1 173 0
  53 001c 7868     		ldr	r0, [r7, #4]
  54 001e FFF7FEFF 		bl	HAL_TIMEx_HallSensor_MspInit
 174:../STM32F2xx_HAL_Driver/Src/stm32f2xx_hal_tim_ex.c ****   
 175:../STM32F2xx_HAL_Driver/Src/stm32f2xx_hal_tim_ex.c ****   /* Configure the Time base in the Encoder Mode */
 176:../STM32F2xx_HAL_Driver/Src/stm32f2xx_hal_tim_ex.c ****   TIM_Base_SetConfig(htim->Instance, &htim->Init);
  55              		.loc 1 176 0
  56 0022 7B68     		ldr	r3, [r7, #4]
  57 0024 1A68     		ldr	r2, [r3]
  58 0026 7B68     		ldr	r3, [r7, #4]
  59 0028 0433     		adds	r3, r3, #4
  60 002a 1046     		mov	r0, r2
  61 002c 1946     		mov	r1, r3
  62 002e FFF7FEFF 		bl	TIM_Base_SetConfig
 177:../STM32F2xx_HAL_Driver/Src/stm32f2xx_hal_tim_ex.c ****   
 178:../STM32F2xx_HAL_Driver/Src/stm32f2xx_hal_tim_ex.c ****   /* Configure the Channel 1 as Input Channel to interface with the three Outputs of the  Hall sens
 179:../STM32F2xx_HAL_Driver/Src/stm32f2xx_hal_tim_ex.c ****   TIM_TI1_SetConfig(htim->Instance, sConfig->IC1Polarity, TIM_ICSELECTION_TRC, sConfig->IC1Filter);
  63              		.loc 1 179 0
  64 0032 7B68     		ldr	r3, [r7, #4]
  65 0034 1968     		ldr	r1, [r3]
  66 0036 3B68     		ldr	r3, [r7]
  67 0038 1A68     		ldr	r2, [r3]
  68 003a 3B68     		ldr	r3, [r7]
  69 003c 9B68     		ldr	r3, [r3, #8]
  70 003e 0846     		mov	r0, r1
  71 0040 1146     		mov	r1, r2
  72 0042 0322     		movs	r2, #3
  73 0044 FFF7FEFF 		bl	TIM_TI1_SetConfig
 180:../STM32F2xx_HAL_Driver/Src/stm32f2xx_hal_tim_ex.c ****   
 181:../STM32F2xx_HAL_Driver/Src/stm32f2xx_hal_tim_ex.c ****   /* Reset the IC1PSC Bits */
 182:../STM32F2xx_HAL_Driver/Src/stm32f2xx_hal_tim_ex.c ****   htim->Instance->CCMR1 &= ~TIM_CCMR1_IC1PSC;
  74              		.loc 1 182 0
  75 0048 7B68     		ldr	r3, [r7, #4]
  76 004a 1B68     		ldr	r3, [r3]
  77 004c 7A68     		ldr	r2, [r7, #4]
  78 004e 1268     		ldr	r2, [r2]
  79 0050 9269     		ldr	r2, [r2, #24]
  80 0052 22F00C02 		bic	r2, r2, #12
  81 0056 9A61     		str	r2, [r3, #24]
 183:../STM32F2xx_HAL_Driver/Src/stm32f2xx_hal_tim_ex.c ****   /* Set the IC1PSC value */
 184:../STM32F2xx_HAL_Driver/Src/stm32f2xx_hal_tim_ex.c ****   htim->Instance->CCMR1 |= sConfig->IC1Prescaler;
  82              		.loc 1 184 0
  83 0058 7B68     		ldr	r3, [r7, #4]
  84 005a 1B68     		ldr	r3, [r3]
  85 005c 7A68     		ldr	r2, [r7, #4]
  86 005e 1268     		ldr	r2, [r2]
  87 0060 9169     		ldr	r1, [r2, #24]
  88 0062 3A68     		ldr	r2, [r7]
  89 0064 5268     		ldr	r2, [r2, #4]
  90 0066 0A43     		orrs	r2, r2, r1
  91 0068 9A61     		str	r2, [r3, #24]
 185:../STM32F2xx_HAL_Driver/Src/stm32f2xx_hal_tim_ex.c ****   
 186:../STM32F2xx_HAL_Driver/Src/stm32f2xx_hal_tim_ex.c ****   /* Enable the Hall sensor interface (XOR function of the three inputs) */
 187:../STM32F2xx_HAL_Driver/Src/stm32f2xx_hal_tim_ex.c ****   htim->Instance->CR2 |= TIM_CR2_TI1S;
  92              		.loc 1 187 0
  93 006a 7B68     		ldr	r3, [r7, #4]
  94 006c 1B68     		ldr	r3, [r3]
  95 006e 7A68     		ldr	r2, [r7, #4]
  96 0070 1268     		ldr	r2, [r2]
  97 0072 5268     		ldr	r2, [r2, #4]
  98 0074 42F08002 		orr	r2, r2, #128
  99 0078 5A60     		str	r2, [r3, #4]
 188:../STM32F2xx_HAL_Driver/Src/stm32f2xx_hal_tim_ex.c ****   
 189:../STM32F2xx_HAL_Driver/Src/stm32f2xx_hal_tim_ex.c ****   /* Select the TIM_TS_TI1F_ED signal as Input trigger for the TIM */
 190:../STM32F2xx_HAL_Driver/Src/stm32f2xx_hal_tim_ex.c ****   htim->Instance->SMCR &= ~TIM_SMCR_TS;
 100              		.loc 1 190 0
 101 007a 7B68     		ldr	r3, [r7, #4]
 102 007c 1B68     		ldr	r3, [r3]
 103 007e 7A68     		ldr	r2, [r7, #4]
 104 0080 1268     		ldr	r2, [r2]
 105 0082 9268     		ldr	r2, [r2, #8]
 106 0084 22F07002 		bic	r2, r2, #112
 107 0088 9A60     		str	r2, [r3, #8]
 191:../STM32F2xx_HAL_Driver/Src/stm32f2xx_hal_tim_ex.c ****   htim->Instance->SMCR |= TIM_TS_TI1F_ED;
 108              		.loc 1 191 0
 109 008a 7B68     		ldr	r3, [r7, #4]
 110 008c 1B68     		ldr	r3, [r3]
 111 008e 7A68     		ldr	r2, [r7, #4]
 112 0090 1268     		ldr	r2, [r2]
 113 0092 9268     		ldr	r2, [r2, #8]
 114 0094 42F04002 		orr	r2, r2, #64
 115 0098 9A60     		str	r2, [r3, #8]
 192:../STM32F2xx_HAL_Driver/Src/stm32f2xx_hal_tim_ex.c ****   
 193:../STM32F2xx_HAL_Driver/Src/stm32f2xx_hal_tim_ex.c ****   /* Use the TIM_TS_TI1F_ED signal to reset the TIM counter each edge detection */  
 194:../STM32F2xx_HAL_Driver/Src/stm32f2xx_hal_tim_ex.c ****   htim->Instance->SMCR &= ~TIM_SMCR_SMS;
 116              		.loc 1 194 0
 117 009a 7B68     		ldr	r3, [r7, #4]
 118 009c 1B68     		ldr	r3, [r3]
 119 009e 7A68     		ldr	r2, [r7, #4]
 120 00a0 1268     		ldr	r2, [r2]
 121 00a2 9268     		ldr	r2, [r2, #8]
 122 00a4 22F00702 		bic	r2, r2, #7
 123 00a8 9A60     		str	r2, [r3, #8]
 195:../STM32F2xx_HAL_Driver/Src/stm32f2xx_hal_tim_ex.c ****   htim->Instance->SMCR |= TIM_SLAVEMODE_RESET;
 124              		.loc 1 195 0
 125 00aa 7B68     		ldr	r3, [r7, #4]
 126 00ac 1B68     		ldr	r3, [r3]
 127 00ae 7A68     		ldr	r2, [r7, #4]
 128 00b0 1268     		ldr	r2, [r2]
 129 00b2 9268     		ldr	r2, [r2, #8]
 130 00b4 42F00402 		orr	r2, r2, #4
 131 00b8 9A60     		str	r2, [r3, #8]
 196:../STM32F2xx_HAL_Driver/Src/stm32f2xx_hal_tim_ex.c ****   
 197:../STM32F2xx_HAL_Driver/Src/stm32f2xx_hal_tim_ex.c ****   /* Program channel 2 in PWM 2 mode with the desired Commutation_Delay*/
 198:../STM32F2xx_HAL_Driver/Src/stm32f2xx_hal_tim_ex.c ****   OC_Config.OCFastMode = TIM_OCFAST_DISABLE;
 132              		.loc 1 198 0
 133 00ba 0023     		movs	r3, #0
 134 00bc FB61     		str	r3, [r7, #28]
 199:../STM32F2xx_HAL_Driver/Src/stm32f2xx_hal_tim_ex.c ****   OC_Config.OCIdleState = TIM_OCIDLESTATE_RESET;
 135              		.loc 1 199 0
 136 00be 0023     		movs	r3, #0
 137 00c0 3B62     		str	r3, [r7, #32]
 200:../STM32F2xx_HAL_Driver/Src/stm32f2xx_hal_tim_ex.c ****   OC_Config.OCMode = TIM_OCMODE_PWM2;
 138              		.loc 1 200 0
 139 00c2 7023     		movs	r3, #112
 140 00c4 FB60     		str	r3, [r7, #12]
 201:../STM32F2xx_HAL_Driver/Src/stm32f2xx_hal_tim_ex.c ****   OC_Config.OCNIdleState = TIM_OCNIDLESTATE_RESET;
 141              		.loc 1 201 0
 142 00c6 0023     		movs	r3, #0
 143 00c8 7B62     		str	r3, [r7, #36]
 202:../STM32F2xx_HAL_Driver/Src/stm32f2xx_hal_tim_ex.c ****   OC_Config.OCNPolarity = TIM_OCNPOLARITY_HIGH;
 144              		.loc 1 202 0
 145 00ca 0023     		movs	r3, #0
 146 00cc BB61     		str	r3, [r7, #24]
 203:../STM32F2xx_HAL_Driver/Src/stm32f2xx_hal_tim_ex.c ****   OC_Config.OCPolarity = TIM_OCPOLARITY_HIGH;
 147              		.loc 1 203 0
 148 00ce 0023     		movs	r3, #0
 149 00d0 7B61     		str	r3, [r7, #20]
 204:../STM32F2xx_HAL_Driver/Src/stm32f2xx_hal_tim_ex.c ****   OC_Config.Pulse = sConfig->Commutation_Delay; 
 150              		.loc 1 204 0
 151 00d2 3B68     		ldr	r3, [r7]
 152 00d4 DB68     		ldr	r3, [r3, #12]
 153 00d6 3B61     		str	r3, [r7, #16]
 205:../STM32F2xx_HAL_Driver/Src/stm32f2xx_hal_tim_ex.c ****     
 206:../STM32F2xx_HAL_Driver/Src/stm32f2xx_hal_tim_ex.c ****   TIM_OC2_SetConfig(htim->Instance, &OC_Config);
 154              		.loc 1 206 0
 155 00d8 7B68     		ldr	r3, [r7, #4]
 156 00da 1A68     		ldr	r2, [r3]
 157 00dc 07F10C03 		add	r3, r7, #12
 158 00e0 1046     		mov	r0, r2
 159 00e2 1946     		mov	r1, r3
 160 00e4 FFF7FEFF 		bl	TIM_OC2_SetConfig
 207:../STM32F2xx_HAL_Driver/Src/stm32f2xx_hal_tim_ex.c ****   
 208:../STM32F2xx_HAL_Driver/Src/stm32f2xx_hal_tim_ex.c ****   /* Select OC2REF as trigger output on TRGO: write the MMS bits in the TIMx_CR2
 209:../STM32F2xx_HAL_Driver/Src/stm32f2xx_hal_tim_ex.c ****     register to 101 */
 210:../STM32F2xx_HAL_Driver/Src/stm32f2xx_hal_tim_ex.c ****   htim->Instance->CR2 &= ~TIM_CR2_MMS;
 161              		.loc 1 210 0
 162 00e8 7B68     		ldr	r3, [r7, #4]
 163 00ea 1B68     		ldr	r3, [r3]
 164 00ec 7A68     		ldr	r2, [r7, #4]
 165 00ee 1268     		ldr	r2, [r2]
 166 00f0 5268     		ldr	r2, [r2, #4]
 167 00f2 22F07002 		bic	r2, r2, #112
 168 00f6 5A60     		str	r2, [r3, #4]
 211:../STM32F2xx_HAL_Driver/Src/stm32f2xx_hal_tim_ex.c ****   htim->Instance->CR2 |= TIM_TRGO_OC2REF; 
 169              		.loc 1 211 0
 170 00f8 7B68     		ldr	r3, [r7, #4]
 171 00fa 1B68     		ldr	r3, [r3]
 172 00fc 7A68     		ldr	r2, [r7, #4]
 173 00fe 1268     		ldr	r2, [r2]
 174 0100 5268     		ldr	r2, [r2, #4]
 175 0102 42F05002 		orr	r2, r2, #80
 176 0106 5A60     		str	r2, [r3, #4]
 212:../STM32F2xx_HAL_Driver/Src/stm32f2xx_hal_tim_ex.c ****   
 213:../STM32F2xx_HAL_Driver/Src/stm32f2xx_hal_tim_ex.c ****   /* Initialize the TIM state*/
 214:../STM32F2xx_HAL_Driver/Src/stm32f2xx_hal_tim_ex.c ****   htim->State= HAL_TIM_STATE_READY;
 177              		.loc 1 214 0
 178 0108 7B68     		ldr	r3, [r7, #4]
 179 010a 0122     		movs	r2, #1
 180 010c 83F83920 		strb	r2, [r3, #57]
 215:../STM32F2xx_HAL_Driver/Src/stm32f2xx_hal_tim_ex.c **** 
 216:../STM32F2xx_HAL_Driver/Src/stm32f2xx_hal_tim_ex.c ****   return HAL_OK;
 181              		.loc 1 216 0
 182 0110 0023     		movs	r3, #0
 183              	.L4:
 217:../STM32F2xx_HAL_Driver/Src/stm32f2xx_hal_tim_ex.c **** }
 184              		.loc 1 217 0
 185 0112 1846     		mov	r0, r3
 186 0114 2837     		adds	r7, r7, #40
 187 0116 BD46     		mov	sp, r7
 188              		@ sp needed
 189 0118 80BD     		pop	{r7, pc}
 190              		.cfi_endproc
 191              	.LFE55:
 193 011a 00BF     		.align	2
 194              		.global	HAL_TIMEx_HallSensor_DeInit
 195              		.thumb
 196              		.thumb_func
 198              	HAL_TIMEx_HallSensor_DeInit:
 199              	.LFB56:
 218:../STM32F2xx_HAL_Driver/Src/stm32f2xx_hal_tim_ex.c **** 
 219:../STM32F2xx_HAL_Driver/Src/stm32f2xx_hal_tim_ex.c **** /**
 220:../STM32F2xx_HAL_Driver/Src/stm32f2xx_hal_tim_ex.c ****   * @brief  DeInitializes the TIM Hall Sensor interface  
 221:../STM32F2xx_HAL_Driver/Src/stm32f2xx_hal_tim_ex.c ****   * @param  htim: TIM Hall Sensor handle
 222:../STM32F2xx_HAL_Driver/Src/stm32f2xx_hal_tim_ex.c ****   * @retval HAL status
 223:../STM32F2xx_HAL_Driver/Src/stm32f2xx_hal_tim_ex.c ****   */
 224:../STM32F2xx_HAL_Driver/Src/stm32f2xx_hal_tim_ex.c **** HAL_StatusTypeDef HAL_TIMEx_HallSensor_DeInit(TIM_HandleTypeDef *htim)
 225:../STM32F2xx_HAL_Driver/Src/stm32f2xx_hal_tim_ex.c **** {
 200              		.loc 1 225 0
 201              		.cfi_startproc
 202              		@ args = 0, pretend = 0, frame = 8
 203              		@ frame_needed = 1, uses_anonymous_args = 0
 204 011c 80B5     		push	{r7, lr}
 205              		.cfi_def_cfa_offset 8
 206              		.cfi_offset 7, -8
 207              		.cfi_offset 14, -4
 208 011e 82B0     		sub	sp, sp, #8
 209              		.cfi_def_cfa_offset 16
 210 0120 00AF     		add	r7, sp, #0
 211              		.cfi_def_cfa_register 7
 212 0122 7860     		str	r0, [r7, #4]
 226:../STM32F2xx_HAL_Driver/Src/stm32f2xx_hal_tim_ex.c ****   /* Check the parameters */
 227:../STM32F2xx_HAL_Driver/Src/stm32f2xx_hal_tim_ex.c ****   assert_param(IS_TIM_INSTANCE(htim->Instance));
 228:../STM32F2xx_HAL_Driver/Src/stm32f2xx_hal_tim_ex.c **** 
 229:../STM32F2xx_HAL_Driver/Src/stm32f2xx_hal_tim_ex.c ****   htim->State = HAL_TIM_STATE_BUSY;
 213              		.loc 1 229 0
 214 0124 7B68     		ldr	r3, [r7, #4]
 215 0126 0222     		movs	r2, #2
 216 0128 83F83920 		strb	r2, [r3, #57]
 230:../STM32F2xx_HAL_Driver/Src/stm32f2xx_hal_tim_ex.c ****   
 231:../STM32F2xx_HAL_Driver/Src/stm32f2xx_hal_tim_ex.c ****   /* Disable the TIM Peripheral Clock */
 232:../STM32F2xx_HAL_Driver/Src/stm32f2xx_hal_tim_ex.c ****   __HAL_TIM_DISABLE(htim);
 217              		.loc 1 232 0
 218 012c 7B68     		ldr	r3, [r7, #4]
 219 012e 1B68     		ldr	r3, [r3]
 220 0130 1A6A     		ldr	r2, [r3, #32]
 221 0132 41F21113 		movw	r3, #4369
 222 0136 1340     		ands	r3, r3, r2
 223 0138 002B     		cmp	r3, #0
 224 013a 0FD1     		bne	.L6
 225              		.loc 1 232 0 is_stmt 0 discriminator 1
 226 013c 7B68     		ldr	r3, [r7, #4]
 227 013e 1B68     		ldr	r3, [r3]
 228 0140 1A6A     		ldr	r2, [r3, #32]
 229 0142 40F24443 		movw	r3, #1092
 230 0146 1340     		ands	r3, r3, r2
 231 0148 002B     		cmp	r3, #0
 232 014a 07D1     		bne	.L6
 233 014c 7B68     		ldr	r3, [r7, #4]
 234 014e 1B68     		ldr	r3, [r3]
 235 0150 7A68     		ldr	r2, [r7, #4]
 236 0152 1268     		ldr	r2, [r2]
 237 0154 1268     		ldr	r2, [r2]
 238 0156 22F00102 		bic	r2, r2, #1
 239 015a 1A60     		str	r2, [r3]
 240              	.L6:
 233:../STM32F2xx_HAL_Driver/Src/stm32f2xx_hal_tim_ex.c ****     
 234:../STM32F2xx_HAL_Driver/Src/stm32f2xx_hal_tim_ex.c ****   /* DeInit the low level hardware: GPIO, CLOCK, NVIC */
 235:../STM32F2xx_HAL_Driver/Src/stm32f2xx_hal_tim_ex.c ****   HAL_TIMEx_HallSensor_MspDeInit(htim);
 241              		.loc 1 235 0 is_stmt 1
 242 015c 7868     		ldr	r0, [r7, #4]
 243 015e FFF7FEFF 		bl	HAL_TIMEx_HallSensor_MspDeInit
 236:../STM32F2xx_HAL_Driver/Src/stm32f2xx_hal_tim_ex.c ****     
 237:../STM32F2xx_HAL_Driver/Src/stm32f2xx_hal_tim_ex.c ****   /* Change TIM state */  
 238:../STM32F2xx_HAL_Driver/Src/stm32f2xx_hal_tim_ex.c ****   htim->State = HAL_TIM_STATE_RESET; 
 244              		.loc 1 238 0
 245 0162 7B68     		ldr	r3, [r7, #4]
 246 0164 0022     		movs	r2, #0
 247 0166 83F83920 		strb	r2, [r3, #57]
 239:../STM32F2xx_HAL_Driver/Src/stm32f2xx_hal_tim_ex.c **** 
 240:../STM32F2xx_HAL_Driver/Src/stm32f2xx_hal_tim_ex.c ****   /* Release Lock */
 241:../STM32F2xx_HAL_Driver/Src/stm32f2xx_hal_tim_ex.c ****   __HAL_UNLOCK(htim);
 248              		.loc 1 241 0
 249 016a 7B68     		ldr	r3, [r7, #4]
 250 016c 0022     		movs	r2, #0
 251 016e 83F83820 		strb	r2, [r3, #56]
 242:../STM32F2xx_HAL_Driver/Src/stm32f2xx_hal_tim_ex.c **** 
 243:../STM32F2xx_HAL_Driver/Src/stm32f2xx_hal_tim_ex.c ****   return HAL_OK;
 252              		.loc 1 243 0
 253 0172 0023     		movs	r3, #0
 244:../STM32F2xx_HAL_Driver/Src/stm32f2xx_hal_tim_ex.c **** }
 254              		.loc 1 244 0
 255 0174 1846     		mov	r0, r3
 256 0176 0837     		adds	r7, r7, #8
 257 0178 BD46     		mov	sp, r7
 258              		@ sp needed
 259 017a 80BD     		pop	{r7, pc}
 260              		.cfi_endproc
 261              	.LFE56:
 263              		.align	2
 264              		.weak	HAL_TIMEx_HallSensor_MspInit
 265              		.thumb
 266              		.thumb_func
 268              	HAL_TIMEx_HallSensor_MspInit:
 269              	.LFB57:
 245:../STM32F2xx_HAL_Driver/Src/stm32f2xx_hal_tim_ex.c **** 
 246:../STM32F2xx_HAL_Driver/Src/stm32f2xx_hal_tim_ex.c **** /**
 247:../STM32F2xx_HAL_Driver/Src/stm32f2xx_hal_tim_ex.c ****   * @brief  Initializes the TIM Hall Sensor MSP.
 248:../STM32F2xx_HAL_Driver/Src/stm32f2xx_hal_tim_ex.c ****   * @param  htim: TIM handle
 249:../STM32F2xx_HAL_Driver/Src/stm32f2xx_hal_tim_ex.c ****   * @retval None
 250:../STM32F2xx_HAL_Driver/Src/stm32f2xx_hal_tim_ex.c ****   */
 251:../STM32F2xx_HAL_Driver/Src/stm32f2xx_hal_tim_ex.c **** __weak void HAL_TIMEx_HallSensor_MspInit(TIM_HandleTypeDef *htim)
 252:../STM32F2xx_HAL_Driver/Src/stm32f2xx_hal_tim_ex.c **** {
 270              		.loc 1 252 0
 271              		.cfi_startproc
 272              		@ args = 0, pretend = 0, frame = 8
 273              		@ frame_needed = 1, uses_anonymous_args = 0
 274              		@ link register save eliminated.
 275 017c 80B4     		push	{r7}
 276              		.cfi_def_cfa_offset 4
 277              		.cfi_offset 7, -4
 278 017e 83B0     		sub	sp, sp, #12
 279              		.cfi_def_cfa_offset 16
 280 0180 00AF     		add	r7, sp, #0
 281              		.cfi_def_cfa_register 7
 282 0182 7860     		str	r0, [r7, #4]
 253:../STM32F2xx_HAL_Driver/Src/stm32f2xx_hal_tim_ex.c ****   /* NOTE : This function Should not be modified, when the callback is needed,
 254:../STM32F2xx_HAL_Driver/Src/stm32f2xx_hal_tim_ex.c ****             the HAL_TIMEx_HallSensor_MspInit could be implemented in the user file
 255:../STM32F2xx_HAL_Driver/Src/stm32f2xx_hal_tim_ex.c ****    */
 256:../STM32F2xx_HAL_Driver/Src/stm32f2xx_hal_tim_ex.c **** }
 283              		.loc 1 256 0
 284 0184 0C37     		adds	r7, r7, #12
 285 0186 BD46     		mov	sp, r7
 286              		@ sp needed
 287 0188 5DF8047B 		ldr	r7, [sp], #4
 288 018c 7047     		bx	lr
 289              		.cfi_endproc
 290              	.LFE57:
 292 018e 00BF     		.align	2
 293              		.weak	HAL_TIMEx_HallSensor_MspDeInit
 294              		.thumb
 295              		.thumb_func
 297              	HAL_TIMEx_HallSensor_MspDeInit:
 298              	.LFB58:
 257:../STM32F2xx_HAL_Driver/Src/stm32f2xx_hal_tim_ex.c **** 
 258:../STM32F2xx_HAL_Driver/Src/stm32f2xx_hal_tim_ex.c **** /**
 259:../STM32F2xx_HAL_Driver/Src/stm32f2xx_hal_tim_ex.c ****   * @brief  DeInitializes TIM Hall Sensor MSP.
 260:../STM32F2xx_HAL_Driver/Src/stm32f2xx_hal_tim_ex.c ****   * @param  htim: TIM handle
 261:../STM32F2xx_HAL_Driver/Src/stm32f2xx_hal_tim_ex.c ****   * @retval None
 262:../STM32F2xx_HAL_Driver/Src/stm32f2xx_hal_tim_ex.c ****   */
 263:../STM32F2xx_HAL_Driver/Src/stm32f2xx_hal_tim_ex.c **** __weak void HAL_TIMEx_HallSensor_MspDeInit(TIM_HandleTypeDef *htim)
 264:../STM32F2xx_HAL_Driver/Src/stm32f2xx_hal_tim_ex.c **** {
 299              		.loc 1 264 0
 300              		.cfi_startproc
 301              		@ args = 0, pretend = 0, frame = 8
 302              		@ frame_needed = 1, uses_anonymous_args = 0
 303              		@ link register save eliminated.
 304 0190 80B4     		push	{r7}
 305              		.cfi_def_cfa_offset 4
 306              		.cfi_offset 7, -4
 307 0192 83B0     		sub	sp, sp, #12
 308              		.cfi_def_cfa_offset 16
 309 0194 00AF     		add	r7, sp, #0
 310              		.cfi_def_cfa_register 7
 311 0196 7860     		str	r0, [r7, #4]
 265:../STM32F2xx_HAL_Driver/Src/stm32f2xx_hal_tim_ex.c ****   /* NOTE : This function Should not be modified, when the callback is needed,
 266:../STM32F2xx_HAL_Driver/Src/stm32f2xx_hal_tim_ex.c ****             the HAL_TIMEx_HallSensor_MspDeInit could be implemented in the user file
 267:../STM32F2xx_HAL_Driver/Src/stm32f2xx_hal_tim_ex.c ****    */
 268:../STM32F2xx_HAL_Driver/Src/stm32f2xx_hal_tim_ex.c **** }
 312              		.loc 1 268 0
 313 0198 0C37     		adds	r7, r7, #12
 314 019a BD46     		mov	sp, r7
 315              		@ sp needed
 316 019c 5DF8047B 		ldr	r7, [sp], #4
 317 01a0 7047     		bx	lr
 318              		.cfi_endproc
 319              	.LFE58:
 321 01a2 00BF     		.align	2
 322              		.global	HAL_TIMEx_HallSensor_Start
 323              		.thumb
 324              		.thumb_func
 326              	HAL_TIMEx_HallSensor_Start:
 327              	.LFB59:
 269:../STM32F2xx_HAL_Driver/Src/stm32f2xx_hal_tim_ex.c **** 
 270:../STM32F2xx_HAL_Driver/Src/stm32f2xx_hal_tim_ex.c **** /**
 271:../STM32F2xx_HAL_Driver/Src/stm32f2xx_hal_tim_ex.c ****   * @brief  Starts the TIM Hall Sensor Interface.
 272:../STM32F2xx_HAL_Driver/Src/stm32f2xx_hal_tim_ex.c ****   * @param  htim : TIM Hall Sensor handle
 273:../STM32F2xx_HAL_Driver/Src/stm32f2xx_hal_tim_ex.c ****   * @retval HAL status
 274:../STM32F2xx_HAL_Driver/Src/stm32f2xx_hal_tim_ex.c ****   */
 275:../STM32F2xx_HAL_Driver/Src/stm32f2xx_hal_tim_ex.c **** HAL_StatusTypeDef HAL_TIMEx_HallSensor_Start(TIM_HandleTypeDef *htim)
 276:../STM32F2xx_HAL_Driver/Src/stm32f2xx_hal_tim_ex.c **** {
 328              		.loc 1 276 0
 329              		.cfi_startproc
 330              		@ args = 0, pretend = 0, frame = 8
 331              		@ frame_needed = 1, uses_anonymous_args = 0
 332 01a4 80B5     		push	{r7, lr}
 333              		.cfi_def_cfa_offset 8
 334              		.cfi_offset 7, -8
 335              		.cfi_offset 14, -4
 336 01a6 82B0     		sub	sp, sp, #8
 337              		.cfi_def_cfa_offset 16
 338 01a8 00AF     		add	r7, sp, #0
 339              		.cfi_def_cfa_register 7
 340 01aa 7860     		str	r0, [r7, #4]
 277:../STM32F2xx_HAL_Driver/Src/stm32f2xx_hal_tim_ex.c ****   /* Check the parameters */
 278:../STM32F2xx_HAL_Driver/Src/stm32f2xx_hal_tim_ex.c ****   assert_param(IS_TIM_XOR_INSTANCE(htim->Instance));
 279:../STM32F2xx_HAL_Driver/Src/stm32f2xx_hal_tim_ex.c ****   
 280:../STM32F2xx_HAL_Driver/Src/stm32f2xx_hal_tim_ex.c ****   /* Enable the Input Capture channels 1
 281:../STM32F2xx_HAL_Driver/Src/stm32f2xx_hal_tim_ex.c ****     (in the Hall Sensor Interface the Three possible channels that can be used are TIM_CHANNEL_1, T
 282:../STM32F2xx_HAL_Driver/Src/stm32f2xx_hal_tim_ex.c ****   TIM_CCxChannelCmd(htim->Instance, TIM_CHANNEL_1, TIM_CCx_ENABLE); 
 341              		.loc 1 282 0
 342 01ac 7B68     		ldr	r3, [r7, #4]
 343 01ae 1B68     		ldr	r3, [r3]
 344 01b0 1846     		mov	r0, r3
 345 01b2 0021     		movs	r1, #0
 346 01b4 0122     		movs	r2, #1
 347 01b6 FFF7FEFF 		bl	TIM_CCxChannelCmd
 283:../STM32F2xx_HAL_Driver/Src/stm32f2xx_hal_tim_ex.c ****   
 284:../STM32F2xx_HAL_Driver/Src/stm32f2xx_hal_tim_ex.c ****   /* Enable the Peripheral */
 285:../STM32F2xx_HAL_Driver/Src/stm32f2xx_hal_tim_ex.c ****   __HAL_TIM_ENABLE(htim);
 348              		.loc 1 285 0
 349 01ba 7B68     		ldr	r3, [r7, #4]
 350 01bc 1B68     		ldr	r3, [r3]
 351 01be 7A68     		ldr	r2, [r7, #4]
 352 01c0 1268     		ldr	r2, [r2]
 353 01c2 1268     		ldr	r2, [r2]
 354 01c4 42F00102 		orr	r2, r2, #1
 355 01c8 1A60     		str	r2, [r3]
 286:../STM32F2xx_HAL_Driver/Src/stm32f2xx_hal_tim_ex.c ****   
 287:../STM32F2xx_HAL_Driver/Src/stm32f2xx_hal_tim_ex.c ****   /* Return function status */
 288:../STM32F2xx_HAL_Driver/Src/stm32f2xx_hal_tim_ex.c ****   return HAL_OK;
 356              		.loc 1 288 0
 357 01ca 0023     		movs	r3, #0
 289:../STM32F2xx_HAL_Driver/Src/stm32f2xx_hal_tim_ex.c **** }
 358              		.loc 1 289 0
 359 01cc 1846     		mov	r0, r3
 360 01ce 0837     		adds	r7, r7, #8
 361 01d0 BD46     		mov	sp, r7
 362              		@ sp needed
 363 01d2 80BD     		pop	{r7, pc}
 364              		.cfi_endproc
 365              	.LFE59:
 367              		.align	2
 368              		.global	HAL_TIMEx_HallSensor_Stop
 369              		.thumb
 370              		.thumb_func
 372              	HAL_TIMEx_HallSensor_Stop:
 373              	.LFB60:
 290:../STM32F2xx_HAL_Driver/Src/stm32f2xx_hal_tim_ex.c **** 
 291:../STM32F2xx_HAL_Driver/Src/stm32f2xx_hal_tim_ex.c **** /**
 292:../STM32F2xx_HAL_Driver/Src/stm32f2xx_hal_tim_ex.c ****   * @brief  Stops the TIM Hall sensor Interface.
 293:../STM32F2xx_HAL_Driver/Src/stm32f2xx_hal_tim_ex.c ****   * @param  htim : TIM Hall Sensor handle
 294:../STM32F2xx_HAL_Driver/Src/stm32f2xx_hal_tim_ex.c ****   * @retval HAL status
 295:../STM32F2xx_HAL_Driver/Src/stm32f2xx_hal_tim_ex.c ****   */
 296:../STM32F2xx_HAL_Driver/Src/stm32f2xx_hal_tim_ex.c **** HAL_StatusTypeDef HAL_TIMEx_HallSensor_Stop(TIM_HandleTypeDef *htim)
 297:../STM32F2xx_HAL_Driver/Src/stm32f2xx_hal_tim_ex.c **** {
 374              		.loc 1 297 0
 375              		.cfi_startproc
 376              		@ args = 0, pretend = 0, frame = 8
 377              		@ frame_needed = 1, uses_anonymous_args = 0
 378 01d4 80B5     		push	{r7, lr}
 379              		.cfi_def_cfa_offset 8
 380              		.cfi_offset 7, -8
 381              		.cfi_offset 14, -4
 382 01d6 82B0     		sub	sp, sp, #8
 383              		.cfi_def_cfa_offset 16
 384 01d8 00AF     		add	r7, sp, #0
 385              		.cfi_def_cfa_register 7
 386 01da 7860     		str	r0, [r7, #4]
 298:../STM32F2xx_HAL_Driver/Src/stm32f2xx_hal_tim_ex.c ****   /* Check the parameters */
 299:../STM32F2xx_HAL_Driver/Src/stm32f2xx_hal_tim_ex.c ****   assert_param(IS_TIM_XOR_INSTANCE(htim->Instance));
 300:../STM32F2xx_HAL_Driver/Src/stm32f2xx_hal_tim_ex.c ****   
 301:../STM32F2xx_HAL_Driver/Src/stm32f2xx_hal_tim_ex.c ****   /* Disable the Input Capture channels 1, 2 and 3
 302:../STM32F2xx_HAL_Driver/Src/stm32f2xx_hal_tim_ex.c ****     (in the Hall Sensor Interface the Three possible channels that can be used are TIM_CHANNEL_1, T
 303:../STM32F2xx_HAL_Driver/Src/stm32f2xx_hal_tim_ex.c ****   TIM_CCxChannelCmd(htim->Instance, TIM_CHANNEL_1, TIM_CCx_DISABLE); 
 387              		.loc 1 303 0
 388 01dc 7B68     		ldr	r3, [r7, #4]
 389 01de 1B68     		ldr	r3, [r3]
 390 01e0 1846     		mov	r0, r3
 391 01e2 0021     		movs	r1, #0
 392 01e4 0022     		movs	r2, #0
 393 01e6 FFF7FEFF 		bl	TIM_CCxChannelCmd
 304:../STM32F2xx_HAL_Driver/Src/stm32f2xx_hal_tim_ex.c **** 
 305:../STM32F2xx_HAL_Driver/Src/stm32f2xx_hal_tim_ex.c ****   /* Disable the Peripheral */
 306:../STM32F2xx_HAL_Driver/Src/stm32f2xx_hal_tim_ex.c ****   __HAL_TIM_DISABLE(htim);
 394              		.loc 1 306 0
 395 01ea 7B68     		ldr	r3, [r7, #4]
 396 01ec 1B68     		ldr	r3, [r3]
 397 01ee 1A6A     		ldr	r2, [r3, #32]
 398 01f0 41F21113 		movw	r3, #4369
 399 01f4 1340     		ands	r3, r3, r2
 400 01f6 002B     		cmp	r3, #0
 401 01f8 0FD1     		bne	.L13
 402              		.loc 1 306 0 is_stmt 0 discriminator 1
 403 01fa 7B68     		ldr	r3, [r7, #4]
 404 01fc 1B68     		ldr	r3, [r3]
 405 01fe 1A6A     		ldr	r2, [r3, #32]
 406 0200 40F24443 		movw	r3, #1092
 407 0204 1340     		ands	r3, r3, r2
 408 0206 002B     		cmp	r3, #0
 409 0208 07D1     		bne	.L13
 410 020a 7B68     		ldr	r3, [r7, #4]
 411 020c 1B68     		ldr	r3, [r3]
 412 020e 7A68     		ldr	r2, [r7, #4]
 413 0210 1268     		ldr	r2, [r2]
 414 0212 1268     		ldr	r2, [r2]
 415 0214 22F00102 		bic	r2, r2, #1
 416 0218 1A60     		str	r2, [r3]
 417              	.L13:
 307:../STM32F2xx_HAL_Driver/Src/stm32f2xx_hal_tim_ex.c ****   
 308:../STM32F2xx_HAL_Driver/Src/stm32f2xx_hal_tim_ex.c ****   /* Return function status */
 309:../STM32F2xx_HAL_Driver/Src/stm32f2xx_hal_tim_ex.c ****   return HAL_OK;
 418              		.loc 1 309 0 is_stmt 1
 419 021a 0023     		movs	r3, #0
 310:../STM32F2xx_HAL_Driver/Src/stm32f2xx_hal_tim_ex.c **** }
 420              		.loc 1 310 0
 421 021c 1846     		mov	r0, r3
 422 021e 0837     		adds	r7, r7, #8
 423 0220 BD46     		mov	sp, r7
 424              		@ sp needed
 425 0222 80BD     		pop	{r7, pc}
 426              		.cfi_endproc
 427              	.LFE60:
 429              		.align	2
 430              		.global	HAL_TIMEx_HallSensor_Start_IT
 431              		.thumb
 432              		.thumb_func
 434              	HAL_TIMEx_HallSensor_Start_IT:
 435              	.LFB61:
 311:../STM32F2xx_HAL_Driver/Src/stm32f2xx_hal_tim_ex.c **** 
 312:../STM32F2xx_HAL_Driver/Src/stm32f2xx_hal_tim_ex.c **** /**
 313:../STM32F2xx_HAL_Driver/Src/stm32f2xx_hal_tim_ex.c ****   * @brief  Starts the TIM Hall Sensor Interface in interrupt mode.
 314:../STM32F2xx_HAL_Driver/Src/stm32f2xx_hal_tim_ex.c ****   * @param  htim : TIM Hall Sensor handle
 315:../STM32F2xx_HAL_Driver/Src/stm32f2xx_hal_tim_ex.c ****   * @retval HAL status
 316:../STM32F2xx_HAL_Driver/Src/stm32f2xx_hal_tim_ex.c ****   */
 317:../STM32F2xx_HAL_Driver/Src/stm32f2xx_hal_tim_ex.c **** HAL_StatusTypeDef HAL_TIMEx_HallSensor_Start_IT(TIM_HandleTypeDef *htim)
 318:../STM32F2xx_HAL_Driver/Src/stm32f2xx_hal_tim_ex.c **** { 
 436              		.loc 1 318 0
 437              		.cfi_startproc
 438              		@ args = 0, pretend = 0, frame = 8
 439              		@ frame_needed = 1, uses_anonymous_args = 0
 440 0224 80B5     		push	{r7, lr}
 441              		.cfi_def_cfa_offset 8
 442              		.cfi_offset 7, -8
 443              		.cfi_offset 14, -4
 444 0226 82B0     		sub	sp, sp, #8
 445              		.cfi_def_cfa_offset 16
 446 0228 00AF     		add	r7, sp, #0
 447              		.cfi_def_cfa_register 7
 448 022a 7860     		str	r0, [r7, #4]
 319:../STM32F2xx_HAL_Driver/Src/stm32f2xx_hal_tim_ex.c ****   /* Check the parameters */
 320:../STM32F2xx_HAL_Driver/Src/stm32f2xx_hal_tim_ex.c ****   assert_param(IS_TIM_XOR_INSTANCE(htim->Instance));
 321:../STM32F2xx_HAL_Driver/Src/stm32f2xx_hal_tim_ex.c ****   
 322:../STM32F2xx_HAL_Driver/Src/stm32f2xx_hal_tim_ex.c ****   /* Enable the capture compare Interrupts 1 event */
 323:../STM32F2xx_HAL_Driver/Src/stm32f2xx_hal_tim_ex.c ****   __HAL_TIM_ENABLE_IT(htim, TIM_IT_CC1);
 449              		.loc 1 323 0
 450 022c 7B68     		ldr	r3, [r7, #4]
 451 022e 1B68     		ldr	r3, [r3]
 452 0230 7A68     		ldr	r2, [r7, #4]
 453 0232 1268     		ldr	r2, [r2]
 454 0234 D268     		ldr	r2, [r2, #12]
 455 0236 42F00202 		orr	r2, r2, #2
 456 023a DA60     		str	r2, [r3, #12]
 324:../STM32F2xx_HAL_Driver/Src/stm32f2xx_hal_tim_ex.c ****   
 325:../STM32F2xx_HAL_Driver/Src/stm32f2xx_hal_tim_ex.c ****   /* Enable the Input Capture channels 1
 326:../STM32F2xx_HAL_Driver/Src/stm32f2xx_hal_tim_ex.c ****     (in the Hall Sensor Interface the Three possible channels that can be used are TIM_CHANNEL_1, T
 327:../STM32F2xx_HAL_Driver/Src/stm32f2xx_hal_tim_ex.c ****   TIM_CCxChannelCmd(htim->Instance, TIM_CHANNEL_1, TIM_CCx_ENABLE);  
 457              		.loc 1 327 0
 458 023c 7B68     		ldr	r3, [r7, #4]
 459 023e 1B68     		ldr	r3, [r3]
 460 0240 1846     		mov	r0, r3
 461 0242 0021     		movs	r1, #0
 462 0244 0122     		movs	r2, #1
 463 0246 FFF7FEFF 		bl	TIM_CCxChannelCmd
 328:../STM32F2xx_HAL_Driver/Src/stm32f2xx_hal_tim_ex.c ****   
 329:../STM32F2xx_HAL_Driver/Src/stm32f2xx_hal_tim_ex.c ****   /* Enable the Peripheral */
 330:../STM32F2xx_HAL_Driver/Src/stm32f2xx_hal_tim_ex.c ****   __HAL_TIM_ENABLE(htim);
 464              		.loc 1 330 0
 465 024a 7B68     		ldr	r3, [r7, #4]
 466 024c 1B68     		ldr	r3, [r3]
 467 024e 7A68     		ldr	r2, [r7, #4]
 468 0250 1268     		ldr	r2, [r2]
 469 0252 1268     		ldr	r2, [r2]
 470 0254 42F00102 		orr	r2, r2, #1
 471 0258 1A60     		str	r2, [r3]
 331:../STM32F2xx_HAL_Driver/Src/stm32f2xx_hal_tim_ex.c ****   
 332:../STM32F2xx_HAL_Driver/Src/stm32f2xx_hal_tim_ex.c ****   /* Return function status */
 333:../STM32F2xx_HAL_Driver/Src/stm32f2xx_hal_tim_ex.c ****   return HAL_OK;
 472              		.loc 1 333 0
 473 025a 0023     		movs	r3, #0
 334:../STM32F2xx_HAL_Driver/Src/stm32f2xx_hal_tim_ex.c **** }
 474              		.loc 1 334 0
 475 025c 1846     		mov	r0, r3
 476 025e 0837     		adds	r7, r7, #8
 477 0260 BD46     		mov	sp, r7
 478              		@ sp needed
 479 0262 80BD     		pop	{r7, pc}
 480              		.cfi_endproc
 481              	.LFE61:
 483              		.align	2
 484              		.global	HAL_TIMEx_HallSensor_Stop_IT
 485              		.thumb
 486              		.thumb_func
 488              	HAL_TIMEx_HallSensor_Stop_IT:
 489              	.LFB62:
 335:../STM32F2xx_HAL_Driver/Src/stm32f2xx_hal_tim_ex.c **** 
 336:../STM32F2xx_HAL_Driver/Src/stm32f2xx_hal_tim_ex.c **** /**
 337:../STM32F2xx_HAL_Driver/Src/stm32f2xx_hal_tim_ex.c ****   * @brief  Stops the TIM Hall Sensor Interface in interrupt mode.
 338:../STM32F2xx_HAL_Driver/Src/stm32f2xx_hal_tim_ex.c ****   * @param  htim : TIM handle
 339:../STM32F2xx_HAL_Driver/Src/stm32f2xx_hal_tim_ex.c ****   * @retval HAL status
 340:../STM32F2xx_HAL_Driver/Src/stm32f2xx_hal_tim_ex.c ****   */
 341:../STM32F2xx_HAL_Driver/Src/stm32f2xx_hal_tim_ex.c **** HAL_StatusTypeDef HAL_TIMEx_HallSensor_Stop_IT(TIM_HandleTypeDef *htim)
 342:../STM32F2xx_HAL_Driver/Src/stm32f2xx_hal_tim_ex.c **** {
 490              		.loc 1 342 0
 491              		.cfi_startproc
 492              		@ args = 0, pretend = 0, frame = 8
 493              		@ frame_needed = 1, uses_anonymous_args = 0
 494 0264 80B5     		push	{r7, lr}
 495              		.cfi_def_cfa_offset 8
 496              		.cfi_offset 7, -8
 497              		.cfi_offset 14, -4
 498 0266 82B0     		sub	sp, sp, #8
 499              		.cfi_def_cfa_offset 16
 500 0268 00AF     		add	r7, sp, #0
 501              		.cfi_def_cfa_register 7
 502 026a 7860     		str	r0, [r7, #4]
 343:../STM32F2xx_HAL_Driver/Src/stm32f2xx_hal_tim_ex.c ****   /* Check the parameters */
 344:../STM32F2xx_HAL_Driver/Src/stm32f2xx_hal_tim_ex.c ****   assert_param(IS_TIM_XOR_INSTANCE(htim->Instance));
 345:../STM32F2xx_HAL_Driver/Src/stm32f2xx_hal_tim_ex.c ****   
 346:../STM32F2xx_HAL_Driver/Src/stm32f2xx_hal_tim_ex.c ****   /* Disable the Input Capture channels 1
 347:../STM32F2xx_HAL_Driver/Src/stm32f2xx_hal_tim_ex.c ****     (in the Hall Sensor Interface the Three possible channels that can be used are TIM_CHANNEL_1, T
 348:../STM32F2xx_HAL_Driver/Src/stm32f2xx_hal_tim_ex.c ****   TIM_CCxChannelCmd(htim->Instance, TIM_CHANNEL_1, TIM_CCx_DISABLE); 
 503              		.loc 1 348 0
 504 026c 7B68     		ldr	r3, [r7, #4]
 505 026e 1B68     		ldr	r3, [r3]
 506 0270 1846     		mov	r0, r3
 507 0272 0021     		movs	r1, #0
 508 0274 0022     		movs	r2, #0
 509 0276 FFF7FEFF 		bl	TIM_CCxChannelCmd
 349:../STM32F2xx_HAL_Driver/Src/stm32f2xx_hal_tim_ex.c ****   
 350:../STM32F2xx_HAL_Driver/Src/stm32f2xx_hal_tim_ex.c ****   /* Disable the capture compare Interrupts event */
 351:../STM32F2xx_HAL_Driver/Src/stm32f2xx_hal_tim_ex.c ****   __HAL_TIM_DISABLE_IT(htim, TIM_IT_CC1);
 510              		.loc 1 351 0
 511 027a 7B68     		ldr	r3, [r7, #4]
 512 027c 1B68     		ldr	r3, [r3]
 513 027e 7A68     		ldr	r2, [r7, #4]
 514 0280 1268     		ldr	r2, [r2]
 515 0282 D268     		ldr	r2, [r2, #12]
 516 0284 22F00202 		bic	r2, r2, #2
 517 0288 DA60     		str	r2, [r3, #12]
 352:../STM32F2xx_HAL_Driver/Src/stm32f2xx_hal_tim_ex.c ****   
 353:../STM32F2xx_HAL_Driver/Src/stm32f2xx_hal_tim_ex.c ****   /* Disable the Peripheral */
 354:../STM32F2xx_HAL_Driver/Src/stm32f2xx_hal_tim_ex.c ****   __HAL_TIM_DISABLE(htim);
 518              		.loc 1 354 0
 519 028a 7B68     		ldr	r3, [r7, #4]
 520 028c 1B68     		ldr	r3, [r3]
 521 028e 1A6A     		ldr	r2, [r3, #32]
 522 0290 41F21113 		movw	r3, #4369
 523 0294 1340     		ands	r3, r3, r2
 524 0296 002B     		cmp	r3, #0
 525 0298 0FD1     		bne	.L18
 526              		.loc 1 354 0 is_stmt 0 discriminator 1
 527 029a 7B68     		ldr	r3, [r7, #4]
 528 029c 1B68     		ldr	r3, [r3]
 529 029e 1A6A     		ldr	r2, [r3, #32]
 530 02a0 40F24443 		movw	r3, #1092
 531 02a4 1340     		ands	r3, r3, r2
 532 02a6 002B     		cmp	r3, #0
 533 02a8 07D1     		bne	.L18
 534 02aa 7B68     		ldr	r3, [r7, #4]
 535 02ac 1B68     		ldr	r3, [r3]
 536 02ae 7A68     		ldr	r2, [r7, #4]
 537 02b0 1268     		ldr	r2, [r2]
 538 02b2 1268     		ldr	r2, [r2]
 539 02b4 22F00102 		bic	r2, r2, #1
 540 02b8 1A60     		str	r2, [r3]
 541              	.L18:
 355:../STM32F2xx_HAL_Driver/Src/stm32f2xx_hal_tim_ex.c ****   
 356:../STM32F2xx_HAL_Driver/Src/stm32f2xx_hal_tim_ex.c ****   /* Return function status */
 357:../STM32F2xx_HAL_Driver/Src/stm32f2xx_hal_tim_ex.c ****   return HAL_OK;
 542              		.loc 1 357 0 is_stmt 1
 543 02ba 0023     		movs	r3, #0
 358:../STM32F2xx_HAL_Driver/Src/stm32f2xx_hal_tim_ex.c **** }
 544              		.loc 1 358 0
 545 02bc 1846     		mov	r0, r3
 546 02be 0837     		adds	r7, r7, #8
 547 02c0 BD46     		mov	sp, r7
 548              		@ sp needed
 549 02c2 80BD     		pop	{r7, pc}
 550              		.cfi_endproc
 551              	.LFE62:
 553              		.align	2
 554              		.global	HAL_TIMEx_HallSensor_Start_DMA
 555              		.thumb
 556              		.thumb_func
 558              	HAL_TIMEx_HallSensor_Start_DMA:
 559              	.LFB63:
 359:../STM32F2xx_HAL_Driver/Src/stm32f2xx_hal_tim_ex.c **** 
 360:../STM32F2xx_HAL_Driver/Src/stm32f2xx_hal_tim_ex.c **** /**
 361:../STM32F2xx_HAL_Driver/Src/stm32f2xx_hal_tim_ex.c ****   * @brief  Starts the TIM Hall Sensor Interface in DMA mode.
 362:../STM32F2xx_HAL_Driver/Src/stm32f2xx_hal_tim_ex.c ****   * @param  htim : TIM Hall Sensor handle
 363:../STM32F2xx_HAL_Driver/Src/stm32f2xx_hal_tim_ex.c ****   * @param  pData: The destination Buffer address.
 364:../STM32F2xx_HAL_Driver/Src/stm32f2xx_hal_tim_ex.c ****   * @param  Length: The length of data to be transferred from TIM peripheral to memory.
 365:../STM32F2xx_HAL_Driver/Src/stm32f2xx_hal_tim_ex.c ****   * @retval HAL status
 366:../STM32F2xx_HAL_Driver/Src/stm32f2xx_hal_tim_ex.c ****   */
 367:../STM32F2xx_HAL_Driver/Src/stm32f2xx_hal_tim_ex.c **** HAL_StatusTypeDef HAL_TIMEx_HallSensor_Start_DMA(TIM_HandleTypeDef *htim, uint32_t *pData, uint16_t
 368:../STM32F2xx_HAL_Driver/Src/stm32f2xx_hal_tim_ex.c **** {
 560              		.loc 1 368 0
 561              		.cfi_startproc
 562              		@ args = 0, pretend = 0, frame = 16
 563              		@ frame_needed = 1, uses_anonymous_args = 0
 564 02c4 80B5     		push	{r7, lr}
 565              		.cfi_def_cfa_offset 8
 566              		.cfi_offset 7, -8
 567              		.cfi_offset 14, -4
 568 02c6 84B0     		sub	sp, sp, #16
 569              		.cfi_def_cfa_offset 24
 570 02c8 00AF     		add	r7, sp, #0
 571              		.cfi_def_cfa_register 7
 572 02ca F860     		str	r0, [r7, #12]
 573 02cc B960     		str	r1, [r7, #8]
 574 02ce 1346     		mov	r3, r2
 575 02d0 FB80     		strh	r3, [r7, #6]	@ movhi
 369:../STM32F2xx_HAL_Driver/Src/stm32f2xx_hal_tim_ex.c ****   /* Check the parameters */
 370:../STM32F2xx_HAL_Driver/Src/stm32f2xx_hal_tim_ex.c ****   assert_param(IS_TIM_XOR_INSTANCE(htim->Instance));
 371:../STM32F2xx_HAL_Driver/Src/stm32f2xx_hal_tim_ex.c ****   
 372:../STM32F2xx_HAL_Driver/Src/stm32f2xx_hal_tim_ex.c ****    if((htim->State == HAL_TIM_STATE_BUSY))
 576              		.loc 1 372 0
 577 02d2 FB68     		ldr	r3, [r7, #12]
 578 02d4 93F83930 		ldrb	r3, [r3, #57]
 579 02d8 DBB2     		uxtb	r3, r3
 580 02da 022B     		cmp	r3, #2
 581 02dc 01D1     		bne	.L21
 373:../STM32F2xx_HAL_Driver/Src/stm32f2xx_hal_tim_ex.c ****   {
 374:../STM32F2xx_HAL_Driver/Src/stm32f2xx_hal_tim_ex.c ****      return HAL_BUSY;
 582              		.loc 1 374 0
 583 02de 0223     		movs	r3, #2
 584 02e0 41E0     		b	.L22
 585              	.L21:
 375:../STM32F2xx_HAL_Driver/Src/stm32f2xx_hal_tim_ex.c ****   }
 376:../STM32F2xx_HAL_Driver/Src/stm32f2xx_hal_tim_ex.c ****   else if((htim->State == HAL_TIM_STATE_READY))
 586              		.loc 1 376 0
 587 02e2 FB68     		ldr	r3, [r7, #12]
 588 02e4 93F83930 		ldrb	r3, [r3, #57]
 589 02e8 DBB2     		uxtb	r3, r3
 590 02ea 012B     		cmp	r3, #1
 591 02ec 0BD1     		bne	.L23
 377:../STM32F2xx_HAL_Driver/Src/stm32f2xx_hal_tim_ex.c ****   {
 378:../STM32F2xx_HAL_Driver/Src/stm32f2xx_hal_tim_ex.c ****     if(((uint32_t)pData == 0 ) && (Length > 0)) 
 592              		.loc 1 378 0
 593 02ee BB68     		ldr	r3, [r7, #8]
 594 02f0 002B     		cmp	r3, #0
 595 02f2 04D1     		bne	.L24
 596              		.loc 1 378 0 is_stmt 0 discriminator 1
 597 02f4 FB88     		ldrh	r3, [r7, #6]
 598 02f6 002B     		cmp	r3, #0
 599 02f8 01D0     		beq	.L24
 379:../STM32F2xx_HAL_Driver/Src/stm32f2xx_hal_tim_ex.c ****     {
 380:../STM32F2xx_HAL_Driver/Src/stm32f2xx_hal_tim_ex.c ****       return HAL_ERROR;                                    
 600              		.loc 1 380 0 is_stmt 1
 601 02fa 0123     		movs	r3, #1
 602 02fc 33E0     		b	.L22
 603              	.L24:
 381:../STM32F2xx_HAL_Driver/Src/stm32f2xx_hal_tim_ex.c ****     }
 382:../STM32F2xx_HAL_Driver/Src/stm32f2xx_hal_tim_ex.c ****     else
 383:../STM32F2xx_HAL_Driver/Src/stm32f2xx_hal_tim_ex.c ****     {
 384:../STM32F2xx_HAL_Driver/Src/stm32f2xx_hal_tim_ex.c ****       htim->State = HAL_TIM_STATE_BUSY;
 604              		.loc 1 384 0
 605 02fe FB68     		ldr	r3, [r7, #12]
 606 0300 0222     		movs	r2, #2
 607 0302 83F83920 		strb	r2, [r3, #57]
 608              	.L23:
 385:../STM32F2xx_HAL_Driver/Src/stm32f2xx_hal_tim_ex.c ****     }
 386:../STM32F2xx_HAL_Driver/Src/stm32f2xx_hal_tim_ex.c ****   }
 387:../STM32F2xx_HAL_Driver/Src/stm32f2xx_hal_tim_ex.c ****   /* Enable the Input Capture channels 1
 388:../STM32F2xx_HAL_Driver/Src/stm32f2xx_hal_tim_ex.c ****     (in the Hall Sensor Interface the Three possible channels that can be used are TIM_CHANNEL_1, T
 389:../STM32F2xx_HAL_Driver/Src/stm32f2xx_hal_tim_ex.c ****   TIM_CCxChannelCmd(htim->Instance, TIM_CHANNEL_1, TIM_CCx_ENABLE); 
 609              		.loc 1 389 0
 610 0306 FB68     		ldr	r3, [r7, #12]
 611 0308 1B68     		ldr	r3, [r3]
 612 030a 1846     		mov	r0, r3
 613 030c 0021     		movs	r1, #0
 614 030e 0122     		movs	r2, #1
 615 0310 FFF7FEFF 		bl	TIM_CCxChannelCmd
 390:../STM32F2xx_HAL_Driver/Src/stm32f2xx_hal_tim_ex.c ****   
 391:../STM32F2xx_HAL_Driver/Src/stm32f2xx_hal_tim_ex.c ****   /* Set the DMA Input Capture 1 Callback */
 392:../STM32F2xx_HAL_Driver/Src/stm32f2xx_hal_tim_ex.c ****   htim->hdma[TIM_DMA_ID_CC1]->XferCpltCallback = HAL_TIM_DMACaptureCplt;     
 616              		.loc 1 392 0
 617 0314 FB68     		ldr	r3, [r7, #12]
 618 0316 1A6A     		ldr	r2, [r3, #32]
 619 0318 40F20003 		movw	r3, #:lower16:HAL_TIM_DMACaptureCplt
 620 031c C0F20003 		movt	r3, #:upper16:HAL_TIM_DMACaptureCplt
 621 0320 D363     		str	r3, [r2, #60]
 393:../STM32F2xx_HAL_Driver/Src/stm32f2xx_hal_tim_ex.c ****   /* Set the DMA error callback */
 394:../STM32F2xx_HAL_Driver/Src/stm32f2xx_hal_tim_ex.c ****   htim->hdma[TIM_DMA_ID_CC1]->XferErrorCallback = HAL_TIM_DMAError ;
 622              		.loc 1 394 0
 623 0322 FB68     		ldr	r3, [r7, #12]
 624 0324 1A6A     		ldr	r2, [r3, #32]
 625 0326 40F20003 		movw	r3, #:lower16:HAL_TIM_DMAError
 626 032a C0F20003 		movt	r3, #:upper16:HAL_TIM_DMAError
 627 032e 9364     		str	r3, [r2, #72]
 395:../STM32F2xx_HAL_Driver/Src/stm32f2xx_hal_tim_ex.c ****   
 396:../STM32F2xx_HAL_Driver/Src/stm32f2xx_hal_tim_ex.c ****   /* Enable the DMA Stream for Capture 1*/
 397:../STM32F2xx_HAL_Driver/Src/stm32f2xx_hal_tim_ex.c ****   HAL_DMA_Start_IT(htim->hdma[TIM_DMA_ID_CC1], (uint32_t)&htim->Instance->CCR1, (uint32_t)pData, Le
 628              		.loc 1 397 0
 629 0330 FB68     		ldr	r3, [r7, #12]
 630 0332 186A     		ldr	r0, [r3, #32]
 631 0334 FB68     		ldr	r3, [r7, #12]
 632 0336 1B68     		ldr	r3, [r3]
 633 0338 3433     		adds	r3, r3, #52
 634 033a 1946     		mov	r1, r3
 635 033c BA68     		ldr	r2, [r7, #8]
 636 033e FB88     		ldrh	r3, [r7, #6]
 637 0340 FFF7FEFF 		bl	HAL_DMA_Start_IT
 398:../STM32F2xx_HAL_Driver/Src/stm32f2xx_hal_tim_ex.c ****   
 399:../STM32F2xx_HAL_Driver/Src/stm32f2xx_hal_tim_ex.c ****   /* Enable the capture compare 1 Interrupt */
 400:../STM32F2xx_HAL_Driver/Src/stm32f2xx_hal_tim_ex.c ****   __HAL_TIM_ENABLE_DMA(htim, TIM_DMA_CC1);
 638              		.loc 1 400 0
 639 0344 FB68     		ldr	r3, [r7, #12]
 640 0346 1B68     		ldr	r3, [r3]
 641 0348 FA68     		ldr	r2, [r7, #12]
 642 034a 1268     		ldr	r2, [r2]
 643 034c D268     		ldr	r2, [r2, #12]
 644 034e 42F40072 		orr	r2, r2, #512
 645 0352 DA60     		str	r2, [r3, #12]
 401:../STM32F2xx_HAL_Driver/Src/stm32f2xx_hal_tim_ex.c ****  
 402:../STM32F2xx_HAL_Driver/Src/stm32f2xx_hal_tim_ex.c ****   /* Enable the Peripheral */
 403:../STM32F2xx_HAL_Driver/Src/stm32f2xx_hal_tim_ex.c ****   __HAL_TIM_ENABLE(htim);
 646              		.loc 1 403 0
 647 0354 FB68     		ldr	r3, [r7, #12]
 648 0356 1B68     		ldr	r3, [r3]
 649 0358 FA68     		ldr	r2, [r7, #12]
 650 035a 1268     		ldr	r2, [r2]
 651 035c 1268     		ldr	r2, [r2]
 652 035e 42F00102 		orr	r2, r2, #1
 653 0362 1A60     		str	r2, [r3]
 404:../STM32F2xx_HAL_Driver/Src/stm32f2xx_hal_tim_ex.c ****   
 405:../STM32F2xx_HAL_Driver/Src/stm32f2xx_hal_tim_ex.c ****   /* Return function status */
 406:../STM32F2xx_HAL_Driver/Src/stm32f2xx_hal_tim_ex.c ****   return HAL_OK;
 654              		.loc 1 406 0
 655 0364 0023     		movs	r3, #0
 656              	.L22:
 407:../STM32F2xx_HAL_Driver/Src/stm32f2xx_hal_tim_ex.c **** }
 657              		.loc 1 407 0
 658 0366 1846     		mov	r0, r3
 659 0368 1037     		adds	r7, r7, #16
 660 036a BD46     		mov	sp, r7
 661              		@ sp needed
 662 036c 80BD     		pop	{r7, pc}
 663              		.cfi_endproc
 664              	.LFE63:
 666 036e 00BF     		.align	2
 667              		.global	HAL_TIMEx_HallSensor_Stop_DMA
 668              		.thumb
 669              		.thumb_func
 671              	HAL_TIMEx_HallSensor_Stop_DMA:
 672              	.LFB64:
 408:../STM32F2xx_HAL_Driver/Src/stm32f2xx_hal_tim_ex.c **** 
 409:../STM32F2xx_HAL_Driver/Src/stm32f2xx_hal_tim_ex.c **** /**
 410:../STM32F2xx_HAL_Driver/Src/stm32f2xx_hal_tim_ex.c ****   * @brief  Stops the TIM Hall Sensor Interface in DMA mode.
 411:../STM32F2xx_HAL_Driver/Src/stm32f2xx_hal_tim_ex.c ****   * @param  htim : TIM handle
 412:../STM32F2xx_HAL_Driver/Src/stm32f2xx_hal_tim_ex.c ****   * @retval HAL status
 413:../STM32F2xx_HAL_Driver/Src/stm32f2xx_hal_tim_ex.c ****   */
 414:../STM32F2xx_HAL_Driver/Src/stm32f2xx_hal_tim_ex.c **** HAL_StatusTypeDef HAL_TIMEx_HallSensor_Stop_DMA(TIM_HandleTypeDef *htim)
 415:../STM32F2xx_HAL_Driver/Src/stm32f2xx_hal_tim_ex.c **** {
 673              		.loc 1 415 0
 674              		.cfi_startproc
 675              		@ args = 0, pretend = 0, frame = 8
 676              		@ frame_needed = 1, uses_anonymous_args = 0
 677 0370 80B5     		push	{r7, lr}
 678              		.cfi_def_cfa_offset 8
 679              		.cfi_offset 7, -8
 680              		.cfi_offset 14, -4
 681 0372 82B0     		sub	sp, sp, #8
 682              		.cfi_def_cfa_offset 16
 683 0374 00AF     		add	r7, sp, #0
 684              		.cfi_def_cfa_register 7
 685 0376 7860     		str	r0, [r7, #4]
 416:../STM32F2xx_HAL_Driver/Src/stm32f2xx_hal_tim_ex.c ****   /* Check the parameters */
 417:../STM32F2xx_HAL_Driver/Src/stm32f2xx_hal_tim_ex.c ****   assert_param(IS_TIM_XOR_INSTANCE(htim->Instance));
 418:../STM32F2xx_HAL_Driver/Src/stm32f2xx_hal_tim_ex.c ****   
 419:../STM32F2xx_HAL_Driver/Src/stm32f2xx_hal_tim_ex.c ****   /* Disable the Input Capture channels 1
 420:../STM32F2xx_HAL_Driver/Src/stm32f2xx_hal_tim_ex.c ****     (in the Hall Sensor Interface the Three possible channels that can be used are TIM_CHANNEL_1, T
 421:../STM32F2xx_HAL_Driver/Src/stm32f2xx_hal_tim_ex.c ****   TIM_CCxChannelCmd(htim->Instance, TIM_CHANNEL_1, TIM_CCx_DISABLE); 
 686              		.loc 1 421 0
 687 0378 7B68     		ldr	r3, [r7, #4]
 688 037a 1B68     		ldr	r3, [r3]
 689 037c 1846     		mov	r0, r3
 690 037e 0021     		movs	r1, #0
 691 0380 0022     		movs	r2, #0
 692 0382 FFF7FEFF 		bl	TIM_CCxChannelCmd
 422:../STM32F2xx_HAL_Driver/Src/stm32f2xx_hal_tim_ex.c ****  
 423:../STM32F2xx_HAL_Driver/Src/stm32f2xx_hal_tim_ex.c ****   
 424:../STM32F2xx_HAL_Driver/Src/stm32f2xx_hal_tim_ex.c ****   /* Disable the capture compare Interrupts 1 event */
 425:../STM32F2xx_HAL_Driver/Src/stm32f2xx_hal_tim_ex.c ****   __HAL_TIM_DISABLE_DMA(htim, TIM_DMA_CC1);
 693              		.loc 1 425 0
 694 0386 7B68     		ldr	r3, [r7, #4]
 695 0388 1B68     		ldr	r3, [r3]
 696 038a 7A68     		ldr	r2, [r7, #4]
 697 038c 1268     		ldr	r2, [r2]
 698 038e D268     		ldr	r2, [r2, #12]
 699 0390 22F40072 		bic	r2, r2, #512
 700 0394 DA60     		str	r2, [r3, #12]
 426:../STM32F2xx_HAL_Driver/Src/stm32f2xx_hal_tim_ex.c ****  
 427:../STM32F2xx_HAL_Driver/Src/stm32f2xx_hal_tim_ex.c ****   /* Disable the Peripheral */
 428:../STM32F2xx_HAL_Driver/Src/stm32f2xx_hal_tim_ex.c ****   __HAL_TIM_DISABLE(htim);
 701              		.loc 1 428 0
 702 0396 7B68     		ldr	r3, [r7, #4]
 703 0398 1B68     		ldr	r3, [r3]
 704 039a 1A6A     		ldr	r2, [r3, #32]
 705 039c 41F21113 		movw	r3, #4369
 706 03a0 1340     		ands	r3, r3, r2
 707 03a2 002B     		cmp	r3, #0
 708 03a4 0FD1     		bne	.L26
 709              		.loc 1 428 0 is_stmt 0 discriminator 1
 710 03a6 7B68     		ldr	r3, [r7, #4]
 711 03a8 1B68     		ldr	r3, [r3]
 712 03aa 1A6A     		ldr	r2, [r3, #32]
 713 03ac 40F24443 		movw	r3, #1092
 714 03b0 1340     		ands	r3, r3, r2
 715 03b2 002B     		cmp	r3, #0
 716 03b4 07D1     		bne	.L26
 717 03b6 7B68     		ldr	r3, [r7, #4]
 718 03b8 1B68     		ldr	r3, [r3]
 719 03ba 7A68     		ldr	r2, [r7, #4]
 720 03bc 1268     		ldr	r2, [r2]
 721 03be 1268     		ldr	r2, [r2]
 722 03c0 22F00102 		bic	r2, r2, #1
 723 03c4 1A60     		str	r2, [r3]
 724              	.L26:
 429:../STM32F2xx_HAL_Driver/Src/stm32f2xx_hal_tim_ex.c ****   
 430:../STM32F2xx_HAL_Driver/Src/stm32f2xx_hal_tim_ex.c ****   /* Return function status */
 431:../STM32F2xx_HAL_Driver/Src/stm32f2xx_hal_tim_ex.c ****   return HAL_OK;
 725              		.loc 1 431 0 is_stmt 1
 726 03c6 0023     		movs	r3, #0
 432:../STM32F2xx_HAL_Driver/Src/stm32f2xx_hal_tim_ex.c **** }
 727              		.loc 1 432 0
 728 03c8 1846     		mov	r0, r3
 729 03ca 0837     		adds	r7, r7, #8
 730 03cc BD46     		mov	sp, r7
 731              		@ sp needed
 732 03ce 80BD     		pop	{r7, pc}
 733              		.cfi_endproc
 734              	.LFE64:
 736              		.align	2
 737              		.global	HAL_TIMEx_OCN_Start
 738              		.thumb
 739              		.thumb_func
 741              	HAL_TIMEx_OCN_Start:
 742              	.LFB65:
 433:../STM32F2xx_HAL_Driver/Src/stm32f2xx_hal_tim_ex.c **** 
 434:../STM32F2xx_HAL_Driver/Src/stm32f2xx_hal_tim_ex.c **** /**
 435:../STM32F2xx_HAL_Driver/Src/stm32f2xx_hal_tim_ex.c ****   * @}
 436:../STM32F2xx_HAL_Driver/Src/stm32f2xx_hal_tim_ex.c ****   */
 437:../STM32F2xx_HAL_Driver/Src/stm32f2xx_hal_tim_ex.c ****   
 438:../STM32F2xx_HAL_Driver/Src/stm32f2xx_hal_tim_ex.c **** /** @defgroup TIMEx_Group2 Timer Complementary Output Compare functions
 439:../STM32F2xx_HAL_Driver/Src/stm32f2xx_hal_tim_ex.c ****  *  @brief    Timer Complementary Output Compare functions 
 440:../STM32F2xx_HAL_Driver/Src/stm32f2xx_hal_tim_ex.c ****  *
 441:../STM32F2xx_HAL_Driver/Src/stm32f2xx_hal_tim_ex.c **** @verbatim   
 442:../STM32F2xx_HAL_Driver/Src/stm32f2xx_hal_tim_ex.c ****   ==============================================================================
 443:../STM32F2xx_HAL_Driver/Src/stm32f2xx_hal_tim_ex.c ****               ##### Timer Complementary Output Compare functions #####
 444:../STM32F2xx_HAL_Driver/Src/stm32f2xx_hal_tim_ex.c ****   ==============================================================================  
 445:../STM32F2xx_HAL_Driver/Src/stm32f2xx_hal_tim_ex.c ****   [..]  
 446:../STM32F2xx_HAL_Driver/Src/stm32f2xx_hal_tim_ex.c ****     This section provides functions allowing to:
 447:../STM32F2xx_HAL_Driver/Src/stm32f2xx_hal_tim_ex.c ****     (+) Start the Complementary Output Compare/PWM.
 448:../STM32F2xx_HAL_Driver/Src/stm32f2xx_hal_tim_ex.c ****     (+) Stop the Complementary Output Compare/PWM.
 449:../STM32F2xx_HAL_Driver/Src/stm32f2xx_hal_tim_ex.c ****     (+) Start the Complementary Output Compare/PWM and enable interrupts.
 450:../STM32F2xx_HAL_Driver/Src/stm32f2xx_hal_tim_ex.c ****     (+) Stop the Complementary Output Compare/PWM and disable interrupts.
 451:../STM32F2xx_HAL_Driver/Src/stm32f2xx_hal_tim_ex.c ****     (+) Start the Complementary Output Compare/PWM and enable DMA transfers.
 452:../STM32F2xx_HAL_Driver/Src/stm32f2xx_hal_tim_ex.c ****     (+) Stop the Complementary Output Compare/PWM and disable DMA transfers.
 453:../STM32F2xx_HAL_Driver/Src/stm32f2xx_hal_tim_ex.c ****                
 454:../STM32F2xx_HAL_Driver/Src/stm32f2xx_hal_tim_ex.c **** @endverbatim
 455:../STM32F2xx_HAL_Driver/Src/stm32f2xx_hal_tim_ex.c ****   * @{
 456:../STM32F2xx_HAL_Driver/Src/stm32f2xx_hal_tim_ex.c ****   */
 457:../STM32F2xx_HAL_Driver/Src/stm32f2xx_hal_tim_ex.c ****   
 458:../STM32F2xx_HAL_Driver/Src/stm32f2xx_hal_tim_ex.c **** /**
 459:../STM32F2xx_HAL_Driver/Src/stm32f2xx_hal_tim_ex.c ****   * @brief  Starts the TIM Output Compare signal generation on the complementary
 460:../STM32F2xx_HAL_Driver/Src/stm32f2xx_hal_tim_ex.c ****   *         output.
 461:../STM32F2xx_HAL_Driver/Src/stm32f2xx_hal_tim_ex.c ****   * @param  htim : TIM Output Compare handle  
 462:../STM32F2xx_HAL_Driver/Src/stm32f2xx_hal_tim_ex.c ****   * @param  Channel : TIM Channel to be enabled
 463:../STM32F2xx_HAL_Driver/Src/stm32f2xx_hal_tim_ex.c ****   *          This parameter can be one of the following values:
 464:../STM32F2xx_HAL_Driver/Src/stm32f2xx_hal_tim_ex.c ****   *            @arg TIM_CHANNEL_1: TIM Channel 1 selected
 465:../STM32F2xx_HAL_Driver/Src/stm32f2xx_hal_tim_ex.c ****   *            @arg TIM_CHANNEL_2: TIM Channel 2 selected
 466:../STM32F2xx_HAL_Driver/Src/stm32f2xx_hal_tim_ex.c ****   *            @arg TIM_CHANNEL_3: TIM Channel 3 selected
 467:../STM32F2xx_HAL_Driver/Src/stm32f2xx_hal_tim_ex.c ****   *            @arg TIM_CHANNEL_4: TIM Channel 4 selected
 468:../STM32F2xx_HAL_Driver/Src/stm32f2xx_hal_tim_ex.c ****   * @retval HAL status
 469:../STM32F2xx_HAL_Driver/Src/stm32f2xx_hal_tim_ex.c ****   */
 470:../STM32F2xx_HAL_Driver/Src/stm32f2xx_hal_tim_ex.c **** HAL_StatusTypeDef HAL_TIMEx_OCN_Start(TIM_HandleTypeDef *htim, uint32_t Channel)
 471:../STM32F2xx_HAL_Driver/Src/stm32f2xx_hal_tim_ex.c **** {
 743              		.loc 1 471 0
 744              		.cfi_startproc
 745              		@ args = 0, pretend = 0, frame = 8
 746              		@ frame_needed = 1, uses_anonymous_args = 0
 747 03d0 80B5     		push	{r7, lr}
 748              		.cfi_def_cfa_offset 8
 749              		.cfi_offset 7, -8
 750              		.cfi_offset 14, -4
 751 03d2 82B0     		sub	sp, sp, #8
 752              		.cfi_def_cfa_offset 16
 753 03d4 00AF     		add	r7, sp, #0
 754              		.cfi_def_cfa_register 7
 755 03d6 7860     		str	r0, [r7, #4]
 756 03d8 3960     		str	r1, [r7]
 472:../STM32F2xx_HAL_Driver/Src/stm32f2xx_hal_tim_ex.c ****   /* Check the parameters */
 473:../STM32F2xx_HAL_Driver/Src/stm32f2xx_hal_tim_ex.c ****   assert_param(IS_TIM_CCXN_INSTANCE(htim->Instance, Channel)); 
 474:../STM32F2xx_HAL_Driver/Src/stm32f2xx_hal_tim_ex.c ****   
 475:../STM32F2xx_HAL_Driver/Src/stm32f2xx_hal_tim_ex.c ****      /* Enable the Capture compare channel N */
 476:../STM32F2xx_HAL_Driver/Src/stm32f2xx_hal_tim_ex.c ****      TIM_CCxNChannelCmd(htim->Instance, Channel, TIM_CCxN_ENABLE);
 757              		.loc 1 476 0
 758 03da 7B68     		ldr	r3, [r7, #4]
 759 03dc 1B68     		ldr	r3, [r3]
 760 03de 1846     		mov	r0, r3
 761 03e0 3968     		ldr	r1, [r7]
 762 03e2 0422     		movs	r2, #4
 763 03e4 01F04AF8 		bl	TIM_CCxNChannelCmd
 477:../STM32F2xx_HAL_Driver/Src/stm32f2xx_hal_tim_ex.c ****     
 478:../STM32F2xx_HAL_Driver/Src/stm32f2xx_hal_tim_ex.c ****   /* Enable the Main Ouput */
 479:../STM32F2xx_HAL_Driver/Src/stm32f2xx_hal_tim_ex.c ****     __HAL_TIM_MOE_ENABLE(htim);
 764              		.loc 1 479 0
 765 03e8 7B68     		ldr	r3, [r7, #4]
 766 03ea 1B68     		ldr	r3, [r3]
 767 03ec 7A68     		ldr	r2, [r7, #4]
 768 03ee 1268     		ldr	r2, [r2]
 769 03f0 526C     		ldr	r2, [r2, #68]
 770 03f2 42F40042 		orr	r2, r2, #32768
 771 03f6 5A64     		str	r2, [r3, #68]
 480:../STM32F2xx_HAL_Driver/Src/stm32f2xx_hal_tim_ex.c **** 
 481:../STM32F2xx_HAL_Driver/Src/stm32f2xx_hal_tim_ex.c ****   /* Enable the Peripheral */
 482:../STM32F2xx_HAL_Driver/Src/stm32f2xx_hal_tim_ex.c ****   __HAL_TIM_ENABLE(htim);
 772              		.loc 1 482 0
 773 03f8 7B68     		ldr	r3, [r7, #4]
 774 03fa 1B68     		ldr	r3, [r3]
 775 03fc 7A68     		ldr	r2, [r7, #4]
 776 03fe 1268     		ldr	r2, [r2]
 777 0400 1268     		ldr	r2, [r2]
 778 0402 42F00102 		orr	r2, r2, #1
 779 0406 1A60     		str	r2, [r3]
 483:../STM32F2xx_HAL_Driver/Src/stm32f2xx_hal_tim_ex.c ****   
 484:../STM32F2xx_HAL_Driver/Src/stm32f2xx_hal_tim_ex.c ****   /* Return function status */
 485:../STM32F2xx_HAL_Driver/Src/stm32f2xx_hal_tim_ex.c ****   return HAL_OK;
 780              		.loc 1 485 0
 781 0408 0023     		movs	r3, #0
 486:../STM32F2xx_HAL_Driver/Src/stm32f2xx_hal_tim_ex.c **** } 
 782              		.loc 1 486 0
 783 040a 1846     		mov	r0, r3
 784 040c 0837     		adds	r7, r7, #8
 785 040e BD46     		mov	sp, r7
 786              		@ sp needed
 787 0410 80BD     		pop	{r7, pc}
 788              		.cfi_endproc
 789              	.LFE65:
 791 0412 00BF     		.align	2
 792              		.global	HAL_TIMEx_OCN_Stop
 793              		.thumb
 794              		.thumb_func
 796              	HAL_TIMEx_OCN_Stop:
 797              	.LFB66:
 487:../STM32F2xx_HAL_Driver/Src/stm32f2xx_hal_tim_ex.c **** 
 488:../STM32F2xx_HAL_Driver/Src/stm32f2xx_hal_tim_ex.c **** /**
 489:../STM32F2xx_HAL_Driver/Src/stm32f2xx_hal_tim_ex.c ****   * @brief  Stops the TIM Output Compare signal generation on the complementary
 490:../STM32F2xx_HAL_Driver/Src/stm32f2xx_hal_tim_ex.c ****   *         output.
 491:../STM32F2xx_HAL_Driver/Src/stm32f2xx_hal_tim_ex.c ****   * @param  htim : TIM handle
 492:../STM32F2xx_HAL_Driver/Src/stm32f2xx_hal_tim_ex.c ****   * @param  Channel : TIM Channel to be disabled
 493:../STM32F2xx_HAL_Driver/Src/stm32f2xx_hal_tim_ex.c ****   *          This parameter can be one of the following values:
 494:../STM32F2xx_HAL_Driver/Src/stm32f2xx_hal_tim_ex.c ****   *            @arg TIM_CHANNEL_1: TIM Channel 1 selected
 495:../STM32F2xx_HAL_Driver/Src/stm32f2xx_hal_tim_ex.c ****   *            @arg TIM_CHANNEL_2: TIM Channel 2 selected
 496:../STM32F2xx_HAL_Driver/Src/stm32f2xx_hal_tim_ex.c ****   *            @arg TIM_CHANNEL_3: TIM Channel 3 selected
 497:../STM32F2xx_HAL_Driver/Src/stm32f2xx_hal_tim_ex.c ****   *            @arg TIM_CHANNEL_4: TIM Channel 4 selected
 498:../STM32F2xx_HAL_Driver/Src/stm32f2xx_hal_tim_ex.c ****   * @retval HAL status
 499:../STM32F2xx_HAL_Driver/Src/stm32f2xx_hal_tim_ex.c ****   */
 500:../STM32F2xx_HAL_Driver/Src/stm32f2xx_hal_tim_ex.c **** HAL_StatusTypeDef HAL_TIMEx_OCN_Stop(TIM_HandleTypeDef *htim, uint32_t Channel)
 501:../STM32F2xx_HAL_Driver/Src/stm32f2xx_hal_tim_ex.c **** { 
 798              		.loc 1 501 0
 799              		.cfi_startproc
 800              		@ args = 0, pretend = 0, frame = 8
 801              		@ frame_needed = 1, uses_anonymous_args = 0
 802 0414 80B5     		push	{r7, lr}
 803              		.cfi_def_cfa_offset 8
 804              		.cfi_offset 7, -8
 805              		.cfi_offset 14, -4
 806 0416 82B0     		sub	sp, sp, #8
 807              		.cfi_def_cfa_offset 16
 808 0418 00AF     		add	r7, sp, #0
 809              		.cfi_def_cfa_register 7
 810 041a 7860     		str	r0, [r7, #4]
 811 041c 3960     		str	r1, [r7]
 502:../STM32F2xx_HAL_Driver/Src/stm32f2xx_hal_tim_ex.c ****   /* Check the parameters */
 503:../STM32F2xx_HAL_Driver/Src/stm32f2xx_hal_tim_ex.c ****   assert_param(IS_TIM_CCXN_INSTANCE(htim->Instance, Channel)); 
 504:../STM32F2xx_HAL_Driver/Src/stm32f2xx_hal_tim_ex.c ****   
 505:../STM32F2xx_HAL_Driver/Src/stm32f2xx_hal_tim_ex.c ****     /* Disable the Capture compare channel N */
 506:../STM32F2xx_HAL_Driver/Src/stm32f2xx_hal_tim_ex.c ****   TIM_CCxNChannelCmd(htim->Instance, Channel, TIM_CCxN_DISABLE);
 812              		.loc 1 506 0
 813 041e 7B68     		ldr	r3, [r7, #4]
 814 0420 1B68     		ldr	r3, [r3]
 815 0422 1846     		mov	r0, r3
 816 0424 3968     		ldr	r1, [r7]
 817 0426 0022     		movs	r2, #0
 818 0428 01F028F8 		bl	TIM_CCxNChannelCmd
 507:../STM32F2xx_HAL_Driver/Src/stm32f2xx_hal_tim_ex.c ****     
 508:../STM32F2xx_HAL_Driver/Src/stm32f2xx_hal_tim_ex.c ****   /* Disable the Main Ouput */
 509:../STM32F2xx_HAL_Driver/Src/stm32f2xx_hal_tim_ex.c ****     __HAL_TIM_MOE_DISABLE(htim);
 819              		.loc 1 509 0
 820 042c 7B68     		ldr	r3, [r7, #4]
 821 042e 1B68     		ldr	r3, [r3]
 822 0430 1A6A     		ldr	r2, [r3, #32]
 823 0432 41F21113 		movw	r3, #4369
 824 0436 1340     		ands	r3, r3, r2
 825 0438 002B     		cmp	r3, #0
 826 043a 0FD1     		bne	.L31
 827              		.loc 1 509 0 is_stmt 0 discriminator 1
 828 043c 7B68     		ldr	r3, [r7, #4]
 829 043e 1B68     		ldr	r3, [r3]
 830 0440 1A6A     		ldr	r2, [r3, #32]
 831 0442 40F24443 		movw	r3, #1092
 832 0446 1340     		ands	r3, r3, r2
 833 0448 002B     		cmp	r3, #0
 834 044a 07D1     		bne	.L31
 835 044c 7B68     		ldr	r3, [r7, #4]
 836 044e 1B68     		ldr	r3, [r3]
 837 0450 7A68     		ldr	r2, [r7, #4]
 838 0452 1268     		ldr	r2, [r2]
 839 0454 526C     		ldr	r2, [r2, #68]
 840 0456 22F40042 		bic	r2, r2, #32768
 841 045a 5A64     		str	r2, [r3, #68]
 842              	.L31:
 510:../STM32F2xx_HAL_Driver/Src/stm32f2xx_hal_tim_ex.c **** 
 511:../STM32F2xx_HAL_Driver/Src/stm32f2xx_hal_tim_ex.c ****   /* Disable the Peripheral */
 512:../STM32F2xx_HAL_Driver/Src/stm32f2xx_hal_tim_ex.c ****   __HAL_TIM_DISABLE(htim);
 843              		.loc 1 512 0 is_stmt 1
 844 045c 7B68     		ldr	r3, [r7, #4]
 845 045e 1B68     		ldr	r3, [r3]
 846 0460 1A6A     		ldr	r2, [r3, #32]
 847 0462 41F21113 		movw	r3, #4369
 848 0466 1340     		ands	r3, r3, r2
 849 0468 002B     		cmp	r3, #0
 850 046a 0FD1     		bne	.L32
 851              		.loc 1 512 0 is_stmt 0 discriminator 1
 852 046c 7B68     		ldr	r3, [r7, #4]
 853 046e 1B68     		ldr	r3, [r3]
 854 0470 1A6A     		ldr	r2, [r3, #32]
 855 0472 40F24443 		movw	r3, #1092
 856 0476 1340     		ands	r3, r3, r2
 857 0478 002B     		cmp	r3, #0
 858 047a 07D1     		bne	.L32
 859 047c 7B68     		ldr	r3, [r7, #4]
 860 047e 1B68     		ldr	r3, [r3]
 861 0480 7A68     		ldr	r2, [r7, #4]
 862 0482 1268     		ldr	r2, [r2]
 863 0484 1268     		ldr	r2, [r2]
 864 0486 22F00102 		bic	r2, r2, #1
 865 048a 1A60     		str	r2, [r3]
 866              	.L32:
 513:../STM32F2xx_HAL_Driver/Src/stm32f2xx_hal_tim_ex.c ****   
 514:../STM32F2xx_HAL_Driver/Src/stm32f2xx_hal_tim_ex.c ****   /* Return function status */
 515:../STM32F2xx_HAL_Driver/Src/stm32f2xx_hal_tim_ex.c ****   return HAL_OK;
 867              		.loc 1 515 0 is_stmt 1
 868 048c 0023     		movs	r3, #0
 516:../STM32F2xx_HAL_Driver/Src/stm32f2xx_hal_tim_ex.c **** } 
 869              		.loc 1 516 0
 870 048e 1846     		mov	r0, r3
 871 0490 0837     		adds	r7, r7, #8
 872 0492 BD46     		mov	sp, r7
 873              		@ sp needed
 874 0494 80BD     		pop	{r7, pc}
 875              		.cfi_endproc
 876              	.LFE66:
 878 0496 00BF     		.align	2
 879              		.global	HAL_TIMEx_OCN_Start_IT
 880              		.thumb
 881              		.thumb_func
 883              	HAL_TIMEx_OCN_Start_IT:
 884              	.LFB67:
 517:../STM32F2xx_HAL_Driver/Src/stm32f2xx_hal_tim_ex.c **** 
 518:../STM32F2xx_HAL_Driver/Src/stm32f2xx_hal_tim_ex.c **** /**
 519:../STM32F2xx_HAL_Driver/Src/stm32f2xx_hal_tim_ex.c ****   * @brief  Starts the TIM Output Compare signal generation in interrupt mode 
 520:../STM32F2xx_HAL_Driver/Src/stm32f2xx_hal_tim_ex.c ****   *         on the complementary output.
 521:../STM32F2xx_HAL_Driver/Src/stm32f2xx_hal_tim_ex.c ****   * @param  htim : TIM OC handle
 522:../STM32F2xx_HAL_Driver/Src/stm32f2xx_hal_tim_ex.c ****   * @param  Channel : TIM Channel to be enabled
 523:../STM32F2xx_HAL_Driver/Src/stm32f2xx_hal_tim_ex.c ****   *          This parameter can be one of the following values:
 524:../STM32F2xx_HAL_Driver/Src/stm32f2xx_hal_tim_ex.c ****   *            @arg TIM_CHANNEL_1: TIM Channel 1 selected
 525:../STM32F2xx_HAL_Driver/Src/stm32f2xx_hal_tim_ex.c ****   *            @arg TIM_CHANNEL_2: TIM Channel 2 selected
 526:../STM32F2xx_HAL_Driver/Src/stm32f2xx_hal_tim_ex.c ****   *            @arg TIM_CHANNEL_3: TIM Channel 3 selected
 527:../STM32F2xx_HAL_Driver/Src/stm32f2xx_hal_tim_ex.c ****   *            @arg TIM_CHANNEL_4: TIM Channel 4 selected
 528:../STM32F2xx_HAL_Driver/Src/stm32f2xx_hal_tim_ex.c ****   * @retval HAL status
 529:../STM32F2xx_HAL_Driver/Src/stm32f2xx_hal_tim_ex.c ****   */
 530:../STM32F2xx_HAL_Driver/Src/stm32f2xx_hal_tim_ex.c **** HAL_StatusTypeDef HAL_TIMEx_OCN_Start_IT(TIM_HandleTypeDef *htim, uint32_t Channel)
 531:../STM32F2xx_HAL_Driver/Src/stm32f2xx_hal_tim_ex.c **** {
 885              		.loc 1 531 0
 886              		.cfi_startproc
 887              		@ args = 0, pretend = 0, frame = 8
 888              		@ frame_needed = 1, uses_anonymous_args = 0
 889 0498 80B5     		push	{r7, lr}
 890              		.cfi_def_cfa_offset 8
 891              		.cfi_offset 7, -8
 892              		.cfi_offset 14, -4
 893 049a 82B0     		sub	sp, sp, #8
 894              		.cfi_def_cfa_offset 16
 895 049c 00AF     		add	r7, sp, #0
 896              		.cfi_def_cfa_register 7
 897 049e 7860     		str	r0, [r7, #4]
 898 04a0 3960     		str	r1, [r7]
 532:../STM32F2xx_HAL_Driver/Src/stm32f2xx_hal_tim_ex.c ****   /* Check the parameters */
 533:../STM32F2xx_HAL_Driver/Src/stm32f2xx_hal_tim_ex.c ****   assert_param(IS_TIM_CCXN_INSTANCE(htim->Instance, Channel)); 
 534:../STM32F2xx_HAL_Driver/Src/stm32f2xx_hal_tim_ex.c ****   
 535:../STM32F2xx_HAL_Driver/Src/stm32f2xx_hal_tim_ex.c ****   switch (Channel)
 899              		.loc 1 535 0
 900 04a2 3B68     		ldr	r3, [r7]
 901 04a4 0C2B     		cmp	r3, #12
 902 04a6 41D8     		bhi	.L43
 903 04a8 01A2     		adr	r2, .L37
 904 04aa 52F823F0 		ldr	pc, [r2, r3, lsl #2]
 905 04ae 00BF     		.p2align 2
 906              	.L37:
 907 04b0 E5040000 		.word	.L36+1
 908 04b4 2D050000 		.word	.L43+1
 909 04b8 2D050000 		.word	.L43+1
 910 04bc 2D050000 		.word	.L43+1
 911 04c0 F7040000 		.word	.L38+1
 912 04c4 2D050000 		.word	.L43+1
 913 04c8 2D050000 		.word	.L43+1
 914 04cc 2D050000 		.word	.L43+1
 915 04d0 09050000 		.word	.L39+1
 916 04d4 2D050000 		.word	.L43+1
 917 04d8 2D050000 		.word	.L43+1
 918 04dc 2D050000 		.word	.L43+1
 919 04e0 1B050000 		.word	.L40+1
 920              	.L36:
 536:../STM32F2xx_HAL_Driver/Src/stm32f2xx_hal_tim_ex.c ****   {
 537:../STM32F2xx_HAL_Driver/Src/stm32f2xx_hal_tim_ex.c ****     case TIM_CHANNEL_1:
 538:../STM32F2xx_HAL_Driver/Src/stm32f2xx_hal_tim_ex.c ****     {       
 539:../STM32F2xx_HAL_Driver/Src/stm32f2xx_hal_tim_ex.c ****       /* Enable the TIM Output Compare interrupt */
 540:../STM32F2xx_HAL_Driver/Src/stm32f2xx_hal_tim_ex.c ****       __HAL_TIM_ENABLE_IT(htim, TIM_IT_CC1);
 921              		.loc 1 540 0
 922 04e4 7B68     		ldr	r3, [r7, #4]
 923 04e6 1B68     		ldr	r3, [r3]
 924 04e8 7A68     		ldr	r2, [r7, #4]
 925 04ea 1268     		ldr	r2, [r2]
 926 04ec D268     		ldr	r2, [r2, #12]
 927 04ee 42F00202 		orr	r2, r2, #2
 928 04f2 DA60     		str	r2, [r3, #12]
 541:../STM32F2xx_HAL_Driver/Src/stm32f2xx_hal_tim_ex.c ****     }
 542:../STM32F2xx_HAL_Driver/Src/stm32f2xx_hal_tim_ex.c ****     break;
 929              		.loc 1 542 0
 930 04f4 1BE0     		b	.L41
 931              	.L38:
 543:../STM32F2xx_HAL_Driver/Src/stm32f2xx_hal_tim_ex.c ****     
 544:../STM32F2xx_HAL_Driver/Src/stm32f2xx_hal_tim_ex.c ****     case TIM_CHANNEL_2:
 545:../STM32F2xx_HAL_Driver/Src/stm32f2xx_hal_tim_ex.c ****     {
 546:../STM32F2xx_HAL_Driver/Src/stm32f2xx_hal_tim_ex.c ****       /* Enable the TIM Output Compare interrupt */
 547:../STM32F2xx_HAL_Driver/Src/stm32f2xx_hal_tim_ex.c ****       __HAL_TIM_ENABLE_IT(htim, TIM_IT_CC2);
 932              		.loc 1 547 0
 933 04f6 7B68     		ldr	r3, [r7, #4]
 934 04f8 1B68     		ldr	r3, [r3]
 935 04fa 7A68     		ldr	r2, [r7, #4]
 936 04fc 1268     		ldr	r2, [r2]
 937 04fe D268     		ldr	r2, [r2, #12]
 938 0500 42F00402 		orr	r2, r2, #4
 939 0504 DA60     		str	r2, [r3, #12]
 548:../STM32F2xx_HAL_Driver/Src/stm32f2xx_hal_tim_ex.c ****     }
 549:../STM32F2xx_HAL_Driver/Src/stm32f2xx_hal_tim_ex.c ****     break;
 940              		.loc 1 549 0
 941 0506 12E0     		b	.L41
 942              	.L39:
 550:../STM32F2xx_HAL_Driver/Src/stm32f2xx_hal_tim_ex.c ****     
 551:../STM32F2xx_HAL_Driver/Src/stm32f2xx_hal_tim_ex.c ****     case TIM_CHANNEL_3:
 552:../STM32F2xx_HAL_Driver/Src/stm32f2xx_hal_tim_ex.c ****     {
 553:../STM32F2xx_HAL_Driver/Src/stm32f2xx_hal_tim_ex.c ****       /* Enable the TIM Output Compare interrupt */
 554:../STM32F2xx_HAL_Driver/Src/stm32f2xx_hal_tim_ex.c ****       __HAL_TIM_ENABLE_IT(htim, TIM_IT_CC3);
 943              		.loc 1 554 0
 944 0508 7B68     		ldr	r3, [r7, #4]
 945 050a 1B68     		ldr	r3, [r3]
 946 050c 7A68     		ldr	r2, [r7, #4]
 947 050e 1268     		ldr	r2, [r2]
 948 0510 D268     		ldr	r2, [r2, #12]
 949 0512 42F00802 		orr	r2, r2, #8
 950 0516 DA60     		str	r2, [r3, #12]
 555:../STM32F2xx_HAL_Driver/Src/stm32f2xx_hal_tim_ex.c ****     }
 556:../STM32F2xx_HAL_Driver/Src/stm32f2xx_hal_tim_ex.c ****     break;
 951              		.loc 1 556 0
 952 0518 09E0     		b	.L41
 953              	.L40:
 557:../STM32F2xx_HAL_Driver/Src/stm32f2xx_hal_tim_ex.c ****     
 558:../STM32F2xx_HAL_Driver/Src/stm32f2xx_hal_tim_ex.c ****     case TIM_CHANNEL_4:
 559:../STM32F2xx_HAL_Driver/Src/stm32f2xx_hal_tim_ex.c ****     {
 560:../STM32F2xx_HAL_Driver/Src/stm32f2xx_hal_tim_ex.c ****       /* Enable the TIM Output Compare interrupt */
 561:../STM32F2xx_HAL_Driver/Src/stm32f2xx_hal_tim_ex.c ****       __HAL_TIM_ENABLE_IT(htim, TIM_IT_CC4);
 954              		.loc 1 561 0
 955 051a 7B68     		ldr	r3, [r7, #4]
 956 051c 1B68     		ldr	r3, [r3]
 957 051e 7A68     		ldr	r2, [r7, #4]
 958 0520 1268     		ldr	r2, [r2]
 959 0522 D268     		ldr	r2, [r2, #12]
 960 0524 42F01002 		orr	r2, r2, #16
 961 0528 DA60     		str	r2, [r3, #12]
 562:../STM32F2xx_HAL_Driver/Src/stm32f2xx_hal_tim_ex.c ****     }
 563:../STM32F2xx_HAL_Driver/Src/stm32f2xx_hal_tim_ex.c ****     break;
 962              		.loc 1 563 0
 963 052a 00E0     		b	.L41
 964              	.L43:
 564:../STM32F2xx_HAL_Driver/Src/stm32f2xx_hal_tim_ex.c ****     
 565:../STM32F2xx_HAL_Driver/Src/stm32f2xx_hal_tim_ex.c ****     default:
 566:../STM32F2xx_HAL_Driver/Src/stm32f2xx_hal_tim_ex.c ****     break;
 965              		.loc 1 566 0
 966 052c 00BF     		nop
 967              	.L41:
 567:../STM32F2xx_HAL_Driver/Src/stm32f2xx_hal_tim_ex.c ****   } 
 568:../STM32F2xx_HAL_Driver/Src/stm32f2xx_hal_tim_ex.c ****   
 569:../STM32F2xx_HAL_Driver/Src/stm32f2xx_hal_tim_ex.c ****      /* Enable the Capture compare channel N */
 570:../STM32F2xx_HAL_Driver/Src/stm32f2xx_hal_tim_ex.c ****      TIM_CCxNChannelCmd(htim->Instance, Channel, TIM_CCxN_ENABLE);
 968              		.loc 1 570 0
 969 052e 7B68     		ldr	r3, [r7, #4]
 970 0530 1B68     		ldr	r3, [r3]
 971 0532 1846     		mov	r0, r3
 972 0534 3968     		ldr	r1, [r7]
 973 0536 0422     		movs	r2, #4
 974 0538 00F0A0FF 		bl	TIM_CCxNChannelCmd
 571:../STM32F2xx_HAL_Driver/Src/stm32f2xx_hal_tim_ex.c ****     
 572:../STM32F2xx_HAL_Driver/Src/stm32f2xx_hal_tim_ex.c ****   /* Enable the Main Ouput */
 573:../STM32F2xx_HAL_Driver/Src/stm32f2xx_hal_tim_ex.c ****     __HAL_TIM_MOE_ENABLE(htim);
 975              		.loc 1 573 0
 976 053c 7B68     		ldr	r3, [r7, #4]
 977 053e 1B68     		ldr	r3, [r3]
 978 0540 7A68     		ldr	r2, [r7, #4]
 979 0542 1268     		ldr	r2, [r2]
 980 0544 526C     		ldr	r2, [r2, #68]
 981 0546 42F40042 		orr	r2, r2, #32768
 982 054a 5A64     		str	r2, [r3, #68]
 574:../STM32F2xx_HAL_Driver/Src/stm32f2xx_hal_tim_ex.c **** 
 575:../STM32F2xx_HAL_Driver/Src/stm32f2xx_hal_tim_ex.c ****   /* Enable the Peripheral */
 576:../STM32F2xx_HAL_Driver/Src/stm32f2xx_hal_tim_ex.c ****   __HAL_TIM_ENABLE(htim);
 983              		.loc 1 576 0
 984 054c 7B68     		ldr	r3, [r7, #4]
 985 054e 1B68     		ldr	r3, [r3]
 986 0550 7A68     		ldr	r2, [r7, #4]
 987 0552 1268     		ldr	r2, [r2]
 988 0554 1268     		ldr	r2, [r2]
 989 0556 42F00102 		orr	r2, r2, #1
 990 055a 1A60     		str	r2, [r3]
 577:../STM32F2xx_HAL_Driver/Src/stm32f2xx_hal_tim_ex.c ****   
 578:../STM32F2xx_HAL_Driver/Src/stm32f2xx_hal_tim_ex.c ****   /* Return function status */
 579:../STM32F2xx_HAL_Driver/Src/stm32f2xx_hal_tim_ex.c ****   return HAL_OK;
 991              		.loc 1 579 0
 992 055c 0023     		movs	r3, #0
 580:../STM32F2xx_HAL_Driver/Src/stm32f2xx_hal_tim_ex.c **** } 
 993              		.loc 1 580 0
 994 055e 1846     		mov	r0, r3
 995 0560 0837     		adds	r7, r7, #8
 996 0562 BD46     		mov	sp, r7
 997              		@ sp needed
 998 0564 80BD     		pop	{r7, pc}
 999              		.cfi_endproc
 1000              	.LFE67:
 1002 0566 00BF     		.align	2
 1003              		.global	HAL_TIMEx_OCN_Stop_IT
 1004              		.thumb
 1005              		.thumb_func
 1007              	HAL_TIMEx_OCN_Stop_IT:
 1008              	.LFB68:
 581:../STM32F2xx_HAL_Driver/Src/stm32f2xx_hal_tim_ex.c **** 
 582:../STM32F2xx_HAL_Driver/Src/stm32f2xx_hal_tim_ex.c **** /**
 583:../STM32F2xx_HAL_Driver/Src/stm32f2xx_hal_tim_ex.c ****   * @brief  Stops the TIM Output Compare signal generation in interrupt mode 
 584:../STM32F2xx_HAL_Driver/Src/stm32f2xx_hal_tim_ex.c ****   *         on the complementary output.
 585:../STM32F2xx_HAL_Driver/Src/stm32f2xx_hal_tim_ex.c ****   * @param  htim : TIM Output Compare handle
 586:../STM32F2xx_HAL_Driver/Src/stm32f2xx_hal_tim_ex.c ****   * @param  Channel : TIM Channel to be disabled
 587:../STM32F2xx_HAL_Driver/Src/stm32f2xx_hal_tim_ex.c ****   *          This parameter can be one of the following values:
 588:../STM32F2xx_HAL_Driver/Src/stm32f2xx_hal_tim_ex.c ****   *            @arg TIM_CHANNEL_1: TIM Channel 1 selected
 589:../STM32F2xx_HAL_Driver/Src/stm32f2xx_hal_tim_ex.c ****   *            @arg TIM_CHANNEL_2: TIM Channel 2 selected
 590:../STM32F2xx_HAL_Driver/Src/stm32f2xx_hal_tim_ex.c ****   *            @arg TIM_CHANNEL_3: TIM Channel 3 selected
 591:../STM32F2xx_HAL_Driver/Src/stm32f2xx_hal_tim_ex.c ****   *            @arg TIM_CHANNEL_4: TIM Channel 4 selected
 592:../STM32F2xx_HAL_Driver/Src/stm32f2xx_hal_tim_ex.c ****   * @retval HAL status
 593:../STM32F2xx_HAL_Driver/Src/stm32f2xx_hal_tim_ex.c ****   */
 594:../STM32F2xx_HAL_Driver/Src/stm32f2xx_hal_tim_ex.c **** HAL_StatusTypeDef HAL_TIMEx_OCN_Stop_IT(TIM_HandleTypeDef *htim, uint32_t Channel)
 595:../STM32F2xx_HAL_Driver/Src/stm32f2xx_hal_tim_ex.c **** {
 1009              		.loc 1 595 0
 1010              		.cfi_startproc
 1011              		@ args = 0, pretend = 0, frame = 8
 1012              		@ frame_needed = 1, uses_anonymous_args = 0
 1013 0568 80B5     		push	{r7, lr}
 1014              		.cfi_def_cfa_offset 8
 1015              		.cfi_offset 7, -8
 1016              		.cfi_offset 14, -4
 1017 056a 82B0     		sub	sp, sp, #8
 1018              		.cfi_def_cfa_offset 16
 1019 056c 00AF     		add	r7, sp, #0
 1020              		.cfi_def_cfa_register 7
 1021 056e 7860     		str	r0, [r7, #4]
 1022 0570 3960     		str	r1, [r7]
 596:../STM32F2xx_HAL_Driver/Src/stm32f2xx_hal_tim_ex.c ****   /* Check the parameters */
 597:../STM32F2xx_HAL_Driver/Src/stm32f2xx_hal_tim_ex.c ****   assert_param(IS_TIM_CCXN_INSTANCE(htim->Instance, Channel)); 
 598:../STM32F2xx_HAL_Driver/Src/stm32f2xx_hal_tim_ex.c ****   
 599:../STM32F2xx_HAL_Driver/Src/stm32f2xx_hal_tim_ex.c ****   switch (Channel)
 1023              		.loc 1 599 0
 1024 0572 3B68     		ldr	r3, [r7]
 1025 0574 0C2B     		cmp	r3, #12
 1026 0576 41D8     		bhi	.L55
 1027 0578 01A2     		adr	r2, .L47
 1028 057a 52F823F0 		ldr	pc, [r2, r3, lsl #2]
 1029 057e 00BF     		.p2align 2
 1030              	.L47:
 1031 0580 B5050000 		.word	.L46+1
 1032 0584 FD050000 		.word	.L55+1
 1033 0588 FD050000 		.word	.L55+1
 1034 058c FD050000 		.word	.L55+1
 1035 0590 C7050000 		.word	.L48+1
 1036 0594 FD050000 		.word	.L55+1
 1037 0598 FD050000 		.word	.L55+1
 1038 059c FD050000 		.word	.L55+1
 1039 05a0 D9050000 		.word	.L49+1
 1040 05a4 FD050000 		.word	.L55+1
 1041 05a8 FD050000 		.word	.L55+1
 1042 05ac FD050000 		.word	.L55+1
 1043 05b0 EB050000 		.word	.L50+1
 1044              	.L46:
 600:../STM32F2xx_HAL_Driver/Src/stm32f2xx_hal_tim_ex.c ****   {
 601:../STM32F2xx_HAL_Driver/Src/stm32f2xx_hal_tim_ex.c ****     case TIM_CHANNEL_1:
 602:../STM32F2xx_HAL_Driver/Src/stm32f2xx_hal_tim_ex.c ****     {       
 603:../STM32F2xx_HAL_Driver/Src/stm32f2xx_hal_tim_ex.c ****       /* Disable the TIM Output Compare interrupt */
 604:../STM32F2xx_HAL_Driver/Src/stm32f2xx_hal_tim_ex.c ****       __HAL_TIM_DISABLE_IT(htim, TIM_IT_CC1);
 1045              		.loc 1 604 0
 1046 05b4 7B68     		ldr	r3, [r7, #4]
 1047 05b6 1B68     		ldr	r3, [r3]
 1048 05b8 7A68     		ldr	r2, [r7, #4]
 1049 05ba 1268     		ldr	r2, [r2]
 1050 05bc D268     		ldr	r2, [r2, #12]
 1051 05be 22F00202 		bic	r2, r2, #2
 1052 05c2 DA60     		str	r2, [r3, #12]
 605:../STM32F2xx_HAL_Driver/Src/stm32f2xx_hal_tim_ex.c ****     }
 606:../STM32F2xx_HAL_Driver/Src/stm32f2xx_hal_tim_ex.c ****     break;
 1053              		.loc 1 606 0
 1054 05c4 1BE0     		b	.L51
 1055              	.L48:
 607:../STM32F2xx_HAL_Driver/Src/stm32f2xx_hal_tim_ex.c ****     
 608:../STM32F2xx_HAL_Driver/Src/stm32f2xx_hal_tim_ex.c ****     case TIM_CHANNEL_2:
 609:../STM32F2xx_HAL_Driver/Src/stm32f2xx_hal_tim_ex.c ****     {
 610:../STM32F2xx_HAL_Driver/Src/stm32f2xx_hal_tim_ex.c ****       /* Disable the TIM Output Compare interrupt */
 611:../STM32F2xx_HAL_Driver/Src/stm32f2xx_hal_tim_ex.c ****       __HAL_TIM_DISABLE_IT(htim, TIM_IT_CC2);
 1056              		.loc 1 611 0
 1057 05c6 7B68     		ldr	r3, [r7, #4]
 1058 05c8 1B68     		ldr	r3, [r3]
 1059 05ca 7A68     		ldr	r2, [r7, #4]
 1060 05cc 1268     		ldr	r2, [r2]
 1061 05ce D268     		ldr	r2, [r2, #12]
 1062 05d0 22F00402 		bic	r2, r2, #4
 1063 05d4 DA60     		str	r2, [r3, #12]
 612:../STM32F2xx_HAL_Driver/Src/stm32f2xx_hal_tim_ex.c ****     }
 613:../STM32F2xx_HAL_Driver/Src/stm32f2xx_hal_tim_ex.c ****     break;
 1064              		.loc 1 613 0
 1065 05d6 12E0     		b	.L51
 1066              	.L49:
 614:../STM32F2xx_HAL_Driver/Src/stm32f2xx_hal_tim_ex.c ****     
 615:../STM32F2xx_HAL_Driver/Src/stm32f2xx_hal_tim_ex.c ****     case TIM_CHANNEL_3:
 616:../STM32F2xx_HAL_Driver/Src/stm32f2xx_hal_tim_ex.c ****     {
 617:../STM32F2xx_HAL_Driver/Src/stm32f2xx_hal_tim_ex.c ****       /* Disable the TIM Output Compare interrupt */
 618:../STM32F2xx_HAL_Driver/Src/stm32f2xx_hal_tim_ex.c ****       __HAL_TIM_DISABLE_IT(htim, TIM_IT_CC3);
 1067              		.loc 1 618 0
 1068 05d8 7B68     		ldr	r3, [r7, #4]
 1069 05da 1B68     		ldr	r3, [r3]
 1070 05dc 7A68     		ldr	r2, [r7, #4]
 1071 05de 1268     		ldr	r2, [r2]
 1072 05e0 D268     		ldr	r2, [r2, #12]
 1073 05e2 22F00802 		bic	r2, r2, #8
 1074 05e6 DA60     		str	r2, [r3, #12]
 619:../STM32F2xx_HAL_Driver/Src/stm32f2xx_hal_tim_ex.c ****     }
 620:../STM32F2xx_HAL_Driver/Src/stm32f2xx_hal_tim_ex.c ****     break;
 1075              		.loc 1 620 0
 1076 05e8 09E0     		b	.L51
 1077              	.L50:
 621:../STM32F2xx_HAL_Driver/Src/stm32f2xx_hal_tim_ex.c ****     
 622:../STM32F2xx_HAL_Driver/Src/stm32f2xx_hal_tim_ex.c ****     case TIM_CHANNEL_4:
 623:../STM32F2xx_HAL_Driver/Src/stm32f2xx_hal_tim_ex.c ****     {
 624:../STM32F2xx_HAL_Driver/Src/stm32f2xx_hal_tim_ex.c ****       /* Disable the TIM Output Compare interrupt */
 625:../STM32F2xx_HAL_Driver/Src/stm32f2xx_hal_tim_ex.c ****       __HAL_TIM_DISABLE_IT(htim, TIM_IT_CC4);
 1078              		.loc 1 625 0
 1079 05ea 7B68     		ldr	r3, [r7, #4]
 1080 05ec 1B68     		ldr	r3, [r3]
 1081 05ee 7A68     		ldr	r2, [r7, #4]
 1082 05f0 1268     		ldr	r2, [r2]
 1083 05f2 D268     		ldr	r2, [r2, #12]
 1084 05f4 22F01002 		bic	r2, r2, #16
 1085 05f8 DA60     		str	r2, [r3, #12]
 626:../STM32F2xx_HAL_Driver/Src/stm32f2xx_hal_tim_ex.c ****     }
 627:../STM32F2xx_HAL_Driver/Src/stm32f2xx_hal_tim_ex.c ****     break;
 1086              		.loc 1 627 0
 1087 05fa 00E0     		b	.L51
 1088              	.L55:
 628:../STM32F2xx_HAL_Driver/Src/stm32f2xx_hal_tim_ex.c ****     
 629:../STM32F2xx_HAL_Driver/Src/stm32f2xx_hal_tim_ex.c ****     default:
 630:../STM32F2xx_HAL_Driver/Src/stm32f2xx_hal_tim_ex.c ****     break; 
 1089              		.loc 1 630 0
 1090 05fc 00BF     		nop
 1091              	.L51:
 631:../STM32F2xx_HAL_Driver/Src/stm32f2xx_hal_tim_ex.c ****   }
 632:../STM32F2xx_HAL_Driver/Src/stm32f2xx_hal_tim_ex.c ****     
 633:../STM32F2xx_HAL_Driver/Src/stm32f2xx_hal_tim_ex.c ****      /* Disable the Capture compare channel N */
 634:../STM32F2xx_HAL_Driver/Src/stm32f2xx_hal_tim_ex.c ****      TIM_CCxNChannelCmd(htim->Instance, Channel, TIM_CCxN_DISABLE);
 1092              		.loc 1 634 0
 1093 05fe 7B68     		ldr	r3, [r7, #4]
 1094 0600 1B68     		ldr	r3, [r3]
 1095 0602 1846     		mov	r0, r3
 1096 0604 3968     		ldr	r1, [r7]
 1097 0606 0022     		movs	r2, #0
 1098 0608 00F038FF 		bl	TIM_CCxNChannelCmd
 635:../STM32F2xx_HAL_Driver/Src/stm32f2xx_hal_tim_ex.c ****     
 636:../STM32F2xx_HAL_Driver/Src/stm32f2xx_hal_tim_ex.c ****   /* Disable the Main Ouput */
 637:../STM32F2xx_HAL_Driver/Src/stm32f2xx_hal_tim_ex.c ****     __HAL_TIM_MOE_DISABLE(htim);
 1099              		.loc 1 637 0
 1100 060c 7B68     		ldr	r3, [r7, #4]
 1101 060e 1B68     		ldr	r3, [r3]
 1102 0610 1A6A     		ldr	r2, [r3, #32]
 1103 0612 41F21113 		movw	r3, #4369
 1104 0616 1340     		ands	r3, r3, r2
 1105 0618 002B     		cmp	r3, #0
 1106 061a 0FD1     		bne	.L52
 1107              		.loc 1 637 0 is_stmt 0 discriminator 1
 1108 061c 7B68     		ldr	r3, [r7, #4]
 1109 061e 1B68     		ldr	r3, [r3]
 1110 0620 1A6A     		ldr	r2, [r3, #32]
 1111 0622 40F24443 		movw	r3, #1092
 1112 0626 1340     		ands	r3, r3, r2
 1113 0628 002B     		cmp	r3, #0
 1114 062a 07D1     		bne	.L52
 1115 062c 7B68     		ldr	r3, [r7, #4]
 1116 062e 1B68     		ldr	r3, [r3]
 1117 0630 7A68     		ldr	r2, [r7, #4]
 1118 0632 1268     		ldr	r2, [r2]
 1119 0634 526C     		ldr	r2, [r2, #68]
 1120 0636 22F40042 		bic	r2, r2, #32768
 1121 063a 5A64     		str	r2, [r3, #68]
 1122              	.L52:
 638:../STM32F2xx_HAL_Driver/Src/stm32f2xx_hal_tim_ex.c **** 
 639:../STM32F2xx_HAL_Driver/Src/stm32f2xx_hal_tim_ex.c ****   /* Disable the Peripheral */
 640:../STM32F2xx_HAL_Driver/Src/stm32f2xx_hal_tim_ex.c ****   __HAL_TIM_DISABLE(htim);
 1123              		.loc 1 640 0 is_stmt 1
 1124 063c 7B68     		ldr	r3, [r7, #4]
 1125 063e 1B68     		ldr	r3, [r3]
 1126 0640 1A6A     		ldr	r2, [r3, #32]
 1127 0642 41F21113 		movw	r3, #4369
 1128 0646 1340     		ands	r3, r3, r2
 1129 0648 002B     		cmp	r3, #0
 1130 064a 0FD1     		bne	.L53
 1131              		.loc 1 640 0 is_stmt 0 discriminator 1
 1132 064c 7B68     		ldr	r3, [r7, #4]
 1133 064e 1B68     		ldr	r3, [r3]
 1134 0650 1A6A     		ldr	r2, [r3, #32]
 1135 0652 40F24443 		movw	r3, #1092
 1136 0656 1340     		ands	r3, r3, r2
 1137 0658 002B     		cmp	r3, #0
 1138 065a 07D1     		bne	.L53
 1139 065c 7B68     		ldr	r3, [r7, #4]
 1140 065e 1B68     		ldr	r3, [r3]
 1141 0660 7A68     		ldr	r2, [r7, #4]
 1142 0662 1268     		ldr	r2, [r2]
 1143 0664 1268     		ldr	r2, [r2]
 1144 0666 22F00102 		bic	r2, r2, #1
 1145 066a 1A60     		str	r2, [r3]
 1146              	.L53:
 641:../STM32F2xx_HAL_Driver/Src/stm32f2xx_hal_tim_ex.c ****   
 642:../STM32F2xx_HAL_Driver/Src/stm32f2xx_hal_tim_ex.c ****   /* Return function status */
 643:../STM32F2xx_HAL_Driver/Src/stm32f2xx_hal_tim_ex.c ****   return HAL_OK;
 1147              		.loc 1 643 0 is_stmt 1
 1148 066c 0023     		movs	r3, #0
 644:../STM32F2xx_HAL_Driver/Src/stm32f2xx_hal_tim_ex.c **** } 
 1149              		.loc 1 644 0
 1150 066e 1846     		mov	r0, r3
 1151 0670 0837     		adds	r7, r7, #8
 1152 0672 BD46     		mov	sp, r7
 1153              		@ sp needed
 1154 0674 80BD     		pop	{r7, pc}
 1155              		.cfi_endproc
 1156              	.LFE68:
 1158 0676 00BF     		.align	2
 1159              		.global	HAL_TIMEx_OCN_Start_DMA
 1160              		.thumb
 1161              		.thumb_func
 1163              	HAL_TIMEx_OCN_Start_DMA:
 1164              	.LFB69:
 645:../STM32F2xx_HAL_Driver/Src/stm32f2xx_hal_tim_ex.c **** 
 646:../STM32F2xx_HAL_Driver/Src/stm32f2xx_hal_tim_ex.c **** /**
 647:../STM32F2xx_HAL_Driver/Src/stm32f2xx_hal_tim_ex.c ****   * @brief  Starts the TIM Output Compare signal generation in DMA mode 
 648:../STM32F2xx_HAL_Driver/Src/stm32f2xx_hal_tim_ex.c ****   *         on the complementary output.
 649:../STM32F2xx_HAL_Driver/Src/stm32f2xx_hal_tim_ex.c ****   * @param  htim : TIM Output Compare handle
 650:../STM32F2xx_HAL_Driver/Src/stm32f2xx_hal_tim_ex.c ****   * @param  Channel : TIM Channel to be enabled
 651:../STM32F2xx_HAL_Driver/Src/stm32f2xx_hal_tim_ex.c ****   *          This parameter can be one of the following values:
 652:../STM32F2xx_HAL_Driver/Src/stm32f2xx_hal_tim_ex.c ****   *            @arg TIM_CHANNEL_1: TIM Channel 1 selected
 653:../STM32F2xx_HAL_Driver/Src/stm32f2xx_hal_tim_ex.c ****   *            @arg TIM_CHANNEL_2: TIM Channel 2 selected
 654:../STM32F2xx_HAL_Driver/Src/stm32f2xx_hal_tim_ex.c ****   *            @arg TIM_CHANNEL_3: TIM Channel 3 selected
 655:../STM32F2xx_HAL_Driver/Src/stm32f2xx_hal_tim_ex.c ****   *            @arg TIM_CHANNEL_4: TIM Channel 4 selected
 656:../STM32F2xx_HAL_Driver/Src/stm32f2xx_hal_tim_ex.c ****   * @param  pData: The source Buffer address.
 657:../STM32F2xx_HAL_Driver/Src/stm32f2xx_hal_tim_ex.c ****   * @param  Length: The length of data to be transferred from memory to TIM peripheral
 658:../STM32F2xx_HAL_Driver/Src/stm32f2xx_hal_tim_ex.c ****   * @retval HAL status
 659:../STM32F2xx_HAL_Driver/Src/stm32f2xx_hal_tim_ex.c ****   */
 660:../STM32F2xx_HAL_Driver/Src/stm32f2xx_hal_tim_ex.c **** HAL_StatusTypeDef HAL_TIMEx_OCN_Start_DMA(TIM_HandleTypeDef *htim, uint32_t Channel, uint32_t *pDat
 661:../STM32F2xx_HAL_Driver/Src/stm32f2xx_hal_tim_ex.c **** {
 1165              		.loc 1 661 0
 1166              		.cfi_startproc
 1167              		@ args = 0, pretend = 0, frame = 16
 1168              		@ frame_needed = 1, uses_anonymous_args = 0
 1169 0678 80B5     		push	{r7, lr}
 1170              		.cfi_def_cfa_offset 8
 1171              		.cfi_offset 7, -8
 1172              		.cfi_offset 14, -4
 1173 067a 84B0     		sub	sp, sp, #16
 1174              		.cfi_def_cfa_offset 24
 1175 067c 00AF     		add	r7, sp, #0
 1176              		.cfi_def_cfa_register 7
 1177 067e F860     		str	r0, [r7, #12]
 1178 0680 B960     		str	r1, [r7, #8]
 1179 0682 7A60     		str	r2, [r7, #4]
 1180 0684 7B80     		strh	r3, [r7, #2]	@ movhi
 662:../STM32F2xx_HAL_Driver/Src/stm32f2xx_hal_tim_ex.c ****   /* Check the parameters */
 663:../STM32F2xx_HAL_Driver/Src/stm32f2xx_hal_tim_ex.c ****   assert_param(IS_TIM_CCXN_INSTANCE(htim->Instance, Channel)); 
 664:../STM32F2xx_HAL_Driver/Src/stm32f2xx_hal_tim_ex.c ****   
 665:../STM32F2xx_HAL_Driver/Src/stm32f2xx_hal_tim_ex.c ****   if((htim->State == HAL_TIM_STATE_BUSY))
 1181              		.loc 1 665 0
 1182 0686 FB68     		ldr	r3, [r7, #12]
 1183 0688 93F83930 		ldrb	r3, [r3, #57]
 1184 068c DBB2     		uxtb	r3, r3
 1185 068e 022B     		cmp	r3, #2
 1186 0690 01D1     		bne	.L57
 666:../STM32F2xx_HAL_Driver/Src/stm32f2xx_hal_tim_ex.c ****   {
 667:../STM32F2xx_HAL_Driver/Src/stm32f2xx_hal_tim_ex.c ****      return HAL_BUSY;
 1187              		.loc 1 667 0
 1188 0692 0223     		movs	r3, #2
 1189 0694 CFE0     		b	.L58
 1190              	.L57:
 668:../STM32F2xx_HAL_Driver/Src/stm32f2xx_hal_tim_ex.c ****   }
 669:../STM32F2xx_HAL_Driver/Src/stm32f2xx_hal_tim_ex.c ****   else if((htim->State == HAL_TIM_STATE_READY))
 1191              		.loc 1 669 0
 1192 0696 FB68     		ldr	r3, [r7, #12]
 1193 0698 93F83930 		ldrb	r3, [r3, #57]
 1194 069c DBB2     		uxtb	r3, r3
 1195 069e 012B     		cmp	r3, #1
 1196 06a0 0BD1     		bne	.L59
 670:../STM32F2xx_HAL_Driver/Src/stm32f2xx_hal_tim_ex.c ****   {
 671:../STM32F2xx_HAL_Driver/Src/stm32f2xx_hal_tim_ex.c ****     if(((uint32_t)pData == 0 ) && (Length > 0)) 
 1197              		.loc 1 671 0
 1198 06a2 7B68     		ldr	r3, [r7, #4]
 1199 06a4 002B     		cmp	r3, #0
 1200 06a6 04D1     		bne	.L60
 1201              		.loc 1 671 0 is_stmt 0 discriminator 1
 1202 06a8 7B88     		ldrh	r3, [r7, #2]
 1203 06aa 002B     		cmp	r3, #0
 1204 06ac 01D0     		beq	.L60
 672:../STM32F2xx_HAL_Driver/Src/stm32f2xx_hal_tim_ex.c ****     {
 673:../STM32F2xx_HAL_Driver/Src/stm32f2xx_hal_tim_ex.c ****       return HAL_ERROR;                                    
 1205              		.loc 1 673 0 is_stmt 1
 1206 06ae 0123     		movs	r3, #1
 1207 06b0 C1E0     		b	.L58
 1208              	.L60:
 674:../STM32F2xx_HAL_Driver/Src/stm32f2xx_hal_tim_ex.c ****     }
 675:../STM32F2xx_HAL_Driver/Src/stm32f2xx_hal_tim_ex.c ****     else
 676:../STM32F2xx_HAL_Driver/Src/stm32f2xx_hal_tim_ex.c ****     {
 677:../STM32F2xx_HAL_Driver/Src/stm32f2xx_hal_tim_ex.c ****       htim->State = HAL_TIM_STATE_BUSY;
 1209              		.loc 1 677 0
 1210 06b2 FB68     		ldr	r3, [r7, #12]
 1211 06b4 0222     		movs	r2, #2
 1212 06b6 83F83920 		strb	r2, [r3, #57]
 1213              	.L59:
 678:../STM32F2xx_HAL_Driver/Src/stm32f2xx_hal_tim_ex.c ****     }
 679:../STM32F2xx_HAL_Driver/Src/stm32f2xx_hal_tim_ex.c ****   }    
 680:../STM32F2xx_HAL_Driver/Src/stm32f2xx_hal_tim_ex.c ****   switch (Channel)
 1214              		.loc 1 680 0
 1215 06ba BB68     		ldr	r3, [r7, #8]
 1216 06bc 0C2B     		cmp	r3, #12
 1217 06be 00F2A180 		bhi	.L68
 1218 06c2 01A2     		adr	r2, .L63
 1219 06c4 52F823F0 		ldr	pc, [r2, r3, lsl #2]
 1220              		.p2align 2
 1221              	.L63:
 1222 06c8 FD060000 		.word	.L62+1
 1223 06cc 05080000 		.word	.L68+1
 1224 06d0 05080000 		.word	.L68+1
 1225 06d4 05080000 		.word	.L68+1
 1226 06d8 3F070000 		.word	.L64+1
 1227 06dc 05080000 		.word	.L68+1
 1228 06e0 05080000 		.word	.L68+1
 1229 06e4 05080000 		.word	.L68+1
 1230 06e8 81070000 		.word	.L65+1
 1231 06ec 05080000 		.word	.L68+1
 1232 06f0 05080000 		.word	.L68+1
 1233 06f4 05080000 		.word	.L68+1
 1234 06f8 C3070000 		.word	.L66+1
 1235              	.L62:
 681:../STM32F2xx_HAL_Driver/Src/stm32f2xx_hal_tim_ex.c ****   {
 682:../STM32F2xx_HAL_Driver/Src/stm32f2xx_hal_tim_ex.c ****     case TIM_CHANNEL_1:
 683:../STM32F2xx_HAL_Driver/Src/stm32f2xx_hal_tim_ex.c ****     {      
 684:../STM32F2xx_HAL_Driver/Src/stm32f2xx_hal_tim_ex.c ****       /* Set the DMA Period elapsed callback */
 685:../STM32F2xx_HAL_Driver/Src/stm32f2xx_hal_tim_ex.c ****       htim->hdma[TIM_DMA_ID_CC1]->XferCpltCallback = HAL_TIM_DMADelayPulseCplt;
 1236              		.loc 1 685 0
 1237 06fc FB68     		ldr	r3, [r7, #12]
 1238 06fe 1A6A     		ldr	r2, [r3, #32]
 1239 0700 40F20003 		movw	r3, #:lower16:HAL_TIM_DMADelayPulseCplt
 1240 0704 C0F20003 		movt	r3, #:upper16:HAL_TIM_DMADelayPulseCplt
 1241 0708 D363     		str	r3, [r2, #60]
 686:../STM32F2xx_HAL_Driver/Src/stm32f2xx_hal_tim_ex.c ****      
 687:../STM32F2xx_HAL_Driver/Src/stm32f2xx_hal_tim_ex.c ****       /* Set the DMA error callback */
 688:../STM32F2xx_HAL_Driver/Src/stm32f2xx_hal_tim_ex.c ****       htim->hdma[TIM_DMA_ID_CC1]->XferErrorCallback = HAL_TIM_DMAError ;
 1242              		.loc 1 688 0
 1243 070a FB68     		ldr	r3, [r7, #12]
 1244 070c 1A6A     		ldr	r2, [r3, #32]
 1245 070e 40F20003 		movw	r3, #:lower16:HAL_TIM_DMAError
 1246 0712 C0F20003 		movt	r3, #:upper16:HAL_TIM_DMAError
 1247 0716 9364     		str	r3, [r2, #72]
 689:../STM32F2xx_HAL_Driver/Src/stm32f2xx_hal_tim_ex.c ****       
 690:../STM32F2xx_HAL_Driver/Src/stm32f2xx_hal_tim_ex.c ****       /* Enable the DMA Stream */
 691:../STM32F2xx_HAL_Driver/Src/stm32f2xx_hal_tim_ex.c ****       HAL_DMA_Start_IT(htim->hdma[TIM_DMA_ID_CC1], (uint32_t)pData, (uint32_t)&htim->Instance->CCR1
 1248              		.loc 1 691 0
 1249 0718 FB68     		ldr	r3, [r7, #12]
 1250 071a 186A     		ldr	r0, [r3, #32]
 1251 071c 7968     		ldr	r1, [r7, #4]
 1252 071e FB68     		ldr	r3, [r7, #12]
 1253 0720 1B68     		ldr	r3, [r3]
 1254 0722 3433     		adds	r3, r3, #52
 1255 0724 1A46     		mov	r2, r3
 1256 0726 7B88     		ldrh	r3, [r7, #2]
 1257 0728 FFF7FEFF 		bl	HAL_DMA_Start_IT
 692:../STM32F2xx_HAL_Driver/Src/stm32f2xx_hal_tim_ex.c ****       
 693:../STM32F2xx_HAL_Driver/Src/stm32f2xx_hal_tim_ex.c ****       /* Enable the TIM Output Compare DMA request */
 694:../STM32F2xx_HAL_Driver/Src/stm32f2xx_hal_tim_ex.c ****       __HAL_TIM_ENABLE_DMA(htim, TIM_DMA_CC1);
 1258              		.loc 1 694 0
 1259 072c FB68     		ldr	r3, [r7, #12]
 1260 072e 1B68     		ldr	r3, [r3]
 1261 0730 FA68     		ldr	r2, [r7, #12]
 1262 0732 1268     		ldr	r2, [r2]
 1263 0734 D268     		ldr	r2, [r2, #12]
 1264 0736 42F40072 		orr	r2, r2, #512
 1265 073a DA60     		str	r2, [r3, #12]
 695:../STM32F2xx_HAL_Driver/Src/stm32f2xx_hal_tim_ex.c ****     }
 696:../STM32F2xx_HAL_Driver/Src/stm32f2xx_hal_tim_ex.c ****     break;
 1266              		.loc 1 696 0
 1267 073c 63E0     		b	.L67
 1268              	.L64:
 697:../STM32F2xx_HAL_Driver/Src/stm32f2xx_hal_tim_ex.c ****     
 698:../STM32F2xx_HAL_Driver/Src/stm32f2xx_hal_tim_ex.c ****     case TIM_CHANNEL_2:
 699:../STM32F2xx_HAL_Driver/Src/stm32f2xx_hal_tim_ex.c ****     {
 700:../STM32F2xx_HAL_Driver/Src/stm32f2xx_hal_tim_ex.c ****       /* Set the DMA Period elapsed callback */
 701:../STM32F2xx_HAL_Driver/Src/stm32f2xx_hal_tim_ex.c ****       htim->hdma[TIM_DMA_ID_CC2]->XferCpltCallback = HAL_TIM_DMADelayPulseCplt;
 1269              		.loc 1 701 0
 1270 073e FB68     		ldr	r3, [r7, #12]
 1271 0740 5A6A     		ldr	r2, [r3, #36]
 1272 0742 40F20003 		movw	r3, #:lower16:HAL_TIM_DMADelayPulseCplt
 1273 0746 C0F20003 		movt	r3, #:upper16:HAL_TIM_DMADelayPulseCplt
 1274 074a D363     		str	r3, [r2, #60]
 702:../STM32F2xx_HAL_Driver/Src/stm32f2xx_hal_tim_ex.c ****      
 703:../STM32F2xx_HAL_Driver/Src/stm32f2xx_hal_tim_ex.c ****       /* Set the DMA error callback */
 704:../STM32F2xx_HAL_Driver/Src/stm32f2xx_hal_tim_ex.c ****       htim->hdma[TIM_DMA_ID_CC2]->XferErrorCallback = HAL_TIM_DMAError ;
 1275              		.loc 1 704 0
 1276 074c FB68     		ldr	r3, [r7, #12]
 1277 074e 5A6A     		ldr	r2, [r3, #36]
 1278 0750 40F20003 		movw	r3, #:lower16:HAL_TIM_DMAError
 1279 0754 C0F20003 		movt	r3, #:upper16:HAL_TIM_DMAError
 1280 0758 9364     		str	r3, [r2, #72]
 705:../STM32F2xx_HAL_Driver/Src/stm32f2xx_hal_tim_ex.c ****       
 706:../STM32F2xx_HAL_Driver/Src/stm32f2xx_hal_tim_ex.c ****       /* Enable the DMA Stream */
 707:../STM32F2xx_HAL_Driver/Src/stm32f2xx_hal_tim_ex.c ****       HAL_DMA_Start_IT(htim->hdma[TIM_DMA_ID_CC2], (uint32_t)pData, (uint32_t)&htim->Instance->CCR2
 1281              		.loc 1 707 0
 1282 075a FB68     		ldr	r3, [r7, #12]
 1283 075c 586A     		ldr	r0, [r3, #36]
 1284 075e 7968     		ldr	r1, [r7, #4]
 1285 0760 FB68     		ldr	r3, [r7, #12]
 1286 0762 1B68     		ldr	r3, [r3]
 1287 0764 3833     		adds	r3, r3, #56
 1288 0766 1A46     		mov	r2, r3
 1289 0768 7B88     		ldrh	r3, [r7, #2]
 1290 076a FFF7FEFF 		bl	HAL_DMA_Start_IT
 708:../STM32F2xx_HAL_Driver/Src/stm32f2xx_hal_tim_ex.c ****       
 709:../STM32F2xx_HAL_Driver/Src/stm32f2xx_hal_tim_ex.c ****       /* Enable the TIM Output Compare DMA request */
 710:../STM32F2xx_HAL_Driver/Src/stm32f2xx_hal_tim_ex.c ****       __HAL_TIM_ENABLE_DMA(htim, TIM_DMA_CC2);
 1291              		.loc 1 710 0
 1292 076e FB68     		ldr	r3, [r7, #12]
 1293 0770 1B68     		ldr	r3, [r3]
 1294 0772 FA68     		ldr	r2, [r7, #12]
 1295 0774 1268     		ldr	r2, [r2]
 1296 0776 D268     		ldr	r2, [r2, #12]
 1297 0778 42F48062 		orr	r2, r2, #1024
 1298 077c DA60     		str	r2, [r3, #12]
 711:../STM32F2xx_HAL_Driver/Src/stm32f2xx_hal_tim_ex.c ****     }
 712:../STM32F2xx_HAL_Driver/Src/stm32f2xx_hal_tim_ex.c ****     break;
 1299              		.loc 1 712 0
 1300 077e 42E0     		b	.L67
 1301              	.L65:
 713:../STM32F2xx_HAL_Driver/Src/stm32f2xx_hal_tim_ex.c ****     
 714:../STM32F2xx_HAL_Driver/Src/stm32f2xx_hal_tim_ex.c ****     case TIM_CHANNEL_3:
 715:../STM32F2xx_HAL_Driver/Src/stm32f2xx_hal_tim_ex.c **** {
 716:../STM32F2xx_HAL_Driver/Src/stm32f2xx_hal_tim_ex.c ****       /* Set the DMA Period elapsed callback */
 717:../STM32F2xx_HAL_Driver/Src/stm32f2xx_hal_tim_ex.c ****       htim->hdma[TIM_DMA_ID_CC3]->XferCpltCallback = HAL_TIM_DMADelayPulseCplt;
 1302              		.loc 1 717 0
 1303 0780 FB68     		ldr	r3, [r7, #12]
 1304 0782 9A6A     		ldr	r2, [r3, #40]
 1305 0784 40F20003 		movw	r3, #:lower16:HAL_TIM_DMADelayPulseCplt
 1306 0788 C0F20003 		movt	r3, #:upper16:HAL_TIM_DMADelayPulseCplt
 1307 078c D363     		str	r3, [r2, #60]
 718:../STM32F2xx_HAL_Driver/Src/stm32f2xx_hal_tim_ex.c ****      
 719:../STM32F2xx_HAL_Driver/Src/stm32f2xx_hal_tim_ex.c ****       /* Set the DMA error callback */
 720:../STM32F2xx_HAL_Driver/Src/stm32f2xx_hal_tim_ex.c ****       htim->hdma[TIM_DMA_ID_CC3]->XferErrorCallback = HAL_TIM_DMAError ;
 1308              		.loc 1 720 0
 1309 078e FB68     		ldr	r3, [r7, #12]
 1310 0790 9A6A     		ldr	r2, [r3, #40]
 1311 0792 40F20003 		movw	r3, #:lower16:HAL_TIM_DMAError
 1312 0796 C0F20003 		movt	r3, #:upper16:HAL_TIM_DMAError
 1313 079a 9364     		str	r3, [r2, #72]
 721:../STM32F2xx_HAL_Driver/Src/stm32f2xx_hal_tim_ex.c ****       
 722:../STM32F2xx_HAL_Driver/Src/stm32f2xx_hal_tim_ex.c ****       /* Enable the DMA Stream */
 723:../STM32F2xx_HAL_Driver/Src/stm32f2xx_hal_tim_ex.c ****       HAL_DMA_Start_IT(htim->hdma[TIM_DMA_ID_CC3], (uint32_t)pData, (uint32_t)&htim->Instance->CCR3
 1314              		.loc 1 723 0
 1315 079c FB68     		ldr	r3, [r7, #12]
 1316 079e 986A     		ldr	r0, [r3, #40]
 1317 07a0 7968     		ldr	r1, [r7, #4]
 1318 07a2 FB68     		ldr	r3, [r7, #12]
 1319 07a4 1B68     		ldr	r3, [r3]
 1320 07a6 3C33     		adds	r3, r3, #60
 1321 07a8 1A46     		mov	r2, r3
 1322 07aa 7B88     		ldrh	r3, [r7, #2]
 1323 07ac FFF7FEFF 		bl	HAL_DMA_Start_IT
 724:../STM32F2xx_HAL_Driver/Src/stm32f2xx_hal_tim_ex.c ****       
 725:../STM32F2xx_HAL_Driver/Src/stm32f2xx_hal_tim_ex.c ****       /* Enable the TIM Output Compare DMA request */
 726:../STM32F2xx_HAL_Driver/Src/stm32f2xx_hal_tim_ex.c ****       __HAL_TIM_ENABLE_DMA(htim, TIM_DMA_CC3);
 1324              		.loc 1 726 0
 1325 07b0 FB68     		ldr	r3, [r7, #12]
 1326 07b2 1B68     		ldr	r3, [r3]
 1327 07b4 FA68     		ldr	r2, [r7, #12]
 1328 07b6 1268     		ldr	r2, [r2]
 1329 07b8 D268     		ldr	r2, [r2, #12]
 1330 07ba 42F40062 		orr	r2, r2, #2048
 1331 07be DA60     		str	r2, [r3, #12]
 727:../STM32F2xx_HAL_Driver/Src/stm32f2xx_hal_tim_ex.c ****     }
 728:../STM32F2xx_HAL_Driver/Src/stm32f2xx_hal_tim_ex.c ****     break;
 1332              		.loc 1 728 0
 1333 07c0 21E0     		b	.L67
 1334              	.L66:
 729:../STM32F2xx_HAL_Driver/Src/stm32f2xx_hal_tim_ex.c ****     
 730:../STM32F2xx_HAL_Driver/Src/stm32f2xx_hal_tim_ex.c ****     case TIM_CHANNEL_4:
 731:../STM32F2xx_HAL_Driver/Src/stm32f2xx_hal_tim_ex.c ****     {
 732:../STM32F2xx_HAL_Driver/Src/stm32f2xx_hal_tim_ex.c ****      /* Set the DMA Period elapsed callback */
 733:../STM32F2xx_HAL_Driver/Src/stm32f2xx_hal_tim_ex.c ****       htim->hdma[TIM_DMA_ID_CC4]->XferCpltCallback = HAL_TIM_DMADelayPulseCplt;
 1335              		.loc 1 733 0
 1336 07c2 FB68     		ldr	r3, [r7, #12]
 1337 07c4 DA6A     		ldr	r2, [r3, #44]
 1338 07c6 40F20003 		movw	r3, #:lower16:HAL_TIM_DMADelayPulseCplt
 1339 07ca C0F20003 		movt	r3, #:upper16:HAL_TIM_DMADelayPulseCplt
 1340 07ce D363     		str	r3, [r2, #60]
 734:../STM32F2xx_HAL_Driver/Src/stm32f2xx_hal_tim_ex.c ****      
 735:../STM32F2xx_HAL_Driver/Src/stm32f2xx_hal_tim_ex.c ****       /* Set the DMA error callback */
 736:../STM32F2xx_HAL_Driver/Src/stm32f2xx_hal_tim_ex.c ****       htim->hdma[TIM_DMA_ID_CC4]->XferErrorCallback = HAL_TIM_DMAError ;
 1341              		.loc 1 736 0
 1342 07d0 FB68     		ldr	r3, [r7, #12]
 1343 07d2 DA6A     		ldr	r2, [r3, #44]
 1344 07d4 40F20003 		movw	r3, #:lower16:HAL_TIM_DMAError
 1345 07d8 C0F20003 		movt	r3, #:upper16:HAL_TIM_DMAError
 1346 07dc 9364     		str	r3, [r2, #72]
 737:../STM32F2xx_HAL_Driver/Src/stm32f2xx_hal_tim_ex.c ****       
 738:../STM32F2xx_HAL_Driver/Src/stm32f2xx_hal_tim_ex.c ****       /* Enable the DMA Stream */
 739:../STM32F2xx_HAL_Driver/Src/stm32f2xx_hal_tim_ex.c ****       HAL_DMA_Start_IT(htim->hdma[TIM_DMA_ID_CC4], (uint32_t)pData, (uint32_t)&htim->Instance->CCR4
 1347              		.loc 1 739 0
 1348 07de FB68     		ldr	r3, [r7, #12]
 1349 07e0 D86A     		ldr	r0, [r3, #44]
 1350 07e2 7968     		ldr	r1, [r7, #4]
 1351 07e4 FB68     		ldr	r3, [r7, #12]
 1352 07e6 1B68     		ldr	r3, [r3]
 1353 07e8 4033     		adds	r3, r3, #64
 1354 07ea 1A46     		mov	r2, r3
 1355 07ec 7B88     		ldrh	r3, [r7, #2]
 1356 07ee FFF7FEFF 		bl	HAL_DMA_Start_IT
 740:../STM32F2xx_HAL_Driver/Src/stm32f2xx_hal_tim_ex.c ****       
 741:../STM32F2xx_HAL_Driver/Src/stm32f2xx_hal_tim_ex.c ****       /* Enable the TIM Output Compare DMA request */
 742:../STM32F2xx_HAL_Driver/Src/stm32f2xx_hal_tim_ex.c ****       __HAL_TIM_ENABLE_DMA(htim, TIM_DMA_CC4);
 1357              		.loc 1 742 0
 1358 07f2 FB68     		ldr	r3, [r7, #12]
 1359 07f4 1B68     		ldr	r3, [r3]
 1360 07f6 FA68     		ldr	r2, [r7, #12]
 1361 07f8 1268     		ldr	r2, [r2]
 1362 07fa D268     		ldr	r2, [r2, #12]
 1363 07fc 42F48052 		orr	r2, r2, #4096
 1364 0800 DA60     		str	r2, [r3, #12]
 743:../STM32F2xx_HAL_Driver/Src/stm32f2xx_hal_tim_ex.c ****     }
 744:../STM32F2xx_HAL_Driver/Src/stm32f2xx_hal_tim_ex.c ****     break;
 1365              		.loc 1 744 0
 1366 0802 00E0     		b	.L67
 1367              	.L68:
 745:../STM32F2xx_HAL_Driver/Src/stm32f2xx_hal_tim_ex.c ****     
 746:../STM32F2xx_HAL_Driver/Src/stm32f2xx_hal_tim_ex.c ****     default:
 747:../STM32F2xx_HAL_Driver/Src/stm32f2xx_hal_tim_ex.c ****     break;
 1368              		.loc 1 747 0
 1369 0804 00BF     		nop
 1370              	.L67:
 748:../STM32F2xx_HAL_Driver/Src/stm32f2xx_hal_tim_ex.c ****   }
 749:../STM32F2xx_HAL_Driver/Src/stm32f2xx_hal_tim_ex.c **** 
 750:../STM32F2xx_HAL_Driver/Src/stm32f2xx_hal_tim_ex.c ****   /* Enable the Capture compare channel N */
 751:../STM32F2xx_HAL_Driver/Src/stm32f2xx_hal_tim_ex.c ****   TIM_CCxNChannelCmd(htim->Instance, Channel, TIM_CCxN_ENABLE);
 1371              		.loc 1 751 0
 1372 0806 FB68     		ldr	r3, [r7, #12]
 1373 0808 1B68     		ldr	r3, [r3]
 1374 080a 1846     		mov	r0, r3
 1375 080c B968     		ldr	r1, [r7, #8]
 1376 080e 0422     		movs	r2, #4
 1377 0810 00F034FE 		bl	TIM_CCxNChannelCmd
 752:../STM32F2xx_HAL_Driver/Src/stm32f2xx_hal_tim_ex.c ****   
 753:../STM32F2xx_HAL_Driver/Src/stm32f2xx_hal_tim_ex.c ****   /* Enable the Main Ouput */
 754:../STM32F2xx_HAL_Driver/Src/stm32f2xx_hal_tim_ex.c ****   __HAL_TIM_MOE_ENABLE(htim);
 1378              		.loc 1 754 0
 1379 0814 FB68     		ldr	r3, [r7, #12]
 1380 0816 1B68     		ldr	r3, [r3]
 1381 0818 FA68     		ldr	r2, [r7, #12]
 1382 081a 1268     		ldr	r2, [r2]
 1383 081c 526C     		ldr	r2, [r2, #68]
 1384 081e 42F40042 		orr	r2, r2, #32768
 1385 0822 5A64     		str	r2, [r3, #68]
 755:../STM32F2xx_HAL_Driver/Src/stm32f2xx_hal_tim_ex.c ****   
 756:../STM32F2xx_HAL_Driver/Src/stm32f2xx_hal_tim_ex.c ****   /* Enable the Peripheral */
 757:../STM32F2xx_HAL_Driver/Src/stm32f2xx_hal_tim_ex.c ****   __HAL_TIM_ENABLE(htim); 
 1386              		.loc 1 757 0
 1387 0824 FB68     		ldr	r3, [r7, #12]
 1388 0826 1B68     		ldr	r3, [r3]
 1389 0828 FA68     		ldr	r2, [r7, #12]
 1390 082a 1268     		ldr	r2, [r2]
 1391 082c 1268     		ldr	r2, [r2]
 1392 082e 42F00102 		orr	r2, r2, #1
 1393 0832 1A60     		str	r2, [r3]
 758:../STM32F2xx_HAL_Driver/Src/stm32f2xx_hal_tim_ex.c ****   
 759:../STM32F2xx_HAL_Driver/Src/stm32f2xx_hal_tim_ex.c ****   /* Return function status */
 760:../STM32F2xx_HAL_Driver/Src/stm32f2xx_hal_tim_ex.c ****   return HAL_OK;
 1394              		.loc 1 760 0
 1395 0834 0023     		movs	r3, #0
 1396              	.L58:
 761:../STM32F2xx_HAL_Driver/Src/stm32f2xx_hal_tim_ex.c **** }
 1397              		.loc 1 761 0
 1398 0836 1846     		mov	r0, r3
 1399 0838 1037     		adds	r7, r7, #16
 1400 083a BD46     		mov	sp, r7
 1401              		@ sp needed
 1402 083c 80BD     		pop	{r7, pc}
 1403              		.cfi_endproc
 1404              	.LFE69:
 1406 083e 00BF     		.align	2
 1407              		.global	HAL_TIMEx_OCN_Stop_DMA
 1408              		.thumb
 1409              		.thumb_func
 1411              	HAL_TIMEx_OCN_Stop_DMA:
 1412              	.LFB70:
 762:../STM32F2xx_HAL_Driver/Src/stm32f2xx_hal_tim_ex.c **** 
 763:../STM32F2xx_HAL_Driver/Src/stm32f2xx_hal_tim_ex.c **** /**
 764:../STM32F2xx_HAL_Driver/Src/stm32f2xx_hal_tim_ex.c ****   * @brief  Stops the TIM Output Compare signal generation in DMA mode 
 765:../STM32F2xx_HAL_Driver/Src/stm32f2xx_hal_tim_ex.c ****   *         on the complementary output.
 766:../STM32F2xx_HAL_Driver/Src/stm32f2xx_hal_tim_ex.c ****   * @param  htim : TIM Output Compare handle
 767:../STM32F2xx_HAL_Driver/Src/stm32f2xx_hal_tim_ex.c ****   * @param  Channel : TIM Channel to be disabled
 768:../STM32F2xx_HAL_Driver/Src/stm32f2xx_hal_tim_ex.c ****   *          This parameter can be one of the following values:
 769:../STM32F2xx_HAL_Driver/Src/stm32f2xx_hal_tim_ex.c ****   *            @arg TIM_CHANNEL_1: TIM Channel 1 selected
 770:../STM32F2xx_HAL_Driver/Src/stm32f2xx_hal_tim_ex.c ****   *            @arg TIM_CHANNEL_2: TIM Channel 2 selected
 771:../STM32F2xx_HAL_Driver/Src/stm32f2xx_hal_tim_ex.c ****   *            @arg TIM_CHANNEL_3: TIM Channel 3 selected
 772:../STM32F2xx_HAL_Driver/Src/stm32f2xx_hal_tim_ex.c ****   *            @arg TIM_CHANNEL_4: TIM Channel 4 selected
 773:../STM32F2xx_HAL_Driver/Src/stm32f2xx_hal_tim_ex.c ****   * @retval HAL status
 774:../STM32F2xx_HAL_Driver/Src/stm32f2xx_hal_tim_ex.c ****   */
 775:../STM32F2xx_HAL_Driver/Src/stm32f2xx_hal_tim_ex.c **** HAL_StatusTypeDef HAL_TIMEx_OCN_Stop_DMA(TIM_HandleTypeDef *htim, uint32_t Channel)
 776:../STM32F2xx_HAL_Driver/Src/stm32f2xx_hal_tim_ex.c **** {
 1413              		.loc 1 776 0
 1414              		.cfi_startproc
 1415              		@ args = 0, pretend = 0, frame = 8
 1416              		@ frame_needed = 1, uses_anonymous_args = 0
 1417 0840 80B5     		push	{r7, lr}
 1418              		.cfi_def_cfa_offset 8
 1419              		.cfi_offset 7, -8
 1420              		.cfi_offset 14, -4
 1421 0842 82B0     		sub	sp, sp, #8
 1422              		.cfi_def_cfa_offset 16
 1423 0844 00AF     		add	r7, sp, #0
 1424              		.cfi_def_cfa_register 7
 1425 0846 7860     		str	r0, [r7, #4]
 1426 0848 3960     		str	r1, [r7]
 777:../STM32F2xx_HAL_Driver/Src/stm32f2xx_hal_tim_ex.c ****   /* Check the parameters */
 778:../STM32F2xx_HAL_Driver/Src/stm32f2xx_hal_tim_ex.c ****   assert_param(IS_TIM_CCXN_INSTANCE(htim->Instance, Channel)); 
 779:../STM32F2xx_HAL_Driver/Src/stm32f2xx_hal_tim_ex.c ****   
 780:../STM32F2xx_HAL_Driver/Src/stm32f2xx_hal_tim_ex.c ****   switch (Channel)
 1427              		.loc 1 780 0
 1428 084a 3B68     		ldr	r3, [r7]
 1429 084c 0C2B     		cmp	r3, #12
 1430 084e 41D8     		bhi	.L80
 1431 0850 01A2     		adr	r2, .L72
 1432 0852 52F823F0 		ldr	pc, [r2, r3, lsl #2]
 1433 0856 00BF     		.p2align 2
 1434              	.L72:
 1435 0858 8D080000 		.word	.L71+1
 1436 085c D5080000 		.word	.L80+1
 1437 0860 D5080000 		.word	.L80+1
 1438 0864 D5080000 		.word	.L80+1
 1439 0868 9F080000 		.word	.L73+1
 1440 086c D5080000 		.word	.L80+1
 1441 0870 D5080000 		.word	.L80+1
 1442 0874 D5080000 		.word	.L80+1
 1443 0878 B1080000 		.word	.L74+1
 1444 087c D5080000 		.word	.L80+1
 1445 0880 D5080000 		.word	.L80+1
 1446 0884 D5080000 		.word	.L80+1
 1447 0888 C3080000 		.word	.L75+1
 1448              	.L71:
 781:../STM32F2xx_HAL_Driver/Src/stm32f2xx_hal_tim_ex.c ****   {
 782:../STM32F2xx_HAL_Driver/Src/stm32f2xx_hal_tim_ex.c ****     case TIM_CHANNEL_1:
 783:../STM32F2xx_HAL_Driver/Src/stm32f2xx_hal_tim_ex.c ****     {       
 784:../STM32F2xx_HAL_Driver/Src/stm32f2xx_hal_tim_ex.c ****       /* Disable the TIM Output Compare DMA request */
 785:../STM32F2xx_HAL_Driver/Src/stm32f2xx_hal_tim_ex.c ****       __HAL_TIM_DISABLE_DMA(htim, TIM_DMA_CC1);
 1449              		.loc 1 785 0
 1450 088c 7B68     		ldr	r3, [r7, #4]
 1451 088e 1B68     		ldr	r3, [r3]
 1452 0890 7A68     		ldr	r2, [r7, #4]
 1453 0892 1268     		ldr	r2, [r2]
 1454 0894 D268     		ldr	r2, [r2, #12]
 1455 0896 22F40072 		bic	r2, r2, #512
 1456 089a DA60     		str	r2, [r3, #12]
 786:../STM32F2xx_HAL_Driver/Src/stm32f2xx_hal_tim_ex.c ****     }
 787:../STM32F2xx_HAL_Driver/Src/stm32f2xx_hal_tim_ex.c ****     break;
 1457              		.loc 1 787 0
 1458 089c 1BE0     		b	.L76
 1459              	.L73:
 788:../STM32F2xx_HAL_Driver/Src/stm32f2xx_hal_tim_ex.c ****     
 789:../STM32F2xx_HAL_Driver/Src/stm32f2xx_hal_tim_ex.c ****     case TIM_CHANNEL_2:
 790:../STM32F2xx_HAL_Driver/Src/stm32f2xx_hal_tim_ex.c ****     {
 791:../STM32F2xx_HAL_Driver/Src/stm32f2xx_hal_tim_ex.c ****       /* Disable the TIM Output Compare DMA request */
 792:../STM32F2xx_HAL_Driver/Src/stm32f2xx_hal_tim_ex.c ****       __HAL_TIM_DISABLE_DMA(htim, TIM_DMA_CC2);
 1460              		.loc 1 792 0
 1461 089e 7B68     		ldr	r3, [r7, #4]
 1462 08a0 1B68     		ldr	r3, [r3]
 1463 08a2 7A68     		ldr	r2, [r7, #4]
 1464 08a4 1268     		ldr	r2, [r2]
 1465 08a6 D268     		ldr	r2, [r2, #12]
 1466 08a8 22F48062 		bic	r2, r2, #1024
 1467 08ac DA60     		str	r2, [r3, #12]
 793:../STM32F2xx_HAL_Driver/Src/stm32f2xx_hal_tim_ex.c ****     }
 794:../STM32F2xx_HAL_Driver/Src/stm32f2xx_hal_tim_ex.c ****     break;
 1468              		.loc 1 794 0
 1469 08ae 12E0     		b	.L76
 1470              	.L74:
 795:../STM32F2xx_HAL_Driver/Src/stm32f2xx_hal_tim_ex.c ****     
 796:../STM32F2xx_HAL_Driver/Src/stm32f2xx_hal_tim_ex.c ****     case TIM_CHANNEL_3:
 797:../STM32F2xx_HAL_Driver/Src/stm32f2xx_hal_tim_ex.c ****     {
 798:../STM32F2xx_HAL_Driver/Src/stm32f2xx_hal_tim_ex.c ****       /* Disable the TIM Output Compare DMA request */
 799:../STM32F2xx_HAL_Driver/Src/stm32f2xx_hal_tim_ex.c ****       __HAL_TIM_DISABLE_DMA(htim, TIM_DMA_CC3);
 1471              		.loc 1 799 0
 1472 08b0 7B68     		ldr	r3, [r7, #4]
 1473 08b2 1B68     		ldr	r3, [r3]
 1474 08b4 7A68     		ldr	r2, [r7, #4]
 1475 08b6 1268     		ldr	r2, [r2]
 1476 08b8 D268     		ldr	r2, [r2, #12]
 1477 08ba 22F40062 		bic	r2, r2, #2048
 1478 08be DA60     		str	r2, [r3, #12]
 800:../STM32F2xx_HAL_Driver/Src/stm32f2xx_hal_tim_ex.c ****     }
 801:../STM32F2xx_HAL_Driver/Src/stm32f2xx_hal_tim_ex.c ****     break;
 1479              		.loc 1 801 0
 1480 08c0 09E0     		b	.L76
 1481              	.L75:
 802:../STM32F2xx_HAL_Driver/Src/stm32f2xx_hal_tim_ex.c ****     
 803:../STM32F2xx_HAL_Driver/Src/stm32f2xx_hal_tim_ex.c ****     case TIM_CHANNEL_4:
 804:../STM32F2xx_HAL_Driver/Src/stm32f2xx_hal_tim_ex.c ****     {
 805:../STM32F2xx_HAL_Driver/Src/stm32f2xx_hal_tim_ex.c ****       /* Disable the TIM Output Compare interrupt */
 806:../STM32F2xx_HAL_Driver/Src/stm32f2xx_hal_tim_ex.c ****       __HAL_TIM_DISABLE_DMA(htim, TIM_DMA_CC4);
 1482              		.loc 1 806 0
 1483 08c2 7B68     		ldr	r3, [r7, #4]
 1484 08c4 1B68     		ldr	r3, [r3]
 1485 08c6 7A68     		ldr	r2, [r7, #4]
 1486 08c8 1268     		ldr	r2, [r2]
 1487 08ca D268     		ldr	r2, [r2, #12]
 1488 08cc 22F48052 		bic	r2, r2, #4096
 1489 08d0 DA60     		str	r2, [r3, #12]
 807:../STM32F2xx_HAL_Driver/Src/stm32f2xx_hal_tim_ex.c ****     }
 808:../STM32F2xx_HAL_Driver/Src/stm32f2xx_hal_tim_ex.c ****     break;
 1490              		.loc 1 808 0
 1491 08d2 00E0     		b	.L76
 1492              	.L80:
 809:../STM32F2xx_HAL_Driver/Src/stm32f2xx_hal_tim_ex.c ****     
 810:../STM32F2xx_HAL_Driver/Src/stm32f2xx_hal_tim_ex.c ****     default:
 811:../STM32F2xx_HAL_Driver/Src/stm32f2xx_hal_tim_ex.c ****     break;
 1493              		.loc 1 811 0
 1494 08d4 00BF     		nop
 1495              	.L76:
 812:../STM32F2xx_HAL_Driver/Src/stm32f2xx_hal_tim_ex.c ****   } 
 813:../STM32F2xx_HAL_Driver/Src/stm32f2xx_hal_tim_ex.c ****   
 814:../STM32F2xx_HAL_Driver/Src/stm32f2xx_hal_tim_ex.c ****   /* Disable the Capture compare channel N */
 815:../STM32F2xx_HAL_Driver/Src/stm32f2xx_hal_tim_ex.c ****   TIM_CCxNChannelCmd(htim->Instance, Channel, TIM_CCxN_DISABLE);
 1496              		.loc 1 815 0
 1497 08d6 7B68     		ldr	r3, [r7, #4]
 1498 08d8 1B68     		ldr	r3, [r3]
 1499 08da 1846     		mov	r0, r3
 1500 08dc 3968     		ldr	r1, [r7]
 1501 08de 0022     		movs	r2, #0
 1502 08e0 00F0CCFD 		bl	TIM_CCxNChannelCmd
 816:../STM32F2xx_HAL_Driver/Src/stm32f2xx_hal_tim_ex.c ****   
 817:../STM32F2xx_HAL_Driver/Src/stm32f2xx_hal_tim_ex.c ****   /* Disable the Main Ouput */
 818:../STM32F2xx_HAL_Driver/Src/stm32f2xx_hal_tim_ex.c ****   __HAL_TIM_MOE_DISABLE(htim);
 1503              		.loc 1 818 0
 1504 08e4 7B68     		ldr	r3, [r7, #4]
 1505 08e6 1B68     		ldr	r3, [r3]
 1506 08e8 1A6A     		ldr	r2, [r3, #32]
 1507 08ea 41F21113 		movw	r3, #4369
 1508 08ee 1340     		ands	r3, r3, r2
 1509 08f0 002B     		cmp	r3, #0
 1510 08f2 0FD1     		bne	.L77
 1511              		.loc 1 818 0 is_stmt 0 discriminator 1
 1512 08f4 7B68     		ldr	r3, [r7, #4]
 1513 08f6 1B68     		ldr	r3, [r3]
 1514 08f8 1A6A     		ldr	r2, [r3, #32]
 1515 08fa 40F24443 		movw	r3, #1092
 1516 08fe 1340     		ands	r3, r3, r2
 1517 0900 002B     		cmp	r3, #0
 1518 0902 07D1     		bne	.L77
 1519 0904 7B68     		ldr	r3, [r7, #4]
 1520 0906 1B68     		ldr	r3, [r3]
 1521 0908 7A68     		ldr	r2, [r7, #4]
 1522 090a 1268     		ldr	r2, [r2]
 1523 090c 526C     		ldr	r2, [r2, #68]
 1524 090e 22F40042 		bic	r2, r2, #32768
 1525 0912 5A64     		str	r2, [r3, #68]
 1526              	.L77:
 819:../STM32F2xx_HAL_Driver/Src/stm32f2xx_hal_tim_ex.c ****   
 820:../STM32F2xx_HAL_Driver/Src/stm32f2xx_hal_tim_ex.c ****   /* Disable the Peripheral */
 821:../STM32F2xx_HAL_Driver/Src/stm32f2xx_hal_tim_ex.c ****   __HAL_TIM_DISABLE(htim);
 1527              		.loc 1 821 0 is_stmt 1
 1528 0914 7B68     		ldr	r3, [r7, #4]
 1529 0916 1B68     		ldr	r3, [r3]
 1530 0918 1A6A     		ldr	r2, [r3, #32]
 1531 091a 41F21113 		movw	r3, #4369
 1532 091e 1340     		ands	r3, r3, r2
 1533 0920 002B     		cmp	r3, #0
 1534 0922 0FD1     		bne	.L78
 1535              		.loc 1 821 0 is_stmt 0 discriminator 1
 1536 0924 7B68     		ldr	r3, [r7, #4]
 1537 0926 1B68     		ldr	r3, [r3]
 1538 0928 1A6A     		ldr	r2, [r3, #32]
 1539 092a 40F24443 		movw	r3, #1092
 1540 092e 1340     		ands	r3, r3, r2
 1541 0930 002B     		cmp	r3, #0
 1542 0932 07D1     		bne	.L78
 1543 0934 7B68     		ldr	r3, [r7, #4]
 1544 0936 1B68     		ldr	r3, [r3]
 1545 0938 7A68     		ldr	r2, [r7, #4]
 1546 093a 1268     		ldr	r2, [r2]
 1547 093c 1268     		ldr	r2, [r2]
 1548 093e 22F00102 		bic	r2, r2, #1
 1549 0942 1A60     		str	r2, [r3]
 1550              	.L78:
 822:../STM32F2xx_HAL_Driver/Src/stm32f2xx_hal_tim_ex.c ****   
 823:../STM32F2xx_HAL_Driver/Src/stm32f2xx_hal_tim_ex.c ****   /* Change the htim state */
 824:../STM32F2xx_HAL_Driver/Src/stm32f2xx_hal_tim_ex.c ****   htim->State = HAL_TIM_STATE_READY;
 1551              		.loc 1 824 0 is_stmt 1
 1552 0944 7B68     		ldr	r3, [r7, #4]
 1553 0946 0122     		movs	r2, #1
 1554 0948 83F83920 		strb	r2, [r3, #57]
 825:../STM32F2xx_HAL_Driver/Src/stm32f2xx_hal_tim_ex.c ****   
 826:../STM32F2xx_HAL_Driver/Src/stm32f2xx_hal_tim_ex.c ****   /* Return function status */
 827:../STM32F2xx_HAL_Driver/Src/stm32f2xx_hal_tim_ex.c ****   return HAL_OK;
 1555              		.loc 1 827 0
 1556 094c 0023     		movs	r3, #0
 828:../STM32F2xx_HAL_Driver/Src/stm32f2xx_hal_tim_ex.c **** }
 1557              		.loc 1 828 0
 1558 094e 1846     		mov	r0, r3
 1559 0950 0837     		adds	r7, r7, #8
 1560 0952 BD46     		mov	sp, r7
 1561              		@ sp needed
 1562 0954 80BD     		pop	{r7, pc}
 1563              		.cfi_endproc
 1564              	.LFE70:
 1566 0956 00BF     		.align	2
 1567              		.global	HAL_TIMEx_PWMN_Start
 1568              		.thumb
 1569              		.thumb_func
 1571              	HAL_TIMEx_PWMN_Start:
 1572              	.LFB71:
 829:../STM32F2xx_HAL_Driver/Src/stm32f2xx_hal_tim_ex.c **** 
 830:../STM32F2xx_HAL_Driver/Src/stm32f2xx_hal_tim_ex.c **** /**
 831:../STM32F2xx_HAL_Driver/Src/stm32f2xx_hal_tim_ex.c ****   * @}
 832:../STM32F2xx_HAL_Driver/Src/stm32f2xx_hal_tim_ex.c ****   */
 833:../STM32F2xx_HAL_Driver/Src/stm32f2xx_hal_tim_ex.c ****   
 834:../STM32F2xx_HAL_Driver/Src/stm32f2xx_hal_tim_ex.c **** /** @defgroup TIMEx_Group3 Timer Complementary PWM functions
 835:../STM32F2xx_HAL_Driver/Src/stm32f2xx_hal_tim_ex.c ****  *  @brief    Timer Complementary PWM functions 
 836:../STM32F2xx_HAL_Driver/Src/stm32f2xx_hal_tim_ex.c ****  *
 837:../STM32F2xx_HAL_Driver/Src/stm32f2xx_hal_tim_ex.c **** @verbatim   
 838:../STM32F2xx_HAL_Driver/Src/stm32f2xx_hal_tim_ex.c ****   ==============================================================================
 839:../STM32F2xx_HAL_Driver/Src/stm32f2xx_hal_tim_ex.c ****                  ##### Timer Complementary PWM functions #####
 840:../STM32F2xx_HAL_Driver/Src/stm32f2xx_hal_tim_ex.c ****   ==============================================================================  
 841:../STM32F2xx_HAL_Driver/Src/stm32f2xx_hal_tim_ex.c ****   [..]  
 842:../STM32F2xx_HAL_Driver/Src/stm32f2xx_hal_tim_ex.c ****     This section provides functions allowing to:
 843:../STM32F2xx_HAL_Driver/Src/stm32f2xx_hal_tim_ex.c ****     (+) Start the Complementary PWM.
 844:../STM32F2xx_HAL_Driver/Src/stm32f2xx_hal_tim_ex.c ****     (+) Stop the Complementary PWM.
 845:../STM32F2xx_HAL_Driver/Src/stm32f2xx_hal_tim_ex.c ****     (+) Start the Complementary PWM and enable interrupts.
 846:../STM32F2xx_HAL_Driver/Src/stm32f2xx_hal_tim_ex.c ****     (+) Stop the Complementary PWM and disable interrupts.
 847:../STM32F2xx_HAL_Driver/Src/stm32f2xx_hal_tim_ex.c ****     (+) Start the Complementary PWM and enable DMA transfers.
 848:../STM32F2xx_HAL_Driver/Src/stm32f2xx_hal_tim_ex.c ****     (+) Stop the Complementary PWM and disable DMA transfers.
 849:../STM32F2xx_HAL_Driver/Src/stm32f2xx_hal_tim_ex.c ****     (+) Start the Complementary Input Capture measurement.
 850:../STM32F2xx_HAL_Driver/Src/stm32f2xx_hal_tim_ex.c ****     (+) Stop the Complementary Input Capture.
 851:../STM32F2xx_HAL_Driver/Src/stm32f2xx_hal_tim_ex.c ****     (+) Start the Complementary Input Capture and enable interrupts.
 852:../STM32F2xx_HAL_Driver/Src/stm32f2xx_hal_tim_ex.c ****     (+) Stop the Complementary Input Capture and disable interrupts.
 853:../STM32F2xx_HAL_Driver/Src/stm32f2xx_hal_tim_ex.c ****     (+) Start the Complementary Input Capture and enable DMA transfers.
 854:../STM32F2xx_HAL_Driver/Src/stm32f2xx_hal_tim_ex.c ****     (+) Stop the Complementary Input Capture and disable DMA transfers.
 855:../STM32F2xx_HAL_Driver/Src/stm32f2xx_hal_tim_ex.c ****     (+) Start the Complementary One Pulse generation.
 856:../STM32F2xx_HAL_Driver/Src/stm32f2xx_hal_tim_ex.c ****     (+) Stop the Complementary One Pulse.
 857:../STM32F2xx_HAL_Driver/Src/stm32f2xx_hal_tim_ex.c ****     (+) Start the Complementary One Pulse and enable interrupts.
 858:../STM32F2xx_HAL_Driver/Src/stm32f2xx_hal_tim_ex.c ****     (+) Stop the Complementary One Pulse and disable interrupts.
 859:../STM32F2xx_HAL_Driver/Src/stm32f2xx_hal_tim_ex.c ****                
 860:../STM32F2xx_HAL_Driver/Src/stm32f2xx_hal_tim_ex.c **** @endverbatim
 861:../STM32F2xx_HAL_Driver/Src/stm32f2xx_hal_tim_ex.c ****   * @{
 862:../STM32F2xx_HAL_Driver/Src/stm32f2xx_hal_tim_ex.c ****   */
 863:../STM32F2xx_HAL_Driver/Src/stm32f2xx_hal_tim_ex.c **** 
 864:../STM32F2xx_HAL_Driver/Src/stm32f2xx_hal_tim_ex.c **** /**
 865:../STM32F2xx_HAL_Driver/Src/stm32f2xx_hal_tim_ex.c ****   * @brief  Starts the PWM signal generation on the complementary output.
 866:../STM32F2xx_HAL_Driver/Src/stm32f2xx_hal_tim_ex.c ****   * @param  htim : TIM handle
 867:../STM32F2xx_HAL_Driver/Src/stm32f2xx_hal_tim_ex.c ****   * @param  Channel : TIM Channel to be enabled
 868:../STM32F2xx_HAL_Driver/Src/stm32f2xx_hal_tim_ex.c ****   *          This parameter can be one of the following values:
 869:../STM32F2xx_HAL_Driver/Src/stm32f2xx_hal_tim_ex.c ****   *            @arg TIM_CHANNEL_1: TIM Channel 1 selected
 870:../STM32F2xx_HAL_Driver/Src/stm32f2xx_hal_tim_ex.c ****   *            @arg TIM_CHANNEL_2: TIM Channel 2 selected
 871:../STM32F2xx_HAL_Driver/Src/stm32f2xx_hal_tim_ex.c ****   *            @arg TIM_CHANNEL_3: TIM Channel 3 selected
 872:../STM32F2xx_HAL_Driver/Src/stm32f2xx_hal_tim_ex.c ****   *            @arg TIM_CHANNEL_4: TIM Channel 4 selected
 873:../STM32F2xx_HAL_Driver/Src/stm32f2xx_hal_tim_ex.c ****   * @retval HAL status
 874:../STM32F2xx_HAL_Driver/Src/stm32f2xx_hal_tim_ex.c ****   */
 875:../STM32F2xx_HAL_Driver/Src/stm32f2xx_hal_tim_ex.c **** HAL_StatusTypeDef HAL_TIMEx_PWMN_Start(TIM_HandleTypeDef *htim, uint32_t Channel)
 876:../STM32F2xx_HAL_Driver/Src/stm32f2xx_hal_tim_ex.c **** {
 1573              		.loc 1 876 0
 1574              		.cfi_startproc
 1575              		@ args = 0, pretend = 0, frame = 8
 1576              		@ frame_needed = 1, uses_anonymous_args = 0
 1577 0958 80B5     		push	{r7, lr}
 1578              		.cfi_def_cfa_offset 8
 1579              		.cfi_offset 7, -8
 1580              		.cfi_offset 14, -4
 1581 095a 82B0     		sub	sp, sp, #8
 1582              		.cfi_def_cfa_offset 16
 1583 095c 00AF     		add	r7, sp, #0
 1584              		.cfi_def_cfa_register 7
 1585 095e 7860     		str	r0, [r7, #4]
 1586 0960 3960     		str	r1, [r7]
 877:../STM32F2xx_HAL_Driver/Src/stm32f2xx_hal_tim_ex.c ****   /* Check the parameters */
 878:../STM32F2xx_HAL_Driver/Src/stm32f2xx_hal_tim_ex.c ****   assert_param(IS_TIM_CCXN_INSTANCE(htim->Instance, Channel)); 
 879:../STM32F2xx_HAL_Driver/Src/stm32f2xx_hal_tim_ex.c ****   
 880:../STM32F2xx_HAL_Driver/Src/stm32f2xx_hal_tim_ex.c ****   /* Enable the complementary PWM output  */
 881:../STM32F2xx_HAL_Driver/Src/stm32f2xx_hal_tim_ex.c ****   TIM_CCxNChannelCmd(htim->Instance, Channel, TIM_CCxN_ENABLE);
 1587              		.loc 1 881 0
 1588 0962 7B68     		ldr	r3, [r7, #4]
 1589 0964 1B68     		ldr	r3, [r3]
 1590 0966 1846     		mov	r0, r3
 1591 0968 3968     		ldr	r1, [r7]
 1592 096a 0422     		movs	r2, #4
 1593 096c 00F086FD 		bl	TIM_CCxNChannelCmd
 882:../STM32F2xx_HAL_Driver/Src/stm32f2xx_hal_tim_ex.c ****   
 883:../STM32F2xx_HAL_Driver/Src/stm32f2xx_hal_tim_ex.c ****   /* Enable the Main Ouput */
 884:../STM32F2xx_HAL_Driver/Src/stm32f2xx_hal_tim_ex.c ****   __HAL_TIM_MOE_ENABLE(htim);
 1594              		.loc 1 884 0
 1595 0970 7B68     		ldr	r3, [r7, #4]
 1596 0972 1B68     		ldr	r3, [r3]
 1597 0974 7A68     		ldr	r2, [r7, #4]
 1598 0976 1268     		ldr	r2, [r2]
 1599 0978 526C     		ldr	r2, [r2, #68]
 1600 097a 42F40042 		orr	r2, r2, #32768
 1601 097e 5A64     		str	r2, [r3, #68]
 885:../STM32F2xx_HAL_Driver/Src/stm32f2xx_hal_tim_ex.c ****   
 886:../STM32F2xx_HAL_Driver/Src/stm32f2xx_hal_tim_ex.c ****   /* Enable the Peripheral */
 887:../STM32F2xx_HAL_Driver/Src/stm32f2xx_hal_tim_ex.c ****   __HAL_TIM_ENABLE(htim);
 1602              		.loc 1 887 0
 1603 0980 7B68     		ldr	r3, [r7, #4]
 1604 0982 1B68     		ldr	r3, [r3]
 1605 0984 7A68     		ldr	r2, [r7, #4]
 1606 0986 1268     		ldr	r2, [r2]
 1607 0988 1268     		ldr	r2, [r2]
 1608 098a 42F00102 		orr	r2, r2, #1
 1609 098e 1A60     		str	r2, [r3]
 888:../STM32F2xx_HAL_Driver/Src/stm32f2xx_hal_tim_ex.c ****   
 889:../STM32F2xx_HAL_Driver/Src/stm32f2xx_hal_tim_ex.c ****   /* Return function status */
 890:../STM32F2xx_HAL_Driver/Src/stm32f2xx_hal_tim_ex.c ****   return HAL_OK;
 1610              		.loc 1 890 0
 1611 0990 0023     		movs	r3, #0
 891:../STM32F2xx_HAL_Driver/Src/stm32f2xx_hal_tim_ex.c **** } 
 1612              		.loc 1 891 0
 1613 0992 1846     		mov	r0, r3
 1614 0994 0837     		adds	r7, r7, #8
 1615 0996 BD46     		mov	sp, r7
 1616              		@ sp needed
 1617 0998 80BD     		pop	{r7, pc}
 1618              		.cfi_endproc
 1619              	.LFE71:
 1621 099a 00BF     		.align	2
 1622              		.global	HAL_TIMEx_PWMN_Stop
 1623              		.thumb
 1624              		.thumb_func
 1626              	HAL_TIMEx_PWMN_Stop:
 1627              	.LFB72:
 892:../STM32F2xx_HAL_Driver/Src/stm32f2xx_hal_tim_ex.c **** 
 893:../STM32F2xx_HAL_Driver/Src/stm32f2xx_hal_tim_ex.c **** /**
 894:../STM32F2xx_HAL_Driver/Src/stm32f2xx_hal_tim_ex.c ****   * @brief  Stops the PWM signal generation on the complementary output.
 895:../STM32F2xx_HAL_Driver/Src/stm32f2xx_hal_tim_ex.c ****   * @param  htim : TIM handle
 896:../STM32F2xx_HAL_Driver/Src/stm32f2xx_hal_tim_ex.c ****   * @param  Channel : TIM Channel to be disabled
 897:../STM32F2xx_HAL_Driver/Src/stm32f2xx_hal_tim_ex.c ****   *          This parameter can be one of the following values:
 898:../STM32F2xx_HAL_Driver/Src/stm32f2xx_hal_tim_ex.c ****   *            @arg TIM_CHANNEL_1: TIM Channel 1 selected
 899:../STM32F2xx_HAL_Driver/Src/stm32f2xx_hal_tim_ex.c ****   *            @arg TIM_CHANNEL_2: TIM Channel 2 selected
 900:../STM32F2xx_HAL_Driver/Src/stm32f2xx_hal_tim_ex.c ****   *            @arg TIM_CHANNEL_3: TIM Channel 3 selected
 901:../STM32F2xx_HAL_Driver/Src/stm32f2xx_hal_tim_ex.c ****   *            @arg TIM_CHANNEL_4: TIM Channel 4 selected
 902:../STM32F2xx_HAL_Driver/Src/stm32f2xx_hal_tim_ex.c ****   * @retval HAL status
 903:../STM32F2xx_HAL_Driver/Src/stm32f2xx_hal_tim_ex.c ****   */
 904:../STM32F2xx_HAL_Driver/Src/stm32f2xx_hal_tim_ex.c **** HAL_StatusTypeDef HAL_TIMEx_PWMN_Stop(TIM_HandleTypeDef *htim, uint32_t Channel)
 905:../STM32F2xx_HAL_Driver/Src/stm32f2xx_hal_tim_ex.c **** { 
 1628              		.loc 1 905 0
 1629              		.cfi_startproc
 1630              		@ args = 0, pretend = 0, frame = 8
 1631              		@ frame_needed = 1, uses_anonymous_args = 0
 1632 099c 80B5     		push	{r7, lr}
 1633              		.cfi_def_cfa_offset 8
 1634              		.cfi_offset 7, -8
 1635              		.cfi_offset 14, -4
 1636 099e 82B0     		sub	sp, sp, #8
 1637              		.cfi_def_cfa_offset 16
 1638 09a0 00AF     		add	r7, sp, #0
 1639              		.cfi_def_cfa_register 7
 1640 09a2 7860     		str	r0, [r7, #4]
 1641 09a4 3960     		str	r1, [r7]
 906:../STM32F2xx_HAL_Driver/Src/stm32f2xx_hal_tim_ex.c ****   /* Check the parameters */
 907:../STM32F2xx_HAL_Driver/Src/stm32f2xx_hal_tim_ex.c ****   assert_param(IS_TIM_CCXN_INSTANCE(htim->Instance, Channel)); 
 908:../STM32F2xx_HAL_Driver/Src/stm32f2xx_hal_tim_ex.c ****   
 909:../STM32F2xx_HAL_Driver/Src/stm32f2xx_hal_tim_ex.c ****   /* Disable the complementary PWM output  */
 910:../STM32F2xx_HAL_Driver/Src/stm32f2xx_hal_tim_ex.c ****   TIM_CCxNChannelCmd(htim->Instance, Channel, TIM_CCxN_DISABLE);  
 1642              		.loc 1 910 0
 1643 09a6 7B68     		ldr	r3, [r7, #4]
 1644 09a8 1B68     		ldr	r3, [r3]
 1645 09aa 1846     		mov	r0, r3
 1646 09ac 3968     		ldr	r1, [r7]
 1647 09ae 0022     		movs	r2, #0
 1648 09b0 00F064FD 		bl	TIM_CCxNChannelCmd
 911:../STM32F2xx_HAL_Driver/Src/stm32f2xx_hal_tim_ex.c ****   
 912:../STM32F2xx_HAL_Driver/Src/stm32f2xx_hal_tim_ex.c ****   /* Disable the Main Ouput */
 913:../STM32F2xx_HAL_Driver/Src/stm32f2xx_hal_tim_ex.c ****   __HAL_TIM_MOE_DISABLE(htim);
 1649              		.loc 1 913 0
 1650 09b4 7B68     		ldr	r3, [r7, #4]
 1651 09b6 1B68     		ldr	r3, [r3]
 1652 09b8 1A6A     		ldr	r2, [r3, #32]
 1653 09ba 41F21113 		movw	r3, #4369
 1654 09be 1340     		ands	r3, r3, r2
 1655 09c0 002B     		cmp	r3, #0
 1656 09c2 0FD1     		bne	.L84
 1657              		.loc 1 913 0 is_stmt 0 discriminator 1
 1658 09c4 7B68     		ldr	r3, [r7, #4]
 1659 09c6 1B68     		ldr	r3, [r3]
 1660 09c8 1A6A     		ldr	r2, [r3, #32]
 1661 09ca 40F24443 		movw	r3, #1092
 1662 09ce 1340     		ands	r3, r3, r2
 1663 09d0 002B     		cmp	r3, #0
 1664 09d2 07D1     		bne	.L84
 1665 09d4 7B68     		ldr	r3, [r7, #4]
 1666 09d6 1B68     		ldr	r3, [r3]
 1667 09d8 7A68     		ldr	r2, [r7, #4]
 1668 09da 1268     		ldr	r2, [r2]
 1669 09dc 526C     		ldr	r2, [r2, #68]
 1670 09de 22F40042 		bic	r2, r2, #32768
 1671 09e2 5A64     		str	r2, [r3, #68]
 1672              	.L84:
 914:../STM32F2xx_HAL_Driver/Src/stm32f2xx_hal_tim_ex.c ****   
 915:../STM32F2xx_HAL_Driver/Src/stm32f2xx_hal_tim_ex.c ****   /* Disable the Peripheral */
 916:../STM32F2xx_HAL_Driver/Src/stm32f2xx_hal_tim_ex.c ****   __HAL_TIM_DISABLE(htim);
 1673              		.loc 1 916 0 is_stmt 1
 1674 09e4 7B68     		ldr	r3, [r7, #4]
 1675 09e6 1B68     		ldr	r3, [r3]
 1676 09e8 1A6A     		ldr	r2, [r3, #32]
 1677 09ea 41F21113 		movw	r3, #4369
 1678 09ee 1340     		ands	r3, r3, r2
 1679 09f0 002B     		cmp	r3, #0
 1680 09f2 0FD1     		bne	.L85
 1681              		.loc 1 916 0 is_stmt 0 discriminator 1
 1682 09f4 7B68     		ldr	r3, [r7, #4]
 1683 09f6 1B68     		ldr	r3, [r3]
 1684 09f8 1A6A     		ldr	r2, [r3, #32]
 1685 09fa 40F24443 		movw	r3, #1092
 1686 09fe 1340     		ands	r3, r3, r2
 1687 0a00 002B     		cmp	r3, #0
 1688 0a02 07D1     		bne	.L85
 1689 0a04 7B68     		ldr	r3, [r7, #4]
 1690 0a06 1B68     		ldr	r3, [r3]
 1691 0a08 7A68     		ldr	r2, [r7, #4]
 1692 0a0a 1268     		ldr	r2, [r2]
 1693 0a0c 1268     		ldr	r2, [r2]
 1694 0a0e 22F00102 		bic	r2, r2, #1
 1695 0a12 1A60     		str	r2, [r3]
 1696              	.L85:
 917:../STM32F2xx_HAL_Driver/Src/stm32f2xx_hal_tim_ex.c ****   
 918:../STM32F2xx_HAL_Driver/Src/stm32f2xx_hal_tim_ex.c ****   /* Return function status */
 919:../STM32F2xx_HAL_Driver/Src/stm32f2xx_hal_tim_ex.c ****   return HAL_OK;
 1697              		.loc 1 919 0 is_stmt 1
 1698 0a14 0023     		movs	r3, #0
 920:../STM32F2xx_HAL_Driver/Src/stm32f2xx_hal_tim_ex.c **** } 
 1699              		.loc 1 920 0
 1700 0a16 1846     		mov	r0, r3
 1701 0a18 0837     		adds	r7, r7, #8
 1702 0a1a BD46     		mov	sp, r7
 1703              		@ sp needed
 1704 0a1c 80BD     		pop	{r7, pc}
 1705              		.cfi_endproc
 1706              	.LFE72:
 1708 0a1e 00BF     		.align	2
 1709              		.global	HAL_TIMEx_PWMN_Start_IT
 1710              		.thumb
 1711              		.thumb_func
 1713              	HAL_TIMEx_PWMN_Start_IT:
 1714              	.LFB73:
 921:../STM32F2xx_HAL_Driver/Src/stm32f2xx_hal_tim_ex.c **** 
 922:../STM32F2xx_HAL_Driver/Src/stm32f2xx_hal_tim_ex.c **** /**
 923:../STM32F2xx_HAL_Driver/Src/stm32f2xx_hal_tim_ex.c ****   * @brief  Starts the PWM signal generation in interrupt mode on the 
 924:../STM32F2xx_HAL_Driver/Src/stm32f2xx_hal_tim_ex.c ****   *         complementary output.
 925:../STM32F2xx_HAL_Driver/Src/stm32f2xx_hal_tim_ex.c ****   * @param  htim : TIM handle
 926:../STM32F2xx_HAL_Driver/Src/stm32f2xx_hal_tim_ex.c ****   * @param  Channel : TIM Channel to be disabled
 927:../STM32F2xx_HAL_Driver/Src/stm32f2xx_hal_tim_ex.c ****   *          This parameter can be one of the following values:
 928:../STM32F2xx_HAL_Driver/Src/stm32f2xx_hal_tim_ex.c ****   *            @arg TIM_CHANNEL_1: TIM Channel 1 selected
 929:../STM32F2xx_HAL_Driver/Src/stm32f2xx_hal_tim_ex.c ****   *            @arg TIM_CHANNEL_2: TIM Channel 2 selected
 930:../STM32F2xx_HAL_Driver/Src/stm32f2xx_hal_tim_ex.c ****   *            @arg TIM_CHANNEL_3: TIM Channel 3 selected
 931:../STM32F2xx_HAL_Driver/Src/stm32f2xx_hal_tim_ex.c ****   *            @arg TIM_CHANNEL_4: TIM Channel 4 selected
 932:../STM32F2xx_HAL_Driver/Src/stm32f2xx_hal_tim_ex.c ****   * @retval HAL status
 933:../STM32F2xx_HAL_Driver/Src/stm32f2xx_hal_tim_ex.c ****   */
 934:../STM32F2xx_HAL_Driver/Src/stm32f2xx_hal_tim_ex.c **** HAL_StatusTypeDef HAL_TIMEx_PWMN_Start_IT(TIM_HandleTypeDef *htim, uint32_t Channel)
 935:../STM32F2xx_HAL_Driver/Src/stm32f2xx_hal_tim_ex.c **** {
 1715              		.loc 1 935 0
 1716              		.cfi_startproc
 1717              		@ args = 0, pretend = 0, frame = 8
 1718              		@ frame_needed = 1, uses_anonymous_args = 0
 1719 0a20 80B5     		push	{r7, lr}
 1720              		.cfi_def_cfa_offset 8
 1721              		.cfi_offset 7, -8
 1722              		.cfi_offset 14, -4
 1723 0a22 82B0     		sub	sp, sp, #8
 1724              		.cfi_def_cfa_offset 16
 1725 0a24 00AF     		add	r7, sp, #0
 1726              		.cfi_def_cfa_register 7
 1727 0a26 7860     		str	r0, [r7, #4]
 1728 0a28 3960     		str	r1, [r7]
 936:../STM32F2xx_HAL_Driver/Src/stm32f2xx_hal_tim_ex.c ****   /* Check the parameters */
 937:../STM32F2xx_HAL_Driver/Src/stm32f2xx_hal_tim_ex.c ****   assert_param(IS_TIM_CCXN_INSTANCE(htim->Instance, Channel)); 
 938:../STM32F2xx_HAL_Driver/Src/stm32f2xx_hal_tim_ex.c ****   
 939:../STM32F2xx_HAL_Driver/Src/stm32f2xx_hal_tim_ex.c ****   switch (Channel)
 1729              		.loc 1 939 0
 1730 0a2a 3B68     		ldr	r3, [r7]
 1731 0a2c 0C2B     		cmp	r3, #12
 1732 0a2e 41D8     		bhi	.L96
 1733 0a30 01A2     		adr	r2, .L90
 1734 0a32 52F823F0 		ldr	pc, [r2, r3, lsl #2]
 1735 0a36 00BF     		.p2align 2
 1736              	.L90:
 1737 0a38 6D0A0000 		.word	.L89+1
 1738 0a3c B50A0000 		.word	.L96+1
 1739 0a40 B50A0000 		.word	.L96+1
 1740 0a44 B50A0000 		.word	.L96+1
 1741 0a48 7F0A0000 		.word	.L91+1
 1742 0a4c B50A0000 		.word	.L96+1
 1743 0a50 B50A0000 		.word	.L96+1
 1744 0a54 B50A0000 		.word	.L96+1
 1745 0a58 910A0000 		.word	.L92+1
 1746 0a5c B50A0000 		.word	.L96+1
 1747 0a60 B50A0000 		.word	.L96+1
 1748 0a64 B50A0000 		.word	.L96+1
 1749 0a68 A30A0000 		.word	.L93+1
 1750              	.L89:
 940:../STM32F2xx_HAL_Driver/Src/stm32f2xx_hal_tim_ex.c ****   {
 941:../STM32F2xx_HAL_Driver/Src/stm32f2xx_hal_tim_ex.c ****     case TIM_CHANNEL_1:
 942:../STM32F2xx_HAL_Driver/Src/stm32f2xx_hal_tim_ex.c ****     {       
 943:../STM32F2xx_HAL_Driver/Src/stm32f2xx_hal_tim_ex.c ****       /* Enable the TIM Capture/Compare 1 interrupt */
 944:../STM32F2xx_HAL_Driver/Src/stm32f2xx_hal_tim_ex.c ****       __HAL_TIM_ENABLE_IT(htim, TIM_IT_CC1);
 1751              		.loc 1 944 0
 1752 0a6c 7B68     		ldr	r3, [r7, #4]
 1753 0a6e 1B68     		ldr	r3, [r3]
 1754 0a70 7A68     		ldr	r2, [r7, #4]
 1755 0a72 1268     		ldr	r2, [r2]
 1756 0a74 D268     		ldr	r2, [r2, #12]
 1757 0a76 42F00202 		orr	r2, r2, #2
 1758 0a7a DA60     		str	r2, [r3, #12]
 945:../STM32F2xx_HAL_Driver/Src/stm32f2xx_hal_tim_ex.c ****     }
 946:../STM32F2xx_HAL_Driver/Src/stm32f2xx_hal_tim_ex.c ****     break;
 1759              		.loc 1 946 0
 1760 0a7c 1BE0     		b	.L94
 1761              	.L91:
 947:../STM32F2xx_HAL_Driver/Src/stm32f2xx_hal_tim_ex.c ****     
 948:../STM32F2xx_HAL_Driver/Src/stm32f2xx_hal_tim_ex.c ****     case TIM_CHANNEL_2:
 949:../STM32F2xx_HAL_Driver/Src/stm32f2xx_hal_tim_ex.c ****     {
 950:../STM32F2xx_HAL_Driver/Src/stm32f2xx_hal_tim_ex.c ****       /* Enable the TIM Capture/Compare 2 interrupt */
 951:../STM32F2xx_HAL_Driver/Src/stm32f2xx_hal_tim_ex.c ****       __HAL_TIM_ENABLE_IT(htim, TIM_IT_CC2);
 1762              		.loc 1 951 0
 1763 0a7e 7B68     		ldr	r3, [r7, #4]
 1764 0a80 1B68     		ldr	r3, [r3]
 1765 0a82 7A68     		ldr	r2, [r7, #4]
 1766 0a84 1268     		ldr	r2, [r2]
 1767 0a86 D268     		ldr	r2, [r2, #12]
 1768 0a88 42F00402 		orr	r2, r2, #4
 1769 0a8c DA60     		str	r2, [r3, #12]
 952:../STM32F2xx_HAL_Driver/Src/stm32f2xx_hal_tim_ex.c ****     }
 953:../STM32F2xx_HAL_Driver/Src/stm32f2xx_hal_tim_ex.c ****     break;
 1770              		.loc 1 953 0
 1771 0a8e 12E0     		b	.L94
 1772              	.L92:
 954:../STM32F2xx_HAL_Driver/Src/stm32f2xx_hal_tim_ex.c ****     
 955:../STM32F2xx_HAL_Driver/Src/stm32f2xx_hal_tim_ex.c ****     case TIM_CHANNEL_3:
 956:../STM32F2xx_HAL_Driver/Src/stm32f2xx_hal_tim_ex.c ****     {
 957:../STM32F2xx_HAL_Driver/Src/stm32f2xx_hal_tim_ex.c ****       /* Enable the TIM Capture/Compare 3 interrupt */
 958:../STM32F2xx_HAL_Driver/Src/stm32f2xx_hal_tim_ex.c ****       __HAL_TIM_ENABLE_IT(htim, TIM_IT_CC3);
 1773              		.loc 1 958 0
 1774 0a90 7B68     		ldr	r3, [r7, #4]
 1775 0a92 1B68     		ldr	r3, [r3]
 1776 0a94 7A68     		ldr	r2, [r7, #4]
 1777 0a96 1268     		ldr	r2, [r2]
 1778 0a98 D268     		ldr	r2, [r2, #12]
 1779 0a9a 42F00802 		orr	r2, r2, #8
 1780 0a9e DA60     		str	r2, [r3, #12]
 959:../STM32F2xx_HAL_Driver/Src/stm32f2xx_hal_tim_ex.c ****     }
 960:../STM32F2xx_HAL_Driver/Src/stm32f2xx_hal_tim_ex.c ****     break;
 1781              		.loc 1 960 0
 1782 0aa0 09E0     		b	.L94
 1783              	.L93:
 961:../STM32F2xx_HAL_Driver/Src/stm32f2xx_hal_tim_ex.c ****     
 962:../STM32F2xx_HAL_Driver/Src/stm32f2xx_hal_tim_ex.c ****     case TIM_CHANNEL_4:
 963:../STM32F2xx_HAL_Driver/Src/stm32f2xx_hal_tim_ex.c ****     {
 964:../STM32F2xx_HAL_Driver/Src/stm32f2xx_hal_tim_ex.c ****       /* Enable the TIM Capture/Compare 4 interrupt */
 965:../STM32F2xx_HAL_Driver/Src/stm32f2xx_hal_tim_ex.c ****       __HAL_TIM_ENABLE_IT(htim, TIM_IT_CC4);
 1784              		.loc 1 965 0
 1785 0aa2 7B68     		ldr	r3, [r7, #4]
 1786 0aa4 1B68     		ldr	r3, [r3]
 1787 0aa6 7A68     		ldr	r2, [r7, #4]
 1788 0aa8 1268     		ldr	r2, [r2]
 1789 0aaa D268     		ldr	r2, [r2, #12]
 1790 0aac 42F01002 		orr	r2, r2, #16
 1791 0ab0 DA60     		str	r2, [r3, #12]
 966:../STM32F2xx_HAL_Driver/Src/stm32f2xx_hal_tim_ex.c ****     }
 967:../STM32F2xx_HAL_Driver/Src/stm32f2xx_hal_tim_ex.c ****     break;
 1792              		.loc 1 967 0
 1793 0ab2 00E0     		b	.L94
 1794              	.L96:
 968:../STM32F2xx_HAL_Driver/Src/stm32f2xx_hal_tim_ex.c ****     
 969:../STM32F2xx_HAL_Driver/Src/stm32f2xx_hal_tim_ex.c ****     default:
 970:../STM32F2xx_HAL_Driver/Src/stm32f2xx_hal_tim_ex.c ****     break;
 1795              		.loc 1 970 0
 1796 0ab4 00BF     		nop
 1797              	.L94:
 971:../STM32F2xx_HAL_Driver/Src/stm32f2xx_hal_tim_ex.c ****   } 
 972:../STM32F2xx_HAL_Driver/Src/stm32f2xx_hal_tim_ex.c ****   
 973:../STM32F2xx_HAL_Driver/Src/stm32f2xx_hal_tim_ex.c ****   /* Enable the TIM Break interrupt */
 974:../STM32F2xx_HAL_Driver/Src/stm32f2xx_hal_tim_ex.c ****   __HAL_TIM_ENABLE_IT(htim, TIM_IT_BREAK);
 1798              		.loc 1 974 0
 1799 0ab6 7B68     		ldr	r3, [r7, #4]
 1800 0ab8 1B68     		ldr	r3, [r3]
 1801 0aba 7A68     		ldr	r2, [r7, #4]
 1802 0abc 1268     		ldr	r2, [r2]
 1803 0abe D268     		ldr	r2, [r2, #12]
 1804 0ac0 42F08002 		orr	r2, r2, #128
 1805 0ac4 DA60     		str	r2, [r3, #12]
 975:../STM32F2xx_HAL_Driver/Src/stm32f2xx_hal_tim_ex.c ****   
 976:../STM32F2xx_HAL_Driver/Src/stm32f2xx_hal_tim_ex.c ****   /* Enable the complementary PWM output  */
 977:../STM32F2xx_HAL_Driver/Src/stm32f2xx_hal_tim_ex.c ****   TIM_CCxNChannelCmd(htim->Instance, Channel, TIM_CCxN_ENABLE);
 1806              		.loc 1 977 0
 1807 0ac6 7B68     		ldr	r3, [r7, #4]
 1808 0ac8 1B68     		ldr	r3, [r3]
 1809 0aca 1846     		mov	r0, r3
 1810 0acc 3968     		ldr	r1, [r7]
 1811 0ace 0422     		movs	r2, #4
 1812 0ad0 00F0D4FC 		bl	TIM_CCxNChannelCmd
 978:../STM32F2xx_HAL_Driver/Src/stm32f2xx_hal_tim_ex.c ****   
 979:../STM32F2xx_HAL_Driver/Src/stm32f2xx_hal_tim_ex.c ****   /* Enable the Main Ouput */
 980:../STM32F2xx_HAL_Driver/Src/stm32f2xx_hal_tim_ex.c ****   __HAL_TIM_MOE_ENABLE(htim);
 1813              		.loc 1 980 0
 1814 0ad4 7B68     		ldr	r3, [r7, #4]
 1815 0ad6 1B68     		ldr	r3, [r3]
 1816 0ad8 7A68     		ldr	r2, [r7, #4]
 1817 0ada 1268     		ldr	r2, [r2]
 1818 0adc 526C     		ldr	r2, [r2, #68]
 1819 0ade 42F40042 		orr	r2, r2, #32768
 1820 0ae2 5A64     		str	r2, [r3, #68]
 981:../STM32F2xx_HAL_Driver/Src/stm32f2xx_hal_tim_ex.c ****   
 982:../STM32F2xx_HAL_Driver/Src/stm32f2xx_hal_tim_ex.c ****   /* Enable the Peripheral */
 983:../STM32F2xx_HAL_Driver/Src/stm32f2xx_hal_tim_ex.c ****   __HAL_TIM_ENABLE(htim);
 1821              		.loc 1 983 0
 1822 0ae4 7B68     		ldr	r3, [r7, #4]
 1823 0ae6 1B68     		ldr	r3, [r3]
 1824 0ae8 7A68     		ldr	r2, [r7, #4]
 1825 0aea 1268     		ldr	r2, [r2]
 1826 0aec 1268     		ldr	r2, [r2]
 1827 0aee 42F00102 		orr	r2, r2, #1
 1828 0af2 1A60     		str	r2, [r3]
 984:../STM32F2xx_HAL_Driver/Src/stm32f2xx_hal_tim_ex.c ****   
 985:../STM32F2xx_HAL_Driver/Src/stm32f2xx_hal_tim_ex.c ****   /* Return function status */
 986:../STM32F2xx_HAL_Driver/Src/stm32f2xx_hal_tim_ex.c ****   return HAL_OK;
 1829              		.loc 1 986 0
 1830 0af4 0023     		movs	r3, #0
 987:../STM32F2xx_HAL_Driver/Src/stm32f2xx_hal_tim_ex.c **** } 
 1831              		.loc 1 987 0
 1832 0af6 1846     		mov	r0, r3
 1833 0af8 0837     		adds	r7, r7, #8
 1834 0afa BD46     		mov	sp, r7
 1835              		@ sp needed
 1836 0afc 80BD     		pop	{r7, pc}
 1837              		.cfi_endproc
 1838              	.LFE73:
 1840 0afe 00BF     		.align	2
 1841              		.global	HAL_TIMEx_PWMN_Stop_IT
 1842              		.thumb
 1843              		.thumb_func
 1845              	HAL_TIMEx_PWMN_Stop_IT:
 1846              	.LFB74:
 988:../STM32F2xx_HAL_Driver/Src/stm32f2xx_hal_tim_ex.c **** 
 989:../STM32F2xx_HAL_Driver/Src/stm32f2xx_hal_tim_ex.c **** /**
 990:../STM32F2xx_HAL_Driver/Src/stm32f2xx_hal_tim_ex.c ****   * @brief  Stops the PWM signal generation in interrupt mode on the 
 991:../STM32F2xx_HAL_Driver/Src/stm32f2xx_hal_tim_ex.c ****   *         complementary output.
 992:../STM32F2xx_HAL_Driver/Src/stm32f2xx_hal_tim_ex.c ****   * @param  htim : TIM handle
 993:../STM32F2xx_HAL_Driver/Src/stm32f2xx_hal_tim_ex.c ****   * @param  Channel : TIM Channel to be disabled
 994:../STM32F2xx_HAL_Driver/Src/stm32f2xx_hal_tim_ex.c ****   *          This parameter can be one of the following values:
 995:../STM32F2xx_HAL_Driver/Src/stm32f2xx_hal_tim_ex.c ****   *            @arg TIM_CHANNEL_1: TIM Channel 1 selected
 996:../STM32F2xx_HAL_Driver/Src/stm32f2xx_hal_tim_ex.c ****   *            @arg TIM_CHANNEL_2: TIM Channel 2 selected
 997:../STM32F2xx_HAL_Driver/Src/stm32f2xx_hal_tim_ex.c ****   *            @arg TIM_CHANNEL_3: TIM Channel 3 selected
 998:../STM32F2xx_HAL_Driver/Src/stm32f2xx_hal_tim_ex.c ****   *            @arg TIM_CHANNEL_4: TIM Channel 4 selected
 999:../STM32F2xx_HAL_Driver/Src/stm32f2xx_hal_tim_ex.c ****   * @retval HAL status
1000:../STM32F2xx_HAL_Driver/Src/stm32f2xx_hal_tim_ex.c ****   */
1001:../STM32F2xx_HAL_Driver/Src/stm32f2xx_hal_tim_ex.c **** HAL_StatusTypeDef HAL_TIMEx_PWMN_Stop_IT (TIM_HandleTypeDef *htim, uint32_t Channel)
1002:../STM32F2xx_HAL_Driver/Src/stm32f2xx_hal_tim_ex.c **** {
 1847              		.loc 1 1002 0
 1848              		.cfi_startproc
 1849              		@ args = 0, pretend = 0, frame = 8
 1850              		@ frame_needed = 1, uses_anonymous_args = 0
 1851 0b00 80B5     		push	{r7, lr}
 1852              		.cfi_def_cfa_offset 8
 1853              		.cfi_offset 7, -8
 1854              		.cfi_offset 14, -4
 1855 0b02 82B0     		sub	sp, sp, #8
 1856              		.cfi_def_cfa_offset 16
 1857 0b04 00AF     		add	r7, sp, #0
 1858              		.cfi_def_cfa_register 7
 1859 0b06 7860     		str	r0, [r7, #4]
 1860 0b08 3960     		str	r1, [r7]
1003:../STM32F2xx_HAL_Driver/Src/stm32f2xx_hal_tim_ex.c ****   /* Check the parameters */
1004:../STM32F2xx_HAL_Driver/Src/stm32f2xx_hal_tim_ex.c ****   assert_param(IS_TIM_CCXN_INSTANCE(htim->Instance, Channel)); 
1005:../STM32F2xx_HAL_Driver/Src/stm32f2xx_hal_tim_ex.c **** 
1006:../STM32F2xx_HAL_Driver/Src/stm32f2xx_hal_tim_ex.c ****   switch (Channel)
 1861              		.loc 1 1006 0
 1862 0b0a 3B68     		ldr	r3, [r7]
 1863 0b0c 0C2B     		cmp	r3, #12
 1864 0b0e 41D8     		bhi	.L108
 1865 0b10 01A2     		adr	r2, .L100
 1866 0b12 52F823F0 		ldr	pc, [r2, r3, lsl #2]
 1867 0b16 00BF     		.p2align 2
 1868              	.L100:
 1869 0b18 4D0B0000 		.word	.L99+1
 1870 0b1c 950B0000 		.word	.L108+1
 1871 0b20 950B0000 		.word	.L108+1
 1872 0b24 950B0000 		.word	.L108+1
 1873 0b28 5F0B0000 		.word	.L101+1
 1874 0b2c 950B0000 		.word	.L108+1
 1875 0b30 950B0000 		.word	.L108+1
 1876 0b34 950B0000 		.word	.L108+1
 1877 0b38 710B0000 		.word	.L102+1
 1878 0b3c 950B0000 		.word	.L108+1
 1879 0b40 950B0000 		.word	.L108+1
 1880 0b44 950B0000 		.word	.L108+1
 1881 0b48 830B0000 		.word	.L103+1
 1882              	.L99:
1007:../STM32F2xx_HAL_Driver/Src/stm32f2xx_hal_tim_ex.c ****   {
1008:../STM32F2xx_HAL_Driver/Src/stm32f2xx_hal_tim_ex.c ****     case TIM_CHANNEL_1:
1009:../STM32F2xx_HAL_Driver/Src/stm32f2xx_hal_tim_ex.c ****     {       
1010:../STM32F2xx_HAL_Driver/Src/stm32f2xx_hal_tim_ex.c ****       /* Disable the TIM Capture/Compare 1 interrupt */
1011:../STM32F2xx_HAL_Driver/Src/stm32f2xx_hal_tim_ex.c ****       __HAL_TIM_DISABLE_IT(htim, TIM_IT_CC1);
 1883              		.loc 1 1011 0
 1884 0b4c 7B68     		ldr	r3, [r7, #4]
 1885 0b4e 1B68     		ldr	r3, [r3]
 1886 0b50 7A68     		ldr	r2, [r7, #4]
 1887 0b52 1268     		ldr	r2, [r2]
 1888 0b54 D268     		ldr	r2, [r2, #12]
 1889 0b56 22F00202 		bic	r2, r2, #2
 1890 0b5a DA60     		str	r2, [r3, #12]
1012:../STM32F2xx_HAL_Driver/Src/stm32f2xx_hal_tim_ex.c ****     }
1013:../STM32F2xx_HAL_Driver/Src/stm32f2xx_hal_tim_ex.c ****     break;
 1891              		.loc 1 1013 0
 1892 0b5c 1BE0     		b	.L104
 1893              	.L101:
1014:../STM32F2xx_HAL_Driver/Src/stm32f2xx_hal_tim_ex.c ****     
1015:../STM32F2xx_HAL_Driver/Src/stm32f2xx_hal_tim_ex.c ****     case TIM_CHANNEL_2:
1016:../STM32F2xx_HAL_Driver/Src/stm32f2xx_hal_tim_ex.c ****     {
1017:../STM32F2xx_HAL_Driver/Src/stm32f2xx_hal_tim_ex.c ****       /* Disable the TIM Capture/Compare 2 interrupt */
1018:../STM32F2xx_HAL_Driver/Src/stm32f2xx_hal_tim_ex.c ****       __HAL_TIM_DISABLE_IT(htim, TIM_IT_CC2);
 1894              		.loc 1 1018 0
 1895 0b5e 7B68     		ldr	r3, [r7, #4]
 1896 0b60 1B68     		ldr	r3, [r3]
 1897 0b62 7A68     		ldr	r2, [r7, #4]
 1898 0b64 1268     		ldr	r2, [r2]
 1899 0b66 D268     		ldr	r2, [r2, #12]
 1900 0b68 22F00402 		bic	r2, r2, #4
 1901 0b6c DA60     		str	r2, [r3, #12]
1019:../STM32F2xx_HAL_Driver/Src/stm32f2xx_hal_tim_ex.c ****     }
1020:../STM32F2xx_HAL_Driver/Src/stm32f2xx_hal_tim_ex.c ****     break;
 1902              		.loc 1 1020 0
 1903 0b6e 12E0     		b	.L104
 1904              	.L102:
1021:../STM32F2xx_HAL_Driver/Src/stm32f2xx_hal_tim_ex.c ****     
1022:../STM32F2xx_HAL_Driver/Src/stm32f2xx_hal_tim_ex.c ****     case TIM_CHANNEL_3:
1023:../STM32F2xx_HAL_Driver/Src/stm32f2xx_hal_tim_ex.c ****     {
1024:../STM32F2xx_HAL_Driver/Src/stm32f2xx_hal_tim_ex.c ****       /* Disable the TIM Capture/Compare 3 interrupt */
1025:../STM32F2xx_HAL_Driver/Src/stm32f2xx_hal_tim_ex.c ****       __HAL_TIM_DISABLE_IT(htim, TIM_IT_CC3);
 1905              		.loc 1 1025 0
 1906 0b70 7B68     		ldr	r3, [r7, #4]
 1907 0b72 1B68     		ldr	r3, [r3]
 1908 0b74 7A68     		ldr	r2, [r7, #4]
 1909 0b76 1268     		ldr	r2, [r2]
 1910 0b78 D268     		ldr	r2, [r2, #12]
 1911 0b7a 22F00802 		bic	r2, r2, #8
 1912 0b7e DA60     		str	r2, [r3, #12]
1026:../STM32F2xx_HAL_Driver/Src/stm32f2xx_hal_tim_ex.c ****     }
1027:../STM32F2xx_HAL_Driver/Src/stm32f2xx_hal_tim_ex.c ****     break;
 1913              		.loc 1 1027 0
 1914 0b80 09E0     		b	.L104
 1915              	.L103:
1028:../STM32F2xx_HAL_Driver/Src/stm32f2xx_hal_tim_ex.c ****     
1029:../STM32F2xx_HAL_Driver/Src/stm32f2xx_hal_tim_ex.c ****     case TIM_CHANNEL_4:
1030:../STM32F2xx_HAL_Driver/Src/stm32f2xx_hal_tim_ex.c ****     {
1031:../STM32F2xx_HAL_Driver/Src/stm32f2xx_hal_tim_ex.c ****       /* Disable the TIM Capture/Compare 3 interrupt */
1032:../STM32F2xx_HAL_Driver/Src/stm32f2xx_hal_tim_ex.c ****       __HAL_TIM_DISABLE_IT(htim, TIM_IT_CC4);
 1916              		.loc 1 1032 0
 1917 0b82 7B68     		ldr	r3, [r7, #4]
 1918 0b84 1B68     		ldr	r3, [r3]
 1919 0b86 7A68     		ldr	r2, [r7, #4]
 1920 0b88 1268     		ldr	r2, [r2]
 1921 0b8a D268     		ldr	r2, [r2, #12]
 1922 0b8c 22F01002 		bic	r2, r2, #16
 1923 0b90 DA60     		str	r2, [r3, #12]
1033:../STM32F2xx_HAL_Driver/Src/stm32f2xx_hal_tim_ex.c ****     }
1034:../STM32F2xx_HAL_Driver/Src/stm32f2xx_hal_tim_ex.c ****     break;
 1924              		.loc 1 1034 0
 1925 0b92 00E0     		b	.L104
 1926              	.L108:
1035:../STM32F2xx_HAL_Driver/Src/stm32f2xx_hal_tim_ex.c ****     
1036:../STM32F2xx_HAL_Driver/Src/stm32f2xx_hal_tim_ex.c ****     default:
1037:../STM32F2xx_HAL_Driver/Src/stm32f2xx_hal_tim_ex.c ****     break; 
 1927              		.loc 1 1037 0
 1928 0b94 00BF     		nop
 1929              	.L104:
1038:../STM32F2xx_HAL_Driver/Src/stm32f2xx_hal_tim_ex.c ****   }
1039:../STM32F2xx_HAL_Driver/Src/stm32f2xx_hal_tim_ex.c ****   
1040:../STM32F2xx_HAL_Driver/Src/stm32f2xx_hal_tim_ex.c ****   /* Disable the TIM Break interrupt */
1041:../STM32F2xx_HAL_Driver/Src/stm32f2xx_hal_tim_ex.c ****   __HAL_TIM_DISABLE_IT(htim, TIM_IT_BREAK);
 1930              		.loc 1 1041 0
 1931 0b96 7B68     		ldr	r3, [r7, #4]
 1932 0b98 1B68     		ldr	r3, [r3]
 1933 0b9a 7A68     		ldr	r2, [r7, #4]
 1934 0b9c 1268     		ldr	r2, [r2]
 1935 0b9e D268     		ldr	r2, [r2, #12]
 1936 0ba0 22F08002 		bic	r2, r2, #128
 1937 0ba4 DA60     		str	r2, [r3, #12]
1042:../STM32F2xx_HAL_Driver/Src/stm32f2xx_hal_tim_ex.c ****   
1043:../STM32F2xx_HAL_Driver/Src/stm32f2xx_hal_tim_ex.c ****   /* Disable the complementary PWM output  */
1044:../STM32F2xx_HAL_Driver/Src/stm32f2xx_hal_tim_ex.c ****   TIM_CCxNChannelCmd(htim->Instance, Channel, TIM_CCxN_DISABLE);
 1938              		.loc 1 1044 0
 1939 0ba6 7B68     		ldr	r3, [r7, #4]
 1940 0ba8 1B68     		ldr	r3, [r3]
 1941 0baa 1846     		mov	r0, r3
 1942 0bac 3968     		ldr	r1, [r7]
 1943 0bae 0022     		movs	r2, #0
 1944 0bb0 00F064FC 		bl	TIM_CCxNChannelCmd
1045:../STM32F2xx_HAL_Driver/Src/stm32f2xx_hal_tim_ex.c ****   
1046:../STM32F2xx_HAL_Driver/Src/stm32f2xx_hal_tim_ex.c ****   /* Disable the Main Ouput */
1047:../STM32F2xx_HAL_Driver/Src/stm32f2xx_hal_tim_ex.c ****   __HAL_TIM_MOE_DISABLE(htim);
 1945              		.loc 1 1047 0
 1946 0bb4 7B68     		ldr	r3, [r7, #4]
 1947 0bb6 1B68     		ldr	r3, [r3]
 1948 0bb8 1A6A     		ldr	r2, [r3, #32]
 1949 0bba 41F21113 		movw	r3, #4369
 1950 0bbe 1340     		ands	r3, r3, r2
 1951 0bc0 002B     		cmp	r3, #0
 1952 0bc2 0FD1     		bne	.L105
 1953              		.loc 1 1047 0 is_stmt 0 discriminator 1
 1954 0bc4 7B68     		ldr	r3, [r7, #4]
 1955 0bc6 1B68     		ldr	r3, [r3]
 1956 0bc8 1A6A     		ldr	r2, [r3, #32]
 1957 0bca 40F24443 		movw	r3, #1092
 1958 0bce 1340     		ands	r3, r3, r2
 1959 0bd0 002B     		cmp	r3, #0
 1960 0bd2 07D1     		bne	.L105
 1961 0bd4 7B68     		ldr	r3, [r7, #4]
 1962 0bd6 1B68     		ldr	r3, [r3]
 1963 0bd8 7A68     		ldr	r2, [r7, #4]
 1964 0bda 1268     		ldr	r2, [r2]
 1965 0bdc 526C     		ldr	r2, [r2, #68]
 1966 0bde 22F40042 		bic	r2, r2, #32768
 1967 0be2 5A64     		str	r2, [r3, #68]
 1968              	.L105:
1048:../STM32F2xx_HAL_Driver/Src/stm32f2xx_hal_tim_ex.c ****   
1049:../STM32F2xx_HAL_Driver/Src/stm32f2xx_hal_tim_ex.c ****   /* Disable the Peripheral */
1050:../STM32F2xx_HAL_Driver/Src/stm32f2xx_hal_tim_ex.c ****   __HAL_TIM_DISABLE(htim);
 1969              		.loc 1 1050 0 is_stmt 1
 1970 0be4 7B68     		ldr	r3, [r7, #4]
 1971 0be6 1B68     		ldr	r3, [r3]
 1972 0be8 1A6A     		ldr	r2, [r3, #32]
 1973 0bea 41F21113 		movw	r3, #4369
 1974 0bee 1340     		ands	r3, r3, r2
 1975 0bf0 002B     		cmp	r3, #0
 1976 0bf2 0FD1     		bne	.L106
 1977              		.loc 1 1050 0 is_stmt 0 discriminator 1
 1978 0bf4 7B68     		ldr	r3, [r7, #4]
 1979 0bf6 1B68     		ldr	r3, [r3]
 1980 0bf8 1A6A     		ldr	r2, [r3, #32]
 1981 0bfa 40F24443 		movw	r3, #1092
 1982 0bfe 1340     		ands	r3, r3, r2
 1983 0c00 002B     		cmp	r3, #0
 1984 0c02 07D1     		bne	.L106
 1985 0c04 7B68     		ldr	r3, [r7, #4]
 1986 0c06 1B68     		ldr	r3, [r3]
 1987 0c08 7A68     		ldr	r2, [r7, #4]
 1988 0c0a 1268     		ldr	r2, [r2]
 1989 0c0c 1268     		ldr	r2, [r2]
 1990 0c0e 22F00102 		bic	r2, r2, #1
 1991 0c12 1A60     		str	r2, [r3]
 1992              	.L106:
1051:../STM32F2xx_HAL_Driver/Src/stm32f2xx_hal_tim_ex.c ****   
1052:../STM32F2xx_HAL_Driver/Src/stm32f2xx_hal_tim_ex.c ****   /* Return function status */
1053:../STM32F2xx_HAL_Driver/Src/stm32f2xx_hal_tim_ex.c ****   return HAL_OK;
 1993              		.loc 1 1053 0 is_stmt 1
 1994 0c14 0023     		movs	r3, #0
1054:../STM32F2xx_HAL_Driver/Src/stm32f2xx_hal_tim_ex.c **** } 
 1995              		.loc 1 1054 0
 1996 0c16 1846     		mov	r0, r3
 1997 0c18 0837     		adds	r7, r7, #8
 1998 0c1a BD46     		mov	sp, r7
 1999              		@ sp needed
 2000 0c1c 80BD     		pop	{r7, pc}
 2001              		.cfi_endproc
 2002              	.LFE74:
 2004 0c1e 00BF     		.align	2
 2005              		.global	HAL_TIMEx_PWMN_Start_DMA
 2006              		.thumb
 2007              		.thumb_func
 2009              	HAL_TIMEx_PWMN_Start_DMA:
 2010              	.LFB75:
1055:../STM32F2xx_HAL_Driver/Src/stm32f2xx_hal_tim_ex.c **** 
1056:../STM32F2xx_HAL_Driver/Src/stm32f2xx_hal_tim_ex.c **** /**
1057:../STM32F2xx_HAL_Driver/Src/stm32f2xx_hal_tim_ex.c ****   * @brief  Starts the TIM PWM signal generation in DMA mode on the 
1058:../STM32F2xx_HAL_Driver/Src/stm32f2xx_hal_tim_ex.c ****   *         complementary output
1059:../STM32F2xx_HAL_Driver/Src/stm32f2xx_hal_tim_ex.c ****   * @param  htim : TIM handle
1060:../STM32F2xx_HAL_Driver/Src/stm32f2xx_hal_tim_ex.c ****   * @param  Channel : TIM Channel to be enabled
1061:../STM32F2xx_HAL_Driver/Src/stm32f2xx_hal_tim_ex.c ****   *          This parameter can be one of the following values:
1062:../STM32F2xx_HAL_Driver/Src/stm32f2xx_hal_tim_ex.c ****   *            @arg TIM_CHANNEL_1: TIM Channel 1 selected
1063:../STM32F2xx_HAL_Driver/Src/stm32f2xx_hal_tim_ex.c ****   *            @arg TIM_CHANNEL_2: TIM Channel 2 selected
1064:../STM32F2xx_HAL_Driver/Src/stm32f2xx_hal_tim_ex.c ****   *            @arg TIM_CHANNEL_3: TIM Channel 3 selected
1065:../STM32F2xx_HAL_Driver/Src/stm32f2xx_hal_tim_ex.c ****   *            @arg TIM_CHANNEL_4: TIM Channel 4 selected
1066:../STM32F2xx_HAL_Driver/Src/stm32f2xx_hal_tim_ex.c ****   * @param  pData: The source Buffer address.
1067:../STM32F2xx_HAL_Driver/Src/stm32f2xx_hal_tim_ex.c ****   * @param  Length: The length of data to be transferred from memory to TIM peripheral
1068:../STM32F2xx_HAL_Driver/Src/stm32f2xx_hal_tim_ex.c ****   * @retval HAL status
1069:../STM32F2xx_HAL_Driver/Src/stm32f2xx_hal_tim_ex.c ****   */
1070:../STM32F2xx_HAL_Driver/Src/stm32f2xx_hal_tim_ex.c **** HAL_StatusTypeDef HAL_TIMEx_PWMN_Start_DMA(TIM_HandleTypeDef *htim, uint32_t Channel, uint32_t *pDa
1071:../STM32F2xx_HAL_Driver/Src/stm32f2xx_hal_tim_ex.c **** {
 2011              		.loc 1 1071 0
 2012              		.cfi_startproc
 2013              		@ args = 0, pretend = 0, frame = 16
 2014              		@ frame_needed = 1, uses_anonymous_args = 0
 2015 0c20 80B5     		push	{r7, lr}
 2016              		.cfi_def_cfa_offset 8
 2017              		.cfi_offset 7, -8
 2018              		.cfi_offset 14, -4
 2019 0c22 84B0     		sub	sp, sp, #16
 2020              		.cfi_def_cfa_offset 24
 2021 0c24 00AF     		add	r7, sp, #0
 2022              		.cfi_def_cfa_register 7
 2023 0c26 F860     		str	r0, [r7, #12]
 2024 0c28 B960     		str	r1, [r7, #8]
 2025 0c2a 7A60     		str	r2, [r7, #4]
 2026 0c2c 7B80     		strh	r3, [r7, #2]	@ movhi
1072:../STM32F2xx_HAL_Driver/Src/stm32f2xx_hal_tim_ex.c ****   /* Check the parameters */
1073:../STM32F2xx_HAL_Driver/Src/stm32f2xx_hal_tim_ex.c ****   assert_param(IS_TIM_CCXN_INSTANCE(htim->Instance, Channel)); 
1074:../STM32F2xx_HAL_Driver/Src/stm32f2xx_hal_tim_ex.c ****   
1075:../STM32F2xx_HAL_Driver/Src/stm32f2xx_hal_tim_ex.c ****   if((htim->State == HAL_TIM_STATE_BUSY))
 2027              		.loc 1 1075 0
 2028 0c2e FB68     		ldr	r3, [r7, #12]
 2029 0c30 93F83930 		ldrb	r3, [r3, #57]
 2030 0c34 DBB2     		uxtb	r3, r3
 2031 0c36 022B     		cmp	r3, #2
 2032 0c38 01D1     		bne	.L110
1076:../STM32F2xx_HAL_Driver/Src/stm32f2xx_hal_tim_ex.c ****   {
1077:../STM32F2xx_HAL_Driver/Src/stm32f2xx_hal_tim_ex.c ****      return HAL_BUSY;
 2033              		.loc 1 1077 0
 2034 0c3a 0223     		movs	r3, #2
 2035 0c3c CFE0     		b	.L111
 2036              	.L110:
1078:../STM32F2xx_HAL_Driver/Src/stm32f2xx_hal_tim_ex.c ****   }
1079:../STM32F2xx_HAL_Driver/Src/stm32f2xx_hal_tim_ex.c ****   else if((htim->State == HAL_TIM_STATE_READY))
 2037              		.loc 1 1079 0
 2038 0c3e FB68     		ldr	r3, [r7, #12]
 2039 0c40 93F83930 		ldrb	r3, [r3, #57]
 2040 0c44 DBB2     		uxtb	r3, r3
 2041 0c46 012B     		cmp	r3, #1
 2042 0c48 0BD1     		bne	.L112
1080:../STM32F2xx_HAL_Driver/Src/stm32f2xx_hal_tim_ex.c ****   {
1081:../STM32F2xx_HAL_Driver/Src/stm32f2xx_hal_tim_ex.c ****     if(((uint32_t)pData == 0 ) && (Length > 0)) 
 2043              		.loc 1 1081 0
 2044 0c4a 7B68     		ldr	r3, [r7, #4]
 2045 0c4c 002B     		cmp	r3, #0
 2046 0c4e 04D1     		bne	.L113
 2047              		.loc 1 1081 0 is_stmt 0 discriminator 1
 2048 0c50 7B88     		ldrh	r3, [r7, #2]
 2049 0c52 002B     		cmp	r3, #0
 2050 0c54 01D0     		beq	.L113
1082:../STM32F2xx_HAL_Driver/Src/stm32f2xx_hal_tim_ex.c ****     {
1083:../STM32F2xx_HAL_Driver/Src/stm32f2xx_hal_tim_ex.c ****       return HAL_ERROR;                                    
 2051              		.loc 1 1083 0 is_stmt 1
 2052 0c56 0123     		movs	r3, #1
 2053 0c58 C1E0     		b	.L111
 2054              	.L113:
1084:../STM32F2xx_HAL_Driver/Src/stm32f2xx_hal_tim_ex.c ****     }
1085:../STM32F2xx_HAL_Driver/Src/stm32f2xx_hal_tim_ex.c ****     else
1086:../STM32F2xx_HAL_Driver/Src/stm32f2xx_hal_tim_ex.c ****     {
1087:../STM32F2xx_HAL_Driver/Src/stm32f2xx_hal_tim_ex.c ****       htim->State = HAL_TIM_STATE_BUSY;
 2055              		.loc 1 1087 0
 2056 0c5a FB68     		ldr	r3, [r7, #12]
 2057 0c5c 0222     		movs	r2, #2
 2058 0c5e 83F83920 		strb	r2, [r3, #57]
 2059              	.L112:
1088:../STM32F2xx_HAL_Driver/Src/stm32f2xx_hal_tim_ex.c ****     }
1089:../STM32F2xx_HAL_Driver/Src/stm32f2xx_hal_tim_ex.c ****   }    
1090:../STM32F2xx_HAL_Driver/Src/stm32f2xx_hal_tim_ex.c ****   switch (Channel)
 2060              		.loc 1 1090 0
 2061 0c62 BB68     		ldr	r3, [r7, #8]
 2062 0c64 0C2B     		cmp	r3, #12
 2063 0c66 00F2A180 		bhi	.L121
 2064 0c6a 01A2     		adr	r2, .L116
 2065 0c6c 52F823F0 		ldr	pc, [r2, r3, lsl #2]
 2066              		.p2align 2
 2067              	.L116:
 2068 0c70 A50C0000 		.word	.L115+1
 2069 0c74 AD0D0000 		.word	.L121+1
 2070 0c78 AD0D0000 		.word	.L121+1
 2071 0c7c AD0D0000 		.word	.L121+1
 2072 0c80 E70C0000 		.word	.L117+1
 2073 0c84 AD0D0000 		.word	.L121+1
 2074 0c88 AD0D0000 		.word	.L121+1
 2075 0c8c AD0D0000 		.word	.L121+1
 2076 0c90 290D0000 		.word	.L118+1
 2077 0c94 AD0D0000 		.word	.L121+1
 2078 0c98 AD0D0000 		.word	.L121+1
 2079 0c9c AD0D0000 		.word	.L121+1
 2080 0ca0 6B0D0000 		.word	.L119+1
 2081              	.L115:
1091:../STM32F2xx_HAL_Driver/Src/stm32f2xx_hal_tim_ex.c ****   {
1092:../STM32F2xx_HAL_Driver/Src/stm32f2xx_hal_tim_ex.c ****     case TIM_CHANNEL_1:
1093:../STM32F2xx_HAL_Driver/Src/stm32f2xx_hal_tim_ex.c ****     {      
1094:../STM32F2xx_HAL_Driver/Src/stm32f2xx_hal_tim_ex.c ****       /* Set the DMA Period elapsed callback */
1095:../STM32F2xx_HAL_Driver/Src/stm32f2xx_hal_tim_ex.c ****       htim->hdma[TIM_DMA_ID_CC1]->XferCpltCallback = HAL_TIM_DMADelayPulseCplt;
 2082              		.loc 1 1095 0
 2083 0ca4 FB68     		ldr	r3, [r7, #12]
 2084 0ca6 1A6A     		ldr	r2, [r3, #32]
 2085 0ca8 40F20003 		movw	r3, #:lower16:HAL_TIM_DMADelayPulseCplt
 2086 0cac C0F20003 		movt	r3, #:upper16:HAL_TIM_DMADelayPulseCplt
 2087 0cb0 D363     		str	r3, [r2, #60]
1096:../STM32F2xx_HAL_Driver/Src/stm32f2xx_hal_tim_ex.c ****      
1097:../STM32F2xx_HAL_Driver/Src/stm32f2xx_hal_tim_ex.c ****       /* Set the DMA error callback */
1098:../STM32F2xx_HAL_Driver/Src/stm32f2xx_hal_tim_ex.c ****       htim->hdma[TIM_DMA_ID_CC1]->XferErrorCallback = HAL_TIM_DMAError ;
 2088              		.loc 1 1098 0
 2089 0cb2 FB68     		ldr	r3, [r7, #12]
 2090 0cb4 1A6A     		ldr	r2, [r3, #32]
 2091 0cb6 40F20003 		movw	r3, #:lower16:HAL_TIM_DMAError
 2092 0cba C0F20003 		movt	r3, #:upper16:HAL_TIM_DMAError
 2093 0cbe 9364     		str	r3, [r2, #72]
1099:../STM32F2xx_HAL_Driver/Src/stm32f2xx_hal_tim_ex.c ****       
1100:../STM32F2xx_HAL_Driver/Src/stm32f2xx_hal_tim_ex.c ****       /* Enable the DMA Stream */
1101:../STM32F2xx_HAL_Driver/Src/stm32f2xx_hal_tim_ex.c ****       HAL_DMA_Start_IT(htim->hdma[TIM_DMA_ID_CC1], (uint32_t)pData, (uint32_t)&htim->Instance->CCR1
 2094              		.loc 1 1101 0
 2095 0cc0 FB68     		ldr	r3, [r7, #12]
 2096 0cc2 186A     		ldr	r0, [r3, #32]
 2097 0cc4 7968     		ldr	r1, [r7, #4]
 2098 0cc6 FB68     		ldr	r3, [r7, #12]
 2099 0cc8 1B68     		ldr	r3, [r3]
 2100 0cca 3433     		adds	r3, r3, #52
 2101 0ccc 1A46     		mov	r2, r3
 2102 0cce 7B88     		ldrh	r3, [r7, #2]
 2103 0cd0 FFF7FEFF 		bl	HAL_DMA_Start_IT
1102:../STM32F2xx_HAL_Driver/Src/stm32f2xx_hal_tim_ex.c ****       
1103:../STM32F2xx_HAL_Driver/Src/stm32f2xx_hal_tim_ex.c ****       /* Enable the TIM Capture/Compare 1 DMA request */
1104:../STM32F2xx_HAL_Driver/Src/stm32f2xx_hal_tim_ex.c ****       __HAL_TIM_ENABLE_DMA(htim, TIM_DMA_CC1);
 2104              		.loc 1 1104 0
 2105 0cd4 FB68     		ldr	r3, [r7, #12]
 2106 0cd6 1B68     		ldr	r3, [r3]
 2107 0cd8 FA68     		ldr	r2, [r7, #12]
 2108 0cda 1268     		ldr	r2, [r2]
 2109 0cdc D268     		ldr	r2, [r2, #12]
 2110 0cde 42F40072 		orr	r2, r2, #512
 2111 0ce2 DA60     		str	r2, [r3, #12]
1105:../STM32F2xx_HAL_Driver/Src/stm32f2xx_hal_tim_ex.c ****     }
1106:../STM32F2xx_HAL_Driver/Src/stm32f2xx_hal_tim_ex.c ****     break;
 2112              		.loc 1 1106 0
 2113 0ce4 63E0     		b	.L120
 2114              	.L117:
1107:../STM32F2xx_HAL_Driver/Src/stm32f2xx_hal_tim_ex.c ****     
1108:../STM32F2xx_HAL_Driver/Src/stm32f2xx_hal_tim_ex.c ****     case TIM_CHANNEL_2:
1109:../STM32F2xx_HAL_Driver/Src/stm32f2xx_hal_tim_ex.c ****     {
1110:../STM32F2xx_HAL_Driver/Src/stm32f2xx_hal_tim_ex.c ****       /* Set the DMA Period elapsed callback */
1111:../STM32F2xx_HAL_Driver/Src/stm32f2xx_hal_tim_ex.c ****       htim->hdma[TIM_DMA_ID_CC2]->XferCpltCallback = HAL_TIM_DMADelayPulseCplt;
 2115              		.loc 1 1111 0
 2116 0ce6 FB68     		ldr	r3, [r7, #12]
 2117 0ce8 5A6A     		ldr	r2, [r3, #36]
 2118 0cea 40F20003 		movw	r3, #:lower16:HAL_TIM_DMADelayPulseCplt
 2119 0cee C0F20003 		movt	r3, #:upper16:HAL_TIM_DMADelayPulseCplt
 2120 0cf2 D363     		str	r3, [r2, #60]
1112:../STM32F2xx_HAL_Driver/Src/stm32f2xx_hal_tim_ex.c ****      
1113:../STM32F2xx_HAL_Driver/Src/stm32f2xx_hal_tim_ex.c ****       /* Set the DMA error callback */
1114:../STM32F2xx_HAL_Driver/Src/stm32f2xx_hal_tim_ex.c ****       htim->hdma[TIM_DMA_ID_CC2]->XferErrorCallback = HAL_TIM_DMAError ;
 2121              		.loc 1 1114 0
 2122 0cf4 FB68     		ldr	r3, [r7, #12]
 2123 0cf6 5A6A     		ldr	r2, [r3, #36]
 2124 0cf8 40F20003 		movw	r3, #:lower16:HAL_TIM_DMAError
 2125 0cfc C0F20003 		movt	r3, #:upper16:HAL_TIM_DMAError
 2126 0d00 9364     		str	r3, [r2, #72]
1115:../STM32F2xx_HAL_Driver/Src/stm32f2xx_hal_tim_ex.c ****       
1116:../STM32F2xx_HAL_Driver/Src/stm32f2xx_hal_tim_ex.c ****       /* Enable the DMA Stream */
1117:../STM32F2xx_HAL_Driver/Src/stm32f2xx_hal_tim_ex.c ****       HAL_DMA_Start_IT(htim->hdma[TIM_DMA_ID_CC2], (uint32_t)pData, (uint32_t)&htim->Instance->CCR2
 2127              		.loc 1 1117 0
 2128 0d02 FB68     		ldr	r3, [r7, #12]
 2129 0d04 586A     		ldr	r0, [r3, #36]
 2130 0d06 7968     		ldr	r1, [r7, #4]
 2131 0d08 FB68     		ldr	r3, [r7, #12]
 2132 0d0a 1B68     		ldr	r3, [r3]
 2133 0d0c 3833     		adds	r3, r3, #56
 2134 0d0e 1A46     		mov	r2, r3
 2135 0d10 7B88     		ldrh	r3, [r7, #2]
 2136 0d12 FFF7FEFF 		bl	HAL_DMA_Start_IT
1118:../STM32F2xx_HAL_Driver/Src/stm32f2xx_hal_tim_ex.c ****       
1119:../STM32F2xx_HAL_Driver/Src/stm32f2xx_hal_tim_ex.c ****       /* Enable the TIM Capture/Compare 2 DMA request */
1120:../STM32F2xx_HAL_Driver/Src/stm32f2xx_hal_tim_ex.c ****       __HAL_TIM_ENABLE_DMA(htim, TIM_DMA_CC2);
 2137              		.loc 1 1120 0
 2138 0d16 FB68     		ldr	r3, [r7, #12]
 2139 0d18 1B68     		ldr	r3, [r3]
 2140 0d1a FA68     		ldr	r2, [r7, #12]
 2141 0d1c 1268     		ldr	r2, [r2]
 2142 0d1e D268     		ldr	r2, [r2, #12]
 2143 0d20 42F48062 		orr	r2, r2, #1024
 2144 0d24 DA60     		str	r2, [r3, #12]
1121:../STM32F2xx_HAL_Driver/Src/stm32f2xx_hal_tim_ex.c ****     }
1122:../STM32F2xx_HAL_Driver/Src/stm32f2xx_hal_tim_ex.c ****     break;
 2145              		.loc 1 1122 0
 2146 0d26 42E0     		b	.L120
 2147              	.L118:
1123:../STM32F2xx_HAL_Driver/Src/stm32f2xx_hal_tim_ex.c ****     
1124:../STM32F2xx_HAL_Driver/Src/stm32f2xx_hal_tim_ex.c ****     case TIM_CHANNEL_3:
1125:../STM32F2xx_HAL_Driver/Src/stm32f2xx_hal_tim_ex.c ****     {
1126:../STM32F2xx_HAL_Driver/Src/stm32f2xx_hal_tim_ex.c ****       /* Set the DMA Period elapsed callback */
1127:../STM32F2xx_HAL_Driver/Src/stm32f2xx_hal_tim_ex.c ****       htim->hdma[TIM_DMA_ID_CC3]->XferCpltCallback = HAL_TIM_DMADelayPulseCplt;
 2148              		.loc 1 1127 0
 2149 0d28 FB68     		ldr	r3, [r7, #12]
 2150 0d2a 9A6A     		ldr	r2, [r3, #40]
 2151 0d2c 40F20003 		movw	r3, #:lower16:HAL_TIM_DMADelayPulseCplt
 2152 0d30 C0F20003 		movt	r3, #:upper16:HAL_TIM_DMADelayPulseCplt
 2153 0d34 D363     		str	r3, [r2, #60]
1128:../STM32F2xx_HAL_Driver/Src/stm32f2xx_hal_tim_ex.c ****      
1129:../STM32F2xx_HAL_Driver/Src/stm32f2xx_hal_tim_ex.c ****       /* Set the DMA error callback */
1130:../STM32F2xx_HAL_Driver/Src/stm32f2xx_hal_tim_ex.c ****       htim->hdma[TIM_DMA_ID_CC3]->XferErrorCallback = HAL_TIM_DMAError ;
 2154              		.loc 1 1130 0
 2155 0d36 FB68     		ldr	r3, [r7, #12]
 2156 0d38 9A6A     		ldr	r2, [r3, #40]
 2157 0d3a 40F20003 		movw	r3, #:lower16:HAL_TIM_DMAError
 2158 0d3e C0F20003 		movt	r3, #:upper16:HAL_TIM_DMAError
 2159 0d42 9364     		str	r3, [r2, #72]
1131:../STM32F2xx_HAL_Driver/Src/stm32f2xx_hal_tim_ex.c ****       
1132:../STM32F2xx_HAL_Driver/Src/stm32f2xx_hal_tim_ex.c ****       /* Enable the DMA Stream */
1133:../STM32F2xx_HAL_Driver/Src/stm32f2xx_hal_tim_ex.c ****       HAL_DMA_Start_IT(htim->hdma[TIM_DMA_ID_CC3], (uint32_t)pData, (uint32_t)&htim->Instance->CCR3
 2160              		.loc 1 1133 0
 2161 0d44 FB68     		ldr	r3, [r7, #12]
 2162 0d46 986A     		ldr	r0, [r3, #40]
 2163 0d48 7968     		ldr	r1, [r7, #4]
 2164 0d4a FB68     		ldr	r3, [r7, #12]
 2165 0d4c 1B68     		ldr	r3, [r3]
 2166 0d4e 3C33     		adds	r3, r3, #60
 2167 0d50 1A46     		mov	r2, r3
 2168 0d52 7B88     		ldrh	r3, [r7, #2]
 2169 0d54 FFF7FEFF 		bl	HAL_DMA_Start_IT
1134:../STM32F2xx_HAL_Driver/Src/stm32f2xx_hal_tim_ex.c ****       
1135:../STM32F2xx_HAL_Driver/Src/stm32f2xx_hal_tim_ex.c ****       /* Enable the TIM Capture/Compare 3 DMA request */
1136:../STM32F2xx_HAL_Driver/Src/stm32f2xx_hal_tim_ex.c ****       __HAL_TIM_ENABLE_DMA(htim, TIM_DMA_CC3);
 2170              		.loc 1 1136 0
 2171 0d58 FB68     		ldr	r3, [r7, #12]
 2172 0d5a 1B68     		ldr	r3, [r3]
 2173 0d5c FA68     		ldr	r2, [r7, #12]
 2174 0d5e 1268     		ldr	r2, [r2]
 2175 0d60 D268     		ldr	r2, [r2, #12]
 2176 0d62 42F40062 		orr	r2, r2, #2048
 2177 0d66 DA60     		str	r2, [r3, #12]
1137:../STM32F2xx_HAL_Driver/Src/stm32f2xx_hal_tim_ex.c ****     }
1138:../STM32F2xx_HAL_Driver/Src/stm32f2xx_hal_tim_ex.c ****     break;
 2178              		.loc 1 1138 0
 2179 0d68 21E0     		b	.L120
 2180              	.L119:
1139:../STM32F2xx_HAL_Driver/Src/stm32f2xx_hal_tim_ex.c ****     
1140:../STM32F2xx_HAL_Driver/Src/stm32f2xx_hal_tim_ex.c ****     case TIM_CHANNEL_4:
1141:../STM32F2xx_HAL_Driver/Src/stm32f2xx_hal_tim_ex.c ****     {
1142:../STM32F2xx_HAL_Driver/Src/stm32f2xx_hal_tim_ex.c ****      /* Set the DMA Period elapsed callback */
1143:../STM32F2xx_HAL_Driver/Src/stm32f2xx_hal_tim_ex.c ****       htim->hdma[TIM_DMA_ID_CC4]->XferCpltCallback = HAL_TIM_DMADelayPulseCplt;
 2181              		.loc 1 1143 0
 2182 0d6a FB68     		ldr	r3, [r7, #12]
 2183 0d6c DA6A     		ldr	r2, [r3, #44]
 2184 0d6e 40F20003 		movw	r3, #:lower16:HAL_TIM_DMADelayPulseCplt
 2185 0d72 C0F20003 		movt	r3, #:upper16:HAL_TIM_DMADelayPulseCplt
 2186 0d76 D363     		str	r3, [r2, #60]
1144:../STM32F2xx_HAL_Driver/Src/stm32f2xx_hal_tim_ex.c ****      
1145:../STM32F2xx_HAL_Driver/Src/stm32f2xx_hal_tim_ex.c ****       /* Set the DMA error callback */
1146:../STM32F2xx_HAL_Driver/Src/stm32f2xx_hal_tim_ex.c ****       htim->hdma[TIM_DMA_ID_CC4]->XferErrorCallback = HAL_TIM_DMAError ;
 2187              		.loc 1 1146 0
 2188 0d78 FB68     		ldr	r3, [r7, #12]
 2189 0d7a DA6A     		ldr	r2, [r3, #44]
 2190 0d7c 40F20003 		movw	r3, #:lower16:HAL_TIM_DMAError
 2191 0d80 C0F20003 		movt	r3, #:upper16:HAL_TIM_DMAError
 2192 0d84 9364     		str	r3, [r2, #72]
1147:../STM32F2xx_HAL_Driver/Src/stm32f2xx_hal_tim_ex.c ****       
1148:../STM32F2xx_HAL_Driver/Src/stm32f2xx_hal_tim_ex.c ****       /* Enable the DMA Stream */
1149:../STM32F2xx_HAL_Driver/Src/stm32f2xx_hal_tim_ex.c ****       HAL_DMA_Start_IT(htim->hdma[TIM_DMA_ID_CC4], (uint32_t)pData, (uint32_t)&htim->Instance->CCR4
 2193              		.loc 1 1149 0
 2194 0d86 FB68     		ldr	r3, [r7, #12]
 2195 0d88 D86A     		ldr	r0, [r3, #44]
 2196 0d8a 7968     		ldr	r1, [r7, #4]
 2197 0d8c FB68     		ldr	r3, [r7, #12]
 2198 0d8e 1B68     		ldr	r3, [r3]
 2199 0d90 4033     		adds	r3, r3, #64
 2200 0d92 1A46     		mov	r2, r3
 2201 0d94 7B88     		ldrh	r3, [r7, #2]
 2202 0d96 FFF7FEFF 		bl	HAL_DMA_Start_IT
1150:../STM32F2xx_HAL_Driver/Src/stm32f2xx_hal_tim_ex.c ****       
1151:../STM32F2xx_HAL_Driver/Src/stm32f2xx_hal_tim_ex.c ****       /* Enable the TIM Capture/Compare 4 DMA request */
1152:../STM32F2xx_HAL_Driver/Src/stm32f2xx_hal_tim_ex.c ****       __HAL_TIM_ENABLE_DMA(htim, TIM_DMA_CC4);
 2203              		.loc 1 1152 0
 2204 0d9a FB68     		ldr	r3, [r7, #12]
 2205 0d9c 1B68     		ldr	r3, [r3]
 2206 0d9e FA68     		ldr	r2, [r7, #12]
 2207 0da0 1268     		ldr	r2, [r2]
 2208 0da2 D268     		ldr	r2, [r2, #12]
 2209 0da4 42F48052 		orr	r2, r2, #4096
 2210 0da8 DA60     		str	r2, [r3, #12]
1153:../STM32F2xx_HAL_Driver/Src/stm32f2xx_hal_tim_ex.c ****     }
1154:../STM32F2xx_HAL_Driver/Src/stm32f2xx_hal_tim_ex.c ****     break;
 2211              		.loc 1 1154 0
 2212 0daa 00E0     		b	.L120
 2213              	.L121:
1155:../STM32F2xx_HAL_Driver/Src/stm32f2xx_hal_tim_ex.c ****     
1156:../STM32F2xx_HAL_Driver/Src/stm32f2xx_hal_tim_ex.c ****     default:
1157:../STM32F2xx_HAL_Driver/Src/stm32f2xx_hal_tim_ex.c ****     break;
 2214              		.loc 1 1157 0
 2215 0dac 00BF     		nop
 2216              	.L120:
1158:../STM32F2xx_HAL_Driver/Src/stm32f2xx_hal_tim_ex.c ****   }
1159:../STM32F2xx_HAL_Driver/Src/stm32f2xx_hal_tim_ex.c **** 
1160:../STM32F2xx_HAL_Driver/Src/stm32f2xx_hal_tim_ex.c ****   /* Enable the complementary PWM output  */
1161:../STM32F2xx_HAL_Driver/Src/stm32f2xx_hal_tim_ex.c ****      TIM_CCxNChannelCmd(htim->Instance, Channel, TIM_CCxN_ENABLE);
 2217              		.loc 1 1161 0
 2218 0dae FB68     		ldr	r3, [r7, #12]
 2219 0db0 1B68     		ldr	r3, [r3]
 2220 0db2 1846     		mov	r0, r3
 2221 0db4 B968     		ldr	r1, [r7, #8]
 2222 0db6 0422     		movs	r2, #4
 2223 0db8 00F060FB 		bl	TIM_CCxNChannelCmd
1162:../STM32F2xx_HAL_Driver/Src/stm32f2xx_hal_tim_ex.c ****     
1163:../STM32F2xx_HAL_Driver/Src/stm32f2xx_hal_tim_ex.c ****   /* Enable the Main Ouput */
1164:../STM32F2xx_HAL_Driver/Src/stm32f2xx_hal_tim_ex.c ****     __HAL_TIM_MOE_ENABLE(htim);
 2224              		.loc 1 1164 0
 2225 0dbc FB68     		ldr	r3, [r7, #12]
 2226 0dbe 1B68     		ldr	r3, [r3]
 2227 0dc0 FA68     		ldr	r2, [r7, #12]
 2228 0dc2 1268     		ldr	r2, [r2]
 2229 0dc4 526C     		ldr	r2, [r2, #68]
 2230 0dc6 42F40042 		orr	r2, r2, #32768
 2231 0dca 5A64     		str	r2, [r3, #68]
1165:../STM32F2xx_HAL_Driver/Src/stm32f2xx_hal_tim_ex.c ****   
1166:../STM32F2xx_HAL_Driver/Src/stm32f2xx_hal_tim_ex.c ****   /* Enable the Peripheral */
1167:../STM32F2xx_HAL_Driver/Src/stm32f2xx_hal_tim_ex.c ****   __HAL_TIM_ENABLE(htim); 
 2232              		.loc 1 1167 0
 2233 0dcc FB68     		ldr	r3, [r7, #12]
 2234 0dce 1B68     		ldr	r3, [r3]
 2235 0dd0 FA68     		ldr	r2, [r7, #12]
 2236 0dd2 1268     		ldr	r2, [r2]
 2237 0dd4 1268     		ldr	r2, [r2]
 2238 0dd6 42F00102 		orr	r2, r2, #1
 2239 0dda 1A60     		str	r2, [r3]
1168:../STM32F2xx_HAL_Driver/Src/stm32f2xx_hal_tim_ex.c ****   
1169:../STM32F2xx_HAL_Driver/Src/stm32f2xx_hal_tim_ex.c ****   /* Return function status */
1170:../STM32F2xx_HAL_Driver/Src/stm32f2xx_hal_tim_ex.c ****   return HAL_OK;
 2240              		.loc 1 1170 0
 2241 0ddc 0023     		movs	r3, #0
 2242              	.L111:
1171:../STM32F2xx_HAL_Driver/Src/stm32f2xx_hal_tim_ex.c **** }
 2243              		.loc 1 1171 0
 2244 0dde 1846     		mov	r0, r3
 2245 0de0 1037     		adds	r7, r7, #16
 2246 0de2 BD46     		mov	sp, r7
 2247              		@ sp needed
 2248 0de4 80BD     		pop	{r7, pc}
 2249              		.cfi_endproc
 2250              	.LFE75:
 2252 0de6 00BF     		.align	2
 2253              		.global	HAL_TIMEx_PWMN_Stop_DMA
 2254              		.thumb
 2255              		.thumb_func
 2257              	HAL_TIMEx_PWMN_Stop_DMA:
 2258              	.LFB76:
1172:../STM32F2xx_HAL_Driver/Src/stm32f2xx_hal_tim_ex.c **** 
1173:../STM32F2xx_HAL_Driver/Src/stm32f2xx_hal_tim_ex.c **** /**
1174:../STM32F2xx_HAL_Driver/Src/stm32f2xx_hal_tim_ex.c ****   * @brief  Stops the TIM PWM signal generation in DMA mode on the complementary
1175:../STM32F2xx_HAL_Driver/Src/stm32f2xx_hal_tim_ex.c ****   *         output
1176:../STM32F2xx_HAL_Driver/Src/stm32f2xx_hal_tim_ex.c ****   * @param  htim : TIM handle
1177:../STM32F2xx_HAL_Driver/Src/stm32f2xx_hal_tim_ex.c ****   * @param  Channel : TIM Channel to be disabled
1178:../STM32F2xx_HAL_Driver/Src/stm32f2xx_hal_tim_ex.c ****   *          This parameter can be one of the following values:
1179:../STM32F2xx_HAL_Driver/Src/stm32f2xx_hal_tim_ex.c ****   *            @arg TIM_CHANNEL_1: TIM Channel 1 selected
1180:../STM32F2xx_HAL_Driver/Src/stm32f2xx_hal_tim_ex.c ****   *            @arg TIM_CHANNEL_2: TIM Channel 2 selected
1181:../STM32F2xx_HAL_Driver/Src/stm32f2xx_hal_tim_ex.c ****   *            @arg TIM_CHANNEL_3: TIM Channel 3 selected
1182:../STM32F2xx_HAL_Driver/Src/stm32f2xx_hal_tim_ex.c ****   *            @arg TIM_CHANNEL_4: TIM Channel 4 selected
1183:../STM32F2xx_HAL_Driver/Src/stm32f2xx_hal_tim_ex.c ****   * @retval HAL status
1184:../STM32F2xx_HAL_Driver/Src/stm32f2xx_hal_tim_ex.c ****   */
1185:../STM32F2xx_HAL_Driver/Src/stm32f2xx_hal_tim_ex.c **** HAL_StatusTypeDef HAL_TIMEx_PWMN_Stop_DMA(TIM_HandleTypeDef *htim, uint32_t Channel)
1186:../STM32F2xx_HAL_Driver/Src/stm32f2xx_hal_tim_ex.c **** {
 2259              		.loc 1 1186 0
 2260              		.cfi_startproc
 2261              		@ args = 0, pretend = 0, frame = 8
 2262              		@ frame_needed = 1, uses_anonymous_args = 0
 2263 0de8 80B5     		push	{r7, lr}
 2264              		.cfi_def_cfa_offset 8
 2265              		.cfi_offset 7, -8
 2266              		.cfi_offset 14, -4
 2267 0dea 82B0     		sub	sp, sp, #8
 2268              		.cfi_def_cfa_offset 16
 2269 0dec 00AF     		add	r7, sp, #0
 2270              		.cfi_def_cfa_register 7
 2271 0dee 7860     		str	r0, [r7, #4]
 2272 0df0 3960     		str	r1, [r7]
1187:../STM32F2xx_HAL_Driver/Src/stm32f2xx_hal_tim_ex.c ****   /* Check the parameters */
1188:../STM32F2xx_HAL_Driver/Src/stm32f2xx_hal_tim_ex.c ****   assert_param(IS_TIM_CCXN_INSTANCE(htim->Instance, Channel)); 
1189:../STM32F2xx_HAL_Driver/Src/stm32f2xx_hal_tim_ex.c ****   
1190:../STM32F2xx_HAL_Driver/Src/stm32f2xx_hal_tim_ex.c ****   switch (Channel)
 2273              		.loc 1 1190 0
 2274 0df2 3B68     		ldr	r3, [r7]
 2275 0df4 0C2B     		cmp	r3, #12
 2276 0df6 41D8     		bhi	.L133
 2277 0df8 01A2     		adr	r2, .L125
 2278 0dfa 52F823F0 		ldr	pc, [r2, r3, lsl #2]
 2279 0dfe 00BF     		.p2align 2
 2280              	.L125:
 2281 0e00 350E0000 		.word	.L124+1
 2282 0e04 7D0E0000 		.word	.L133+1
 2283 0e08 7D0E0000 		.word	.L133+1
 2284 0e0c 7D0E0000 		.word	.L133+1
 2285 0e10 470E0000 		.word	.L126+1
 2286 0e14 7D0E0000 		.word	.L133+1
 2287 0e18 7D0E0000 		.word	.L133+1
 2288 0e1c 7D0E0000 		.word	.L133+1
 2289 0e20 590E0000 		.word	.L127+1
 2290 0e24 7D0E0000 		.word	.L133+1
 2291 0e28 7D0E0000 		.word	.L133+1
 2292 0e2c 7D0E0000 		.word	.L133+1
 2293 0e30 6B0E0000 		.word	.L128+1
 2294              	.L124:
1191:../STM32F2xx_HAL_Driver/Src/stm32f2xx_hal_tim_ex.c ****   {
1192:../STM32F2xx_HAL_Driver/Src/stm32f2xx_hal_tim_ex.c ****     case TIM_CHANNEL_1:
1193:../STM32F2xx_HAL_Driver/Src/stm32f2xx_hal_tim_ex.c ****     {       
1194:../STM32F2xx_HAL_Driver/Src/stm32f2xx_hal_tim_ex.c ****       /* Disable the TIM Capture/Compare 1 DMA request */
1195:../STM32F2xx_HAL_Driver/Src/stm32f2xx_hal_tim_ex.c ****       __HAL_TIM_DISABLE_DMA(htim, TIM_DMA_CC1);
 2295              		.loc 1 1195 0
 2296 0e34 7B68     		ldr	r3, [r7, #4]
 2297 0e36 1B68     		ldr	r3, [r3]
 2298 0e38 7A68     		ldr	r2, [r7, #4]
 2299 0e3a 1268     		ldr	r2, [r2]
 2300 0e3c D268     		ldr	r2, [r2, #12]
 2301 0e3e 22F40072 		bic	r2, r2, #512
 2302 0e42 DA60     		str	r2, [r3, #12]
1196:../STM32F2xx_HAL_Driver/Src/stm32f2xx_hal_tim_ex.c ****     }
1197:../STM32F2xx_HAL_Driver/Src/stm32f2xx_hal_tim_ex.c ****     break;
 2303              		.loc 1 1197 0
 2304 0e44 1BE0     		b	.L129
 2305              	.L126:
1198:../STM32F2xx_HAL_Driver/Src/stm32f2xx_hal_tim_ex.c ****     
1199:../STM32F2xx_HAL_Driver/Src/stm32f2xx_hal_tim_ex.c ****     case TIM_CHANNEL_2:
1200:../STM32F2xx_HAL_Driver/Src/stm32f2xx_hal_tim_ex.c ****     {
1201:../STM32F2xx_HAL_Driver/Src/stm32f2xx_hal_tim_ex.c ****       /* Disable the TIM Capture/Compare 2 DMA request */
1202:../STM32F2xx_HAL_Driver/Src/stm32f2xx_hal_tim_ex.c ****       __HAL_TIM_DISABLE_DMA(htim, TIM_DMA_CC2);
 2306              		.loc 1 1202 0
 2307 0e46 7B68     		ldr	r3, [r7, #4]
 2308 0e48 1B68     		ldr	r3, [r3]
 2309 0e4a 7A68     		ldr	r2, [r7, #4]
 2310 0e4c 1268     		ldr	r2, [r2]
 2311 0e4e D268     		ldr	r2, [r2, #12]
 2312 0e50 22F48062 		bic	r2, r2, #1024
 2313 0e54 DA60     		str	r2, [r3, #12]
1203:../STM32F2xx_HAL_Driver/Src/stm32f2xx_hal_tim_ex.c ****     }
1204:../STM32F2xx_HAL_Driver/Src/stm32f2xx_hal_tim_ex.c ****     break;
 2314              		.loc 1 1204 0
 2315 0e56 12E0     		b	.L129
 2316              	.L127:
1205:../STM32F2xx_HAL_Driver/Src/stm32f2xx_hal_tim_ex.c ****     
1206:../STM32F2xx_HAL_Driver/Src/stm32f2xx_hal_tim_ex.c ****     case TIM_CHANNEL_3:
1207:../STM32F2xx_HAL_Driver/Src/stm32f2xx_hal_tim_ex.c ****     {
1208:../STM32F2xx_HAL_Driver/Src/stm32f2xx_hal_tim_ex.c ****       /* Disable the TIM Capture/Compare 3 DMA request */
1209:../STM32F2xx_HAL_Driver/Src/stm32f2xx_hal_tim_ex.c ****       __HAL_TIM_DISABLE_DMA(htim, TIM_DMA_CC3);
 2317              		.loc 1 1209 0
 2318 0e58 7B68     		ldr	r3, [r7, #4]
 2319 0e5a 1B68     		ldr	r3, [r3]
 2320 0e5c 7A68     		ldr	r2, [r7, #4]
 2321 0e5e 1268     		ldr	r2, [r2]
 2322 0e60 D268     		ldr	r2, [r2, #12]
 2323 0e62 22F40062 		bic	r2, r2, #2048
 2324 0e66 DA60     		str	r2, [r3, #12]
1210:../STM32F2xx_HAL_Driver/Src/stm32f2xx_hal_tim_ex.c ****     }
1211:../STM32F2xx_HAL_Driver/Src/stm32f2xx_hal_tim_ex.c ****     break;
 2325              		.loc 1 1211 0
 2326 0e68 09E0     		b	.L129
 2327              	.L128:
1212:../STM32F2xx_HAL_Driver/Src/stm32f2xx_hal_tim_ex.c ****     
1213:../STM32F2xx_HAL_Driver/Src/stm32f2xx_hal_tim_ex.c ****     case TIM_CHANNEL_4:
1214:../STM32F2xx_HAL_Driver/Src/stm32f2xx_hal_tim_ex.c ****     {
1215:../STM32F2xx_HAL_Driver/Src/stm32f2xx_hal_tim_ex.c ****       /* Disable the TIM Capture/Compare 4 DMA request */
1216:../STM32F2xx_HAL_Driver/Src/stm32f2xx_hal_tim_ex.c ****       __HAL_TIM_DISABLE_DMA(htim, TIM_DMA_CC4);
 2328              		.loc 1 1216 0
 2329 0e6a 7B68     		ldr	r3, [r7, #4]
 2330 0e6c 1B68     		ldr	r3, [r3]
 2331 0e6e 7A68     		ldr	r2, [r7, #4]
 2332 0e70 1268     		ldr	r2, [r2]
 2333 0e72 D268     		ldr	r2, [r2, #12]
 2334 0e74 22F48052 		bic	r2, r2, #4096
 2335 0e78 DA60     		str	r2, [r3, #12]
1217:../STM32F2xx_HAL_Driver/Src/stm32f2xx_hal_tim_ex.c ****     }
1218:../STM32F2xx_HAL_Driver/Src/stm32f2xx_hal_tim_ex.c ****     break;
 2336              		.loc 1 1218 0
 2337 0e7a 00E0     		b	.L129
 2338              	.L133:
1219:../STM32F2xx_HAL_Driver/Src/stm32f2xx_hal_tim_ex.c ****     
1220:../STM32F2xx_HAL_Driver/Src/stm32f2xx_hal_tim_ex.c ****     default:
1221:../STM32F2xx_HAL_Driver/Src/stm32f2xx_hal_tim_ex.c ****     break;
 2339              		.loc 1 1221 0
 2340 0e7c 00BF     		nop
 2341              	.L129:
1222:../STM32F2xx_HAL_Driver/Src/stm32f2xx_hal_tim_ex.c ****   } 
1223:../STM32F2xx_HAL_Driver/Src/stm32f2xx_hal_tim_ex.c ****   
1224:../STM32F2xx_HAL_Driver/Src/stm32f2xx_hal_tim_ex.c ****   /* Disable the complementary PWM output */
1225:../STM32F2xx_HAL_Driver/Src/stm32f2xx_hal_tim_ex.c ****     TIM_CCxNChannelCmd(htim->Instance, Channel, TIM_CCxN_DISABLE);
 2342              		.loc 1 1225 0
 2343 0e7e 7B68     		ldr	r3, [r7, #4]
 2344 0e80 1B68     		ldr	r3, [r3]
 2345 0e82 1846     		mov	r0, r3
 2346 0e84 3968     		ldr	r1, [r7]
 2347 0e86 0022     		movs	r2, #0
 2348 0e88 00F0F8FA 		bl	TIM_CCxNChannelCmd
1226:../STM32F2xx_HAL_Driver/Src/stm32f2xx_hal_tim_ex.c ****      
1227:../STM32F2xx_HAL_Driver/Src/stm32f2xx_hal_tim_ex.c ****   /* Disable the Main Ouput */
1228:../STM32F2xx_HAL_Driver/Src/stm32f2xx_hal_tim_ex.c ****     __HAL_TIM_MOE_DISABLE(htim);
 2349              		.loc 1 1228 0
 2350 0e8c 7B68     		ldr	r3, [r7, #4]
 2351 0e8e 1B68     		ldr	r3, [r3]
 2352 0e90 1A6A     		ldr	r2, [r3, #32]
 2353 0e92 41F21113 		movw	r3, #4369
 2354 0e96 1340     		ands	r3, r3, r2
 2355 0e98 002B     		cmp	r3, #0
 2356 0e9a 0FD1     		bne	.L130
 2357              		.loc 1 1228 0 is_stmt 0 discriminator 1
 2358 0e9c 7B68     		ldr	r3, [r7, #4]
 2359 0e9e 1B68     		ldr	r3, [r3]
 2360 0ea0 1A6A     		ldr	r2, [r3, #32]
 2361 0ea2 40F24443 		movw	r3, #1092
 2362 0ea6 1340     		ands	r3, r3, r2
 2363 0ea8 002B     		cmp	r3, #0
 2364 0eaa 07D1     		bne	.L130
 2365 0eac 7B68     		ldr	r3, [r7, #4]
 2366 0eae 1B68     		ldr	r3, [r3]
 2367 0eb0 7A68     		ldr	r2, [r7, #4]
 2368 0eb2 1268     		ldr	r2, [r2]
 2369 0eb4 526C     		ldr	r2, [r2, #68]
 2370 0eb6 22F40042 		bic	r2, r2, #32768
 2371 0eba 5A64     		str	r2, [r3, #68]
 2372              	.L130:
1229:../STM32F2xx_HAL_Driver/Src/stm32f2xx_hal_tim_ex.c **** 
1230:../STM32F2xx_HAL_Driver/Src/stm32f2xx_hal_tim_ex.c ****   /* Disable the Peripheral */
1231:../STM32F2xx_HAL_Driver/Src/stm32f2xx_hal_tim_ex.c ****   __HAL_TIM_DISABLE(htim);
 2373              		.loc 1 1231 0 is_stmt 1
 2374 0ebc 7B68     		ldr	r3, [r7, #4]
 2375 0ebe 1B68     		ldr	r3, [r3]
 2376 0ec0 1A6A     		ldr	r2, [r3, #32]
 2377 0ec2 41F21113 		movw	r3, #4369
 2378 0ec6 1340     		ands	r3, r3, r2
 2379 0ec8 002B     		cmp	r3, #0
 2380 0eca 0FD1     		bne	.L131
 2381              		.loc 1 1231 0 is_stmt 0 discriminator 1
 2382 0ecc 7B68     		ldr	r3, [r7, #4]
 2383 0ece 1B68     		ldr	r3, [r3]
 2384 0ed0 1A6A     		ldr	r2, [r3, #32]
 2385 0ed2 40F24443 		movw	r3, #1092
 2386 0ed6 1340     		ands	r3, r3, r2
 2387 0ed8 002B     		cmp	r3, #0
 2388 0eda 07D1     		bne	.L131
 2389 0edc 7B68     		ldr	r3, [r7, #4]
 2390 0ede 1B68     		ldr	r3, [r3]
 2391 0ee0 7A68     		ldr	r2, [r7, #4]
 2392 0ee2 1268     		ldr	r2, [r2]
 2393 0ee4 1268     		ldr	r2, [r2]
 2394 0ee6 22F00102 		bic	r2, r2, #1
 2395 0eea 1A60     		str	r2, [r3]
 2396              	.L131:
1232:../STM32F2xx_HAL_Driver/Src/stm32f2xx_hal_tim_ex.c ****   
1233:../STM32F2xx_HAL_Driver/Src/stm32f2xx_hal_tim_ex.c ****   /* Change the htim state */
1234:../STM32F2xx_HAL_Driver/Src/stm32f2xx_hal_tim_ex.c ****   htim->State = HAL_TIM_STATE_READY;
 2397              		.loc 1 1234 0 is_stmt 1
 2398 0eec 7B68     		ldr	r3, [r7, #4]
 2399 0eee 0122     		movs	r2, #1
 2400 0ef0 83F83920 		strb	r2, [r3, #57]
1235:../STM32F2xx_HAL_Driver/Src/stm32f2xx_hal_tim_ex.c ****   
1236:../STM32F2xx_HAL_Driver/Src/stm32f2xx_hal_tim_ex.c ****   /* Return function status */
1237:../STM32F2xx_HAL_Driver/Src/stm32f2xx_hal_tim_ex.c ****   return HAL_OK;
 2401              		.loc 1 1237 0
 2402 0ef4 0023     		movs	r3, #0
1238:../STM32F2xx_HAL_Driver/Src/stm32f2xx_hal_tim_ex.c **** }
 2403              		.loc 1 1238 0
 2404 0ef6 1846     		mov	r0, r3
 2405 0ef8 0837     		adds	r7, r7, #8
 2406 0efa BD46     		mov	sp, r7
 2407              		@ sp needed
 2408 0efc 80BD     		pop	{r7, pc}
 2409              		.cfi_endproc
 2410              	.LFE76:
 2412 0efe 00BF     		.align	2
 2413              		.global	HAL_TIMEx_OnePulseN_Start
 2414              		.thumb
 2415              		.thumb_func
 2417              	HAL_TIMEx_OnePulseN_Start:
 2418              	.LFB77:
1239:../STM32F2xx_HAL_Driver/Src/stm32f2xx_hal_tim_ex.c **** 
1240:../STM32F2xx_HAL_Driver/Src/stm32f2xx_hal_tim_ex.c **** /**
1241:../STM32F2xx_HAL_Driver/Src/stm32f2xx_hal_tim_ex.c ****   * @}
1242:../STM32F2xx_HAL_Driver/Src/stm32f2xx_hal_tim_ex.c ****   */
1243:../STM32F2xx_HAL_Driver/Src/stm32f2xx_hal_tim_ex.c ****   
1244:../STM32F2xx_HAL_Driver/Src/stm32f2xx_hal_tim_ex.c **** /** @defgroup TIMEx_Group4 Timer Complementary One Pulse functions
1245:../STM32F2xx_HAL_Driver/Src/stm32f2xx_hal_tim_ex.c ****  *  @brief    Timer Complementary One Pulse functions 
1246:../STM32F2xx_HAL_Driver/Src/stm32f2xx_hal_tim_ex.c ****  *
1247:../STM32F2xx_HAL_Driver/Src/stm32f2xx_hal_tim_ex.c **** @verbatim   
1248:../STM32F2xx_HAL_Driver/Src/stm32f2xx_hal_tim_ex.c ****   ==============================================================================
1249:../STM32F2xx_HAL_Driver/Src/stm32f2xx_hal_tim_ex.c ****                 ##### Timer Complementary One Pulse functions #####
1250:../STM32F2xx_HAL_Driver/Src/stm32f2xx_hal_tim_ex.c ****   ==============================================================================  
1251:../STM32F2xx_HAL_Driver/Src/stm32f2xx_hal_tim_ex.c ****   [..]  
1252:../STM32F2xx_HAL_Driver/Src/stm32f2xx_hal_tim_ex.c ****     This section provides functions allowing to:
1253:../STM32F2xx_HAL_Driver/Src/stm32f2xx_hal_tim_ex.c ****     (+) Start the Complementary One Pulse generation.
1254:../STM32F2xx_HAL_Driver/Src/stm32f2xx_hal_tim_ex.c ****     (+) Stop the Complementary One Pulse.
1255:../STM32F2xx_HAL_Driver/Src/stm32f2xx_hal_tim_ex.c ****     (+) Start the Complementary One Pulse and enable interrupts.
1256:../STM32F2xx_HAL_Driver/Src/stm32f2xx_hal_tim_ex.c ****     (+) Stop the Complementary One Pulse and disable interrupts.
1257:../STM32F2xx_HAL_Driver/Src/stm32f2xx_hal_tim_ex.c ****                
1258:../STM32F2xx_HAL_Driver/Src/stm32f2xx_hal_tim_ex.c **** @endverbatim
1259:../STM32F2xx_HAL_Driver/Src/stm32f2xx_hal_tim_ex.c ****   * @{
1260:../STM32F2xx_HAL_Driver/Src/stm32f2xx_hal_tim_ex.c ****   */
1261:../STM32F2xx_HAL_Driver/Src/stm32f2xx_hal_tim_ex.c **** 
1262:../STM32F2xx_HAL_Driver/Src/stm32f2xx_hal_tim_ex.c **** /**
1263:../STM32F2xx_HAL_Driver/Src/stm32f2xx_hal_tim_ex.c ****   * @brief  Starts the TIM One Pulse signal generation on the complemetary 
1264:../STM32F2xx_HAL_Driver/Src/stm32f2xx_hal_tim_ex.c ****   *         output.
1265:../STM32F2xx_HAL_Driver/Src/stm32f2xx_hal_tim_ex.c ****   * @param  htim : TIM One Pulse handle
1266:../STM32F2xx_HAL_Driver/Src/stm32f2xx_hal_tim_ex.c ****   * @param  OutputChannel : TIM Channel to be enabled
1267:../STM32F2xx_HAL_Driver/Src/stm32f2xx_hal_tim_ex.c ****   *          This parameter can be one of the following values:
1268:../STM32F2xx_HAL_Driver/Src/stm32f2xx_hal_tim_ex.c ****   *            @arg TIM_CHANNEL_1: TIM Channel 1 selected
1269:../STM32F2xx_HAL_Driver/Src/stm32f2xx_hal_tim_ex.c ****   *            @arg TIM_CHANNEL_2: TIM Channel 2 selected
1270:../STM32F2xx_HAL_Driver/Src/stm32f2xx_hal_tim_ex.c ****   * @retval HAL status
1271:../STM32F2xx_HAL_Driver/Src/stm32f2xx_hal_tim_ex.c ****   */
1272:../STM32F2xx_HAL_Driver/Src/stm32f2xx_hal_tim_ex.c **** HAL_StatusTypeDef HAL_TIMEx_OnePulseN_Start(TIM_HandleTypeDef *htim, uint32_t OutputChannel)
1273:../STM32F2xx_HAL_Driver/Src/stm32f2xx_hal_tim_ex.c ****   {
 2419              		.loc 1 1273 0
 2420              		.cfi_startproc
 2421              		@ args = 0, pretend = 0, frame = 8
 2422              		@ frame_needed = 1, uses_anonymous_args = 0
 2423 0f00 80B5     		push	{r7, lr}
 2424              		.cfi_def_cfa_offset 8
 2425              		.cfi_offset 7, -8
 2426              		.cfi_offset 14, -4
 2427 0f02 82B0     		sub	sp, sp, #8
 2428              		.cfi_def_cfa_offset 16
 2429 0f04 00AF     		add	r7, sp, #0
 2430              		.cfi_def_cfa_register 7
 2431 0f06 7860     		str	r0, [r7, #4]
 2432 0f08 3960     		str	r1, [r7]
1274:../STM32F2xx_HAL_Driver/Src/stm32f2xx_hal_tim_ex.c ****   /* Check the parameters */
1275:../STM32F2xx_HAL_Driver/Src/stm32f2xx_hal_tim_ex.c ****   assert_param(IS_TIM_CCXN_INSTANCE(htim->Instance, OutputChannel)); 
1276:../STM32F2xx_HAL_Driver/Src/stm32f2xx_hal_tim_ex.c ****   
1277:../STM32F2xx_HAL_Driver/Src/stm32f2xx_hal_tim_ex.c ****   /* Enable the complementary One Pulse output */
1278:../STM32F2xx_HAL_Driver/Src/stm32f2xx_hal_tim_ex.c ****   TIM_CCxNChannelCmd(htim->Instance, OutputChannel, TIM_CCxN_ENABLE); 
 2433              		.loc 1 1278 0
 2434 0f0a 7B68     		ldr	r3, [r7, #4]
 2435 0f0c 1B68     		ldr	r3, [r3]
 2436 0f0e 1846     		mov	r0, r3
 2437 0f10 3968     		ldr	r1, [r7]
 2438 0f12 0422     		movs	r2, #4
 2439 0f14 00F0B2FA 		bl	TIM_CCxNChannelCmd
1279:../STM32F2xx_HAL_Driver/Src/stm32f2xx_hal_tim_ex.c ****   
1280:../STM32F2xx_HAL_Driver/Src/stm32f2xx_hal_tim_ex.c ****   /* Enable the Main Ouput */
1281:../STM32F2xx_HAL_Driver/Src/stm32f2xx_hal_tim_ex.c ****   __HAL_TIM_MOE_ENABLE(htim);
 2440              		.loc 1 1281 0
 2441 0f18 7B68     		ldr	r3, [r7, #4]
 2442 0f1a 1B68     		ldr	r3, [r3]
 2443 0f1c 7A68     		ldr	r2, [r7, #4]
 2444 0f1e 1268     		ldr	r2, [r2]
 2445 0f20 526C     		ldr	r2, [r2, #68]
 2446 0f22 42F40042 		orr	r2, r2, #32768
 2447 0f26 5A64     		str	r2, [r3, #68]
1282:../STM32F2xx_HAL_Driver/Src/stm32f2xx_hal_tim_ex.c ****   
1283:../STM32F2xx_HAL_Driver/Src/stm32f2xx_hal_tim_ex.c ****   /* Return function status */
1284:../STM32F2xx_HAL_Driver/Src/stm32f2xx_hal_tim_ex.c ****   return HAL_OK;
 2448              		.loc 1 1284 0
 2449 0f28 0023     		movs	r3, #0
1285:../STM32F2xx_HAL_Driver/Src/stm32f2xx_hal_tim_ex.c **** }
 2450              		.loc 1 1285 0
 2451 0f2a 1846     		mov	r0, r3
 2452 0f2c 0837     		adds	r7, r7, #8
 2453 0f2e BD46     		mov	sp, r7
 2454              		@ sp needed
 2455 0f30 80BD     		pop	{r7, pc}
 2456              		.cfi_endproc
 2457              	.LFE77:
 2459 0f32 00BF     		.align	2
 2460              		.global	HAL_TIMEx_OnePulseN_Stop
 2461              		.thumb
 2462              		.thumb_func
 2464              	HAL_TIMEx_OnePulseN_Stop:
 2465              	.LFB78:
1286:../STM32F2xx_HAL_Driver/Src/stm32f2xx_hal_tim_ex.c **** 
1287:../STM32F2xx_HAL_Driver/Src/stm32f2xx_hal_tim_ex.c **** /**
1288:../STM32F2xx_HAL_Driver/Src/stm32f2xx_hal_tim_ex.c ****   * @brief  Stops the TIM One Pulse signal generation on the complementary 
1289:../STM32F2xx_HAL_Driver/Src/stm32f2xx_hal_tim_ex.c ****   *         output.
1290:../STM32F2xx_HAL_Driver/Src/stm32f2xx_hal_tim_ex.c ****   * @param  htim : TIM One Pulse handle
1291:../STM32F2xx_HAL_Driver/Src/stm32f2xx_hal_tim_ex.c ****   * @param  OutputChannel : TIM Channel to be disabled
1292:../STM32F2xx_HAL_Driver/Src/stm32f2xx_hal_tim_ex.c ****   *          This parameter can be one of the following values:
1293:../STM32F2xx_HAL_Driver/Src/stm32f2xx_hal_tim_ex.c ****   *            @arg TIM_CHANNEL_1: TIM Channel 1 selected
1294:../STM32F2xx_HAL_Driver/Src/stm32f2xx_hal_tim_ex.c ****   *            @arg TIM_CHANNEL_2: TIM Channel 2 selected
1295:../STM32F2xx_HAL_Driver/Src/stm32f2xx_hal_tim_ex.c ****   * @retval HAL status
1296:../STM32F2xx_HAL_Driver/Src/stm32f2xx_hal_tim_ex.c ****   */
1297:../STM32F2xx_HAL_Driver/Src/stm32f2xx_hal_tim_ex.c **** HAL_StatusTypeDef HAL_TIMEx_OnePulseN_Stop(TIM_HandleTypeDef *htim, uint32_t OutputChannel)
1298:../STM32F2xx_HAL_Driver/Src/stm32f2xx_hal_tim_ex.c **** {
 2466              		.loc 1 1298 0
 2467              		.cfi_startproc
 2468              		@ args = 0, pretend = 0, frame = 8
 2469              		@ frame_needed = 1, uses_anonymous_args = 0
 2470 0f34 80B5     		push	{r7, lr}
 2471              		.cfi_def_cfa_offset 8
 2472              		.cfi_offset 7, -8
 2473              		.cfi_offset 14, -4
 2474 0f36 82B0     		sub	sp, sp, #8
 2475              		.cfi_def_cfa_offset 16
 2476 0f38 00AF     		add	r7, sp, #0
 2477              		.cfi_def_cfa_register 7
 2478 0f3a 7860     		str	r0, [r7, #4]
 2479 0f3c 3960     		str	r1, [r7]
1299:../STM32F2xx_HAL_Driver/Src/stm32f2xx_hal_tim_ex.c **** 
1300:../STM32F2xx_HAL_Driver/Src/stm32f2xx_hal_tim_ex.c ****   /* Check the parameters */
1301:../STM32F2xx_HAL_Driver/Src/stm32f2xx_hal_tim_ex.c ****   assert_param(IS_TIM_CCXN_INSTANCE(htim->Instance, OutputChannel)); 
1302:../STM32F2xx_HAL_Driver/Src/stm32f2xx_hal_tim_ex.c **** 
1303:../STM32F2xx_HAL_Driver/Src/stm32f2xx_hal_tim_ex.c ****   /* Disable the complementary One Pulse output */
1304:../STM32F2xx_HAL_Driver/Src/stm32f2xx_hal_tim_ex.c ****     TIM_CCxNChannelCmd(htim->Instance, OutputChannel, TIM_CCxN_DISABLE);
 2480              		.loc 1 1304 0
 2481 0f3e 7B68     		ldr	r3, [r7, #4]
 2482 0f40 1B68     		ldr	r3, [r3]
 2483 0f42 1846     		mov	r0, r3
 2484 0f44 3968     		ldr	r1, [r7]
 2485 0f46 0022     		movs	r2, #0
 2486 0f48 00F098FA 		bl	TIM_CCxNChannelCmd
1305:../STM32F2xx_HAL_Driver/Src/stm32f2xx_hal_tim_ex.c ****   
1306:../STM32F2xx_HAL_Driver/Src/stm32f2xx_hal_tim_ex.c ****   /* Disable the Main Ouput */
1307:../STM32F2xx_HAL_Driver/Src/stm32f2xx_hal_tim_ex.c ****     __HAL_TIM_MOE_DISABLE(htim);
 2487              		.loc 1 1307 0
 2488 0f4c 7B68     		ldr	r3, [r7, #4]
 2489 0f4e 1B68     		ldr	r3, [r3]
 2490 0f50 1A6A     		ldr	r2, [r3, #32]
 2491 0f52 41F21113 		movw	r3, #4369
 2492 0f56 1340     		ands	r3, r3, r2
 2493 0f58 002B     		cmp	r3, #0
 2494 0f5a 0FD1     		bne	.L137
 2495              		.loc 1 1307 0 is_stmt 0 discriminator 1
 2496 0f5c 7B68     		ldr	r3, [r7, #4]
 2497 0f5e 1B68     		ldr	r3, [r3]
 2498 0f60 1A6A     		ldr	r2, [r3, #32]
 2499 0f62 40F24443 		movw	r3, #1092
 2500 0f66 1340     		ands	r3, r3, r2
 2501 0f68 002B     		cmp	r3, #0
 2502 0f6a 07D1     		bne	.L137
 2503 0f6c 7B68     		ldr	r3, [r7, #4]
 2504 0f6e 1B68     		ldr	r3, [r3]
 2505 0f70 7A68     		ldr	r2, [r7, #4]
 2506 0f72 1268     		ldr	r2, [r2]
 2507 0f74 526C     		ldr	r2, [r2, #68]
 2508 0f76 22F40042 		bic	r2, r2, #32768
 2509 0f7a 5A64     		str	r2, [r3, #68]
 2510              	.L137:
1308:../STM32F2xx_HAL_Driver/Src/stm32f2xx_hal_tim_ex.c ****   
1309:../STM32F2xx_HAL_Driver/Src/stm32f2xx_hal_tim_ex.c ****   /* Disable the Peripheral */
1310:../STM32F2xx_HAL_Driver/Src/stm32f2xx_hal_tim_ex.c ****   __HAL_TIM_DISABLE(htim); 
 2511              		.loc 1 1310 0 is_stmt 1
 2512 0f7c 7B68     		ldr	r3, [r7, #4]
 2513 0f7e 1B68     		ldr	r3, [r3]
 2514 0f80 1A6A     		ldr	r2, [r3, #32]
 2515 0f82 41F21113 		movw	r3, #4369
 2516 0f86 1340     		ands	r3, r3, r2
 2517 0f88 002B     		cmp	r3, #0
 2518 0f8a 0FD1     		bne	.L138
 2519              		.loc 1 1310 0 is_stmt 0 discriminator 1
 2520 0f8c 7B68     		ldr	r3, [r7, #4]
 2521 0f8e 1B68     		ldr	r3, [r3]
 2522 0f90 1A6A     		ldr	r2, [r3, #32]
 2523 0f92 40F24443 		movw	r3, #1092
 2524 0f96 1340     		ands	r3, r3, r2
 2525 0f98 002B     		cmp	r3, #0
 2526 0f9a 07D1     		bne	.L138
 2527 0f9c 7B68     		ldr	r3, [r7, #4]
 2528 0f9e 1B68     		ldr	r3, [r3]
 2529 0fa0 7A68     		ldr	r2, [r7, #4]
 2530 0fa2 1268     		ldr	r2, [r2]
 2531 0fa4 1268     		ldr	r2, [r2]
 2532 0fa6 22F00102 		bic	r2, r2, #1
 2533 0faa 1A60     		str	r2, [r3]
 2534              	.L138:
1311:../STM32F2xx_HAL_Driver/Src/stm32f2xx_hal_tim_ex.c ****    
1312:../STM32F2xx_HAL_Driver/Src/stm32f2xx_hal_tim_ex.c ****   /* Return function status */
1313:../STM32F2xx_HAL_Driver/Src/stm32f2xx_hal_tim_ex.c ****   return HAL_OK;
 2535              		.loc 1 1313 0 is_stmt 1
 2536 0fac 0023     		movs	r3, #0
1314:../STM32F2xx_HAL_Driver/Src/stm32f2xx_hal_tim_ex.c **** }
 2537              		.loc 1 1314 0
 2538 0fae 1846     		mov	r0, r3
 2539 0fb0 0837     		adds	r7, r7, #8
 2540 0fb2 BD46     		mov	sp, r7
 2541              		@ sp needed
 2542 0fb4 80BD     		pop	{r7, pc}
 2543              		.cfi_endproc
 2544              	.LFE78:
 2546 0fb6 00BF     		.align	2
 2547              		.global	HAL_TIMEx_OnePulseN_Start_IT
 2548              		.thumb
 2549              		.thumb_func
 2551              	HAL_TIMEx_OnePulseN_Start_IT:
 2552              	.LFB79:
1315:../STM32F2xx_HAL_Driver/Src/stm32f2xx_hal_tim_ex.c **** 
1316:../STM32F2xx_HAL_Driver/Src/stm32f2xx_hal_tim_ex.c **** /**
1317:../STM32F2xx_HAL_Driver/Src/stm32f2xx_hal_tim_ex.c ****   * @brief  Starts the TIM One Pulse signal generation in interrupt mode on the
1318:../STM32F2xx_HAL_Driver/Src/stm32f2xx_hal_tim_ex.c ****   *         complementary channel.
1319:../STM32F2xx_HAL_Driver/Src/stm32f2xx_hal_tim_ex.c ****   * @param  htim : TIM One Pulse handle
1320:../STM32F2xx_HAL_Driver/Src/stm32f2xx_hal_tim_ex.c ****   * @param  OutputChannel : TIM Channel to be enabled
1321:../STM32F2xx_HAL_Driver/Src/stm32f2xx_hal_tim_ex.c ****   *          This parameter can be one of the following values:
1322:../STM32F2xx_HAL_Driver/Src/stm32f2xx_hal_tim_ex.c ****   *            @arg TIM_CHANNEL_1: TIM Channel 1 selected
1323:../STM32F2xx_HAL_Driver/Src/stm32f2xx_hal_tim_ex.c ****   *            @arg TIM_CHANNEL_2: TIM Channel 2 selected
1324:../STM32F2xx_HAL_Driver/Src/stm32f2xx_hal_tim_ex.c ****   * @retval HAL status
1325:../STM32F2xx_HAL_Driver/Src/stm32f2xx_hal_tim_ex.c ****   */
1326:../STM32F2xx_HAL_Driver/Src/stm32f2xx_hal_tim_ex.c **** HAL_StatusTypeDef HAL_TIMEx_OnePulseN_Start_IT(TIM_HandleTypeDef *htim, uint32_t OutputChannel)
1327:../STM32F2xx_HAL_Driver/Src/stm32f2xx_hal_tim_ex.c **** {
 2553              		.loc 1 1327 0
 2554              		.cfi_startproc
 2555              		@ args = 0, pretend = 0, frame = 8
 2556              		@ frame_needed = 1, uses_anonymous_args = 0
 2557 0fb8 80B5     		push	{r7, lr}
 2558              		.cfi_def_cfa_offset 8
 2559              		.cfi_offset 7, -8
 2560              		.cfi_offset 14, -4
 2561 0fba 82B0     		sub	sp, sp, #8
 2562              		.cfi_def_cfa_offset 16
 2563 0fbc 00AF     		add	r7, sp, #0
 2564              		.cfi_def_cfa_register 7
 2565 0fbe 7860     		str	r0, [r7, #4]
 2566 0fc0 3960     		str	r1, [r7]
1328:../STM32F2xx_HAL_Driver/Src/stm32f2xx_hal_tim_ex.c ****   /* Check the parameters */
1329:../STM32F2xx_HAL_Driver/Src/stm32f2xx_hal_tim_ex.c ****   assert_param(IS_TIM_CCXN_INSTANCE(htim->Instance, OutputChannel)); 
1330:../STM32F2xx_HAL_Driver/Src/stm32f2xx_hal_tim_ex.c **** 
1331:../STM32F2xx_HAL_Driver/Src/stm32f2xx_hal_tim_ex.c ****   /* Enable the TIM Capture/Compare 1 interrupt */
1332:../STM32F2xx_HAL_Driver/Src/stm32f2xx_hal_tim_ex.c ****   __HAL_TIM_ENABLE_IT(htim, TIM_IT_CC1);
 2567              		.loc 1 1332 0
 2568 0fc2 7B68     		ldr	r3, [r7, #4]
 2569 0fc4 1B68     		ldr	r3, [r3]
 2570 0fc6 7A68     		ldr	r2, [r7, #4]
 2571 0fc8 1268     		ldr	r2, [r2]
 2572 0fca D268     		ldr	r2, [r2, #12]
 2573 0fcc 42F00202 		orr	r2, r2, #2
 2574 0fd0 DA60     		str	r2, [r3, #12]
1333:../STM32F2xx_HAL_Driver/Src/stm32f2xx_hal_tim_ex.c ****   
1334:../STM32F2xx_HAL_Driver/Src/stm32f2xx_hal_tim_ex.c ****   /* Enable the TIM Capture/Compare 2 interrupt */
1335:../STM32F2xx_HAL_Driver/Src/stm32f2xx_hal_tim_ex.c ****   __HAL_TIM_ENABLE_IT(htim, TIM_IT_CC2);
 2575              		.loc 1 1335 0
 2576 0fd2 7B68     		ldr	r3, [r7, #4]
 2577 0fd4 1B68     		ldr	r3, [r3]
 2578 0fd6 7A68     		ldr	r2, [r7, #4]
 2579 0fd8 1268     		ldr	r2, [r2]
 2580 0fda D268     		ldr	r2, [r2, #12]
 2581 0fdc 42F00402 		orr	r2, r2, #4
 2582 0fe0 DA60     		str	r2, [r3, #12]
1336:../STM32F2xx_HAL_Driver/Src/stm32f2xx_hal_tim_ex.c ****   
1337:../STM32F2xx_HAL_Driver/Src/stm32f2xx_hal_tim_ex.c ****   /* Enable the complementary One Pulse output */
1338:../STM32F2xx_HAL_Driver/Src/stm32f2xx_hal_tim_ex.c ****   TIM_CCxNChannelCmd(htim->Instance, OutputChannel, TIM_CCxN_ENABLE); 
 2583              		.loc 1 1338 0
 2584 0fe2 7B68     		ldr	r3, [r7, #4]
 2585 0fe4 1B68     		ldr	r3, [r3]
 2586 0fe6 1846     		mov	r0, r3
 2587 0fe8 3968     		ldr	r1, [r7]
 2588 0fea 0422     		movs	r2, #4
 2589 0fec 00F046FA 		bl	TIM_CCxNChannelCmd
1339:../STM32F2xx_HAL_Driver/Src/stm32f2xx_hal_tim_ex.c ****   
1340:../STM32F2xx_HAL_Driver/Src/stm32f2xx_hal_tim_ex.c ****   /* Enable the Main Ouput */
1341:../STM32F2xx_HAL_Driver/Src/stm32f2xx_hal_tim_ex.c ****   __HAL_TIM_MOE_ENABLE(htim);
 2590              		.loc 1 1341 0
 2591 0ff0 7B68     		ldr	r3, [r7, #4]
 2592 0ff2 1B68     		ldr	r3, [r3]
 2593 0ff4 7A68     		ldr	r2, [r7, #4]
 2594 0ff6 1268     		ldr	r2, [r2]
 2595 0ff8 526C     		ldr	r2, [r2, #68]
 2596 0ffa 42F40042 		orr	r2, r2, #32768
 2597 0ffe 5A64     		str	r2, [r3, #68]
1342:../STM32F2xx_HAL_Driver/Src/stm32f2xx_hal_tim_ex.c ****   
1343:../STM32F2xx_HAL_Driver/Src/stm32f2xx_hal_tim_ex.c ****   /* Return function status */
1344:../STM32F2xx_HAL_Driver/Src/stm32f2xx_hal_tim_ex.c ****   return HAL_OK;
 2598              		.loc 1 1344 0
 2599 1000 0023     		movs	r3, #0
1345:../STM32F2xx_HAL_Driver/Src/stm32f2xx_hal_tim_ex.c ****   } 
 2600              		.loc 1 1345 0
 2601 1002 1846     		mov	r0, r3
 2602 1004 0837     		adds	r7, r7, #8
 2603 1006 BD46     		mov	sp, r7
 2604              		@ sp needed
 2605 1008 80BD     		pop	{r7, pc}
 2606              		.cfi_endproc
 2607              	.LFE79:
 2609 100a 00BF     		.align	2
 2610              		.global	HAL_TIMEx_OnePulseN_Stop_IT
 2611              		.thumb
 2612              		.thumb_func
 2614              	HAL_TIMEx_OnePulseN_Stop_IT:
 2615              	.LFB80:
1346:../STM32F2xx_HAL_Driver/Src/stm32f2xx_hal_tim_ex.c ****   
1347:../STM32F2xx_HAL_Driver/Src/stm32f2xx_hal_tim_ex.c **** /**
1348:../STM32F2xx_HAL_Driver/Src/stm32f2xx_hal_tim_ex.c ****   * @brief  Stops the TIM One Pulse signal generation in interrupt mode on the
1349:../STM32F2xx_HAL_Driver/Src/stm32f2xx_hal_tim_ex.c ****   *         complementary channel.
1350:../STM32F2xx_HAL_Driver/Src/stm32f2xx_hal_tim_ex.c ****   * @param  htim : TIM One Pulse handle
1351:../STM32F2xx_HAL_Driver/Src/stm32f2xx_hal_tim_ex.c ****   * @param  OutputChannel : TIM Channel to be disabled
1352:../STM32F2xx_HAL_Driver/Src/stm32f2xx_hal_tim_ex.c ****   *          This parameter can be one of the following values:
1353:../STM32F2xx_HAL_Driver/Src/stm32f2xx_hal_tim_ex.c ****   *            @arg TIM_CHANNEL_1: TIM Channel 1 selected
1354:../STM32F2xx_HAL_Driver/Src/stm32f2xx_hal_tim_ex.c ****   *            @arg TIM_CHANNEL_2: TIM Channel 2 selected
1355:../STM32F2xx_HAL_Driver/Src/stm32f2xx_hal_tim_ex.c ****   * @retval HAL status
1356:../STM32F2xx_HAL_Driver/Src/stm32f2xx_hal_tim_ex.c ****   */
1357:../STM32F2xx_HAL_Driver/Src/stm32f2xx_hal_tim_ex.c **** HAL_StatusTypeDef HAL_TIMEx_OnePulseN_Stop_IT(TIM_HandleTypeDef *htim, uint32_t OutputChannel)
1358:../STM32F2xx_HAL_Driver/Src/stm32f2xx_hal_tim_ex.c **** {
 2616              		.loc 1 1358 0
 2617              		.cfi_startproc
 2618              		@ args = 0, pretend = 0, frame = 8
 2619              		@ frame_needed = 1, uses_anonymous_args = 0
 2620 100c 80B5     		push	{r7, lr}
 2621              		.cfi_def_cfa_offset 8
 2622              		.cfi_offset 7, -8
 2623              		.cfi_offset 14, -4
 2624 100e 82B0     		sub	sp, sp, #8
 2625              		.cfi_def_cfa_offset 16
 2626 1010 00AF     		add	r7, sp, #0
 2627              		.cfi_def_cfa_register 7
 2628 1012 7860     		str	r0, [r7, #4]
 2629 1014 3960     		str	r1, [r7]
1359:../STM32F2xx_HAL_Driver/Src/stm32f2xx_hal_tim_ex.c ****   /* Check the parameters */
1360:../STM32F2xx_HAL_Driver/Src/stm32f2xx_hal_tim_ex.c ****   assert_param(IS_TIM_CCXN_INSTANCE(htim->Instance, OutputChannel)); 
1361:../STM32F2xx_HAL_Driver/Src/stm32f2xx_hal_tim_ex.c **** 
1362:../STM32F2xx_HAL_Driver/Src/stm32f2xx_hal_tim_ex.c ****   /* Disable the TIM Capture/Compare 1 interrupt */
1363:../STM32F2xx_HAL_Driver/Src/stm32f2xx_hal_tim_ex.c ****   __HAL_TIM_DISABLE_IT(htim, TIM_IT_CC1);
 2630              		.loc 1 1363 0
 2631 1016 7B68     		ldr	r3, [r7, #4]
 2632 1018 1B68     		ldr	r3, [r3]
 2633 101a 7A68     		ldr	r2, [r7, #4]
 2634 101c 1268     		ldr	r2, [r2]
 2635 101e D268     		ldr	r2, [r2, #12]
 2636 1020 22F00202 		bic	r2, r2, #2
 2637 1024 DA60     		str	r2, [r3, #12]
1364:../STM32F2xx_HAL_Driver/Src/stm32f2xx_hal_tim_ex.c ****   
1365:../STM32F2xx_HAL_Driver/Src/stm32f2xx_hal_tim_ex.c ****   /* Disable the TIM Capture/Compare 2 interrupt */
1366:../STM32F2xx_HAL_Driver/Src/stm32f2xx_hal_tim_ex.c ****   __HAL_TIM_DISABLE_IT(htim, TIM_IT_CC2);
 2638              		.loc 1 1366 0
 2639 1026 7B68     		ldr	r3, [r7, #4]
 2640 1028 1B68     		ldr	r3, [r3]
 2641 102a 7A68     		ldr	r2, [r7, #4]
 2642 102c 1268     		ldr	r2, [r2]
 2643 102e D268     		ldr	r2, [r2, #12]
 2644 1030 22F00402 		bic	r2, r2, #4
 2645 1034 DA60     		str	r2, [r3, #12]
1367:../STM32F2xx_HAL_Driver/Src/stm32f2xx_hal_tim_ex.c ****   
1368:../STM32F2xx_HAL_Driver/Src/stm32f2xx_hal_tim_ex.c ****   /* Disable the complementary One Pulse output */
1369:../STM32F2xx_HAL_Driver/Src/stm32f2xx_hal_tim_ex.c ****   TIM_CCxNChannelCmd(htim->Instance, OutputChannel, TIM_CCxN_DISABLE);
 2646              		.loc 1 1369 0
 2647 1036 7B68     		ldr	r3, [r7, #4]
 2648 1038 1B68     		ldr	r3, [r3]
 2649 103a 1846     		mov	r0, r3
 2650 103c 3968     		ldr	r1, [r7]
 2651 103e 0022     		movs	r2, #0
 2652 1040 00F01CFA 		bl	TIM_CCxNChannelCmd
1370:../STM32F2xx_HAL_Driver/Src/stm32f2xx_hal_tim_ex.c ****   
1371:../STM32F2xx_HAL_Driver/Src/stm32f2xx_hal_tim_ex.c ****   /* Disable the Main Ouput */
1372:../STM32F2xx_HAL_Driver/Src/stm32f2xx_hal_tim_ex.c ****   __HAL_TIM_MOE_DISABLE(htim);
 2653              		.loc 1 1372 0
 2654 1044 7B68     		ldr	r3, [r7, #4]
 2655 1046 1B68     		ldr	r3, [r3]
 2656 1048 1A6A     		ldr	r2, [r3, #32]
 2657 104a 41F21113 		movw	r3, #4369
 2658 104e 1340     		ands	r3, r3, r2
 2659 1050 002B     		cmp	r3, #0
 2660 1052 0FD1     		bne	.L143
 2661              		.loc 1 1372 0 is_stmt 0 discriminator 1
 2662 1054 7B68     		ldr	r3, [r7, #4]
 2663 1056 1B68     		ldr	r3, [r3]
 2664 1058 1A6A     		ldr	r2, [r3, #32]
 2665 105a 40F24443 		movw	r3, #1092
 2666 105e 1340     		ands	r3, r3, r2
 2667 1060 002B     		cmp	r3, #0
 2668 1062 07D1     		bne	.L143
 2669 1064 7B68     		ldr	r3, [r7, #4]
 2670 1066 1B68     		ldr	r3, [r3]
 2671 1068 7A68     		ldr	r2, [r7, #4]
 2672 106a 1268     		ldr	r2, [r2]
 2673 106c 526C     		ldr	r2, [r2, #68]
 2674 106e 22F40042 		bic	r2, r2, #32768
 2675 1072 5A64     		str	r2, [r3, #68]
 2676              	.L143:
1373:../STM32F2xx_HAL_Driver/Src/stm32f2xx_hal_tim_ex.c ****   
1374:../STM32F2xx_HAL_Driver/Src/stm32f2xx_hal_tim_ex.c ****   /* Disable the Peripheral */
1375:../STM32F2xx_HAL_Driver/Src/stm32f2xx_hal_tim_ex.c ****    __HAL_TIM_DISABLE(htim);  
 2677              		.loc 1 1375 0 is_stmt 1
 2678 1074 7B68     		ldr	r3, [r7, #4]
 2679 1076 1B68     		ldr	r3, [r3]
 2680 1078 1A6A     		ldr	r2, [r3, #32]
 2681 107a 41F21113 		movw	r3, #4369
 2682 107e 1340     		ands	r3, r3, r2
 2683 1080 002B     		cmp	r3, #0
 2684 1082 0FD1     		bne	.L144
 2685              		.loc 1 1375 0 is_stmt 0 discriminator 1
 2686 1084 7B68     		ldr	r3, [r7, #4]
 2687 1086 1B68     		ldr	r3, [r3]
 2688 1088 1A6A     		ldr	r2, [r3, #32]
 2689 108a 40F24443 		movw	r3, #1092
 2690 108e 1340     		ands	r3, r3, r2
 2691 1090 002B     		cmp	r3, #0
 2692 1092 07D1     		bne	.L144
 2693 1094 7B68     		ldr	r3, [r7, #4]
 2694 1096 1B68     		ldr	r3, [r3]
 2695 1098 7A68     		ldr	r2, [r7, #4]
 2696 109a 1268     		ldr	r2, [r2]
 2697 109c 1268     		ldr	r2, [r2]
 2698 109e 22F00102 		bic	r2, r2, #1
 2699 10a2 1A60     		str	r2, [r3]
 2700              	.L144:
1376:../STM32F2xx_HAL_Driver/Src/stm32f2xx_hal_tim_ex.c ****   
1377:../STM32F2xx_HAL_Driver/Src/stm32f2xx_hal_tim_ex.c ****   /* Return function status */
1378:../STM32F2xx_HAL_Driver/Src/stm32f2xx_hal_tim_ex.c ****   return HAL_OK;
 2701              		.loc 1 1378 0 is_stmt 1
 2702 10a4 0023     		movs	r3, #0
1379:../STM32F2xx_HAL_Driver/Src/stm32f2xx_hal_tim_ex.c **** }
 2703              		.loc 1 1379 0
 2704 10a6 1846     		mov	r0, r3
 2705 10a8 0837     		adds	r7, r7, #8
 2706 10aa BD46     		mov	sp, r7
 2707              		@ sp needed
 2708 10ac 80BD     		pop	{r7, pc}
 2709              		.cfi_endproc
 2710              	.LFE80:
 2712 10ae 00BF     		.align	2
 2713              		.global	HAL_TIMEx_ConfigCommutationEvent
 2714              		.thumb
 2715              		.thumb_func
 2717              	HAL_TIMEx_ConfigCommutationEvent:
 2718              	.LFB81:
1380:../STM32F2xx_HAL_Driver/Src/stm32f2xx_hal_tim_ex.c **** 
1381:../STM32F2xx_HAL_Driver/Src/stm32f2xx_hal_tim_ex.c **** /**
1382:../STM32F2xx_HAL_Driver/Src/stm32f2xx_hal_tim_ex.c ****   * @}
1383:../STM32F2xx_HAL_Driver/Src/stm32f2xx_hal_tim_ex.c ****   */
1384:../STM32F2xx_HAL_Driver/Src/stm32f2xx_hal_tim_ex.c **** /** @defgroup TIMEx_Group5 Peripheral Control functions
1385:../STM32F2xx_HAL_Driver/Src/stm32f2xx_hal_tim_ex.c ****  *  @brief   	Peripheral Control functions 
1386:../STM32F2xx_HAL_Driver/Src/stm32f2xx_hal_tim_ex.c ****  *
1387:../STM32F2xx_HAL_Driver/Src/stm32f2xx_hal_tim_ex.c **** @verbatim   
1388:../STM32F2xx_HAL_Driver/Src/stm32f2xx_hal_tim_ex.c ****   ==============================================================================
1389:../STM32F2xx_HAL_Driver/Src/stm32f2xx_hal_tim_ex.c ****                     ##### Peripheral Control functions #####
1390:../STM32F2xx_HAL_Driver/Src/stm32f2xx_hal_tim_ex.c ****   ==============================================================================  
1391:../STM32F2xx_HAL_Driver/Src/stm32f2xx_hal_tim_ex.c ****   [..]  
1392:../STM32F2xx_HAL_Driver/Src/stm32f2xx_hal_tim_ex.c ****     This section provides functions allowing to:
1393:../STM32F2xx_HAL_Driver/Src/stm32f2xx_hal_tim_ex.c ****     (+) Configure The Input Output channels for OC, PWM, IC or One Pulse mode. 
1394:../STM32F2xx_HAL_Driver/Src/stm32f2xx_hal_tim_ex.c ****     (+) Configure External Clock source.
1395:../STM32F2xx_HAL_Driver/Src/stm32f2xx_hal_tim_ex.c ****     (+) Configure Complementary channels, break features and dead time.
1396:../STM32F2xx_HAL_Driver/Src/stm32f2xx_hal_tim_ex.c ****     (+) Configure Master and the Slave synchronization.
1397:../STM32F2xx_HAL_Driver/Src/stm32f2xx_hal_tim_ex.c ****     (+) Configure the commutation event in case of use of the Hall sensor interface.
1398:../STM32F2xx_HAL_Driver/Src/stm32f2xx_hal_tim_ex.c ****     (+) Configure the DMA Burst Mode.
1399:../STM32F2xx_HAL_Driver/Src/stm32f2xx_hal_tim_ex.c ****       
1400:../STM32F2xx_HAL_Driver/Src/stm32f2xx_hal_tim_ex.c **** @endverbatim
1401:../STM32F2xx_HAL_Driver/Src/stm32f2xx_hal_tim_ex.c ****   * @{
1402:../STM32F2xx_HAL_Driver/Src/stm32f2xx_hal_tim_ex.c ****   */
1403:../STM32F2xx_HAL_Driver/Src/stm32f2xx_hal_tim_ex.c **** /**
1404:../STM32F2xx_HAL_Driver/Src/stm32f2xx_hal_tim_ex.c ****   * @brief  Configure the TIM commutation event sequence.
1405:../STM32F2xx_HAL_Driver/Src/stm32f2xx_hal_tim_ex.c ****   * @note: this function is mandatory to use the commutation event in order to 
1406:../STM32F2xx_HAL_Driver/Src/stm32f2xx_hal_tim_ex.c ****   *        update the configuration at each commutation detection on the TRGI input of the Timer,
1407:../STM32F2xx_HAL_Driver/Src/stm32f2xx_hal_tim_ex.c ****   *        the typical use of this feature is with the use of another Timer(interface Timer) 
1408:../STM32F2xx_HAL_Driver/Src/stm32f2xx_hal_tim_ex.c ****   *        configured in Hall sensor interface, this interface Timer will generate the 
1409:../STM32F2xx_HAL_Driver/Src/stm32f2xx_hal_tim_ex.c ****   *        commutation at its TRGO output (connected to Timer used in this function) each time 
1410:../STM32F2xx_HAL_Driver/Src/stm32f2xx_hal_tim_ex.c ****   *        the TI1 of the Interface Timer detect a commutation at its input TI1.
1411:../STM32F2xx_HAL_Driver/Src/stm32f2xx_hal_tim_ex.c ****   * @param  htim: TIM handle
1412:../STM32F2xx_HAL_Driver/Src/stm32f2xx_hal_tim_ex.c ****   * @param  InputTrigger : the Internal trigger corresponding to the Timer Interfacing with the Hal
1413:../STM32F2xx_HAL_Driver/Src/stm32f2xx_hal_tim_ex.c ****   *          This parameter can be one of the following values:
1414:../STM32F2xx_HAL_Driver/Src/stm32f2xx_hal_tim_ex.c ****   *            @arg TIM_TS_ITR0: Internal trigger 0 selected
1415:../STM32F2xx_HAL_Driver/Src/stm32f2xx_hal_tim_ex.c ****   *            @arg TIM_TS_ITR1: Internal trigger 1 selected
1416:../STM32F2xx_HAL_Driver/Src/stm32f2xx_hal_tim_ex.c ****   *            @arg TIM_TS_ITR2: Internal trigger 2 selected
1417:../STM32F2xx_HAL_Driver/Src/stm32f2xx_hal_tim_ex.c ****   *            @arg TIM_TS_ITR3: Internal trigger 3 selected
1418:../STM32F2xx_HAL_Driver/Src/stm32f2xx_hal_tim_ex.c ****   *            @arg TIM_TS_NONE: No trigger is needed 
1419:../STM32F2xx_HAL_Driver/Src/stm32f2xx_hal_tim_ex.c ****   * @param  CommutationSource : the Commutation Event source
1420:../STM32F2xx_HAL_Driver/Src/stm32f2xx_hal_tim_ex.c ****   *          This parameter can be one of the following values:
1421:../STM32F2xx_HAL_Driver/Src/stm32f2xx_hal_tim_ex.c ****   *            @arg TIM_COMMUTATION_TRGI: Commutation source is the TRGI of the Interface Timer
1422:../STM32F2xx_HAL_Driver/Src/stm32f2xx_hal_tim_ex.c ****   *            @arg TIM_COMMUTATION_SOFTWARE:  Commutation source is set by software using the COMG
1423:../STM32F2xx_HAL_Driver/Src/stm32f2xx_hal_tim_ex.c ****   * @retval HAL status
1424:../STM32F2xx_HAL_Driver/Src/stm32f2xx_hal_tim_ex.c ****   */
1425:../STM32F2xx_HAL_Driver/Src/stm32f2xx_hal_tim_ex.c **** HAL_StatusTypeDef HAL_TIMEx_ConfigCommutationEvent(TIM_HandleTypeDef *htim, uint32_t  InputTrigger,
1426:../STM32F2xx_HAL_Driver/Src/stm32f2xx_hal_tim_ex.c **** {
 2719              		.loc 1 1426 0
 2720              		.cfi_startproc
 2721              		@ args = 0, pretend = 0, frame = 16
 2722              		@ frame_needed = 1, uses_anonymous_args = 0
 2723              		@ link register save eliminated.
 2724 10b0 80B4     		push	{r7}
 2725              		.cfi_def_cfa_offset 4
 2726              		.cfi_offset 7, -4
 2727 10b2 85B0     		sub	sp, sp, #20
 2728              		.cfi_def_cfa_offset 24
 2729 10b4 00AF     		add	r7, sp, #0
 2730              		.cfi_def_cfa_register 7
 2731 10b6 F860     		str	r0, [r7, #12]
 2732 10b8 B960     		str	r1, [r7, #8]
 2733 10ba 7A60     		str	r2, [r7, #4]
1427:../STM32F2xx_HAL_Driver/Src/stm32f2xx_hal_tim_ex.c ****   /* Check the parameters */
1428:../STM32F2xx_HAL_Driver/Src/stm32f2xx_hal_tim_ex.c ****   assert_param(IS_TIM_ADVANCED_INSTANCE(htim->Instance));
1429:../STM32F2xx_HAL_Driver/Src/stm32f2xx_hal_tim_ex.c ****   assert_param(IS_TIM_INTERNAL_TRIGGEREVENT_SELECTION(InputTrigger));
1430:../STM32F2xx_HAL_Driver/Src/stm32f2xx_hal_tim_ex.c ****   
1431:../STM32F2xx_HAL_Driver/Src/stm32f2xx_hal_tim_ex.c ****   __HAL_LOCK(htim);
 2734              		.loc 1 1431 0
 2735 10bc FB68     		ldr	r3, [r7, #12]
 2736 10be 93F83830 		ldrb	r3, [r3, #56]	@ zero_extendqisi2
 2737 10c2 012B     		cmp	r3, #1
 2738 10c4 01D1     		bne	.L147
 2739              		.loc 1 1431 0 is_stmt 0 discriminator 1
 2740 10c6 0223     		movs	r3, #2
 2741 10c8 3CE0     		b	.L148
 2742              	.L147:
 2743              		.loc 1 1431 0 discriminator 2
 2744 10ca FB68     		ldr	r3, [r7, #12]
 2745 10cc 0122     		movs	r2, #1
 2746 10ce 83F83820 		strb	r2, [r3, #56]
1432:../STM32F2xx_HAL_Driver/Src/stm32f2xx_hal_tim_ex.c ****   
1433:../STM32F2xx_HAL_Driver/Src/stm32f2xx_hal_tim_ex.c ****   if ((InputTrigger == TIM_TS_ITR0) || (InputTrigger == TIM_TS_ITR1) ||
 2747              		.loc 1 1433 0 is_stmt 1 discriminator 2
 2748 10d2 BB68     		ldr	r3, [r7, #8]
 2749 10d4 002B     		cmp	r3, #0
 2750 10d6 08D0     		beq	.L149
 2751              		.loc 1 1433 0 is_stmt 0 discriminator 1
 2752 10d8 BB68     		ldr	r3, [r7, #8]
 2753 10da 102B     		cmp	r3, #16
 2754 10dc 05D0     		beq	.L149
 2755 10de BB68     		ldr	r3, [r7, #8]
 2756 10e0 202B     		cmp	r3, #32
 2757 10e2 02D0     		beq	.L149
1434:../STM32F2xx_HAL_Driver/Src/stm32f2xx_hal_tim_ex.c ****       (InputTrigger == TIM_TS_ITR2) || (InputTrigger == TIM_TS_ITR3))
 2758              		.loc 1 1434 0 is_stmt 1
 2759 10e4 BB68     		ldr	r3, [r7, #8]
 2760 10e6 302B     		cmp	r3, #48
 2761 10e8 0FD1     		bne	.L150
 2762              	.L149:
1435:../STM32F2xx_HAL_Driver/Src/stm32f2xx_hal_tim_ex.c ****   {    
1436:../STM32F2xx_HAL_Driver/Src/stm32f2xx_hal_tim_ex.c ****     /* Select the Input trigger */
1437:../STM32F2xx_HAL_Driver/Src/stm32f2xx_hal_tim_ex.c ****     htim->Instance->SMCR &= ~TIM_SMCR_TS;
 2763              		.loc 1 1437 0
 2764 10ea FB68     		ldr	r3, [r7, #12]
 2765 10ec 1B68     		ldr	r3, [r3]
 2766 10ee FA68     		ldr	r2, [r7, #12]
 2767 10f0 1268     		ldr	r2, [r2]
 2768 10f2 9268     		ldr	r2, [r2, #8]
 2769 10f4 22F07002 		bic	r2, r2, #112
 2770 10f8 9A60     		str	r2, [r3, #8]
1438:../STM32F2xx_HAL_Driver/Src/stm32f2xx_hal_tim_ex.c ****     htim->Instance->SMCR |= InputTrigger;
 2771              		.loc 1 1438 0
 2772 10fa FB68     		ldr	r3, [r7, #12]
 2773 10fc 1B68     		ldr	r3, [r3]
 2774 10fe FA68     		ldr	r2, [r7, #12]
 2775 1100 1268     		ldr	r2, [r2]
 2776 1102 9168     		ldr	r1, [r2, #8]
 2777 1104 BA68     		ldr	r2, [r7, #8]
 2778 1106 0A43     		orrs	r2, r2, r1
 2779 1108 9A60     		str	r2, [r3, #8]
 2780              	.L150:
1439:../STM32F2xx_HAL_Driver/Src/stm32f2xx_hal_tim_ex.c ****   }
1440:../STM32F2xx_HAL_Driver/Src/stm32f2xx_hal_tim_ex.c ****     
1441:../STM32F2xx_HAL_Driver/Src/stm32f2xx_hal_tim_ex.c ****   /* Select the Capture Compare preload feature */
1442:../STM32F2xx_HAL_Driver/Src/stm32f2xx_hal_tim_ex.c ****   htim->Instance->CR2 |= TIM_CR2_CCPC;
 2781              		.loc 1 1442 0
 2782 110a FB68     		ldr	r3, [r7, #12]
 2783 110c 1B68     		ldr	r3, [r3]
 2784 110e FA68     		ldr	r2, [r7, #12]
 2785 1110 1268     		ldr	r2, [r2]
 2786 1112 5268     		ldr	r2, [r2, #4]
 2787 1114 42F00102 		orr	r2, r2, #1
 2788 1118 5A60     		str	r2, [r3, #4]
1443:../STM32F2xx_HAL_Driver/Src/stm32f2xx_hal_tim_ex.c ****   /* Select the Commutation event source */
1444:../STM32F2xx_HAL_Driver/Src/stm32f2xx_hal_tim_ex.c ****   htim->Instance->CR2 &= ~TIM_CR2_CCUS;
 2789              		.loc 1 1444 0
 2790 111a FB68     		ldr	r3, [r7, #12]
 2791 111c 1B68     		ldr	r3, [r3]
 2792 111e FA68     		ldr	r2, [r7, #12]
 2793 1120 1268     		ldr	r2, [r2]
 2794 1122 5268     		ldr	r2, [r2, #4]
 2795 1124 22F00402 		bic	r2, r2, #4
 2796 1128 5A60     		str	r2, [r3, #4]
1445:../STM32F2xx_HAL_Driver/Src/stm32f2xx_hal_tim_ex.c ****   htim->Instance->CR2 |= CommutationSource;
 2797              		.loc 1 1445 0
 2798 112a FB68     		ldr	r3, [r7, #12]
 2799 112c 1B68     		ldr	r3, [r3]
 2800 112e FA68     		ldr	r2, [r7, #12]
 2801 1130 1268     		ldr	r2, [r2]
 2802 1132 5168     		ldr	r1, [r2, #4]
 2803 1134 7A68     		ldr	r2, [r7, #4]
 2804 1136 0A43     		orrs	r2, r2, r1
 2805 1138 5A60     		str	r2, [r3, #4]
1446:../STM32F2xx_HAL_Driver/Src/stm32f2xx_hal_tim_ex.c ****     
1447:../STM32F2xx_HAL_Driver/Src/stm32f2xx_hal_tim_ex.c ****   __HAL_UNLOCK(htim);
 2806              		.loc 1 1447 0
 2807 113a FB68     		ldr	r3, [r7, #12]
 2808 113c 0022     		movs	r2, #0
 2809 113e 83F83820 		strb	r2, [r3, #56]
1448:../STM32F2xx_HAL_Driver/Src/stm32f2xx_hal_tim_ex.c ****   
1449:../STM32F2xx_HAL_Driver/Src/stm32f2xx_hal_tim_ex.c ****   return HAL_OK;
 2810              		.loc 1 1449 0
 2811 1142 0023     		movs	r3, #0
 2812              	.L148:
1450:../STM32F2xx_HAL_Driver/Src/stm32f2xx_hal_tim_ex.c **** }
 2813              		.loc 1 1450 0
 2814 1144 1846     		mov	r0, r3
 2815 1146 1437     		adds	r7, r7, #20
 2816 1148 BD46     		mov	sp, r7
 2817              		@ sp needed
 2818 114a 5DF8047B 		ldr	r7, [sp], #4
 2819 114e 7047     		bx	lr
 2820              		.cfi_endproc
 2821              	.LFE81:
 2823              		.align	2
 2824              		.global	HAL_TIMEx_ConfigCommutationEvent_IT
 2825              		.thumb
 2826              		.thumb_func
 2828              	HAL_TIMEx_ConfigCommutationEvent_IT:
 2829              	.LFB82:
1451:../STM32F2xx_HAL_Driver/Src/stm32f2xx_hal_tim_ex.c **** 
1452:../STM32F2xx_HAL_Driver/Src/stm32f2xx_hal_tim_ex.c **** /**
1453:../STM32F2xx_HAL_Driver/Src/stm32f2xx_hal_tim_ex.c ****   * @brief  Configure the TIM commutation event sequence with interrupt.
1454:../STM32F2xx_HAL_Driver/Src/stm32f2xx_hal_tim_ex.c ****   * @note: this function is mandatory to use the commutation event in order to 
1455:../STM32F2xx_HAL_Driver/Src/stm32f2xx_hal_tim_ex.c ****   *        update the configuration at each commutation detection on the TRGI input of the Timer,
1456:../STM32F2xx_HAL_Driver/Src/stm32f2xx_hal_tim_ex.c ****   *        the typical use of this feature is with the use of another Timer(interface Timer) 
1457:../STM32F2xx_HAL_Driver/Src/stm32f2xx_hal_tim_ex.c ****   *        configured in Hall sensor interface, this interface Timer will generate the 
1458:../STM32F2xx_HAL_Driver/Src/stm32f2xx_hal_tim_ex.c ****   *        commutation at its TRGO output (connected to Timer used in this function) each time 
1459:../STM32F2xx_HAL_Driver/Src/stm32f2xx_hal_tim_ex.c ****   *        the TI1 of the Interface Timer detect a commutation at its input TI1.
1460:../STM32F2xx_HAL_Driver/Src/stm32f2xx_hal_tim_ex.c ****   * @param  htim: TIM handle
1461:../STM32F2xx_HAL_Driver/Src/stm32f2xx_hal_tim_ex.c ****   * @param  InputTrigger : the Internal trigger corresponding to the Timer Interfacing with the Hal
1462:../STM32F2xx_HAL_Driver/Src/stm32f2xx_hal_tim_ex.c ****   *          This parameter can be one of the following values:
1463:../STM32F2xx_HAL_Driver/Src/stm32f2xx_hal_tim_ex.c ****   *            @arg TIM_TS_ITR0: Internal trigger 0 selected
1464:../STM32F2xx_HAL_Driver/Src/stm32f2xx_hal_tim_ex.c ****   *            @arg TIM_TS_ITR1: Internal trigger 1 selected
1465:../STM32F2xx_HAL_Driver/Src/stm32f2xx_hal_tim_ex.c ****   *            @arg TIM_TS_ITR2: Internal trigger 2 selected
1466:../STM32F2xx_HAL_Driver/Src/stm32f2xx_hal_tim_ex.c ****   *            @arg TIM_TS_ITR3: Internal trigger 3 selected
1467:../STM32F2xx_HAL_Driver/Src/stm32f2xx_hal_tim_ex.c ****   *            @arg TIM_TS_NONE: No trigger is needed 
1468:../STM32F2xx_HAL_Driver/Src/stm32f2xx_hal_tim_ex.c ****   * @param  CommutationSource : the Commutation Event source
1469:../STM32F2xx_HAL_Driver/Src/stm32f2xx_hal_tim_ex.c ****   *          This parameter can be one of the following values:
1470:../STM32F2xx_HAL_Driver/Src/stm32f2xx_hal_tim_ex.c ****   *            @arg TIM_COMMUTATION_TRGI: Commutation source is the TRGI of the Interface Timer
1471:../STM32F2xx_HAL_Driver/Src/stm32f2xx_hal_tim_ex.c ****   *            @arg TIM_COMMUTATION_SOFTWARE:  Commutation source is set by software using the COMG
1472:../STM32F2xx_HAL_Driver/Src/stm32f2xx_hal_tim_ex.c ****   * @retval HAL status
1473:../STM32F2xx_HAL_Driver/Src/stm32f2xx_hal_tim_ex.c ****   */
1474:../STM32F2xx_HAL_Driver/Src/stm32f2xx_hal_tim_ex.c **** HAL_StatusTypeDef HAL_TIMEx_ConfigCommutationEvent_IT(TIM_HandleTypeDef *htim, uint32_t  InputTrigg
1475:../STM32F2xx_HAL_Driver/Src/stm32f2xx_hal_tim_ex.c **** {
 2830              		.loc 1 1475 0
 2831              		.cfi_startproc
 2832              		@ args = 0, pretend = 0, frame = 16
 2833              		@ frame_needed = 1, uses_anonymous_args = 0
 2834              		@ link register save eliminated.
 2835 1150 80B4     		push	{r7}
 2836              		.cfi_def_cfa_offset 4
 2837              		.cfi_offset 7, -4
 2838 1152 85B0     		sub	sp, sp, #20
 2839              		.cfi_def_cfa_offset 24
 2840 1154 00AF     		add	r7, sp, #0
 2841              		.cfi_def_cfa_register 7
 2842 1156 F860     		str	r0, [r7, #12]
 2843 1158 B960     		str	r1, [r7, #8]
 2844 115a 7A60     		str	r2, [r7, #4]
1476:../STM32F2xx_HAL_Driver/Src/stm32f2xx_hal_tim_ex.c ****   /* Check the parameters */
1477:../STM32F2xx_HAL_Driver/Src/stm32f2xx_hal_tim_ex.c ****   assert_param(IS_TIM_ADVANCED_INSTANCE(htim->Instance));
1478:../STM32F2xx_HAL_Driver/Src/stm32f2xx_hal_tim_ex.c ****   assert_param(IS_TIM_INTERNAL_TRIGGEREVENT_SELECTION(InputTrigger));
1479:../STM32F2xx_HAL_Driver/Src/stm32f2xx_hal_tim_ex.c ****   
1480:../STM32F2xx_HAL_Driver/Src/stm32f2xx_hal_tim_ex.c ****   __HAL_LOCK(htim);
 2845              		.loc 1 1480 0
 2846 115c FB68     		ldr	r3, [r7, #12]
 2847 115e 93F83830 		ldrb	r3, [r3, #56]	@ zero_extendqisi2
 2848 1162 012B     		cmp	r3, #1
 2849 1164 01D1     		bne	.L152
 2850              		.loc 1 1480 0 is_stmt 0 discriminator 1
 2851 1166 0223     		movs	r3, #2
 2852 1168 44E0     		b	.L153
 2853              	.L152:
 2854              		.loc 1 1480 0 discriminator 2
 2855 116a FB68     		ldr	r3, [r7, #12]
 2856 116c 0122     		movs	r2, #1
 2857 116e 83F83820 		strb	r2, [r3, #56]
1481:../STM32F2xx_HAL_Driver/Src/stm32f2xx_hal_tim_ex.c ****   
1482:../STM32F2xx_HAL_Driver/Src/stm32f2xx_hal_tim_ex.c ****   if ((InputTrigger == TIM_TS_ITR0) || (InputTrigger == TIM_TS_ITR1) ||
 2858              		.loc 1 1482 0 is_stmt 1 discriminator 2
 2859 1172 BB68     		ldr	r3, [r7, #8]
 2860 1174 002B     		cmp	r3, #0
 2861 1176 08D0     		beq	.L154
 2862              		.loc 1 1482 0 is_stmt 0 discriminator 1
 2863 1178 BB68     		ldr	r3, [r7, #8]
 2864 117a 102B     		cmp	r3, #16
 2865 117c 05D0     		beq	.L154
 2866 117e BB68     		ldr	r3, [r7, #8]
 2867 1180 202B     		cmp	r3, #32
 2868 1182 02D0     		beq	.L154
1483:../STM32F2xx_HAL_Driver/Src/stm32f2xx_hal_tim_ex.c ****       (InputTrigger == TIM_TS_ITR2) || (InputTrigger == TIM_TS_ITR3))
 2869              		.loc 1 1483 0 is_stmt 1
 2870 1184 BB68     		ldr	r3, [r7, #8]
 2871 1186 302B     		cmp	r3, #48
 2872 1188 0FD1     		bne	.L155
 2873              	.L154:
1484:../STM32F2xx_HAL_Driver/Src/stm32f2xx_hal_tim_ex.c ****   {    
1485:../STM32F2xx_HAL_Driver/Src/stm32f2xx_hal_tim_ex.c ****     /* Select the Input trigger */
1486:../STM32F2xx_HAL_Driver/Src/stm32f2xx_hal_tim_ex.c ****     htim->Instance->SMCR &= ~TIM_SMCR_TS;
 2874              		.loc 1 1486 0
 2875 118a FB68     		ldr	r3, [r7, #12]
 2876 118c 1B68     		ldr	r3, [r3]
 2877 118e FA68     		ldr	r2, [r7, #12]
 2878 1190 1268     		ldr	r2, [r2]
 2879 1192 9268     		ldr	r2, [r2, #8]
 2880 1194 22F07002 		bic	r2, r2, #112
 2881 1198 9A60     		str	r2, [r3, #8]
1487:../STM32F2xx_HAL_Driver/Src/stm32f2xx_hal_tim_ex.c ****     htim->Instance->SMCR |= InputTrigger;
 2882              		.loc 1 1487 0
 2883 119a FB68     		ldr	r3, [r7, #12]
 2884 119c 1B68     		ldr	r3, [r3]
 2885 119e FA68     		ldr	r2, [r7, #12]
 2886 11a0 1268     		ldr	r2, [r2]
 2887 11a2 9168     		ldr	r1, [r2, #8]
 2888 11a4 BA68     		ldr	r2, [r7, #8]
 2889 11a6 0A43     		orrs	r2, r2, r1
 2890 11a8 9A60     		str	r2, [r3, #8]
 2891              	.L155:
1488:../STM32F2xx_HAL_Driver/Src/stm32f2xx_hal_tim_ex.c ****   }
1489:../STM32F2xx_HAL_Driver/Src/stm32f2xx_hal_tim_ex.c ****   
1490:../STM32F2xx_HAL_Driver/Src/stm32f2xx_hal_tim_ex.c ****   /* Select the Capture Compare preload feature */
1491:../STM32F2xx_HAL_Driver/Src/stm32f2xx_hal_tim_ex.c ****   htim->Instance->CR2 |= TIM_CR2_CCPC;
 2892              		.loc 1 1491 0
 2893 11aa FB68     		ldr	r3, [r7, #12]
 2894 11ac 1B68     		ldr	r3, [r3]
 2895 11ae FA68     		ldr	r2, [r7, #12]
 2896 11b0 1268     		ldr	r2, [r2]
 2897 11b2 5268     		ldr	r2, [r2, #4]
 2898 11b4 42F00102 		orr	r2, r2, #1
 2899 11b8 5A60     		str	r2, [r3, #4]
1492:../STM32F2xx_HAL_Driver/Src/stm32f2xx_hal_tim_ex.c ****   /* Select the Commutation event source */
1493:../STM32F2xx_HAL_Driver/Src/stm32f2xx_hal_tim_ex.c ****   htim->Instance->CR2 &= ~TIM_CR2_CCUS;
 2900              		.loc 1 1493 0
 2901 11ba FB68     		ldr	r3, [r7, #12]
 2902 11bc 1B68     		ldr	r3, [r3]
 2903 11be FA68     		ldr	r2, [r7, #12]
 2904 11c0 1268     		ldr	r2, [r2]
 2905 11c2 5268     		ldr	r2, [r2, #4]
 2906 11c4 22F00402 		bic	r2, r2, #4
 2907 11c8 5A60     		str	r2, [r3, #4]
1494:../STM32F2xx_HAL_Driver/Src/stm32f2xx_hal_tim_ex.c ****   htim->Instance->CR2 |= CommutationSource;
 2908              		.loc 1 1494 0
 2909 11ca FB68     		ldr	r3, [r7, #12]
 2910 11cc 1B68     		ldr	r3, [r3]
 2911 11ce FA68     		ldr	r2, [r7, #12]
 2912 11d0 1268     		ldr	r2, [r2]
 2913 11d2 5168     		ldr	r1, [r2, #4]
 2914 11d4 7A68     		ldr	r2, [r7, #4]
 2915 11d6 0A43     		orrs	r2, r2, r1
 2916 11d8 5A60     		str	r2, [r3, #4]
1495:../STM32F2xx_HAL_Driver/Src/stm32f2xx_hal_tim_ex.c ****     
1496:../STM32F2xx_HAL_Driver/Src/stm32f2xx_hal_tim_ex.c ****   /* Enable the Commutation Interrupt Request */
1497:../STM32F2xx_HAL_Driver/Src/stm32f2xx_hal_tim_ex.c ****   __HAL_TIM_ENABLE_IT(htim, TIM_IT_COM);
 2917              		.loc 1 1497 0
 2918 11da FB68     		ldr	r3, [r7, #12]
 2919 11dc 1B68     		ldr	r3, [r3]
 2920 11de FA68     		ldr	r2, [r7, #12]
 2921 11e0 1268     		ldr	r2, [r2]
 2922 11e2 D268     		ldr	r2, [r2, #12]
 2923 11e4 42F02002 		orr	r2, r2, #32
 2924 11e8 DA60     		str	r2, [r3, #12]
1498:../STM32F2xx_HAL_Driver/Src/stm32f2xx_hal_tim_ex.c **** 
1499:../STM32F2xx_HAL_Driver/Src/stm32f2xx_hal_tim_ex.c ****   __HAL_UNLOCK(htim);
 2925              		.loc 1 1499 0
 2926 11ea FB68     		ldr	r3, [r7, #12]
 2927 11ec 0022     		movs	r2, #0
 2928 11ee 83F83820 		strb	r2, [r3, #56]
1500:../STM32F2xx_HAL_Driver/Src/stm32f2xx_hal_tim_ex.c ****   
1501:../STM32F2xx_HAL_Driver/Src/stm32f2xx_hal_tim_ex.c ****   return HAL_OK;
 2929              		.loc 1 1501 0
 2930 11f2 0023     		movs	r3, #0
 2931              	.L153:
1502:../STM32F2xx_HAL_Driver/Src/stm32f2xx_hal_tim_ex.c **** }
 2932              		.loc 1 1502 0
 2933 11f4 1846     		mov	r0, r3
 2934 11f6 1437     		adds	r7, r7, #20
 2935 11f8 BD46     		mov	sp, r7
 2936              		@ sp needed
 2937 11fa 5DF8047B 		ldr	r7, [sp], #4
 2938 11fe 7047     		bx	lr
 2939              		.cfi_endproc
 2940              	.LFE82:
 2942              		.align	2
 2943              		.global	HAL_TIMEx_ConfigCommutationEvent_DMA
 2944              		.thumb
 2945              		.thumb_func
 2947              	HAL_TIMEx_ConfigCommutationEvent_DMA:
 2948              	.LFB83:
1503:../STM32F2xx_HAL_Driver/Src/stm32f2xx_hal_tim_ex.c **** 
1504:../STM32F2xx_HAL_Driver/Src/stm32f2xx_hal_tim_ex.c **** /**
1505:../STM32F2xx_HAL_Driver/Src/stm32f2xx_hal_tim_ex.c ****   * @brief  Configure the TIM commutation event sequence with DMA.
1506:../STM32F2xx_HAL_Driver/Src/stm32f2xx_hal_tim_ex.c ****   * @note: this function is mandatory to use the commutation event in order to 
1507:../STM32F2xx_HAL_Driver/Src/stm32f2xx_hal_tim_ex.c ****   *        update the configuration at each commutation detection on the TRGI input of the Timer,
1508:../STM32F2xx_HAL_Driver/Src/stm32f2xx_hal_tim_ex.c ****   *        the typical use of this feature is with the use of another Timer(interface Timer) 
1509:../STM32F2xx_HAL_Driver/Src/stm32f2xx_hal_tim_ex.c ****   *        configured in Hall sensor interface, this interface Timer will generate the 
1510:../STM32F2xx_HAL_Driver/Src/stm32f2xx_hal_tim_ex.c ****   *        commutation at its TRGO output (connected to Timer used in this function) each time 
1511:../STM32F2xx_HAL_Driver/Src/stm32f2xx_hal_tim_ex.c ****   *        the TI1 of the Interface Timer detect a commutation at its input TI1.
1512:../STM32F2xx_HAL_Driver/Src/stm32f2xx_hal_tim_ex.c ****   * @note: The user should configure the DMA in his own software, in This function only the COMDE b
1513:../STM32F2xx_HAL_Driver/Src/stm32f2xx_hal_tim_ex.c ****   * @param  htim: TIM handle
1514:../STM32F2xx_HAL_Driver/Src/stm32f2xx_hal_tim_ex.c ****   * @param  InputTrigger : the Internal trigger corresponding to the Timer Interfacing with the Hal
1515:../STM32F2xx_HAL_Driver/Src/stm32f2xx_hal_tim_ex.c ****   *          This parameter can be one of the following values:
1516:../STM32F2xx_HAL_Driver/Src/stm32f2xx_hal_tim_ex.c ****   *            @arg TIM_TS_ITR0: Internal trigger 0 selected
1517:../STM32F2xx_HAL_Driver/Src/stm32f2xx_hal_tim_ex.c ****   *            @arg TIM_TS_ITR1: Internal trigger 1 selected
1518:../STM32F2xx_HAL_Driver/Src/stm32f2xx_hal_tim_ex.c ****   *            @arg TIM_TS_ITR2: Internal trigger 2 selected
1519:../STM32F2xx_HAL_Driver/Src/stm32f2xx_hal_tim_ex.c ****   *            @arg TIM_TS_ITR3: Internal trigger 3 selected
1520:../STM32F2xx_HAL_Driver/Src/stm32f2xx_hal_tim_ex.c ****   *            @arg TIM_TS_NONE: No trigger is needed 
1521:../STM32F2xx_HAL_Driver/Src/stm32f2xx_hal_tim_ex.c ****   * @param  CommutationSource : the Commutation Event source
1522:../STM32F2xx_HAL_Driver/Src/stm32f2xx_hal_tim_ex.c ****   *          This parameter can be one of the following values:
1523:../STM32F2xx_HAL_Driver/Src/stm32f2xx_hal_tim_ex.c ****   *            @arg TIM_COMMUTATION_TRGI: Commutation source is the TRGI of the Interface Timer
1524:../STM32F2xx_HAL_Driver/Src/stm32f2xx_hal_tim_ex.c ****   *            @arg TIM_COMMUTATION_SOFTWARE:  Commutation source is set by software using the COMG
1525:../STM32F2xx_HAL_Driver/Src/stm32f2xx_hal_tim_ex.c ****   * @retval HAL status
1526:../STM32F2xx_HAL_Driver/Src/stm32f2xx_hal_tim_ex.c ****   */
1527:../STM32F2xx_HAL_Driver/Src/stm32f2xx_hal_tim_ex.c **** HAL_StatusTypeDef HAL_TIMEx_ConfigCommutationEvent_DMA(TIM_HandleTypeDef *htim, uint32_t  InputTrig
1528:../STM32F2xx_HAL_Driver/Src/stm32f2xx_hal_tim_ex.c **** {
 2949              		.loc 1 1528 0
 2950              		.cfi_startproc
 2951              		@ args = 0, pretend = 0, frame = 16
 2952              		@ frame_needed = 1, uses_anonymous_args = 0
 2953              		@ link register save eliminated.
 2954 1200 80B4     		push	{r7}
 2955              		.cfi_def_cfa_offset 4
 2956              		.cfi_offset 7, -4
 2957 1202 85B0     		sub	sp, sp, #20
 2958              		.cfi_def_cfa_offset 24
 2959 1204 00AF     		add	r7, sp, #0
 2960              		.cfi_def_cfa_register 7
 2961 1206 F860     		str	r0, [r7, #12]
 2962 1208 B960     		str	r1, [r7, #8]
 2963 120a 7A60     		str	r2, [r7, #4]
1529:../STM32F2xx_HAL_Driver/Src/stm32f2xx_hal_tim_ex.c ****   /* Check the parameters */
1530:../STM32F2xx_HAL_Driver/Src/stm32f2xx_hal_tim_ex.c ****   assert_param(IS_TIM_ADVANCED_INSTANCE(htim->Instance));
1531:../STM32F2xx_HAL_Driver/Src/stm32f2xx_hal_tim_ex.c ****   assert_param(IS_TIM_INTERNAL_TRIGGEREVENT_SELECTION(InputTrigger));
1532:../STM32F2xx_HAL_Driver/Src/stm32f2xx_hal_tim_ex.c ****   
1533:../STM32F2xx_HAL_Driver/Src/stm32f2xx_hal_tim_ex.c ****   __HAL_LOCK(htim);
 2964              		.loc 1 1533 0
 2965 120c FB68     		ldr	r3, [r7, #12]
 2966 120e 93F83830 		ldrb	r3, [r3, #56]	@ zero_extendqisi2
 2967 1212 012B     		cmp	r3, #1
 2968 1214 01D1     		bne	.L157
 2969              		.loc 1 1533 0 is_stmt 0 discriminator 1
 2970 1216 0223     		movs	r3, #2
 2971 1218 52E0     		b	.L158
 2972              	.L157:
 2973              		.loc 1 1533 0 discriminator 2
 2974 121a FB68     		ldr	r3, [r7, #12]
 2975 121c 0122     		movs	r2, #1
 2976 121e 83F83820 		strb	r2, [r3, #56]
1534:../STM32F2xx_HAL_Driver/Src/stm32f2xx_hal_tim_ex.c ****   
1535:../STM32F2xx_HAL_Driver/Src/stm32f2xx_hal_tim_ex.c ****   if ((InputTrigger == TIM_TS_ITR0) || (InputTrigger == TIM_TS_ITR1) ||
 2977              		.loc 1 1535 0 is_stmt 1 discriminator 2
 2978 1222 BB68     		ldr	r3, [r7, #8]
 2979 1224 002B     		cmp	r3, #0
 2980 1226 08D0     		beq	.L159
 2981              		.loc 1 1535 0 is_stmt 0 discriminator 1
 2982 1228 BB68     		ldr	r3, [r7, #8]
 2983 122a 102B     		cmp	r3, #16
 2984 122c 05D0     		beq	.L159
 2985 122e BB68     		ldr	r3, [r7, #8]
 2986 1230 202B     		cmp	r3, #32
 2987 1232 02D0     		beq	.L159
1536:../STM32F2xx_HAL_Driver/Src/stm32f2xx_hal_tim_ex.c ****       (InputTrigger == TIM_TS_ITR2) || (InputTrigger == TIM_TS_ITR3))
 2988              		.loc 1 1536 0 is_stmt 1
 2989 1234 BB68     		ldr	r3, [r7, #8]
 2990 1236 302B     		cmp	r3, #48
 2991 1238 0FD1     		bne	.L160
 2992              	.L159:
1537:../STM32F2xx_HAL_Driver/Src/stm32f2xx_hal_tim_ex.c ****   {    
1538:../STM32F2xx_HAL_Driver/Src/stm32f2xx_hal_tim_ex.c ****     /* Select the Input trigger */
1539:../STM32F2xx_HAL_Driver/Src/stm32f2xx_hal_tim_ex.c ****     htim->Instance->SMCR &= ~TIM_SMCR_TS;
 2993              		.loc 1 1539 0
 2994 123a FB68     		ldr	r3, [r7, #12]
 2995 123c 1B68     		ldr	r3, [r3]
 2996 123e FA68     		ldr	r2, [r7, #12]
 2997 1240 1268     		ldr	r2, [r2]
 2998 1242 9268     		ldr	r2, [r2, #8]
 2999 1244 22F07002 		bic	r2, r2, #112
 3000 1248 9A60     		str	r2, [r3, #8]
1540:../STM32F2xx_HAL_Driver/Src/stm32f2xx_hal_tim_ex.c ****     htim->Instance->SMCR |= InputTrigger;
 3001              		.loc 1 1540 0
 3002 124a FB68     		ldr	r3, [r7, #12]
 3003 124c 1B68     		ldr	r3, [r3]
 3004 124e FA68     		ldr	r2, [r7, #12]
 3005 1250 1268     		ldr	r2, [r2]
 3006 1252 9168     		ldr	r1, [r2, #8]
 3007 1254 BA68     		ldr	r2, [r7, #8]
 3008 1256 0A43     		orrs	r2, r2, r1
 3009 1258 9A60     		str	r2, [r3, #8]
 3010              	.L160:
1541:../STM32F2xx_HAL_Driver/Src/stm32f2xx_hal_tim_ex.c ****   }
1542:../STM32F2xx_HAL_Driver/Src/stm32f2xx_hal_tim_ex.c ****   
1543:../STM32F2xx_HAL_Driver/Src/stm32f2xx_hal_tim_ex.c ****   /* Select the Capture Compare preload feature */
1544:../STM32F2xx_HAL_Driver/Src/stm32f2xx_hal_tim_ex.c ****   htim->Instance->CR2 |= TIM_CR2_CCPC;
 3011              		.loc 1 1544 0
 3012 125a FB68     		ldr	r3, [r7, #12]
 3013 125c 1B68     		ldr	r3, [r3]
 3014 125e FA68     		ldr	r2, [r7, #12]
 3015 1260 1268     		ldr	r2, [r2]
 3016 1262 5268     		ldr	r2, [r2, #4]
 3017 1264 42F00102 		orr	r2, r2, #1
 3018 1268 5A60     		str	r2, [r3, #4]
1545:../STM32F2xx_HAL_Driver/Src/stm32f2xx_hal_tim_ex.c ****   /* Select the Commutation event source */
1546:../STM32F2xx_HAL_Driver/Src/stm32f2xx_hal_tim_ex.c ****   htim->Instance->CR2 &= ~TIM_CR2_CCUS;
 3019              		.loc 1 1546 0
 3020 126a FB68     		ldr	r3, [r7, #12]
 3021 126c 1B68     		ldr	r3, [r3]
 3022 126e FA68     		ldr	r2, [r7, #12]
 3023 1270 1268     		ldr	r2, [r2]
 3024 1272 5268     		ldr	r2, [r2, #4]
 3025 1274 22F00402 		bic	r2, r2, #4
 3026 1278 5A60     		str	r2, [r3, #4]
1547:../STM32F2xx_HAL_Driver/Src/stm32f2xx_hal_tim_ex.c ****   htim->Instance->CR2 |= CommutationSource;
 3027              		.loc 1 1547 0
 3028 127a FB68     		ldr	r3, [r7, #12]
 3029 127c 1B68     		ldr	r3, [r3]
 3030 127e FA68     		ldr	r2, [r7, #12]
 3031 1280 1268     		ldr	r2, [r2]
 3032 1282 5168     		ldr	r1, [r2, #4]
 3033 1284 7A68     		ldr	r2, [r7, #4]
 3034 1286 0A43     		orrs	r2, r2, r1
 3035 1288 5A60     		str	r2, [r3, #4]
1548:../STM32F2xx_HAL_Driver/Src/stm32f2xx_hal_tim_ex.c ****   
1549:../STM32F2xx_HAL_Driver/Src/stm32f2xx_hal_tim_ex.c ****   /* Enable the Commutation DMA Request */
1550:../STM32F2xx_HAL_Driver/Src/stm32f2xx_hal_tim_ex.c ****   /* Set the DMA Commutation Callback */
1551:../STM32F2xx_HAL_Driver/Src/stm32f2xx_hal_tim_ex.c ****   htim->hdma[TIM_DMA_ID_COMMUTATION]->XferCpltCallback = HAL_TIMEx_DMACommutationCplt;     
 3036              		.loc 1 1551 0
 3037 128a FB68     		ldr	r3, [r7, #12]
 3038 128c 1A6B     		ldr	r2, [r3, #48]
 3039 128e 40F20003 		movw	r3, #:lower16:HAL_TIMEx_DMACommutationCplt
 3040 1292 C0F20003 		movt	r3, #:upper16:HAL_TIMEx_DMACommutationCplt
 3041 1296 D363     		str	r3, [r2, #60]
1552:../STM32F2xx_HAL_Driver/Src/stm32f2xx_hal_tim_ex.c ****   /* Set the DMA error callback */
1553:../STM32F2xx_HAL_Driver/Src/stm32f2xx_hal_tim_ex.c ****   htim->hdma[TIM_DMA_ID_COMMUTATION]->XferErrorCallback = HAL_TIM_DMAError;
 3042              		.loc 1 1553 0
 3043 1298 FB68     		ldr	r3, [r7, #12]
 3044 129a 1A6B     		ldr	r2, [r3, #48]
 3045 129c 40F20003 		movw	r3, #:lower16:HAL_TIM_DMAError
 3046 12a0 C0F20003 		movt	r3, #:upper16:HAL_TIM_DMAError
 3047 12a4 9364     		str	r3, [r2, #72]
1554:../STM32F2xx_HAL_Driver/Src/stm32f2xx_hal_tim_ex.c ****   
1555:../STM32F2xx_HAL_Driver/Src/stm32f2xx_hal_tim_ex.c ****   /* Enable the Commutation DMA Request */
1556:../STM32F2xx_HAL_Driver/Src/stm32f2xx_hal_tim_ex.c ****   __HAL_TIM_ENABLE_DMA(htim, TIM_DMA_COM);
 3048              		.loc 1 1556 0
 3049 12a6 FB68     		ldr	r3, [r7, #12]
 3050 12a8 1B68     		ldr	r3, [r3]
 3051 12aa FA68     		ldr	r2, [r7, #12]
 3052 12ac 1268     		ldr	r2, [r2]
 3053 12ae D268     		ldr	r2, [r2, #12]
 3054 12b0 42F40052 		orr	r2, r2, #8192
 3055 12b4 DA60     		str	r2, [r3, #12]
1557:../STM32F2xx_HAL_Driver/Src/stm32f2xx_hal_tim_ex.c **** 
1558:../STM32F2xx_HAL_Driver/Src/stm32f2xx_hal_tim_ex.c ****   __HAL_UNLOCK(htim);
 3056              		.loc 1 1558 0
 3057 12b6 FB68     		ldr	r3, [r7, #12]
 3058 12b8 0022     		movs	r2, #0
 3059 12ba 83F83820 		strb	r2, [r3, #56]
1559:../STM32F2xx_HAL_Driver/Src/stm32f2xx_hal_tim_ex.c ****   
1560:../STM32F2xx_HAL_Driver/Src/stm32f2xx_hal_tim_ex.c ****   return HAL_OK;
 3060              		.loc 1 1560 0
 3061 12be 0023     		movs	r3, #0
 3062              	.L158:
1561:../STM32F2xx_HAL_Driver/Src/stm32f2xx_hal_tim_ex.c **** }
 3063              		.loc 1 1561 0
 3064 12c0 1846     		mov	r0, r3
 3065 12c2 1437     		adds	r7, r7, #20
 3066 12c4 BD46     		mov	sp, r7
 3067              		@ sp needed
 3068 12c6 5DF8047B 		ldr	r7, [sp], #4
 3069 12ca 7047     		bx	lr
 3070              		.cfi_endproc
 3071              	.LFE83:
 3073              		.align	2
 3074              		.global	HAL_TIMEx_MasterConfigSynchronization
 3075              		.thumb
 3076              		.thumb_func
 3078              	HAL_TIMEx_MasterConfigSynchronization:
 3079              	.LFB84:
1562:../STM32F2xx_HAL_Driver/Src/stm32f2xx_hal_tim_ex.c **** 
1563:../STM32F2xx_HAL_Driver/Src/stm32f2xx_hal_tim_ex.c **** /**
1564:../STM32F2xx_HAL_Driver/Src/stm32f2xx_hal_tim_ex.c ****   * @brief  Configures the TIM in master mode.
1565:../STM32F2xx_HAL_Driver/Src/stm32f2xx_hal_tim_ex.c ****   * @param  htim: TIM handle.   
1566:../STM32F2xx_HAL_Driver/Src/stm32f2xx_hal_tim_ex.c ****   * @param  sMasterConfig: pointer to a TIM_MasterConfigTypeDef structure that
1567:../STM32F2xx_HAL_Driver/Src/stm32f2xx_hal_tim_ex.c ****   *         contains the selected trigger output (TRGO) and the Master/Slave 
1568:../STM32F2xx_HAL_Driver/Src/stm32f2xx_hal_tim_ex.c ****   *         mode. 
1569:../STM32F2xx_HAL_Driver/Src/stm32f2xx_hal_tim_ex.c ****   * @retval HAL status
1570:../STM32F2xx_HAL_Driver/Src/stm32f2xx_hal_tim_ex.c ****   */
1571:../STM32F2xx_HAL_Driver/Src/stm32f2xx_hal_tim_ex.c **** HAL_StatusTypeDef HAL_TIMEx_MasterConfigSynchronization(TIM_HandleTypeDef *htim, TIM_MasterConfigTy
1572:../STM32F2xx_HAL_Driver/Src/stm32f2xx_hal_tim_ex.c **** {
 3080              		.loc 1 1572 0
 3081              		.cfi_startproc
 3082              		@ args = 0, pretend = 0, frame = 8
 3083              		@ frame_needed = 1, uses_anonymous_args = 0
 3084              		@ link register save eliminated.
 3085 12cc 80B4     		push	{r7}
 3086              		.cfi_def_cfa_offset 4
 3087              		.cfi_offset 7, -4
 3088 12ce 83B0     		sub	sp, sp, #12
 3089              		.cfi_def_cfa_offset 16
 3090 12d0 00AF     		add	r7, sp, #0
 3091              		.cfi_def_cfa_register 7
 3092 12d2 7860     		str	r0, [r7, #4]
 3093 12d4 3960     		str	r1, [r7]
1573:../STM32F2xx_HAL_Driver/Src/stm32f2xx_hal_tim_ex.c ****   /* Check the parameters */
1574:../STM32F2xx_HAL_Driver/Src/stm32f2xx_hal_tim_ex.c ****   assert_param(IS_TIM_MASTER_INSTANCE(htim->Instance));
1575:../STM32F2xx_HAL_Driver/Src/stm32f2xx_hal_tim_ex.c ****   assert_param(IS_TIM_TRGO_SOURCE(sMasterConfig->MasterOutputTrigger));
1576:../STM32F2xx_HAL_Driver/Src/stm32f2xx_hal_tim_ex.c ****   assert_param(IS_TIM_MSM_STATE(sMasterConfig->MasterSlaveMode));
1577:../STM32F2xx_HAL_Driver/Src/stm32f2xx_hal_tim_ex.c ****   
1578:../STM32F2xx_HAL_Driver/Src/stm32f2xx_hal_tim_ex.c ****   __HAL_LOCK(htim);
 3094              		.loc 1 1578 0
 3095 12d6 7B68     		ldr	r3, [r7, #4]
 3096 12d8 93F83830 		ldrb	r3, [r3, #56]	@ zero_extendqisi2
 3097 12dc 012B     		cmp	r3, #1
 3098 12de 01D1     		bne	.L162
 3099              		.loc 1 1578 0 is_stmt 0 discriminator 1
 3100 12e0 0223     		movs	r3, #2
 3101 12e2 32E0     		b	.L163
 3102              	.L162:
 3103              		.loc 1 1578 0 discriminator 2
 3104 12e4 7B68     		ldr	r3, [r7, #4]
 3105 12e6 0122     		movs	r2, #1
 3106 12e8 83F83820 		strb	r2, [r3, #56]
1579:../STM32F2xx_HAL_Driver/Src/stm32f2xx_hal_tim_ex.c ****   
1580:../STM32F2xx_HAL_Driver/Src/stm32f2xx_hal_tim_ex.c ****   htim->State = HAL_TIM_STATE_BUSY;
 3107              		.loc 1 1580 0 is_stmt 1 discriminator 2
 3108 12ec 7B68     		ldr	r3, [r7, #4]
 3109 12ee 0222     		movs	r2, #2
 3110 12f0 83F83920 		strb	r2, [r3, #57]
1581:../STM32F2xx_HAL_Driver/Src/stm32f2xx_hal_tim_ex.c **** 
1582:../STM32F2xx_HAL_Driver/Src/stm32f2xx_hal_tim_ex.c ****   /* Reset the MMS Bits */
1583:../STM32F2xx_HAL_Driver/Src/stm32f2xx_hal_tim_ex.c ****   htim->Instance->CR2 &= ~TIM_CR2_MMS;
 3111              		.loc 1 1583 0 discriminator 2
 3112 12f4 7B68     		ldr	r3, [r7, #4]
 3113 12f6 1B68     		ldr	r3, [r3]
 3114 12f8 7A68     		ldr	r2, [r7, #4]
 3115 12fa 1268     		ldr	r2, [r2]
 3116 12fc 5268     		ldr	r2, [r2, #4]
 3117 12fe 22F07002 		bic	r2, r2, #112
 3118 1302 5A60     		str	r2, [r3, #4]
1584:../STM32F2xx_HAL_Driver/Src/stm32f2xx_hal_tim_ex.c ****   /* Select the TRGO source */
1585:../STM32F2xx_HAL_Driver/Src/stm32f2xx_hal_tim_ex.c ****   htim->Instance->CR2 |= sMasterConfig->MasterOutputTrigger;
 3119              		.loc 1 1585 0 discriminator 2
 3120 1304 7B68     		ldr	r3, [r7, #4]
 3121 1306 1B68     		ldr	r3, [r3]
 3122 1308 7A68     		ldr	r2, [r7, #4]
 3123 130a 1268     		ldr	r2, [r2]
 3124 130c 5168     		ldr	r1, [r2, #4]
 3125 130e 3A68     		ldr	r2, [r7]
 3126 1310 1268     		ldr	r2, [r2]
 3127 1312 0A43     		orrs	r2, r2, r1
 3128 1314 5A60     		str	r2, [r3, #4]
1586:../STM32F2xx_HAL_Driver/Src/stm32f2xx_hal_tim_ex.c **** 
1587:../STM32F2xx_HAL_Driver/Src/stm32f2xx_hal_tim_ex.c ****   /* Reset the MSM Bit */
1588:../STM32F2xx_HAL_Driver/Src/stm32f2xx_hal_tim_ex.c ****   htim->Instance->SMCR &= ~TIM_SMCR_MSM;
 3129              		.loc 1 1588 0 discriminator 2
 3130 1316 7B68     		ldr	r3, [r7, #4]
 3131 1318 1B68     		ldr	r3, [r3]
 3132 131a 7A68     		ldr	r2, [r7, #4]
 3133 131c 1268     		ldr	r2, [r2]
 3134 131e 9268     		ldr	r2, [r2, #8]
 3135 1320 22F08002 		bic	r2, r2, #128
 3136 1324 9A60     		str	r2, [r3, #8]
1589:../STM32F2xx_HAL_Driver/Src/stm32f2xx_hal_tim_ex.c ****   /* Set or Reset the MSM Bit */
1590:../STM32F2xx_HAL_Driver/Src/stm32f2xx_hal_tim_ex.c ****   htim->Instance->SMCR |= sMasterConfig->MasterSlaveMode;
 3137              		.loc 1 1590 0 discriminator 2
 3138 1326 7B68     		ldr	r3, [r7, #4]
 3139 1328 1B68     		ldr	r3, [r3]
 3140 132a 7A68     		ldr	r2, [r7, #4]
 3141 132c 1268     		ldr	r2, [r2]
 3142 132e 9168     		ldr	r1, [r2, #8]
 3143 1330 3A68     		ldr	r2, [r7]
 3144 1332 5268     		ldr	r2, [r2, #4]
 3145 1334 0A43     		orrs	r2, r2, r1
 3146 1336 9A60     		str	r2, [r3, #8]
1591:../STM32F2xx_HAL_Driver/Src/stm32f2xx_hal_tim_ex.c ****   
1592:../STM32F2xx_HAL_Driver/Src/stm32f2xx_hal_tim_ex.c ****   htim->State = HAL_TIM_STATE_READY;
 3147              		.loc 1 1592 0 discriminator 2
 3148 1338 7B68     		ldr	r3, [r7, #4]
 3149 133a 0122     		movs	r2, #1
 3150 133c 83F83920 		strb	r2, [r3, #57]
1593:../STM32F2xx_HAL_Driver/Src/stm32f2xx_hal_tim_ex.c ****   
1594:../STM32F2xx_HAL_Driver/Src/stm32f2xx_hal_tim_ex.c ****   __HAL_UNLOCK(htim);
 3151              		.loc 1 1594 0 discriminator 2
 3152 1340 7B68     		ldr	r3, [r7, #4]
 3153 1342 0022     		movs	r2, #0
 3154 1344 83F83820 		strb	r2, [r3, #56]
1595:../STM32F2xx_HAL_Driver/Src/stm32f2xx_hal_tim_ex.c ****   
1596:../STM32F2xx_HAL_Driver/Src/stm32f2xx_hal_tim_ex.c ****   return HAL_OK;
 3155              		.loc 1 1596 0 discriminator 2
 3156 1348 0023     		movs	r3, #0
 3157              	.L163:
1597:../STM32F2xx_HAL_Driver/Src/stm32f2xx_hal_tim_ex.c **** } 
 3158              		.loc 1 1597 0
 3159 134a 1846     		mov	r0, r3
 3160 134c 0C37     		adds	r7, r7, #12
 3161 134e BD46     		mov	sp, r7
 3162              		@ sp needed
 3163 1350 5DF8047B 		ldr	r7, [sp], #4
 3164 1354 7047     		bx	lr
 3165              		.cfi_endproc
 3166              	.LFE84:
 3168 1356 00BF     		.align	2
 3169              		.global	HAL_TIMEx_ConfigBreakDeadTime
 3170              		.thumb
 3171              		.thumb_func
 3173              	HAL_TIMEx_ConfigBreakDeadTime:
 3174              	.LFB85:
1598:../STM32F2xx_HAL_Driver/Src/stm32f2xx_hal_tim_ex.c ****                                                      
1599:../STM32F2xx_HAL_Driver/Src/stm32f2xx_hal_tim_ex.c **** /**
1600:../STM32F2xx_HAL_Driver/Src/stm32f2xx_hal_tim_ex.c ****   * @brief   Configures the Break feature, dead time, Lock level, OSSI/OSSR State
1601:../STM32F2xx_HAL_Driver/Src/stm32f2xx_hal_tim_ex.c ****   *         and the AOE(automatic output enable).
1602:../STM32F2xx_HAL_Driver/Src/stm32f2xx_hal_tim_ex.c ****   * @param  htim: TIM handle
1603:../STM32F2xx_HAL_Driver/Src/stm32f2xx_hal_tim_ex.c ****   * @param  sBreakDeadTimeConfig: pointer to a TIM_ConfigBreakDeadConfig_TypeDef structure that
1604:../STM32F2xx_HAL_Driver/Src/stm32f2xx_hal_tim_ex.c ****   *         contains the BDTR Register configuration  information for the TIM peripheral. 
1605:../STM32F2xx_HAL_Driver/Src/stm32f2xx_hal_tim_ex.c ****   * @retval HAL status
1606:../STM32F2xx_HAL_Driver/Src/stm32f2xx_hal_tim_ex.c ****   */    
1607:../STM32F2xx_HAL_Driver/Src/stm32f2xx_hal_tim_ex.c **** HAL_StatusTypeDef HAL_TIMEx_ConfigBreakDeadTime(TIM_HandleTypeDef *htim, 
1608:../STM32F2xx_HAL_Driver/Src/stm32f2xx_hal_tim_ex.c ****                                               TIM_BreakDeadTimeConfigTypeDef * sBreakDeadTimeConfig
1609:../STM32F2xx_HAL_Driver/Src/stm32f2xx_hal_tim_ex.c **** {
 3175              		.loc 1 1609 0
 3176              		.cfi_startproc
 3177              		@ args = 0, pretend = 0, frame = 8
 3178              		@ frame_needed = 1, uses_anonymous_args = 0
 3179              		@ link register save eliminated.
 3180 1358 80B4     		push	{r7}
 3181              		.cfi_def_cfa_offset 4
 3182              		.cfi_offset 7, -4
 3183 135a 83B0     		sub	sp, sp, #12
 3184              		.cfi_def_cfa_offset 16
 3185 135c 00AF     		add	r7, sp, #0
 3186              		.cfi_def_cfa_register 7
 3187 135e 7860     		str	r0, [r7, #4]
 3188 1360 3960     		str	r1, [r7]
1610:../STM32F2xx_HAL_Driver/Src/stm32f2xx_hal_tim_ex.c ****   /* Check the parameters */
1611:../STM32F2xx_HAL_Driver/Src/stm32f2xx_hal_tim_ex.c ****   assert_param(IS_TIM_CC4_INSTANCE(htim->Instance));
1612:../STM32F2xx_HAL_Driver/Src/stm32f2xx_hal_tim_ex.c ****   assert_param(IS_TIM_OSSR_STATE(sBreakDeadTimeConfig->OffStateRunMode));
1613:../STM32F2xx_HAL_Driver/Src/stm32f2xx_hal_tim_ex.c ****   assert_param(IS_TIM_OSSI_STATE(sBreakDeadTimeConfig->OffStateIDLEMode));
1614:../STM32F2xx_HAL_Driver/Src/stm32f2xx_hal_tim_ex.c ****   assert_param(IS_TIM_LOCK_LEVEL(sBreakDeadTimeConfig->LockLevel));
1615:../STM32F2xx_HAL_Driver/Src/stm32f2xx_hal_tim_ex.c ****   assert_param(IS_TIM_BREAK_STATE(sBreakDeadTimeConfig->BreakState));
1616:../STM32F2xx_HAL_Driver/Src/stm32f2xx_hal_tim_ex.c ****   assert_param(IS_TIM_BREAK_POLARITY(sBreakDeadTimeConfig->BreakPolarity));
1617:../STM32F2xx_HAL_Driver/Src/stm32f2xx_hal_tim_ex.c ****   assert_param(IS_TIM_AUTOMATIC_OUTPUT_STATE(sBreakDeadTimeConfig->AutomaticOutput));
1618:../STM32F2xx_HAL_Driver/Src/stm32f2xx_hal_tim_ex.c ****   
1619:../STM32F2xx_HAL_Driver/Src/stm32f2xx_hal_tim_ex.c ****   /* Process Locked */
1620:../STM32F2xx_HAL_Driver/Src/stm32f2xx_hal_tim_ex.c ****   __HAL_LOCK(htim);
 3189              		.loc 1 1620 0
 3190 1362 7B68     		ldr	r3, [r7, #4]
 3191 1364 93F83830 		ldrb	r3, [r3, #56]	@ zero_extendqisi2
 3192 1368 012B     		cmp	r3, #1
 3193 136a 01D1     		bne	.L165
 3194              		.loc 1 1620 0 is_stmt 0 discriminator 1
 3195 136c 0223     		movs	r3, #2
 3196 136e 27E0     		b	.L166
 3197              	.L165:
 3198              		.loc 1 1620 0 discriminator 2
 3199 1370 7B68     		ldr	r3, [r7, #4]
 3200 1372 0122     		movs	r2, #1
 3201 1374 83F83820 		strb	r2, [r3, #56]
1621:../STM32F2xx_HAL_Driver/Src/stm32f2xx_hal_tim_ex.c ****   
1622:../STM32F2xx_HAL_Driver/Src/stm32f2xx_hal_tim_ex.c ****   htim->State = HAL_TIM_STATE_BUSY;
 3202              		.loc 1 1622 0 is_stmt 1 discriminator 2
 3203 1378 7B68     		ldr	r3, [r7, #4]
 3204 137a 0222     		movs	r2, #2
 3205 137c 83F83920 		strb	r2, [r3, #57]
1623:../STM32F2xx_HAL_Driver/Src/stm32f2xx_hal_tim_ex.c **** 
1624:../STM32F2xx_HAL_Driver/Src/stm32f2xx_hal_tim_ex.c ****   /* Set the Lock level, the Break enable Bit and the Polarity, the OSSR State,
1625:../STM32F2xx_HAL_Driver/Src/stm32f2xx_hal_tim_ex.c ****      the OSSI State, the dead time value and the Automatic Output Enable Bit */
1626:../STM32F2xx_HAL_Driver/Src/stm32f2xx_hal_tim_ex.c ****   htim->Instance->BDTR = (uint32_t)sBreakDeadTimeConfig->OffStateRunMode  | 
 3206              		.loc 1 1626 0 discriminator 2
 3207 1380 7B68     		ldr	r3, [r7, #4]
 3208 1382 1B68     		ldr	r3, [r3]
 3209 1384 3A68     		ldr	r2, [r7]
 3210 1386 1168     		ldr	r1, [r2]
1627:../STM32F2xx_HAL_Driver/Src/stm32f2xx_hal_tim_ex.c ****                                    sBreakDeadTimeConfig->OffStateIDLEMode |
 3211              		.loc 1 1627 0 discriminator 2
 3212 1388 3A68     		ldr	r2, [r7]
 3213 138a 5268     		ldr	r2, [r2, #4]
1626:../STM32F2xx_HAL_Driver/Src/stm32f2xx_hal_tim_ex.c ****                                    sBreakDeadTimeConfig->OffStateIDLEMode |
 3214              		.loc 1 1626 0 discriminator 2
 3215 138c 1143     		orrs	r1, r1, r2
1628:../STM32F2xx_HAL_Driver/Src/stm32f2xx_hal_tim_ex.c ****                                    sBreakDeadTimeConfig->LockLevel        |
 3216              		.loc 1 1628 0 discriminator 2
 3217 138e 3A68     		ldr	r2, [r7]
 3218 1390 9268     		ldr	r2, [r2, #8]
1627:../STM32F2xx_HAL_Driver/Src/stm32f2xx_hal_tim_ex.c ****                                    sBreakDeadTimeConfig->OffStateIDLEMode |
 3219              		.loc 1 1627 0 discriminator 2
 3220 1392 1143     		orrs	r1, r1, r2
1629:../STM32F2xx_HAL_Driver/Src/stm32f2xx_hal_tim_ex.c ****                                    sBreakDeadTimeConfig->DeadTime         |
 3221              		.loc 1 1629 0 discriminator 2
 3222 1394 3A68     		ldr	r2, [r7]
 3223 1396 D268     		ldr	r2, [r2, #12]
1628:../STM32F2xx_HAL_Driver/Src/stm32f2xx_hal_tim_ex.c ****                                    sBreakDeadTimeConfig->LockLevel        |
 3224              		.loc 1 1628 0 discriminator 2
 3225 1398 1143     		orrs	r1, r1, r2
1630:../STM32F2xx_HAL_Driver/Src/stm32f2xx_hal_tim_ex.c ****                                    sBreakDeadTimeConfig->BreakState       |
 3226              		.loc 1 1630 0 discriminator 2
 3227 139a 3A68     		ldr	r2, [r7]
 3228 139c 1269     		ldr	r2, [r2, #16]
1629:../STM32F2xx_HAL_Driver/Src/stm32f2xx_hal_tim_ex.c ****                                    sBreakDeadTimeConfig->DeadTime         |
 3229              		.loc 1 1629 0 discriminator 2
 3230 139e 1143     		orrs	r1, r1, r2
1631:../STM32F2xx_HAL_Driver/Src/stm32f2xx_hal_tim_ex.c ****                                    sBreakDeadTimeConfig->BreakPolarity    |
 3231              		.loc 1 1631 0 discriminator 2
 3232 13a0 3A68     		ldr	r2, [r7]
 3233 13a2 5269     		ldr	r2, [r2, #20]
1630:../STM32F2xx_HAL_Driver/Src/stm32f2xx_hal_tim_ex.c ****                                    sBreakDeadTimeConfig->BreakState       |
 3234              		.loc 1 1630 0 discriminator 2
 3235 13a4 1143     		orrs	r1, r1, r2
1632:../STM32F2xx_HAL_Driver/Src/stm32f2xx_hal_tim_ex.c ****                                    sBreakDeadTimeConfig->AutomaticOutput;
 3236              		.loc 1 1632 0 discriminator 2
 3237 13a6 3A68     		ldr	r2, [r7]
 3238 13a8 9269     		ldr	r2, [r2, #24]
1631:../STM32F2xx_HAL_Driver/Src/stm32f2xx_hal_tim_ex.c ****                                    sBreakDeadTimeConfig->BreakPolarity    |
 3239              		.loc 1 1631 0 discriminator 2
 3240 13aa 0A43     		orrs	r2, r2, r1
1626:../STM32F2xx_HAL_Driver/Src/stm32f2xx_hal_tim_ex.c ****                                    sBreakDeadTimeConfig->OffStateIDLEMode |
 3241              		.loc 1 1626 0 discriminator 2
 3242 13ac 5A64     		str	r2, [r3, #68]
1633:../STM32F2xx_HAL_Driver/Src/stm32f2xx_hal_tim_ex.c ****   
1634:../STM32F2xx_HAL_Driver/Src/stm32f2xx_hal_tim_ex.c ****                                    
1635:../STM32F2xx_HAL_Driver/Src/stm32f2xx_hal_tim_ex.c ****   htim->State = HAL_TIM_STATE_READY;                                 
 3243              		.loc 1 1635 0 discriminator 2
 3244 13ae 7B68     		ldr	r3, [r7, #4]
 3245 13b0 0122     		movs	r2, #1
 3246 13b2 83F83920 		strb	r2, [r3, #57]
1636:../STM32F2xx_HAL_Driver/Src/stm32f2xx_hal_tim_ex.c ****   
1637:../STM32F2xx_HAL_Driver/Src/stm32f2xx_hal_tim_ex.c ****   __HAL_UNLOCK(htim);
 3247              		.loc 1 1637 0 discriminator 2
 3248 13b6 7B68     		ldr	r3, [r7, #4]
 3249 13b8 0022     		movs	r2, #0
 3250 13ba 83F83820 		strb	r2, [r3, #56]
1638:../STM32F2xx_HAL_Driver/Src/stm32f2xx_hal_tim_ex.c ****   
1639:../STM32F2xx_HAL_Driver/Src/stm32f2xx_hal_tim_ex.c ****   return HAL_OK;
 3251              		.loc 1 1639 0 discriminator 2
 3252 13be 0023     		movs	r3, #0
 3253              	.L166:
1640:../STM32F2xx_HAL_Driver/Src/stm32f2xx_hal_tim_ex.c **** }
 3254              		.loc 1 1640 0
 3255 13c0 1846     		mov	r0, r3
 3256 13c2 0C37     		adds	r7, r7, #12
 3257 13c4 BD46     		mov	sp, r7
 3258              		@ sp needed
 3259 13c6 5DF8047B 		ldr	r7, [sp], #4
 3260 13ca 7047     		bx	lr
 3261              		.cfi_endproc
 3262              	.LFE85:
 3264              		.align	2
 3265              		.global	HAL_TIMEx_RemapConfig
 3266              		.thumb
 3267              		.thumb_func
 3269              	HAL_TIMEx_RemapConfig:
 3270              	.LFB86:
1641:../STM32F2xx_HAL_Driver/Src/stm32f2xx_hal_tim_ex.c **** 
1642:../STM32F2xx_HAL_Driver/Src/stm32f2xx_hal_tim_ex.c **** /**
1643:../STM32F2xx_HAL_Driver/Src/stm32f2xx_hal_tim_ex.c ****   * @brief  Configures the TIM2, TIM5 and TIM11 Remapping input capabilities.
1644:../STM32F2xx_HAL_Driver/Src/stm32f2xx_hal_tim_ex.c ****   * @param  htim: TIM handle.
1645:../STM32F2xx_HAL_Driver/Src/stm32f2xx_hal_tim_ex.c ****   * @param  TIM_Remap: specifies the TIM input remapping source.
1646:../STM32F2xx_HAL_Driver/Src/stm32f2xx_hal_tim_ex.c ****   *          This parameter can be one of the following values:
1647:../STM32F2xx_HAL_Driver/Src/stm32f2xx_hal_tim_ex.c ****   *            @arg TIM_TIM2_TIM8_TRGO: TIM2 ITR1 input is connected to TIM8 Trigger output(default
1648:../STM32F2xx_HAL_Driver/Src/stm32f2xx_hal_tim_ex.c ****   *            @arg TIM_TIM2_ETH_PTP:   TIM2 ITR1 input is connected to ETH PTP trogger output.
1649:../STM32F2xx_HAL_Driver/Src/stm32f2xx_hal_tim_ex.c ****   *            @arg TIM_TIM2_USBFS_SOF: TIM2 ITR1 input is connected to USB FS SOF. 
1650:../STM32F2xx_HAL_Driver/Src/stm32f2xx_hal_tim_ex.c ****   *            @arg TIM_TIM2_USBHS_SOF: TIM2 ITR1 input is connected to USB HS SOF. 
1651:../STM32F2xx_HAL_Driver/Src/stm32f2xx_hal_tim_ex.c ****   *            @arg TIM_TIM5_GPIO:      TIM5 CH4 input is connected to dedicated Timer pin(default)
1652:../STM32F2xx_HAL_Driver/Src/stm32f2xx_hal_tim_ex.c ****   *            @arg TIM_TIM5_LSI:       TIM5 CH4 input is connected to LSI clock.
1653:../STM32F2xx_HAL_Driver/Src/stm32f2xx_hal_tim_ex.c ****   *            @arg TIM_TIM5_LSE:       TIM5 CH4 input is connected to LSE clock.
1654:../STM32F2xx_HAL_Driver/Src/stm32f2xx_hal_tim_ex.c ****   *            @arg TIM_TIM5_RTC:       TIM5 CH4 input is connected to RTC Output event.
1655:../STM32F2xx_HAL_Driver/Src/stm32f2xx_hal_tim_ex.c ****   *            @arg TIM_TIM11_GPIO:     TIM11 CH4 input is connected to dedicated Timer pin(default
1656:../STM32F2xx_HAL_Driver/Src/stm32f2xx_hal_tim_ex.c ****   *            @arg TIM_TIM11_HSE:      TIM11 CH4 input is connected to HSE_RTC clock
1657:../STM32F2xx_HAL_Driver/Src/stm32f2xx_hal_tim_ex.c ****   *                                     (HSE divided by a programmable prescaler)  
1658:../STM32F2xx_HAL_Driver/Src/stm32f2xx_hal_tim_ex.c ****   * @retval HAL status
1659:../STM32F2xx_HAL_Driver/Src/stm32f2xx_hal_tim_ex.c ****   */
1660:../STM32F2xx_HAL_Driver/Src/stm32f2xx_hal_tim_ex.c **** HAL_StatusTypeDef HAL_TIMEx_RemapConfig(TIM_HandleTypeDef *htim, uint32_t Remap)
1661:../STM32F2xx_HAL_Driver/Src/stm32f2xx_hal_tim_ex.c **** {
 3271              		.loc 1 1661 0
 3272              		.cfi_startproc
 3273              		@ args = 0, pretend = 0, frame = 8
 3274              		@ frame_needed = 1, uses_anonymous_args = 0
 3275              		@ link register save eliminated.
 3276 13cc 80B4     		push	{r7}
 3277              		.cfi_def_cfa_offset 4
 3278              		.cfi_offset 7, -4
 3279 13ce 83B0     		sub	sp, sp, #12
 3280              		.cfi_def_cfa_offset 16
 3281 13d0 00AF     		add	r7, sp, #0
 3282              		.cfi_def_cfa_register 7
 3283 13d2 7860     		str	r0, [r7, #4]
 3284 13d4 3960     		str	r1, [r7]
1662:../STM32F2xx_HAL_Driver/Src/stm32f2xx_hal_tim_ex.c ****   __HAL_LOCK(htim);
 3285              		.loc 1 1662 0
 3286 13d6 7B68     		ldr	r3, [r7, #4]
 3287 13d8 93F83830 		ldrb	r3, [r3, #56]	@ zero_extendqisi2
 3288 13dc 012B     		cmp	r3, #1
 3289 13de 01D1     		bne	.L168
 3290              		.loc 1 1662 0 is_stmt 0 discriminator 1
 3291 13e0 0223     		movs	r3, #2
 3292 13e2 10E0     		b	.L169
 3293              	.L168:
 3294              		.loc 1 1662 0 discriminator 2
 3295 13e4 7B68     		ldr	r3, [r7, #4]
 3296 13e6 0122     		movs	r2, #1
 3297 13e8 83F83820 		strb	r2, [r3, #56]
1663:../STM32F2xx_HAL_Driver/Src/stm32f2xx_hal_tim_ex.c ****     
1664:../STM32F2xx_HAL_Driver/Src/stm32f2xx_hal_tim_ex.c ****   /* Check parameters */
1665:../STM32F2xx_HAL_Driver/Src/stm32f2xx_hal_tim_ex.c ****   assert_param(IS_TIM_REMAP_INSTANCE(htim->Instance));
1666:../STM32F2xx_HAL_Driver/Src/stm32f2xx_hal_tim_ex.c ****   assert_param(IS_TIM_REMAP(Remap));
1667:../STM32F2xx_HAL_Driver/Src/stm32f2xx_hal_tim_ex.c ****   
1668:../STM32F2xx_HAL_Driver/Src/stm32f2xx_hal_tim_ex.c ****   /* Set the Timer remapping configuration */
1669:../STM32F2xx_HAL_Driver/Src/stm32f2xx_hal_tim_ex.c ****   htim->Instance->OR = Remap;
 3298              		.loc 1 1669 0 is_stmt 1 discriminator 2
 3299 13ec 7B68     		ldr	r3, [r7, #4]
 3300 13ee 1B68     		ldr	r3, [r3]
 3301 13f0 3A68     		ldr	r2, [r7]
 3302 13f2 1A65     		str	r2, [r3, #80]
1670:../STM32F2xx_HAL_Driver/Src/stm32f2xx_hal_tim_ex.c ****   
1671:../STM32F2xx_HAL_Driver/Src/stm32f2xx_hal_tim_ex.c ****   htim->State = HAL_TIM_STATE_READY;
 3303              		.loc 1 1671 0 discriminator 2
 3304 13f4 7B68     		ldr	r3, [r7, #4]
 3305 13f6 0122     		movs	r2, #1
 3306 13f8 83F83920 		strb	r2, [r3, #57]
1672:../STM32F2xx_HAL_Driver/Src/stm32f2xx_hal_tim_ex.c ****   
1673:../STM32F2xx_HAL_Driver/Src/stm32f2xx_hal_tim_ex.c ****   __HAL_UNLOCK(htim);  
 3307              		.loc 1 1673 0 discriminator 2
 3308 13fc 7B68     		ldr	r3, [r7, #4]
 3309 13fe 0022     		movs	r2, #0
 3310 1400 83F83820 		strb	r2, [r3, #56]
1674:../STM32F2xx_HAL_Driver/Src/stm32f2xx_hal_tim_ex.c ****   
1675:../STM32F2xx_HAL_Driver/Src/stm32f2xx_hal_tim_ex.c ****   return HAL_OK;
 3311              		.loc 1 1675 0 discriminator 2
 3312 1404 0023     		movs	r3, #0
 3313              	.L169:
1676:../STM32F2xx_HAL_Driver/Src/stm32f2xx_hal_tim_ex.c **** }
 3314              		.loc 1 1676 0
 3315 1406 1846     		mov	r0, r3
 3316 1408 0C37     		adds	r7, r7, #12
 3317 140a BD46     		mov	sp, r7
 3318              		@ sp needed
 3319 140c 5DF8047B 		ldr	r7, [sp], #4
 3320 1410 7047     		bx	lr
 3321              		.cfi_endproc
 3322              	.LFE86:
 3324 1412 00BF     		.align	2
 3325              		.weak	HAL_TIMEx_CommutationCallback
 3326              		.thumb
 3327              		.thumb_func
 3329              	HAL_TIMEx_CommutationCallback:
 3330              	.LFB87:
1677:../STM32F2xx_HAL_Driver/Src/stm32f2xx_hal_tim_ex.c **** 
1678:../STM32F2xx_HAL_Driver/Src/stm32f2xx_hal_tim_ex.c **** /**
1679:../STM32F2xx_HAL_Driver/Src/stm32f2xx_hal_tim_ex.c ****   * @}
1680:../STM32F2xx_HAL_Driver/Src/stm32f2xx_hal_tim_ex.c ****   */
1681:../STM32F2xx_HAL_Driver/Src/stm32f2xx_hal_tim_ex.c **** 
1682:../STM32F2xx_HAL_Driver/Src/stm32f2xx_hal_tim_ex.c **** /** @defgroup TIMEx_Group6 Extension Callbacks functions 
1683:../STM32F2xx_HAL_Driver/Src/stm32f2xx_hal_tim_ex.c ****  *  @brief   Extension Callbacks functions 
1684:../STM32F2xx_HAL_Driver/Src/stm32f2xx_hal_tim_ex.c ****  *
1685:../STM32F2xx_HAL_Driver/Src/stm32f2xx_hal_tim_ex.c **** @verbatim   
1686:../STM32F2xx_HAL_Driver/Src/stm32f2xx_hal_tim_ex.c ****   ==============================================================================
1687:../STM32F2xx_HAL_Driver/Src/stm32f2xx_hal_tim_ex.c ****                     ##### Extension Callbacks functions #####
1688:../STM32F2xx_HAL_Driver/Src/stm32f2xx_hal_tim_ex.c ****   ==============================================================================  
1689:../STM32F2xx_HAL_Driver/Src/stm32f2xx_hal_tim_ex.c ****   [..]  
1690:../STM32F2xx_HAL_Driver/Src/stm32f2xx_hal_tim_ex.c ****     This section provides Extension TIM callback functions:
1691:../STM32F2xx_HAL_Driver/Src/stm32f2xx_hal_tim_ex.c ****     (+) Timer Commutation callback
1692:../STM32F2xx_HAL_Driver/Src/stm32f2xx_hal_tim_ex.c ****     (+) Timer Break callback
1693:../STM32F2xx_HAL_Driver/Src/stm32f2xx_hal_tim_ex.c **** 
1694:../STM32F2xx_HAL_Driver/Src/stm32f2xx_hal_tim_ex.c **** @endverbatim
1695:../STM32F2xx_HAL_Driver/Src/stm32f2xx_hal_tim_ex.c ****   * @{
1696:../STM32F2xx_HAL_Driver/Src/stm32f2xx_hal_tim_ex.c ****   */
1697:../STM32F2xx_HAL_Driver/Src/stm32f2xx_hal_tim_ex.c **** 
1698:../STM32F2xx_HAL_Driver/Src/stm32f2xx_hal_tim_ex.c **** /**
1699:../STM32F2xx_HAL_Driver/Src/stm32f2xx_hal_tim_ex.c ****   * @brief  Hall commutation changed callback in non blocking mode 
1700:../STM32F2xx_HAL_Driver/Src/stm32f2xx_hal_tim_ex.c ****   * @param  htim : TIM handle
1701:../STM32F2xx_HAL_Driver/Src/stm32f2xx_hal_tim_ex.c ****   * @retval None
1702:../STM32F2xx_HAL_Driver/Src/stm32f2xx_hal_tim_ex.c ****   */
1703:../STM32F2xx_HAL_Driver/Src/stm32f2xx_hal_tim_ex.c **** __weak void HAL_TIMEx_CommutationCallback(TIM_HandleTypeDef *htim)
1704:../STM32F2xx_HAL_Driver/Src/stm32f2xx_hal_tim_ex.c **** {
 3331              		.loc 1 1704 0
 3332              		.cfi_startproc
 3333              		@ args = 0, pretend = 0, frame = 8
 3334              		@ frame_needed = 1, uses_anonymous_args = 0
 3335              		@ link register save eliminated.
 3336 1414 80B4     		push	{r7}
 3337              		.cfi_def_cfa_offset 4
 3338              		.cfi_offset 7, -4
 3339 1416 83B0     		sub	sp, sp, #12
 3340              		.cfi_def_cfa_offset 16
 3341 1418 00AF     		add	r7, sp, #0
 3342              		.cfi_def_cfa_register 7
 3343 141a 7860     		str	r0, [r7, #4]
1705:../STM32F2xx_HAL_Driver/Src/stm32f2xx_hal_tim_ex.c ****   /* NOTE : This function Should not be modified, when the callback is needed,
1706:../STM32F2xx_HAL_Driver/Src/stm32f2xx_hal_tim_ex.c ****             the HAL_TIMEx_CommutationCallback could be implemented in the user file
1707:../STM32F2xx_HAL_Driver/Src/stm32f2xx_hal_tim_ex.c ****    */
1708:../STM32F2xx_HAL_Driver/Src/stm32f2xx_hal_tim_ex.c **** }
 3344              		.loc 1 1708 0
 3345 141c 0C37     		adds	r7, r7, #12
 3346 141e BD46     		mov	sp, r7
 3347              		@ sp needed
 3348 1420 5DF8047B 		ldr	r7, [sp], #4
 3349 1424 7047     		bx	lr
 3350              		.cfi_endproc
 3351              	.LFE87:
 3353 1426 00BF     		.align	2
 3354              		.weak	HAL_TIMEx_BreakCallback
 3355              		.thumb
 3356              		.thumb_func
 3358              	HAL_TIMEx_BreakCallback:
 3359              	.LFB88:
1709:../STM32F2xx_HAL_Driver/Src/stm32f2xx_hal_tim_ex.c **** 
1710:../STM32F2xx_HAL_Driver/Src/stm32f2xx_hal_tim_ex.c **** /**
1711:../STM32F2xx_HAL_Driver/Src/stm32f2xx_hal_tim_ex.c ****   * @brief  Hall Break detection callback in non blocking mode 
1712:../STM32F2xx_HAL_Driver/Src/stm32f2xx_hal_tim_ex.c ****   * @param  htim : TIM handle
1713:../STM32F2xx_HAL_Driver/Src/stm32f2xx_hal_tim_ex.c ****   * @retval None
1714:../STM32F2xx_HAL_Driver/Src/stm32f2xx_hal_tim_ex.c ****   */
1715:../STM32F2xx_HAL_Driver/Src/stm32f2xx_hal_tim_ex.c **** __weak void HAL_TIMEx_BreakCallback(TIM_HandleTypeDef *htim)
1716:../STM32F2xx_HAL_Driver/Src/stm32f2xx_hal_tim_ex.c **** {
 3360              		.loc 1 1716 0
 3361              		.cfi_startproc
 3362              		@ args = 0, pretend = 0, frame = 8
 3363              		@ frame_needed = 1, uses_anonymous_args = 0
 3364              		@ link register save eliminated.
 3365 1428 80B4     		push	{r7}
 3366              		.cfi_def_cfa_offset 4
 3367              		.cfi_offset 7, -4
 3368 142a 83B0     		sub	sp, sp, #12
 3369              		.cfi_def_cfa_offset 16
 3370 142c 00AF     		add	r7, sp, #0
 3371              		.cfi_def_cfa_register 7
 3372 142e 7860     		str	r0, [r7, #4]
1717:../STM32F2xx_HAL_Driver/Src/stm32f2xx_hal_tim_ex.c ****   /* NOTE : This function Should not be modified, when the callback is needed,
1718:../STM32F2xx_HAL_Driver/Src/stm32f2xx_hal_tim_ex.c ****             the HAL_TIMEx_BreakCallback could be implemented in the user file
1719:../STM32F2xx_HAL_Driver/Src/stm32f2xx_hal_tim_ex.c ****    */
1720:../STM32F2xx_HAL_Driver/Src/stm32f2xx_hal_tim_ex.c **** }
 3373              		.loc 1 1720 0
 3374 1430 0C37     		adds	r7, r7, #12
 3375 1432 BD46     		mov	sp, r7
 3376              		@ sp needed
 3377 1434 5DF8047B 		ldr	r7, [sp], #4
 3378 1438 7047     		bx	lr
 3379              		.cfi_endproc
 3380              	.LFE88:
 3382 143a 00BF     		.align	2
 3383              		.global	HAL_TIMEx_HallSensor_GetState
 3384              		.thumb
 3385              		.thumb_func
 3387              	HAL_TIMEx_HallSensor_GetState:
 3388              	.LFB89:
1721:../STM32F2xx_HAL_Driver/Src/stm32f2xx_hal_tim_ex.c **** 
1722:../STM32F2xx_HAL_Driver/Src/stm32f2xx_hal_tim_ex.c **** /**
1723:../STM32F2xx_HAL_Driver/Src/stm32f2xx_hal_tim_ex.c ****   * @}
1724:../STM32F2xx_HAL_Driver/Src/stm32f2xx_hal_tim_ex.c ****   */
1725:../STM32F2xx_HAL_Driver/Src/stm32f2xx_hal_tim_ex.c **** 
1726:../STM32F2xx_HAL_Driver/Src/stm32f2xx_hal_tim_ex.c **** /** @defgroup TIMEx_Group7 Extension Peripheral State functions 
1727:../STM32F2xx_HAL_Driver/Src/stm32f2xx_hal_tim_ex.c ****  *  @brief   Extension Peripheral State functions 
1728:../STM32F2xx_HAL_Driver/Src/stm32f2xx_hal_tim_ex.c ****  *
1729:../STM32F2xx_HAL_Driver/Src/stm32f2xx_hal_tim_ex.c **** @verbatim   
1730:../STM32F2xx_HAL_Driver/Src/stm32f2xx_hal_tim_ex.c ****   ==============================================================================
1731:../STM32F2xx_HAL_Driver/Src/stm32f2xx_hal_tim_ex.c ****                 ##### Extension Peripheral State functions #####
1732:../STM32F2xx_HAL_Driver/Src/stm32f2xx_hal_tim_ex.c ****   ==============================================================================  
1733:../STM32F2xx_HAL_Driver/Src/stm32f2xx_hal_tim_ex.c ****   [..]
1734:../STM32F2xx_HAL_Driver/Src/stm32f2xx_hal_tim_ex.c ****     This subsection permit to get in run-time the status of the peripheral 
1735:../STM32F2xx_HAL_Driver/Src/stm32f2xx_hal_tim_ex.c ****     and the data flow.
1736:../STM32F2xx_HAL_Driver/Src/stm32f2xx_hal_tim_ex.c **** 
1737:../STM32F2xx_HAL_Driver/Src/stm32f2xx_hal_tim_ex.c **** @endverbatim
1738:../STM32F2xx_HAL_Driver/Src/stm32f2xx_hal_tim_ex.c ****   * @{
1739:../STM32F2xx_HAL_Driver/Src/stm32f2xx_hal_tim_ex.c ****   */
1740:../STM32F2xx_HAL_Driver/Src/stm32f2xx_hal_tim_ex.c **** 
1741:../STM32F2xx_HAL_Driver/Src/stm32f2xx_hal_tim_ex.c **** /**
1742:../STM32F2xx_HAL_Driver/Src/stm32f2xx_hal_tim_ex.c ****   * @brief  Return the TIM Hall Sensor interface state
1743:../STM32F2xx_HAL_Driver/Src/stm32f2xx_hal_tim_ex.c ****   * @param  htim: TIM Hall Sensor handle
1744:../STM32F2xx_HAL_Driver/Src/stm32f2xx_hal_tim_ex.c ****   * @retval HAL state
1745:../STM32F2xx_HAL_Driver/Src/stm32f2xx_hal_tim_ex.c ****   */
1746:../STM32F2xx_HAL_Driver/Src/stm32f2xx_hal_tim_ex.c **** HAL_TIM_StateTypeDef HAL_TIMEx_HallSensor_GetState(TIM_HandleTypeDef *htim)
1747:../STM32F2xx_HAL_Driver/Src/stm32f2xx_hal_tim_ex.c **** {
 3389              		.loc 1 1747 0
 3390              		.cfi_startproc
 3391              		@ args = 0, pretend = 0, frame = 8
 3392              		@ frame_needed = 1, uses_anonymous_args = 0
 3393              		@ link register save eliminated.
 3394 143c 80B4     		push	{r7}
 3395              		.cfi_def_cfa_offset 4
 3396              		.cfi_offset 7, -4
 3397 143e 83B0     		sub	sp, sp, #12
 3398              		.cfi_def_cfa_offset 16
 3399 1440 00AF     		add	r7, sp, #0
 3400              		.cfi_def_cfa_register 7
 3401 1442 7860     		str	r0, [r7, #4]
1748:../STM32F2xx_HAL_Driver/Src/stm32f2xx_hal_tim_ex.c ****   return htim->State;
 3402              		.loc 1 1748 0
 3403 1444 7B68     		ldr	r3, [r7, #4]
 3404 1446 93F83930 		ldrb	r3, [r3, #57]
 3405 144a DBB2     		uxtb	r3, r3
1749:../STM32F2xx_HAL_Driver/Src/stm32f2xx_hal_tim_ex.c **** }
 3406              		.loc 1 1749 0
 3407 144c 1846     		mov	r0, r3
 3408 144e 0C37     		adds	r7, r7, #12
 3409 1450 BD46     		mov	sp, r7
 3410              		@ sp needed
 3411 1452 5DF8047B 		ldr	r7, [sp], #4
 3412 1456 7047     		bx	lr
 3413              		.cfi_endproc
 3414              	.LFE89:
 3416              		.align	2
 3417              		.global	HAL_TIMEx_DMACommutationCplt
 3418              		.thumb
 3419              		.thumb_func
 3421              	HAL_TIMEx_DMACommutationCplt:
 3422              	.LFB90:
1750:../STM32F2xx_HAL_Driver/Src/stm32f2xx_hal_tim_ex.c **** 
1751:../STM32F2xx_HAL_Driver/Src/stm32f2xx_hal_tim_ex.c **** /**
1752:../STM32F2xx_HAL_Driver/Src/stm32f2xx_hal_tim_ex.c ****   * @}
1753:../STM32F2xx_HAL_Driver/Src/stm32f2xx_hal_tim_ex.c ****   */
1754:../STM32F2xx_HAL_Driver/Src/stm32f2xx_hal_tim_ex.c **** 
1755:../STM32F2xx_HAL_Driver/Src/stm32f2xx_hal_tim_ex.c **** /**
1756:../STM32F2xx_HAL_Driver/Src/stm32f2xx_hal_tim_ex.c ****   * @brief  TIM DMA Commutation callback. 
1757:../STM32F2xx_HAL_Driver/Src/stm32f2xx_hal_tim_ex.c ****   * @param  hdma : pointer to DMA handle.
1758:../STM32F2xx_HAL_Driver/Src/stm32f2xx_hal_tim_ex.c ****   * @retval None
1759:../STM32F2xx_HAL_Driver/Src/stm32f2xx_hal_tim_ex.c ****   */
1760:../STM32F2xx_HAL_Driver/Src/stm32f2xx_hal_tim_ex.c **** void HAL_TIMEx_DMACommutationCplt(DMA_HandleTypeDef *hdma)
1761:../STM32F2xx_HAL_Driver/Src/stm32f2xx_hal_tim_ex.c **** {
 3423              		.loc 1 1761 0
 3424              		.cfi_startproc
 3425              		@ args = 0, pretend = 0, frame = 16
 3426              		@ frame_needed = 1, uses_anonymous_args = 0
 3427 1458 80B5     		push	{r7, lr}
 3428              		.cfi_def_cfa_offset 8
 3429              		.cfi_offset 7, -8
 3430              		.cfi_offset 14, -4
 3431 145a 84B0     		sub	sp, sp, #16
 3432              		.cfi_def_cfa_offset 24
 3433 145c 00AF     		add	r7, sp, #0
 3434              		.cfi_def_cfa_register 7
 3435 145e 7860     		str	r0, [r7, #4]
1762:../STM32F2xx_HAL_Driver/Src/stm32f2xx_hal_tim_ex.c ****   TIM_HandleTypeDef* htim = ( TIM_HandleTypeDef* )((DMA_HandleTypeDef* )hdma)->Parent;
 3436              		.loc 1 1762 0
 3437 1460 7B68     		ldr	r3, [r7, #4]
 3438 1462 9B6B     		ldr	r3, [r3, #56]
 3439 1464 FB60     		str	r3, [r7, #12]
1763:../STM32F2xx_HAL_Driver/Src/stm32f2xx_hal_tim_ex.c ****   
1764:../STM32F2xx_HAL_Driver/Src/stm32f2xx_hal_tim_ex.c ****   htim->State= HAL_TIM_STATE_READY;
 3440              		.loc 1 1764 0
 3441 1466 FB68     		ldr	r3, [r7, #12]
 3442 1468 0122     		movs	r2, #1
 3443 146a 83F83920 		strb	r2, [r3, #57]
1765:../STM32F2xx_HAL_Driver/Src/stm32f2xx_hal_tim_ex.c ****     
1766:../STM32F2xx_HAL_Driver/Src/stm32f2xx_hal_tim_ex.c ****   HAL_TIMEx_CommutationCallback(htim); 
 3444              		.loc 1 1766 0
 3445 146e F868     		ldr	r0, [r7, #12]
 3446 1470 FFF7FEFF 		bl	HAL_TIMEx_CommutationCallback
1767:../STM32F2xx_HAL_Driver/Src/stm32f2xx_hal_tim_ex.c **** }
 3447              		.loc 1 1767 0
 3448 1474 1037     		adds	r7, r7, #16
 3449 1476 BD46     		mov	sp, r7
 3450              		@ sp needed
 3451 1478 80BD     		pop	{r7, pc}
 3452              		.cfi_endproc
 3453              	.LFE90:
 3455 147a 00BF     		.align	2
 3456              		.thumb
 3457              		.thumb_func
 3459              	TIM_CCxNChannelCmd:
 3460              	.LFB91:
1768:../STM32F2xx_HAL_Driver/Src/stm32f2xx_hal_tim_ex.c **** 
1769:../STM32F2xx_HAL_Driver/Src/stm32f2xx_hal_tim_ex.c **** /**
1770:../STM32F2xx_HAL_Driver/Src/stm32f2xx_hal_tim_ex.c ****   * @brief  Enables or disables the TIM Capture Compare Channel xN.
1771:../STM32F2xx_HAL_Driver/Src/stm32f2xx_hal_tim_ex.c ****   * @param  TIMx to select the TIM peripheral
1772:../STM32F2xx_HAL_Driver/Src/stm32f2xx_hal_tim_ex.c ****   * @param  Channel: specifies the TIM Channel
1773:../STM32F2xx_HAL_Driver/Src/stm32f2xx_hal_tim_ex.c ****   *          This parameter can be one of the following values:
1774:../STM32F2xx_HAL_Driver/Src/stm32f2xx_hal_tim_ex.c ****   *            @arg TIM_Channel_1: TIM Channel 1
1775:../STM32F2xx_HAL_Driver/Src/stm32f2xx_hal_tim_ex.c ****   *            @arg TIM_Channel_2: TIM Channel 2
1776:../STM32F2xx_HAL_Driver/Src/stm32f2xx_hal_tim_ex.c ****   *            @arg TIM_Channel_3: TIM Channel 3
1777:../STM32F2xx_HAL_Driver/Src/stm32f2xx_hal_tim_ex.c ****   * @param  ChannelNState: specifies the TIM Channel CCxNE bit new state.
1778:../STM32F2xx_HAL_Driver/Src/stm32f2xx_hal_tim_ex.c ****   *          This parameter can be: TIM_CCxN_ENABLE or TIM_CCxN_Disable. 
1779:../STM32F2xx_HAL_Driver/Src/stm32f2xx_hal_tim_ex.c ****   * @retval None
1780:../STM32F2xx_HAL_Driver/Src/stm32f2xx_hal_tim_ex.c ****   */
1781:../STM32F2xx_HAL_Driver/Src/stm32f2xx_hal_tim_ex.c **** static void TIM_CCxNChannelCmd(TIM_TypeDef* TIMx, uint32_t Channel, uint32_t ChannelNState)
1782:../STM32F2xx_HAL_Driver/Src/stm32f2xx_hal_tim_ex.c **** {
 3461              		.loc 1 1782 0
 3462              		.cfi_startproc
 3463              		@ args = 0, pretend = 0, frame = 24
 3464              		@ frame_needed = 1, uses_anonymous_args = 0
 3465              		@ link register save eliminated.
 3466 147c 80B4     		push	{r7}
 3467              		.cfi_def_cfa_offset 4
 3468              		.cfi_offset 7, -4
 3469 147e 87B0     		sub	sp, sp, #28
 3470              		.cfi_def_cfa_offset 32
 3471 1480 00AF     		add	r7, sp, #0
 3472              		.cfi_def_cfa_register 7
 3473 1482 F860     		str	r0, [r7, #12]
 3474 1484 B960     		str	r1, [r7, #8]
 3475 1486 7A60     		str	r2, [r7, #4]
1783:../STM32F2xx_HAL_Driver/Src/stm32f2xx_hal_tim_ex.c ****   uint32_t tmp = 0;
 3476              		.loc 1 1783 0
 3477 1488 0023     		movs	r3, #0
 3478 148a 7B61     		str	r3, [r7, #20]
1784:../STM32F2xx_HAL_Driver/Src/stm32f2xx_hal_tim_ex.c **** 
1785:../STM32F2xx_HAL_Driver/Src/stm32f2xx_hal_tim_ex.c ****   /* Check the parameters */
1786:../STM32F2xx_HAL_Driver/Src/stm32f2xx_hal_tim_ex.c ****   assert_param(IS_TIM_CC4_INSTANCE(TIMx));
1787:../STM32F2xx_HAL_Driver/Src/stm32f2xx_hal_tim_ex.c ****   assert_param(IS_TIM_COMPLEMENTARY_CHANNELS(Channel));
1788:../STM32F2xx_HAL_Driver/Src/stm32f2xx_hal_tim_ex.c **** 
1789:../STM32F2xx_HAL_Driver/Src/stm32f2xx_hal_tim_ex.c ****   tmp = TIM_CCER_CC1NE << Channel;
 3479              		.loc 1 1789 0
 3480 148c BB68     		ldr	r3, [r7, #8]
 3481 148e 0422     		movs	r2, #4
 3482 1490 02FA03F3 		lsl	r3, r2, r3
 3483 1494 7B61     		str	r3, [r7, #20]
1790:../STM32F2xx_HAL_Driver/Src/stm32f2xx_hal_tim_ex.c **** 
1791:../STM32F2xx_HAL_Driver/Src/stm32f2xx_hal_tim_ex.c ****   /* Reset the CCxNE Bit */
1792:../STM32F2xx_HAL_Driver/Src/stm32f2xx_hal_tim_ex.c ****   TIMx->CCER &= ~tmp;
 3484              		.loc 1 1792 0
 3485 1496 FB68     		ldr	r3, [r7, #12]
 3486 1498 1A6A     		ldr	r2, [r3, #32]
 3487 149a 7B69     		ldr	r3, [r7, #20]
 3488 149c DB43     		mvns	r3, r3
 3489 149e 1A40     		ands	r2, r2, r3
 3490 14a0 FB68     		ldr	r3, [r7, #12]
 3491 14a2 1A62     		str	r2, [r3, #32]
1793:../STM32F2xx_HAL_Driver/Src/stm32f2xx_hal_tim_ex.c **** 
1794:../STM32F2xx_HAL_Driver/Src/stm32f2xx_hal_tim_ex.c ****   /* Set or reset the CCxNE Bit */ 
1795:../STM32F2xx_HAL_Driver/Src/stm32f2xx_hal_tim_ex.c ****   TIMx->CCER |= (uint32_t)(ChannelNState << Channel);
 3492              		.loc 1 1795 0
 3493 14a4 FB68     		ldr	r3, [r7, #12]
 3494 14a6 1A6A     		ldr	r2, [r3, #32]
 3495 14a8 BB68     		ldr	r3, [r7, #8]
 3496 14aa 7968     		ldr	r1, [r7, #4]
 3497 14ac 01FA03F3 		lsl	r3, r1, r3
 3498 14b0 1A43     		orrs	r2, r2, r3
 3499 14b2 FB68     		ldr	r3, [r7, #12]
 3500 14b4 1A62     		str	r2, [r3, #32]
1796:../STM32F2xx_HAL_Driver/Src/stm32f2xx_hal_tim_ex.c **** }
 3501              		.loc 1 1796 0
 3502 14b6 1C37     		adds	r7, r7, #28
 3503 14b8 BD46     		mov	sp, r7
 3504              		@ sp needed
 3505 14ba 5DF8047B 		ldr	r7, [sp], #4
 3506 14be 7047     		bx	lr
 3507              		.cfi_endproc
 3508              	.LFE91:
 3510              	.Letext0:
 3511              		.file 2 "c:\\program files (x86)\\codesourcery\\arm-none-eabi\\include\\stdint.h"
 3512              		.file 3 "D:\\workspace\\console800480\\system/stm32f217xx.h"
 3513              		.file 4 "D:\\workspace\\console800480\\STM32F2xx_HAL_Driver\\Inc/stm32f2xx_hal_def.h"
 3514              		.file 5 "D:\\workspace\\console800480\\STM32F2xx_HAL_Driver\\Inc/stm32f2xx_hal_dma.h"
 3515              		.file 6 "D:\\workspace\\console800480\\STM32F2xx_HAL_Driver\\Inc/stm32f2xx_hal_tim.h"
 3516              		.file 7 "D:\\workspace\\console800480\\STM32F2xx_HAL_Driver\\Inc/stm32f2xx_hal_tim_ex.h"
 3517              		.file 8 "D:\\workspace\\console800480\\system/core_cm3.h"
DEFINED SYMBOLS
                            *ABS*:00000000 stm32f2xx_hal_tim_ex.c
C:\Users\sagok\AppData\Local\Temp\cc72h82m.s:18     .text:00000000 $t
C:\Users\sagok\AppData\Local\Temp\cc72h82m.s:23     .text:00000000 HAL_TIMEx_HallSensor_Init
C:\Users\sagok\AppData\Local\Temp\cc72h82m.s:268    .text:0000017c HAL_TIMEx_HallSensor_MspInit
C:\Users\sagok\AppData\Local\Temp\cc72h82m.s:198    .text:0000011c HAL_TIMEx_HallSensor_DeInit
C:\Users\sagok\AppData\Local\Temp\cc72h82m.s:297    .text:00000190 HAL_TIMEx_HallSensor_MspDeInit
C:\Users\sagok\AppData\Local\Temp\cc72h82m.s:326    .text:000001a4 HAL_TIMEx_HallSensor_Start
C:\Users\sagok\AppData\Local\Temp\cc72h82m.s:372    .text:000001d4 HAL_TIMEx_HallSensor_Stop
C:\Users\sagok\AppData\Local\Temp\cc72h82m.s:434    .text:00000224 HAL_TIMEx_HallSensor_Start_IT
C:\Users\sagok\AppData\Local\Temp\cc72h82m.s:488    .text:00000264 HAL_TIMEx_HallSensor_Stop_IT
C:\Users\sagok\AppData\Local\Temp\cc72h82m.s:558    .text:000002c4 HAL_TIMEx_HallSensor_Start_DMA
C:\Users\sagok\AppData\Local\Temp\cc72h82m.s:671    .text:00000370 HAL_TIMEx_HallSensor_Stop_DMA
C:\Users\sagok\AppData\Local\Temp\cc72h82m.s:741    .text:000003d0 HAL_TIMEx_OCN_Start
C:\Users\sagok\AppData\Local\Temp\cc72h82m.s:3459   .text:0000147c TIM_CCxNChannelCmd
C:\Users\sagok\AppData\Local\Temp\cc72h82m.s:796    .text:00000414 HAL_TIMEx_OCN_Stop
C:\Users\sagok\AppData\Local\Temp\cc72h82m.s:883    .text:00000498 HAL_TIMEx_OCN_Start_IT
C:\Users\sagok\AppData\Local\Temp\cc72h82m.s:907    .text:000004b0 $d
C:\Users\sagok\AppData\Local\Temp\cc72h82m.s:922    .text:000004e4 $t
C:\Users\sagok\AppData\Local\Temp\cc72h82m.s:1007   .text:00000568 HAL_TIMEx_OCN_Stop_IT
C:\Users\sagok\AppData\Local\Temp\cc72h82m.s:1031   .text:00000580 $d
C:\Users\sagok\AppData\Local\Temp\cc72h82m.s:1046   .text:000005b4 $t
C:\Users\sagok\AppData\Local\Temp\cc72h82m.s:1163   .text:00000678 HAL_TIMEx_OCN_Start_DMA
C:\Users\sagok\AppData\Local\Temp\cc72h82m.s:1222   .text:000006c8 $d
C:\Users\sagok\AppData\Local\Temp\cc72h82m.s:1237   .text:000006fc $t
C:\Users\sagok\AppData\Local\Temp\cc72h82m.s:1411   .text:00000840 HAL_TIMEx_OCN_Stop_DMA
C:\Users\sagok\AppData\Local\Temp\cc72h82m.s:1435   .text:00000858 $d
C:\Users\sagok\AppData\Local\Temp\cc72h82m.s:1450   .text:0000088c $t
C:\Users\sagok\AppData\Local\Temp\cc72h82m.s:1571   .text:00000958 HAL_TIMEx_PWMN_Start
C:\Users\sagok\AppData\Local\Temp\cc72h82m.s:1626   .text:0000099c HAL_TIMEx_PWMN_Stop
C:\Users\sagok\AppData\Local\Temp\cc72h82m.s:1713   .text:00000a20 HAL_TIMEx_PWMN_Start_IT
C:\Users\sagok\AppData\Local\Temp\cc72h82m.s:1737   .text:00000a38 $d
C:\Users\sagok\AppData\Local\Temp\cc72h82m.s:1752   .text:00000a6c $t
C:\Users\sagok\AppData\Local\Temp\cc72h82m.s:1845   .text:00000b00 HAL_TIMEx_PWMN_Stop_IT
C:\Users\sagok\AppData\Local\Temp\cc72h82m.s:1869   .text:00000b18 $d
C:\Users\sagok\AppData\Local\Temp\cc72h82m.s:1884   .text:00000b4c $t
C:\Users\sagok\AppData\Local\Temp\cc72h82m.s:2009   .text:00000c20 HAL_TIMEx_PWMN_Start_DMA
C:\Users\sagok\AppData\Local\Temp\cc72h82m.s:2068   .text:00000c70 $d
C:\Users\sagok\AppData\Local\Temp\cc72h82m.s:2083   .text:00000ca4 $t
C:\Users\sagok\AppData\Local\Temp\cc72h82m.s:2257   .text:00000de8 HAL_TIMEx_PWMN_Stop_DMA
C:\Users\sagok\AppData\Local\Temp\cc72h82m.s:2281   .text:00000e00 $d
C:\Users\sagok\AppData\Local\Temp\cc72h82m.s:2296   .text:00000e34 $t
C:\Users\sagok\AppData\Local\Temp\cc72h82m.s:2417   .text:00000f00 HAL_TIMEx_OnePulseN_Start
C:\Users\sagok\AppData\Local\Temp\cc72h82m.s:2464   .text:00000f34 HAL_TIMEx_OnePulseN_Stop
C:\Users\sagok\AppData\Local\Temp\cc72h82m.s:2551   .text:00000fb8 HAL_TIMEx_OnePulseN_Start_IT
C:\Users\sagok\AppData\Local\Temp\cc72h82m.s:2614   .text:0000100c HAL_TIMEx_OnePulseN_Stop_IT
C:\Users\sagok\AppData\Local\Temp\cc72h82m.s:2717   .text:000010b0 HAL_TIMEx_ConfigCommutationEvent
C:\Users\sagok\AppData\Local\Temp\cc72h82m.s:2828   .text:00001150 HAL_TIMEx_ConfigCommutationEvent_IT
C:\Users\sagok\AppData\Local\Temp\cc72h82m.s:2947   .text:00001200 HAL_TIMEx_ConfigCommutationEvent_DMA
C:\Users\sagok\AppData\Local\Temp\cc72h82m.s:3421   .text:00001458 HAL_TIMEx_DMACommutationCplt
C:\Users\sagok\AppData\Local\Temp\cc72h82m.s:3078   .text:000012cc HAL_TIMEx_MasterConfigSynchronization
C:\Users\sagok\AppData\Local\Temp\cc72h82m.s:3173   .text:00001358 HAL_TIMEx_ConfigBreakDeadTime
C:\Users\sagok\AppData\Local\Temp\cc72h82m.s:3269   .text:000013cc HAL_TIMEx_RemapConfig
C:\Users\sagok\AppData\Local\Temp\cc72h82m.s:3329   .text:00001414 HAL_TIMEx_CommutationCallback
C:\Users\sagok\AppData\Local\Temp\cc72h82m.s:3358   .text:00001428 HAL_TIMEx_BreakCallback
C:\Users\sagok\AppData\Local\Temp\cc72h82m.s:3387   .text:0000143c HAL_TIMEx_HallSensor_GetState
                     .debug_frame:00000010 $d
                           .group:00000000 wm4.1.7f551ac7fcad8b79b9df4bfdaa536673
                           .group:00000000 wm4.stm32f2xx_hal_conf.h.40.007126baefb9f966c36646edbf8040d2
                           .group:00000000 wm4.stm32f2xx.h.57.5ec1581efc43612c411d33a8686e9ec7
                           .group:00000000 wm4.stm32f217xx.h.52.9c940d76d00294b78837dc334c172fdd
                           .group:00000000 wm4.core_cm3.h.32.49180ccb4d36cabd2d7016d2a51d91ae
                           .group:00000000 wm4.newlib.h.8.384a112feabb3bef7b573ae48cde2e3b
                           .group:00000000 wm4.features.h.22.6a4ca7cd053637cc1d0db6c16f39b2d7
                           .group:00000000 wm4.config.h.183.aa62afef667fb61d15fa64c48beb2f14
                           .group:00000000 wm4._ansi.h.23.5644b60c990a4800b02a6e654e88f93a
                           .group:00000000 wm4.stdint.h.20.54ad762faa59e3c05491630641c8d8bf
                           .group:00000000 wm4.core_cmInstr.h.25.f50f886f2edf670cf199b35fd96f5c91
                           .group:00000000 wm4.core_cm3.h.130.63ab2348a6eed0fdb318040d970b676c
                           .group:00000000 wm4.stm32f217xx.h.978.a5c681952b2f704a0e7f2ba21d08adf5
                           .group:00000000 wm4.stm32f2xx.h.142.bc2155a1f7498bab16371e38413a9e41
                           .group:00000000 wm4.stm32f2xx_hal_def.h.74.8ad2dc8aa82c4fd02e5aeaae592641ba
                           .group:00000000 wm4.stm32f2xx_hal_rcc.h.142.ec0f91cc6576a6acebd17e6dd85829ae
                           .group:00000000 wm4.stm32f2xx_hal_rcc_ex.h.40.0829033e864455c6bdd0db01f8ba5a50
                           .group:00000000 wm4.stm32f2xx_hal_gpio.h.40.ba64e0bb94d9a68835f80159f39a86f1
                           .group:00000000 wm4.stm32f2xx_hal_gpio_ex.h.40.24e547fd402281923f446b510381083f
                           .group:00000000 wm4.stm32f2xx_hal_dma.h.40.5d9732ace2a21a4526ce8f0c52428fff
                           .group:00000000 wm4.stm32f2xx_hal_cortex.h.40.e10263d2ec5d4fa79b4180ce1a38aff1
                           .group:00000000 wm4.stm32f2xx_hal_adc.h.40.89ac8b78113cac4cf63847587daabac9
                           .group:00000000 wm4.stm32f2xx_hal_adc_ex.h.40.7de68ed256ef25526ee31cc017f2c291
                           .group:00000000 wm4.stm32f2xx_hal_flash.h.40.c3171719ce015e9cff20c795e44e886d
                           .group:00000000 wm4.stm32f2xx_hal_flash_ex.h.40.7389508bd24a0aeb077bde0c9fb651eb
                           .group:00000000 wm4.stm32f2xx_ll_fsmc.h.40.c1c32f2e1862f4dd342bd9b80fb895bb
                           .group:00000000 wm4.stm32f2xx_hal_pwr.h.40.812df32e5c31b609a128e9db0eb4cbd0
                           .group:00000000 wm4.stm32f2xx_hal_rtc.h.40.850fda5fe2cce8797446913dee18382f
                           .group:00000000 wm4.stm32f2xx_hal_rtc_ex.h.40.f3e0c408e3bf4e8a0352d7ec9a18a822
                           .group:00000000 wm4.stm32f2xx_ll_sdmmc.h.40.3719ab487c4b77401c572f459adf6eb7
                           .group:00000000 wm4.stm32f2xx_hal_sd.h.58.760215394dcc316161a6482c0af9b866
                           .group:00000000 wm4.stm32f2xx_hal_spi.h.40.7984243dbaba8b21c6392998a47e6987
                           .group:00000000 wm4.stm32f2xx_hal_tim.h.40.d79172f25d0e9a15dc346aba8515bdd6
                           .group:00000000 wm4.stm32f2xx_hal_tim_ex.h.40.361f280a7a3f60b4b238bb99ca728d83
                           .group:00000000 wm4.stm32f2xx_hal_uart.h.40.d74def561ae6f78f40f477c8426ecbef
                           .group:00000000 wm4.stm32f2xx_ll_usb.h.40.9b0206a05bc6ce3bec1648b51f22cb81
                           .group:00000000 wm4.stm32f2xx_hal_pcd.h.99.11faba414c39e357b2f23364912d0605
                           .group:00000000 wm4.stm32f2xx_hal_hcd.h.40.44ee5e972983ae0139ddbacdc75c44ef
                           .group:00000000 wm4.stm32f2xx_hal.h.64.ed79ee83e52b151b3c365392b398f866

UNDEFINED SYMBOLS
TIM_Base_SetConfig
TIM_TI1_SetConfig
TIM_OC2_SetConfig
TIM_CCxChannelCmd
HAL_TIM_DMACaptureCplt
HAL_TIM_DMAError
HAL_DMA_Start_IT
HAL_TIM_DMADelayPulseCplt
