   1              		.syntax unified
   2              		.cpu cortex-m3
   3              		.fpu softvfp
   4              		.eabi_attribute 20, 1
   5              		.eabi_attribute 21, 1
   6              		.eabi_attribute 23, 3
   7              		.eabi_attribute 24, 1
   8              		.eabi_attribute 25, 1
   9              		.eabi_attribute 26, 1
  10              		.eabi_attribute 30, 6
  11              		.eabi_attribute 34, 1
  12              		.eabi_attribute 18, 4
  13              		.thumb
  14              		.file	"stm32f2xx_ll_usb.c"
  15              		.text
  16              	.Ltext0:
  17              		.cfi_sections	.debug_frame
  18              		.align	2
  19              		.global	USB_CoreInit
  20              		.thumb
  21              		.thumb_func
  23              	USB_CoreInit:
  24              	.LFB55:
  25              		.file 1 "../STM32F2xx_HAL_Driver/Src/stm32f2xx_ll_usb.c"
   1:../STM32F2xx_HAL_Driver/Src/stm32f2xx_ll_usb.c **** /**
   2:../STM32F2xx_HAL_Driver/Src/stm32f2xx_ll_usb.c ****   ******************************************************************************
   3:../STM32F2xx_HAL_Driver/Src/stm32f2xx_ll_usb.c ****   * @file    stm32f2xx_ll_usb.c
   4:../STM32F2xx_HAL_Driver/Src/stm32f2xx_ll_usb.c ****   * @author  MCD Application Team
   5:../STM32F2xx_HAL_Driver/Src/stm32f2xx_ll_usb.c ****   * @version V1.0.1
   6:../STM32F2xx_HAL_Driver/Src/stm32f2xx_ll_usb.c ****   * @date    25-March-2014
   7:../STM32F2xx_HAL_Driver/Src/stm32f2xx_ll_usb.c ****   * @brief   USB Low Layer HAL module driver.
   8:../STM32F2xx_HAL_Driver/Src/stm32f2xx_ll_usb.c ****   *    
   9:../STM32F2xx_HAL_Driver/Src/stm32f2xx_ll_usb.c ****   *          This file provides firmware functions to manage the following 
  10:../STM32F2xx_HAL_Driver/Src/stm32f2xx_ll_usb.c ****   *          functionalities of the USB Peripheral Controller:
  11:../STM32F2xx_HAL_Driver/Src/stm32f2xx_ll_usb.c ****   *           + Initialization/de-initialization functions
  12:../STM32F2xx_HAL_Driver/Src/stm32f2xx_ll_usb.c ****   *           + I/O operation functions
  13:../STM32F2xx_HAL_Driver/Src/stm32f2xx_ll_usb.c ****   *           + Peripheral Control functions 
  14:../STM32F2xx_HAL_Driver/Src/stm32f2xx_ll_usb.c ****   *           + Peripheral State functions
  15:../STM32F2xx_HAL_Driver/Src/stm32f2xx_ll_usb.c ****   *         
  16:../STM32F2xx_HAL_Driver/Src/stm32f2xx_ll_usb.c ****   @verbatim
  17:../STM32F2xx_HAL_Driver/Src/stm32f2xx_ll_usb.c ****   ==============================================================================
  18:../STM32F2xx_HAL_Driver/Src/stm32f2xx_ll_usb.c ****                     ##### How to use this driver #####
  19:../STM32F2xx_HAL_Driver/Src/stm32f2xx_ll_usb.c ****   ==============================================================================
  20:../STM32F2xx_HAL_Driver/Src/stm32f2xx_ll_usb.c ****     [..]
  21:../STM32F2xx_HAL_Driver/Src/stm32f2xx_ll_usb.c ****       (#) Fill parameters of Init structure in USB_OTG_CfgTypeDef structure.
  22:../STM32F2xx_HAL_Driver/Src/stm32f2xx_ll_usb.c ****   
  23:../STM32F2xx_HAL_Driver/Src/stm32f2xx_ll_usb.c ****       (#) Call USB_CoreInit() API to initialize the USB Core peripheral.
  24:../STM32F2xx_HAL_Driver/Src/stm32f2xx_ll_usb.c **** 
  25:../STM32F2xx_HAL_Driver/Src/stm32f2xx_ll_usb.c ****       (#) The upper HAL HCD/PCD driver will call the righ routines for its internal processes.
  26:../STM32F2xx_HAL_Driver/Src/stm32f2xx_ll_usb.c **** 
  27:../STM32F2xx_HAL_Driver/Src/stm32f2xx_ll_usb.c ****   @endverbatim
  28:../STM32F2xx_HAL_Driver/Src/stm32f2xx_ll_usb.c ****   ******************************************************************************
  29:../STM32F2xx_HAL_Driver/Src/stm32f2xx_ll_usb.c ****   * @attention
  30:../STM32F2xx_HAL_Driver/Src/stm32f2xx_ll_usb.c ****   *
  31:../STM32F2xx_HAL_Driver/Src/stm32f2xx_ll_usb.c ****   * <h2><center>&copy; COPYRIGHT(c) 2014 STMicroelectronics</center></h2>
  32:../STM32F2xx_HAL_Driver/Src/stm32f2xx_ll_usb.c ****   *
  33:../STM32F2xx_HAL_Driver/Src/stm32f2xx_ll_usb.c ****   * Redistribution and use in source and binary forms, with or without modification,
  34:../STM32F2xx_HAL_Driver/Src/stm32f2xx_ll_usb.c ****   * are permitted provided that the following conditions are met:
  35:../STM32F2xx_HAL_Driver/Src/stm32f2xx_ll_usb.c ****   *   1. Redistributions of source code must retain the above copyright notice,
  36:../STM32F2xx_HAL_Driver/Src/stm32f2xx_ll_usb.c ****   *      this list of conditions and the following disclaimer.
  37:../STM32F2xx_HAL_Driver/Src/stm32f2xx_ll_usb.c ****   *   2. Redistributions in binary form must reproduce the above copyright notice,
  38:../STM32F2xx_HAL_Driver/Src/stm32f2xx_ll_usb.c ****   *      this list of conditions and the following disclaimer in the documentation
  39:../STM32F2xx_HAL_Driver/Src/stm32f2xx_ll_usb.c ****   *      and/or other materials provided with the distribution.
  40:../STM32F2xx_HAL_Driver/Src/stm32f2xx_ll_usb.c ****   *   3. Neither the name of STMicroelectronics nor the names of its contributors
  41:../STM32F2xx_HAL_Driver/Src/stm32f2xx_ll_usb.c ****   *      may be used to endorse or promote products derived from this software
  42:../STM32F2xx_HAL_Driver/Src/stm32f2xx_ll_usb.c ****   *      without specific prior written permission.
  43:../STM32F2xx_HAL_Driver/Src/stm32f2xx_ll_usb.c ****   *
  44:../STM32F2xx_HAL_Driver/Src/stm32f2xx_ll_usb.c ****   * THIS SOFTWARE IS PROVIDED BY THE COPYRIGHT HOLDERS AND CONTRIBUTORS "AS IS"
  45:../STM32F2xx_HAL_Driver/Src/stm32f2xx_ll_usb.c ****   * AND ANY EXPRESS OR IMPLIED WARRANTIES, INCLUDING, BUT NOT LIMITED TO, THE
  46:../STM32F2xx_HAL_Driver/Src/stm32f2xx_ll_usb.c ****   * IMPLIED WARRANTIES OF MERCHANTABILITY AND FITNESS FOR A PARTICULAR PURPOSE ARE
  47:../STM32F2xx_HAL_Driver/Src/stm32f2xx_ll_usb.c ****   * DISCLAIMED. IN NO EVENT SHALL THE COPYRIGHT HOLDER OR CONTRIBUTORS BE LIABLE
  48:../STM32F2xx_HAL_Driver/Src/stm32f2xx_ll_usb.c ****   * FOR ANY DIRECT, INDIRECT, INCIDENTAL, SPECIAL, EXEMPLARY, OR CONSEQUENTIAL
  49:../STM32F2xx_HAL_Driver/Src/stm32f2xx_ll_usb.c ****   * DAMAGES (INCLUDING, BUT NOT LIMITED TO, PROCUREMENT OF SUBSTITUTE GOODS OR
  50:../STM32F2xx_HAL_Driver/Src/stm32f2xx_ll_usb.c ****   * SERVICES; LOSS OF USE, DATA, OR PROFITS; OR BUSINESS INTERRUPTION) HOWEVER
  51:../STM32F2xx_HAL_Driver/Src/stm32f2xx_ll_usb.c ****   * CAUSED AND ON ANY THEORY OF LIABILITY, WHETHER IN CONTRACT, STRICT LIABILITY,
  52:../STM32F2xx_HAL_Driver/Src/stm32f2xx_ll_usb.c ****   * OR TORT (INCLUDING NEGLIGENCE OR OTHERWISE) ARISING IN ANY WAY OUT OF THE USE
  53:../STM32F2xx_HAL_Driver/Src/stm32f2xx_ll_usb.c ****   * OF THIS SOFTWARE, EVEN IF ADVISED OF THE POSSIBILITY OF SUCH DAMAGE.
  54:../STM32F2xx_HAL_Driver/Src/stm32f2xx_ll_usb.c ****   *
  55:../STM32F2xx_HAL_Driver/Src/stm32f2xx_ll_usb.c ****   ******************************************************************************
  56:../STM32F2xx_HAL_Driver/Src/stm32f2xx_ll_usb.c ****   */ 
  57:../STM32F2xx_HAL_Driver/Src/stm32f2xx_ll_usb.c **** 
  58:../STM32F2xx_HAL_Driver/Src/stm32f2xx_ll_usb.c **** /* Includes ------------------------------------------------------------------*/
  59:../STM32F2xx_HAL_Driver/Src/stm32f2xx_ll_usb.c **** #include "stm32f2xx_hal.h"
  60:../STM32F2xx_HAL_Driver/Src/stm32f2xx_ll_usb.c **** 
  61:../STM32F2xx_HAL_Driver/Src/stm32f2xx_ll_usb.c **** /** @addtogroup STM32F2xx_LL_USB_DRIVER
  62:../STM32F2xx_HAL_Driver/Src/stm32f2xx_ll_usb.c ****   * @{
  63:../STM32F2xx_HAL_Driver/Src/stm32f2xx_ll_usb.c ****   */
  64:../STM32F2xx_HAL_Driver/Src/stm32f2xx_ll_usb.c **** 
  65:../STM32F2xx_HAL_Driver/Src/stm32f2xx_ll_usb.c **** #if defined (HAL_PCD_MODULE_ENABLED) || defined (HAL_HCD_MODULE_ENABLED)
  66:../STM32F2xx_HAL_Driver/Src/stm32f2xx_ll_usb.c **** 
  67:../STM32F2xx_HAL_Driver/Src/stm32f2xx_ll_usb.c **** /* Private typedef -----------------------------------------------------------*/
  68:../STM32F2xx_HAL_Driver/Src/stm32f2xx_ll_usb.c **** /* Private define ------------------------------------------------------------*/
  69:../STM32F2xx_HAL_Driver/Src/stm32f2xx_ll_usb.c **** /* Private macro -------------------------------------------------------------*/
  70:../STM32F2xx_HAL_Driver/Src/stm32f2xx_ll_usb.c **** /* Private variables ---------------------------------------------------------*/
  71:../STM32F2xx_HAL_Driver/Src/stm32f2xx_ll_usb.c **** /* Private function prototypes -----------------------------------------------*/
  72:../STM32F2xx_HAL_Driver/Src/stm32f2xx_ll_usb.c **** /* Private functions ---------------------------------------------------------*/
  73:../STM32F2xx_HAL_Driver/Src/stm32f2xx_ll_usb.c **** static HAL_StatusTypeDef USB_CoreReset(USB_OTG_GlobalTypeDef *USBx);
  74:../STM32F2xx_HAL_Driver/Src/stm32f2xx_ll_usb.c **** 
  75:../STM32F2xx_HAL_Driver/Src/stm32f2xx_ll_usb.c **** /** @defgroup PCD_Private_Functions
  76:../STM32F2xx_HAL_Driver/Src/stm32f2xx_ll_usb.c ****   * @{
  77:../STM32F2xx_HAL_Driver/Src/stm32f2xx_ll_usb.c ****   */
  78:../STM32F2xx_HAL_Driver/Src/stm32f2xx_ll_usb.c **** 
  79:../STM32F2xx_HAL_Driver/Src/stm32f2xx_ll_usb.c **** /** @defgroup LL_USB_Group1 Initialization/de-initialization functions 
  80:../STM32F2xx_HAL_Driver/Src/stm32f2xx_ll_usb.c ****  *  @brief    Initialization and Configuration functions 
  81:../STM32F2xx_HAL_Driver/Src/stm32f2xx_ll_usb.c ****  *
  82:../STM32F2xx_HAL_Driver/Src/stm32f2xx_ll_usb.c **** @verbatim    
  83:../STM32F2xx_HAL_Driver/Src/stm32f2xx_ll_usb.c ****  ===============================================================================
  84:../STM32F2xx_HAL_Driver/Src/stm32f2xx_ll_usb.c ****               ##### Initialization/de-initialization functions #####
  85:../STM32F2xx_HAL_Driver/Src/stm32f2xx_ll_usb.c ****  ===============================================================================
  86:../STM32F2xx_HAL_Driver/Src/stm32f2xx_ll_usb.c ****     [..]  This section provides functions allowing to:
  87:../STM32F2xx_HAL_Driver/Src/stm32f2xx_ll_usb.c ****  
  88:../STM32F2xx_HAL_Driver/Src/stm32f2xx_ll_usb.c **** @endverbatim
  89:../STM32F2xx_HAL_Driver/Src/stm32f2xx_ll_usb.c ****   * @{
  90:../STM32F2xx_HAL_Driver/Src/stm32f2xx_ll_usb.c ****   */
  91:../STM32F2xx_HAL_Driver/Src/stm32f2xx_ll_usb.c **** 
  92:../STM32F2xx_HAL_Driver/Src/stm32f2xx_ll_usb.c **** /**
  93:../STM32F2xx_HAL_Driver/Src/stm32f2xx_ll_usb.c ****   * @brief  Initializes the USB Core
  94:../STM32F2xx_HAL_Driver/Src/stm32f2xx_ll_usb.c ****   * @param  USBx: USB Instance
  95:../STM32F2xx_HAL_Driver/Src/stm32f2xx_ll_usb.c ****   * @param  cfg : pointer to a USB_OTG_CfgTypeDef structure that contains
  96:../STM32F2xx_HAL_Driver/Src/stm32f2xx_ll_usb.c ****   *         the configuration information for the specified USBx peripheral.
  97:../STM32F2xx_HAL_Driver/Src/stm32f2xx_ll_usb.c ****   * @retval HAL status
  98:../STM32F2xx_HAL_Driver/Src/stm32f2xx_ll_usb.c ****   */
  99:../STM32F2xx_HAL_Driver/Src/stm32f2xx_ll_usb.c **** HAL_StatusTypeDef USB_CoreInit(USB_OTG_GlobalTypeDef *USBx, USB_OTG_CfgTypeDef cfg)
 100:../STM32F2xx_HAL_Driver/Src/stm32f2xx_ll_usb.c **** {
  26              		.loc 1 100 0
  27              		.cfi_startproc
  28              		@ args = 48, pretend = 16, frame = 8
  29              		@ frame_needed = 1, uses_anonymous_args = 0
  30 0000 84B0     		sub	sp, sp, #16
  31              		.cfi_def_cfa_offset 16
  32 0002 80B5     		push	{r7, lr}
  33              		.cfi_def_cfa_offset 24
  34              		.cfi_offset 7, -24
  35              		.cfi_offset 14, -20
  36 0004 82B0     		sub	sp, sp, #8
  37              		.cfi_def_cfa_offset 32
  38 0006 00AF     		add	r7, sp, #0
  39              		.cfi_def_cfa_register 7
  40 0008 7860     		str	r0, [r7, #4]
  41 000a 07F11400 		add	r0, r7, #20
  42 000e 80E80E00 		stmia	r0, {r1, r2, r3}
 101:../STM32F2xx_HAL_Driver/Src/stm32f2xx_ll_usb.c ****   if (cfg.phy_itface == USB_OTG_ULPI_PHY)
  43              		.loc 1 101 0
  44 0012 BB6A     		ldr	r3, [r7, #40]
  45 0014 012B     		cmp	r3, #1
  46 0016 20D1     		bne	.L2
 102:../STM32F2xx_HAL_Driver/Src/stm32f2xx_ll_usb.c ****   {
 103:../STM32F2xx_HAL_Driver/Src/stm32f2xx_ll_usb.c ****     
 104:../STM32F2xx_HAL_Driver/Src/stm32f2xx_ll_usb.c ****     USBx->GCCFG &= ~(USB_OTG_GCCFG_PWRDWN);
  47              		.loc 1 104 0
  48 0018 7B68     		ldr	r3, [r7, #4]
  49 001a 9B6B     		ldr	r3, [r3, #56]
  50 001c 23F48032 		bic	r2, r3, #65536
  51 0020 7B68     		ldr	r3, [r7, #4]
  52 0022 9A63     		str	r2, [r3, #56]
 105:../STM32F2xx_HAL_Driver/Src/stm32f2xx_ll_usb.c **** 
 106:../STM32F2xx_HAL_Driver/Src/stm32f2xx_ll_usb.c ****     /* Init The ULPI Interface */
 107:../STM32F2xx_HAL_Driver/Src/stm32f2xx_ll_usb.c ****     USBx->GUSBCFG &= ~(USB_OTG_GUSBCFG_TSDPS | USB_OTG_GUSBCFG_ULPIFSLS | USB_OTG_GUSBCFG_PHYSEL);
  53              		.loc 1 107 0
  54 0024 7B68     		ldr	r3, [r7, #4]
  55 0026 DB68     		ldr	r3, [r3, #12]
  56 0028 23F48403 		bic	r3, r3, #4325376
  57 002c 23F04003 		bic	r3, r3, #64
  58 0030 7A68     		ldr	r2, [r7, #4]
  59 0032 D360     		str	r3, [r2, #12]
 108:../STM32F2xx_HAL_Driver/Src/stm32f2xx_ll_usb.c ****    
 109:../STM32F2xx_HAL_Driver/Src/stm32f2xx_ll_usb.c ****     /* Select vbus source */
 110:../STM32F2xx_HAL_Driver/Src/stm32f2xx_ll_usb.c ****     USBx->GUSBCFG &= ~(USB_OTG_GUSBCFG_ULPIEVBUSD | USB_OTG_GUSBCFG_ULPIEVBUSI);
  60              		.loc 1 110 0
  61 0034 7B68     		ldr	r3, [r7, #4]
  62 0036 DB68     		ldr	r3, [r3, #12]
  63 0038 23F44012 		bic	r2, r3, #3145728
  64 003c 7B68     		ldr	r3, [r7, #4]
  65 003e DA60     		str	r2, [r3, #12]
 111:../STM32F2xx_HAL_Driver/Src/stm32f2xx_ll_usb.c ****     if(cfg.use_external_vbus == 1)
  66              		.loc 1 111 0
  67 0040 FB6B     		ldr	r3, [r7, #60]
  68 0042 012B     		cmp	r3, #1
  69 0044 05D1     		bne	.L3
 112:../STM32F2xx_HAL_Driver/Src/stm32f2xx_ll_usb.c ****     {
 113:../STM32F2xx_HAL_Driver/Src/stm32f2xx_ll_usb.c ****       USBx->GUSBCFG |= USB_OTG_GUSBCFG_ULPIEVBUSD;
  70              		.loc 1 113 0
  71 0046 7B68     		ldr	r3, [r7, #4]
  72 0048 DB68     		ldr	r3, [r3, #12]
  73 004a 43F48012 		orr	r2, r3, #1048576
  74 004e 7B68     		ldr	r3, [r7, #4]
  75 0050 DA60     		str	r2, [r3, #12]
  76              	.L3:
 114:../STM32F2xx_HAL_Driver/Src/stm32f2xx_ll_usb.c ****     }
 115:../STM32F2xx_HAL_Driver/Src/stm32f2xx_ll_usb.c ****     /* Reset after a PHY select  */
 116:../STM32F2xx_HAL_Driver/Src/stm32f2xx_ll_usb.c ****     USB_CoreReset(USBx); 
  77              		.loc 1 116 0
  78 0052 7868     		ldr	r0, [r7, #4]
  79 0054 01F0B6FA 		bl	USB_CoreReset
  80 0058 0CE0     		b	.L4
  81              	.L2:
 117:../STM32F2xx_HAL_Driver/Src/stm32f2xx_ll_usb.c ****   }
 118:../STM32F2xx_HAL_Driver/Src/stm32f2xx_ll_usb.c ****   else /* FS interface (embedded Phy) */
 119:../STM32F2xx_HAL_Driver/Src/stm32f2xx_ll_usb.c ****   {
 120:../STM32F2xx_HAL_Driver/Src/stm32f2xx_ll_usb.c ****     
 121:../STM32F2xx_HAL_Driver/Src/stm32f2xx_ll_usb.c ****     /* Select FS Embedded PHY */
 122:../STM32F2xx_HAL_Driver/Src/stm32f2xx_ll_usb.c ****     USBx->GUSBCFG |= USB_OTG_GUSBCFG_PHYSEL;
  82              		.loc 1 122 0
  83 005a 7B68     		ldr	r3, [r7, #4]
  84 005c DB68     		ldr	r3, [r3, #12]
  85 005e 43F04002 		orr	r2, r3, #64
  86 0062 7B68     		ldr	r3, [r7, #4]
  87 0064 DA60     		str	r2, [r3, #12]
 123:../STM32F2xx_HAL_Driver/Src/stm32f2xx_ll_usb.c ****     
 124:../STM32F2xx_HAL_Driver/Src/stm32f2xx_ll_usb.c ****     /* Reset after a PHY select and set Host mode */
 125:../STM32F2xx_HAL_Driver/Src/stm32f2xx_ll_usb.c ****     USB_CoreReset(USBx);
  88              		.loc 1 125 0
  89 0066 7868     		ldr	r0, [r7, #4]
  90 0068 01F0ACFA 		bl	USB_CoreReset
 126:../STM32F2xx_HAL_Driver/Src/stm32f2xx_ll_usb.c ****     
 127:../STM32F2xx_HAL_Driver/Src/stm32f2xx_ll_usb.c ****     /* Deactivate the power down*/
 128:../STM32F2xx_HAL_Driver/Src/stm32f2xx_ll_usb.c ****     USBx->GCCFG = USB_OTG_GCCFG_PWRDWN;
  91              		.loc 1 128 0
  92 006c 7B68     		ldr	r3, [r7, #4]
  93 006e 4FF48032 		mov	r2, #65536
  94 0072 9A63     		str	r2, [r3, #56]
  95              	.L4:
 129:../STM32F2xx_HAL_Driver/Src/stm32f2xx_ll_usb.c ****   }
 130:../STM32F2xx_HAL_Driver/Src/stm32f2xx_ll_usb.c ****  
 131:../STM32F2xx_HAL_Driver/Src/stm32f2xx_ll_usb.c ****   if(cfg.dma_enable == ENABLE)
  96              		.loc 1 131 0
  97 0074 3B6A     		ldr	r3, [r7, #32]
  98 0076 012B     		cmp	r3, #1
  99 0078 0BD1     		bne	.L5
 132:../STM32F2xx_HAL_Driver/Src/stm32f2xx_ll_usb.c ****   {
 133:../STM32F2xx_HAL_Driver/Src/stm32f2xx_ll_usb.c ****     USBx->GAHBCFG |= (USB_OTG_GAHBCFG_HBSTLEN_1 | USB_OTG_GAHBCFG_HBSTLEN_2);
 100              		.loc 1 133 0
 101 007a 7B68     		ldr	r3, [r7, #4]
 102 007c 9B68     		ldr	r3, [r3, #8]
 103 007e 43F00C02 		orr	r2, r3, #12
 104 0082 7B68     		ldr	r3, [r7, #4]
 105 0084 9A60     		str	r2, [r3, #8]
 134:../STM32F2xx_HAL_Driver/Src/stm32f2xx_ll_usb.c ****     USBx->GAHBCFG |= USB_OTG_GAHBCFG_DMAEN;
 106              		.loc 1 134 0
 107 0086 7B68     		ldr	r3, [r7, #4]
 108 0088 9B68     		ldr	r3, [r3, #8]
 109 008a 43F02002 		orr	r2, r3, #32
 110 008e 7B68     		ldr	r3, [r7, #4]
 111 0090 9A60     		str	r2, [r3, #8]
 112              	.L5:
 135:../STM32F2xx_HAL_Driver/Src/stm32f2xx_ll_usb.c ****   }  
 136:../STM32F2xx_HAL_Driver/Src/stm32f2xx_ll_usb.c **** 
 137:../STM32F2xx_HAL_Driver/Src/stm32f2xx_ll_usb.c ****   return HAL_OK;
 113              		.loc 1 137 0
 114 0092 0023     		movs	r3, #0
 138:../STM32F2xx_HAL_Driver/Src/stm32f2xx_ll_usb.c **** }
 115              		.loc 1 138 0
 116 0094 1846     		mov	r0, r3
 117 0096 0837     		adds	r7, r7, #8
 118 0098 BD46     		mov	sp, r7
 119              		@ sp needed
 120 009a BDE88040 		pop	{r7, lr}
 121 009e 04B0     		add	sp, sp, #16
 122 00a0 7047     		bx	lr
 123              		.cfi_endproc
 124              	.LFE55:
 126 00a2 00BF     		.align	2
 127              		.global	USB_EnableGlobalInt
 128              		.thumb
 129              		.thumb_func
 131              	USB_EnableGlobalInt:
 132              	.LFB56:
 139:../STM32F2xx_HAL_Driver/Src/stm32f2xx_ll_usb.c **** 
 140:../STM32F2xx_HAL_Driver/Src/stm32f2xx_ll_usb.c **** /**
 141:../STM32F2xx_HAL_Driver/Src/stm32f2xx_ll_usb.c ****   * @brief  USB_EnableGlobalInt
 142:../STM32F2xx_HAL_Driver/Src/stm32f2xx_ll_usb.c ****   *         Enables the controller's Global Int in the AHB Config reg
 143:../STM32F2xx_HAL_Driver/Src/stm32f2xx_ll_usb.c ****   * @param  USBx : Selected device
 144:../STM32F2xx_HAL_Driver/Src/stm32f2xx_ll_usb.c ****   * @retval HAL status
 145:../STM32F2xx_HAL_Driver/Src/stm32f2xx_ll_usb.c ****   */
 146:../STM32F2xx_HAL_Driver/Src/stm32f2xx_ll_usb.c **** HAL_StatusTypeDef USB_EnableGlobalInt(USB_OTG_GlobalTypeDef *USBx)
 147:../STM32F2xx_HAL_Driver/Src/stm32f2xx_ll_usb.c **** {
 133              		.loc 1 147 0
 134              		.cfi_startproc
 135              		@ args = 0, pretend = 0, frame = 8
 136              		@ frame_needed = 1, uses_anonymous_args = 0
 137              		@ link register save eliminated.
 138 00a4 80B4     		push	{r7}
 139              		.cfi_def_cfa_offset 4
 140              		.cfi_offset 7, -4
 141 00a6 83B0     		sub	sp, sp, #12
 142              		.cfi_def_cfa_offset 16
 143 00a8 00AF     		add	r7, sp, #0
 144              		.cfi_def_cfa_register 7
 145 00aa 7860     		str	r0, [r7, #4]
 148:../STM32F2xx_HAL_Driver/Src/stm32f2xx_ll_usb.c ****   USBx->GAHBCFG |= USB_OTG_GAHBCFG_GINT;
 146              		.loc 1 148 0
 147 00ac 7B68     		ldr	r3, [r7, #4]
 148 00ae 9B68     		ldr	r3, [r3, #8]
 149 00b0 43F00102 		orr	r2, r3, #1
 150 00b4 7B68     		ldr	r3, [r7, #4]
 151 00b6 9A60     		str	r2, [r3, #8]
 149:../STM32F2xx_HAL_Driver/Src/stm32f2xx_ll_usb.c ****   return HAL_OK;
 152              		.loc 1 149 0
 153 00b8 0023     		movs	r3, #0
 150:../STM32F2xx_HAL_Driver/Src/stm32f2xx_ll_usb.c **** }
 154              		.loc 1 150 0
 155 00ba 1846     		mov	r0, r3
 156 00bc 0C37     		adds	r7, r7, #12
 157 00be BD46     		mov	sp, r7
 158              		@ sp needed
 159 00c0 5DF8047B 		ldr	r7, [sp], #4
 160 00c4 7047     		bx	lr
 161              		.cfi_endproc
 162              	.LFE56:
 164 00c6 00BF     		.align	2
 165              		.global	USB_DisableGlobalInt
 166              		.thumb
 167              		.thumb_func
 169              	USB_DisableGlobalInt:
 170              	.LFB57:
 151:../STM32F2xx_HAL_Driver/Src/stm32f2xx_ll_usb.c **** 
 152:../STM32F2xx_HAL_Driver/Src/stm32f2xx_ll_usb.c **** 
 153:../STM32F2xx_HAL_Driver/Src/stm32f2xx_ll_usb.c **** /**
 154:../STM32F2xx_HAL_Driver/Src/stm32f2xx_ll_usb.c ****   * @brief  USB_DisableGlobalInt
 155:../STM32F2xx_HAL_Driver/Src/stm32f2xx_ll_usb.c ****   *         Disable the controller's Global Int in the AHB Config reg
 156:../STM32F2xx_HAL_Driver/Src/stm32f2xx_ll_usb.c ****   * @param  USBx : Selected device
 157:../STM32F2xx_HAL_Driver/Src/stm32f2xx_ll_usb.c ****   * @retval HAL status
 158:../STM32F2xx_HAL_Driver/Src/stm32f2xx_ll_usb.c **** */
 159:../STM32F2xx_HAL_Driver/Src/stm32f2xx_ll_usb.c **** HAL_StatusTypeDef USB_DisableGlobalInt(USB_OTG_GlobalTypeDef *USBx)
 160:../STM32F2xx_HAL_Driver/Src/stm32f2xx_ll_usb.c **** {
 171              		.loc 1 160 0
 172              		.cfi_startproc
 173              		@ args = 0, pretend = 0, frame = 8
 174              		@ frame_needed = 1, uses_anonymous_args = 0
 175              		@ link register save eliminated.
 176 00c8 80B4     		push	{r7}
 177              		.cfi_def_cfa_offset 4
 178              		.cfi_offset 7, -4
 179 00ca 83B0     		sub	sp, sp, #12
 180              		.cfi_def_cfa_offset 16
 181 00cc 00AF     		add	r7, sp, #0
 182              		.cfi_def_cfa_register 7
 183 00ce 7860     		str	r0, [r7, #4]
 161:../STM32F2xx_HAL_Driver/Src/stm32f2xx_ll_usb.c ****   USBx->GAHBCFG &= ~USB_OTG_GAHBCFG_GINT;
 184              		.loc 1 161 0
 185 00d0 7B68     		ldr	r3, [r7, #4]
 186 00d2 9B68     		ldr	r3, [r3, #8]
 187 00d4 23F00102 		bic	r2, r3, #1
 188 00d8 7B68     		ldr	r3, [r7, #4]
 189 00da 9A60     		str	r2, [r3, #8]
 162:../STM32F2xx_HAL_Driver/Src/stm32f2xx_ll_usb.c ****   return HAL_OK;
 190              		.loc 1 162 0
 191 00dc 0023     		movs	r3, #0
 163:../STM32F2xx_HAL_Driver/Src/stm32f2xx_ll_usb.c **** }
 192              		.loc 1 163 0
 193 00de 1846     		mov	r0, r3
 194 00e0 0C37     		adds	r7, r7, #12
 195 00e2 BD46     		mov	sp, r7
 196              		@ sp needed
 197 00e4 5DF8047B 		ldr	r7, [sp], #4
 198 00e8 7047     		bx	lr
 199              		.cfi_endproc
 200              	.LFE57:
 202 00ea 00BF     		.align	2
 203              		.global	USB_SetCurrentMode
 204              		.thumb
 205              		.thumb_func
 207              	USB_SetCurrentMode:
 208              	.LFB58:
 164:../STM32F2xx_HAL_Driver/Src/stm32f2xx_ll_usb.c ****    
 165:../STM32F2xx_HAL_Driver/Src/stm32f2xx_ll_usb.c **** /**
 166:../STM32F2xx_HAL_Driver/Src/stm32f2xx_ll_usb.c ****   * @brief  USB_SetCurrentMode : Set functional mode
 167:../STM32F2xx_HAL_Driver/Src/stm32f2xx_ll_usb.c ****   * @param  USBx : Selected device
 168:../STM32F2xx_HAL_Driver/Src/stm32f2xx_ll_usb.c ****   * @param  mode :  current core mode
 169:../STM32F2xx_HAL_Driver/Src/stm32f2xx_ll_usb.c ****   *          This parameter can be one of the these values:
 170:../STM32F2xx_HAL_Driver/Src/stm32f2xx_ll_usb.c ****   *            @arg USB_OTG_DEVICE_MODE: Peripheral mode mode
 171:../STM32F2xx_HAL_Driver/Src/stm32f2xx_ll_usb.c ****   *            @arg USB_OTG_HOST_MODE: Host mode
 172:../STM32F2xx_HAL_Driver/Src/stm32f2xx_ll_usb.c ****   *            @arg USB_OTG_DRD_MODE: Dual Role Device mode  
 173:../STM32F2xx_HAL_Driver/Src/stm32f2xx_ll_usb.c ****   * @retval HAL status
 174:../STM32F2xx_HAL_Driver/Src/stm32f2xx_ll_usb.c ****   */
 175:../STM32F2xx_HAL_Driver/Src/stm32f2xx_ll_usb.c **** HAL_StatusTypeDef USB_SetCurrentMode(USB_OTG_GlobalTypeDef *USBx , USB_OTG_ModeTypeDef mode)
 176:../STM32F2xx_HAL_Driver/Src/stm32f2xx_ll_usb.c **** {
 209              		.loc 1 176 0
 210              		.cfi_startproc
 211              		@ args = 0, pretend = 0, frame = 8
 212              		@ frame_needed = 1, uses_anonymous_args = 0
 213 00ec 80B5     		push	{r7, lr}
 214              		.cfi_def_cfa_offset 8
 215              		.cfi_offset 7, -8
 216              		.cfi_offset 14, -4
 217 00ee 82B0     		sub	sp, sp, #8
 218              		.cfi_def_cfa_offset 16
 219 00f0 00AF     		add	r7, sp, #0
 220              		.cfi_def_cfa_register 7
 221 00f2 7860     		str	r0, [r7, #4]
 222 00f4 0B46     		mov	r3, r1
 223 00f6 FB70     		strb	r3, [r7, #3]
 177:../STM32F2xx_HAL_Driver/Src/stm32f2xx_ll_usb.c ****   USBx->GUSBCFG &= ~(USB_OTG_GUSBCFG_FHMOD | USB_OTG_GUSBCFG_FDMOD); 
 224              		.loc 1 177 0
 225 00f8 7B68     		ldr	r3, [r7, #4]
 226 00fa DB68     		ldr	r3, [r3, #12]
 227 00fc 23F0C042 		bic	r2, r3, #1610612736
 228 0100 7B68     		ldr	r3, [r7, #4]
 229 0102 DA60     		str	r2, [r3, #12]
 178:../STM32F2xx_HAL_Driver/Src/stm32f2xx_ll_usb.c ****   
 179:../STM32F2xx_HAL_Driver/Src/stm32f2xx_ll_usb.c ****   if ( mode == USB_OTG_HOST_MODE)
 230              		.loc 1 179 0
 231 0104 FB78     		ldrb	r3, [r7, #3]	@ zero_extendqisi2
 232 0106 012B     		cmp	r3, #1
 233 0108 06D1     		bne	.L12
 180:../STM32F2xx_HAL_Driver/Src/stm32f2xx_ll_usb.c ****   {
 181:../STM32F2xx_HAL_Driver/Src/stm32f2xx_ll_usb.c ****     USBx->GUSBCFG |= USB_OTG_GUSBCFG_FHMOD; 
 234              		.loc 1 181 0
 235 010a 7B68     		ldr	r3, [r7, #4]
 236 010c DB68     		ldr	r3, [r3, #12]
 237 010e 43F00052 		orr	r2, r3, #536870912
 238 0112 7B68     		ldr	r3, [r7, #4]
 239 0114 DA60     		str	r2, [r3, #12]
 240 0116 08E0     		b	.L13
 241              	.L12:
 182:../STM32F2xx_HAL_Driver/Src/stm32f2xx_ll_usb.c ****   }
 183:../STM32F2xx_HAL_Driver/Src/stm32f2xx_ll_usb.c ****   else if ( mode == USB_OTG_DEVICE_MODE)
 242              		.loc 1 183 0
 243 0118 FB78     		ldrb	r3, [r7, #3]	@ zero_extendqisi2
 244 011a 002B     		cmp	r3, #0
 245 011c 05D1     		bne	.L13
 184:../STM32F2xx_HAL_Driver/Src/stm32f2xx_ll_usb.c ****   {
 185:../STM32F2xx_HAL_Driver/Src/stm32f2xx_ll_usb.c ****     USBx->GUSBCFG |= USB_OTG_GUSBCFG_FDMOD; 
 246              		.loc 1 185 0
 247 011e 7B68     		ldr	r3, [r7, #4]
 248 0120 DB68     		ldr	r3, [r3, #12]
 249 0122 43F08042 		orr	r2, r3, #1073741824
 250 0126 7B68     		ldr	r3, [r7, #4]
 251 0128 DA60     		str	r2, [r3, #12]
 252              	.L13:
 186:../STM32F2xx_HAL_Driver/Src/stm32f2xx_ll_usb.c ****   }
 187:../STM32F2xx_HAL_Driver/Src/stm32f2xx_ll_usb.c ****   HAL_Delay(50);
 253              		.loc 1 187 0
 254 012a 3220     		movs	r0, #50
 255 012c FFF7FEFF 		bl	HAL_Delay
 188:../STM32F2xx_HAL_Driver/Src/stm32f2xx_ll_usb.c ****   
 189:../STM32F2xx_HAL_Driver/Src/stm32f2xx_ll_usb.c ****   return HAL_OK;
 256              		.loc 1 189 0
 257 0130 0023     		movs	r3, #0
 190:../STM32F2xx_HAL_Driver/Src/stm32f2xx_ll_usb.c **** }
 258              		.loc 1 190 0
 259 0132 1846     		mov	r0, r3
 260 0134 0837     		adds	r7, r7, #8
 261 0136 BD46     		mov	sp, r7
 262              		@ sp needed
 263 0138 80BD     		pop	{r7, pc}
 264              		.cfi_endproc
 265              	.LFE58:
 267 013a 00BF     		.align	2
 268              		.global	USB_DevInit
 269              		.thumb
 270              		.thumb_func
 272              	USB_DevInit:
 273              	.LFB59:
 191:../STM32F2xx_HAL_Driver/Src/stm32f2xx_ll_usb.c **** 
 192:../STM32F2xx_HAL_Driver/Src/stm32f2xx_ll_usb.c **** /**
 193:../STM32F2xx_HAL_Driver/Src/stm32f2xx_ll_usb.c ****   * @brief  USB_DevInit : Initializes the USB_OTG controller registers 
 194:../STM32F2xx_HAL_Driver/Src/stm32f2xx_ll_usb.c ****   *         for device mode
 195:../STM32F2xx_HAL_Driver/Src/stm32f2xx_ll_usb.c ****   * @param  USBx : Selected device
 196:../STM32F2xx_HAL_Driver/Src/stm32f2xx_ll_usb.c ****   * @param  cfg  : pointer to a USB_OTG_CfgTypeDef structure that contains
 197:../STM32F2xx_HAL_Driver/Src/stm32f2xx_ll_usb.c ****   *         the configuration information for the specified USBx peripheral.
 198:../STM32F2xx_HAL_Driver/Src/stm32f2xx_ll_usb.c ****   * @retval HAL status
 199:../STM32F2xx_HAL_Driver/Src/stm32f2xx_ll_usb.c ****   */
 200:../STM32F2xx_HAL_Driver/Src/stm32f2xx_ll_usb.c **** HAL_StatusTypeDef USB_DevInit (USB_OTG_GlobalTypeDef *USBx, USB_OTG_CfgTypeDef cfg)
 201:../STM32F2xx_HAL_Driver/Src/stm32f2xx_ll_usb.c **** {
 274              		.loc 1 201 0
 275              		.cfi_startproc
 276              		@ args = 48, pretend = 16, frame = 16
 277              		@ frame_needed = 1, uses_anonymous_args = 0
 278 013c 84B0     		sub	sp, sp, #16
 279              		.cfi_def_cfa_offset 16
 280 013e 80B5     		push	{r7, lr}
 281              		.cfi_def_cfa_offset 24
 282              		.cfi_offset 7, -24
 283              		.cfi_offset 14, -20
 284 0140 84B0     		sub	sp, sp, #16
 285              		.cfi_def_cfa_offset 40
 286 0142 00AF     		add	r7, sp, #0
 287              		.cfi_def_cfa_register 7
 288 0144 7860     		str	r0, [r7, #4]
 289 0146 07F11C00 		add	r0, r7, #28
 290 014a 80E80E00 		stmia	r0, {r1, r2, r3}
 202:../STM32F2xx_HAL_Driver/Src/stm32f2xx_ll_usb.c ****   uint32_t i = 0;
 291              		.loc 1 202 0
 292 014e 0023     		movs	r3, #0
 293 0150 FB60     		str	r3, [r7, #12]
 203:../STM32F2xx_HAL_Driver/Src/stm32f2xx_ll_usb.c **** 
 204:../STM32F2xx_HAL_Driver/Src/stm32f2xx_ll_usb.c ****   /*Activate VBUS Sensing B */
 205:../STM32F2xx_HAL_Driver/Src/stm32f2xx_ll_usb.c ****   USBx->GCCFG |= USB_OTG_GCCFG_VBUSBSEN;
 294              		.loc 1 205 0
 295 0152 7B68     		ldr	r3, [r7, #4]
 296 0154 9B6B     		ldr	r3, [r3, #56]
 297 0156 43F40022 		orr	r2, r3, #524288
 298 015a 7B68     		ldr	r3, [r7, #4]
 299 015c 9A63     		str	r2, [r3, #56]
 206:../STM32F2xx_HAL_Driver/Src/stm32f2xx_ll_usb.c ****   
 207:../STM32F2xx_HAL_Driver/Src/stm32f2xx_ll_usb.c ****   if (cfg.vbus_sensing_enable == 0)
 300              		.loc 1 207 0
 301 015e FB6B     		ldr	r3, [r7, #60]
 302 0160 002B     		cmp	r3, #0
 303 0162 05D1     		bne	.L16
 208:../STM32F2xx_HAL_Driver/Src/stm32f2xx_ll_usb.c ****   {
 209:../STM32F2xx_HAL_Driver/Src/stm32f2xx_ll_usb.c ****     USBx->GCCFG |= USB_OTG_GCCFG_NOVBUSSENS;
 304              		.loc 1 209 0
 305 0164 7B68     		ldr	r3, [r7, #4]
 306 0166 9B6B     		ldr	r3, [r3, #56]
 307 0168 43F40012 		orr	r2, r3, #2097152
 308 016c 7B68     		ldr	r3, [r7, #4]
 309 016e 9A63     		str	r2, [r3, #56]
 310              	.L16:
 210:../STM32F2xx_HAL_Driver/Src/stm32f2xx_ll_usb.c ****   }
 211:../STM32F2xx_HAL_Driver/Src/stm32f2xx_ll_usb.c ****    
 212:../STM32F2xx_HAL_Driver/Src/stm32f2xx_ll_usb.c ****   /* Restart the Phy Clock */
 213:../STM32F2xx_HAL_Driver/Src/stm32f2xx_ll_usb.c ****   USBx_PCGCCTL = 0;
 311              		.loc 1 213 0
 312 0170 7B68     		ldr	r3, [r7, #4]
 313 0172 03F56063 		add	r3, r3, #3584
 314 0176 0022     		movs	r2, #0
 315 0178 1A60     		str	r2, [r3]
 214:../STM32F2xx_HAL_Driver/Src/stm32f2xx_ll_usb.c **** 
 215:../STM32F2xx_HAL_Driver/Src/stm32f2xx_ll_usb.c ****   /* Device mode configuration */
 216:../STM32F2xx_HAL_Driver/Src/stm32f2xx_ll_usb.c ****   USBx_DEVICE->DCFG |= DCFG_FRAME_INTERVAL_80;
 316              		.loc 1 216 0
 317 017a 7B68     		ldr	r3, [r7, #4]
 318 017c 03F50063 		add	r3, r3, #2048
 319 0180 7A68     		ldr	r2, [r7, #4]
 320 0182 02F50062 		add	r2, r2, #2048
 321 0186 1268     		ldr	r2, [r2]
 322 0188 1A60     		str	r2, [r3]
 217:../STM32F2xx_HAL_Driver/Src/stm32f2xx_ll_usb.c ****   
 218:../STM32F2xx_HAL_Driver/Src/stm32f2xx_ll_usb.c ****   if(cfg.phy_itface  == USB_OTG_ULPI_PHY)
 323              		.loc 1 218 0
 324 018a 3B6B     		ldr	r3, [r7, #48]
 325 018c 012B     		cmp	r3, #1
 326 018e 0CD1     		bne	.L17
 219:../STM32F2xx_HAL_Driver/Src/stm32f2xx_ll_usb.c ****   {
 220:../STM32F2xx_HAL_Driver/Src/stm32f2xx_ll_usb.c ****     if(cfg.speed == USB_OTG_SPEED_HIGH)
 327              		.loc 1 220 0
 328 0190 7B6A     		ldr	r3, [r7, #36]
 329 0192 002B     		cmp	r3, #0
 330 0194 04D1     		bne	.L18
 221:../STM32F2xx_HAL_Driver/Src/stm32f2xx_ll_usb.c ****     {      
 222:../STM32F2xx_HAL_Driver/Src/stm32f2xx_ll_usb.c ****       /* Set High speed phy */
 223:../STM32F2xx_HAL_Driver/Src/stm32f2xx_ll_usb.c ****       USB_SetDevSpeed (USBx , USB_OTG_SPEED_HIGH);
 331              		.loc 1 223 0
 332 0196 7868     		ldr	r0, [r7, #4]
 333 0198 0021     		movs	r1, #0
 334 019a FFF7FEFF 		bl	USB_SetDevSpeed
 335 019e 08E0     		b	.L20
 336              	.L18:
 224:../STM32F2xx_HAL_Driver/Src/stm32f2xx_ll_usb.c ****     }
 225:../STM32F2xx_HAL_Driver/Src/stm32f2xx_ll_usb.c ****     else 
 226:../STM32F2xx_HAL_Driver/Src/stm32f2xx_ll_usb.c ****     {
 227:../STM32F2xx_HAL_Driver/Src/stm32f2xx_ll_usb.c ****       /* set High speed phy in Full speed mode */
 228:../STM32F2xx_HAL_Driver/Src/stm32f2xx_ll_usb.c ****       USB_SetDevSpeed (USBx , USB_OTG_SPEED_HIGH_IN_FULL);
 337              		.loc 1 228 0
 338 01a0 7868     		ldr	r0, [r7, #4]
 339 01a2 0121     		movs	r1, #1
 340 01a4 FFF7FEFF 		bl	USB_SetDevSpeed
 341 01a8 03E0     		b	.L20
 342              	.L17:
 229:../STM32F2xx_HAL_Driver/Src/stm32f2xx_ll_usb.c ****     }
 230:../STM32F2xx_HAL_Driver/Src/stm32f2xx_ll_usb.c ****   }
 231:../STM32F2xx_HAL_Driver/Src/stm32f2xx_ll_usb.c ****   else
 232:../STM32F2xx_HAL_Driver/Src/stm32f2xx_ll_usb.c ****   {
 233:../STM32F2xx_HAL_Driver/Src/stm32f2xx_ll_usb.c ****     /* Set Full speed phy */
 234:../STM32F2xx_HAL_Driver/Src/stm32f2xx_ll_usb.c ****     USB_SetDevSpeed (USBx , USB_OTG_SPEED_FULL);
 343              		.loc 1 234 0
 344 01aa 7868     		ldr	r0, [r7, #4]
 345 01ac 0321     		movs	r1, #3
 346 01ae FFF7FEFF 		bl	USB_SetDevSpeed
 347              	.L20:
 235:../STM32F2xx_HAL_Driver/Src/stm32f2xx_ll_usb.c ****   }
 236:../STM32F2xx_HAL_Driver/Src/stm32f2xx_ll_usb.c **** 
 237:../STM32F2xx_HAL_Driver/Src/stm32f2xx_ll_usb.c ****   /* Flush the FIFOs */
 238:../STM32F2xx_HAL_Driver/Src/stm32f2xx_ll_usb.c ****   USB_FlushTxFifo(USBx , 0x10); /* all Tx FIFOs */
 348              		.loc 1 238 0
 349 01b2 7868     		ldr	r0, [r7, #4]
 350 01b4 1021     		movs	r1, #16
 351 01b6 FFF7FEFF 		bl	USB_FlushTxFifo
 239:../STM32F2xx_HAL_Driver/Src/stm32f2xx_ll_usb.c ****   USB_FlushRxFifo(USBx);
 352              		.loc 1 239 0
 353 01ba 7868     		ldr	r0, [r7, #4]
 354 01bc FFF7FEFF 		bl	USB_FlushRxFifo
 240:../STM32F2xx_HAL_Driver/Src/stm32f2xx_ll_usb.c **** 
 241:../STM32F2xx_HAL_Driver/Src/stm32f2xx_ll_usb.c ****   
 242:../STM32F2xx_HAL_Driver/Src/stm32f2xx_ll_usb.c ****   /* Clear all pending Device Interrupts */
 243:../STM32F2xx_HAL_Driver/Src/stm32f2xx_ll_usb.c ****   USBx_DEVICE->DIEPMSK = 0;
 355              		.loc 1 243 0
 356 01c0 7B68     		ldr	r3, [r7, #4]
 357 01c2 03F50063 		add	r3, r3, #2048
 358 01c6 0022     		movs	r2, #0
 359 01c8 1A61     		str	r2, [r3, #16]
 244:../STM32F2xx_HAL_Driver/Src/stm32f2xx_ll_usb.c ****   USBx_DEVICE->DOEPMSK = 0;
 360              		.loc 1 244 0
 361 01ca 7B68     		ldr	r3, [r7, #4]
 362 01cc 03F50063 		add	r3, r3, #2048
 363 01d0 0022     		movs	r2, #0
 364 01d2 5A61     		str	r2, [r3, #20]
 245:../STM32F2xx_HAL_Driver/Src/stm32f2xx_ll_usb.c ****   USBx_DEVICE->DAINT = 0xFFFFFFFF;
 365              		.loc 1 245 0
 366 01d4 7B68     		ldr	r3, [r7, #4]
 367 01d6 03F50063 		add	r3, r3, #2048
 368 01da 4FF0FF32 		mov	r2, #-1
 369 01de 9A61     		str	r2, [r3, #24]
 246:../STM32F2xx_HAL_Driver/Src/stm32f2xx_ll_usb.c ****   USBx_DEVICE->DAINTMSK = 0;
 370              		.loc 1 246 0
 371 01e0 7B68     		ldr	r3, [r7, #4]
 372 01e2 03F50063 		add	r3, r3, #2048
 373 01e6 0022     		movs	r2, #0
 374 01e8 DA61     		str	r2, [r3, #28]
 247:../STM32F2xx_HAL_Driver/Src/stm32f2xx_ll_usb.c ****   
 248:../STM32F2xx_HAL_Driver/Src/stm32f2xx_ll_usb.c ****   for (i = 0; i < cfg.dev_endpoints; i++)
 375              		.loc 1 248 0
 376 01ea 0023     		movs	r3, #0
 377 01ec FB60     		str	r3, [r7, #12]
 378 01ee 2DE0     		b	.L21
 379              	.L24:
 249:../STM32F2xx_HAL_Driver/Src/stm32f2xx_ll_usb.c ****   {
 250:../STM32F2xx_HAL_Driver/Src/stm32f2xx_ll_usb.c ****     if ((USBx_INEP(i)->DIEPCTL & USB_OTG_DIEPCTL_EPENA) == USB_OTG_DIEPCTL_EPENA)
 380              		.loc 1 250 0
 381 01f0 FB68     		ldr	r3, [r7, #12]
 382 01f2 5A01     		lsls	r2, r3, #5
 383 01f4 7B68     		ldr	r3, [r7, #4]
 384 01f6 1344     		add	r3, r3, r2
 385 01f8 03F51063 		add	r3, r3, #2304
 386 01fc 1B68     		ldr	r3, [r3]
 387 01fe 002B     		cmp	r3, #0
 388 0200 09DA     		bge	.L22
 251:../STM32F2xx_HAL_Driver/Src/stm32f2xx_ll_usb.c ****     {
 252:../STM32F2xx_HAL_Driver/Src/stm32f2xx_ll_usb.c ****       USBx_INEP(i)->DIEPCTL = (USB_OTG_DIEPCTL_EPDIS | USB_OTG_DIEPCTL_SNAK);
 389              		.loc 1 252 0
 390 0202 FB68     		ldr	r3, [r7, #12]
 391 0204 5A01     		lsls	r2, r3, #5
 392 0206 7B68     		ldr	r3, [r7, #4]
 393 0208 1344     		add	r3, r3, r2
 394 020a 03F51063 		add	r3, r3, #2304
 395 020e 4FF09042 		mov	r2, #1207959552
 396 0212 1A60     		str	r2, [r3]
 397 0214 07E0     		b	.L23
 398              	.L22:
 253:../STM32F2xx_HAL_Driver/Src/stm32f2xx_ll_usb.c ****     }
 254:../STM32F2xx_HAL_Driver/Src/stm32f2xx_ll_usb.c ****     else
 255:../STM32F2xx_HAL_Driver/Src/stm32f2xx_ll_usb.c ****     {
 256:../STM32F2xx_HAL_Driver/Src/stm32f2xx_ll_usb.c ****       USBx_INEP(i)->DIEPCTL = 0;
 399              		.loc 1 256 0
 400 0216 FB68     		ldr	r3, [r7, #12]
 401 0218 5A01     		lsls	r2, r3, #5
 402 021a 7B68     		ldr	r3, [r7, #4]
 403 021c 1344     		add	r3, r3, r2
 404 021e 03F51063 		add	r3, r3, #2304
 405 0222 0022     		movs	r2, #0
 406 0224 1A60     		str	r2, [r3]
 407              	.L23:
 257:../STM32F2xx_HAL_Driver/Src/stm32f2xx_ll_usb.c ****     }
 258:../STM32F2xx_HAL_Driver/Src/stm32f2xx_ll_usb.c ****     
 259:../STM32F2xx_HAL_Driver/Src/stm32f2xx_ll_usb.c ****     USBx_INEP(i)->DIEPTSIZ = 0;
 408              		.loc 1 259 0
 409 0226 FB68     		ldr	r3, [r7, #12]
 410 0228 5A01     		lsls	r2, r3, #5
 411 022a 7B68     		ldr	r3, [r7, #4]
 412 022c 1344     		add	r3, r3, r2
 413 022e 03F51063 		add	r3, r3, #2304
 414 0232 0022     		movs	r2, #0
 415 0234 1A61     		str	r2, [r3, #16]
 260:../STM32F2xx_HAL_Driver/Src/stm32f2xx_ll_usb.c ****     USBx_INEP(i)->DIEPINT  = 0xFF;
 416              		.loc 1 260 0
 417 0236 FB68     		ldr	r3, [r7, #12]
 418 0238 5A01     		lsls	r2, r3, #5
 419 023a 7B68     		ldr	r3, [r7, #4]
 420 023c 1344     		add	r3, r3, r2
 421 023e 03F51063 		add	r3, r3, #2304
 422 0242 FF22     		movs	r2, #255
 423 0244 9A60     		str	r2, [r3, #8]
 248:../STM32F2xx_HAL_Driver/Src/stm32f2xx_ll_usb.c ****   {
 424              		.loc 1 248 0
 425 0246 FB68     		ldr	r3, [r7, #12]
 426 0248 0133     		adds	r3, r3, #1
 427 024a FB60     		str	r3, [r7, #12]
 428              	.L21:
 248:../STM32F2xx_HAL_Driver/Src/stm32f2xx_ll_usb.c ****   {
 429              		.loc 1 248 0 is_stmt 0 discriminator 1
 430 024c FA69     		ldr	r2, [r7, #28]
 431 024e FB68     		ldr	r3, [r7, #12]
 432 0250 9A42     		cmp	r2, r3
 433 0252 CDD8     		bhi	.L24
 261:../STM32F2xx_HAL_Driver/Src/stm32f2xx_ll_usb.c ****   }
 262:../STM32F2xx_HAL_Driver/Src/stm32f2xx_ll_usb.c ****   
 263:../STM32F2xx_HAL_Driver/Src/stm32f2xx_ll_usb.c ****   for (i = 0; i < cfg.dev_endpoints; i++)
 434              		.loc 1 263 0 is_stmt 1
 435 0254 0023     		movs	r3, #0
 436 0256 FB60     		str	r3, [r7, #12]
 437 0258 2DE0     		b	.L25
 438              	.L28:
 264:../STM32F2xx_HAL_Driver/Src/stm32f2xx_ll_usb.c ****   {
 265:../STM32F2xx_HAL_Driver/Src/stm32f2xx_ll_usb.c ****     if ((USBx_OUTEP(i)->DOEPCTL & USB_OTG_DOEPCTL_EPENA) == USB_OTG_DOEPCTL_EPENA)
 439              		.loc 1 265 0
 440 025a FB68     		ldr	r3, [r7, #12]
 441 025c 5A01     		lsls	r2, r3, #5
 442 025e 7B68     		ldr	r3, [r7, #4]
 443 0260 1344     		add	r3, r3, r2
 444 0262 03F53063 		add	r3, r3, #2816
 445 0266 1B68     		ldr	r3, [r3]
 446 0268 002B     		cmp	r3, #0
 447 026a 09DA     		bge	.L26
 266:../STM32F2xx_HAL_Driver/Src/stm32f2xx_ll_usb.c ****     {
 267:../STM32F2xx_HAL_Driver/Src/stm32f2xx_ll_usb.c ****       USBx_OUTEP(i)->DOEPCTL = (USB_OTG_DOEPCTL_EPDIS | USB_OTG_DOEPCTL_SNAK);
 448              		.loc 1 267 0
 449 026c FB68     		ldr	r3, [r7, #12]
 450 026e 5A01     		lsls	r2, r3, #5
 451 0270 7B68     		ldr	r3, [r7, #4]
 452 0272 1344     		add	r3, r3, r2
 453 0274 03F53063 		add	r3, r3, #2816
 454 0278 4FF09042 		mov	r2, #1207959552
 455 027c 1A60     		str	r2, [r3]
 456 027e 07E0     		b	.L27
 457              	.L26:
 268:../STM32F2xx_HAL_Driver/Src/stm32f2xx_ll_usb.c ****     }
 269:../STM32F2xx_HAL_Driver/Src/stm32f2xx_ll_usb.c ****     else
 270:../STM32F2xx_HAL_Driver/Src/stm32f2xx_ll_usb.c ****     {
 271:../STM32F2xx_HAL_Driver/Src/stm32f2xx_ll_usb.c ****       USBx_OUTEP(i)->DOEPCTL = 0;
 458              		.loc 1 271 0
 459 0280 FB68     		ldr	r3, [r7, #12]
 460 0282 5A01     		lsls	r2, r3, #5
 461 0284 7B68     		ldr	r3, [r7, #4]
 462 0286 1344     		add	r3, r3, r2
 463 0288 03F53063 		add	r3, r3, #2816
 464 028c 0022     		movs	r2, #0
 465 028e 1A60     		str	r2, [r3]
 466              	.L27:
 272:../STM32F2xx_HAL_Driver/Src/stm32f2xx_ll_usb.c ****     }
 273:../STM32F2xx_HAL_Driver/Src/stm32f2xx_ll_usb.c ****     
 274:../STM32F2xx_HAL_Driver/Src/stm32f2xx_ll_usb.c ****     USBx_OUTEP(i)->DOEPTSIZ = 0;
 467              		.loc 1 274 0
 468 0290 FB68     		ldr	r3, [r7, #12]
 469 0292 5A01     		lsls	r2, r3, #5
 470 0294 7B68     		ldr	r3, [r7, #4]
 471 0296 1344     		add	r3, r3, r2
 472 0298 03F53063 		add	r3, r3, #2816
 473 029c 0022     		movs	r2, #0
 474 029e 1A61     		str	r2, [r3, #16]
 275:../STM32F2xx_HAL_Driver/Src/stm32f2xx_ll_usb.c ****     USBx_OUTEP(i)->DOEPINT  = 0xFF;
 475              		.loc 1 275 0
 476 02a0 FB68     		ldr	r3, [r7, #12]
 477 02a2 5A01     		lsls	r2, r3, #5
 478 02a4 7B68     		ldr	r3, [r7, #4]
 479 02a6 1344     		add	r3, r3, r2
 480 02a8 03F53063 		add	r3, r3, #2816
 481 02ac FF22     		movs	r2, #255
 482 02ae 9A60     		str	r2, [r3, #8]
 263:../STM32F2xx_HAL_Driver/Src/stm32f2xx_ll_usb.c ****   {
 483              		.loc 1 263 0
 484 02b0 FB68     		ldr	r3, [r7, #12]
 485 02b2 0133     		adds	r3, r3, #1
 486 02b4 FB60     		str	r3, [r7, #12]
 487              	.L25:
 263:../STM32F2xx_HAL_Driver/Src/stm32f2xx_ll_usb.c ****   {
 488              		.loc 1 263 0 is_stmt 0 discriminator 1
 489 02b6 FA69     		ldr	r2, [r7, #28]
 490 02b8 FB68     		ldr	r3, [r7, #12]
 491 02ba 9A42     		cmp	r2, r3
 492 02bc CDD8     		bhi	.L28
 276:../STM32F2xx_HAL_Driver/Src/stm32f2xx_ll_usb.c ****   }
 277:../STM32F2xx_HAL_Driver/Src/stm32f2xx_ll_usb.c ****   
 278:../STM32F2xx_HAL_Driver/Src/stm32f2xx_ll_usb.c ****   USBx_DEVICE->DIEPMSK &= ~(USB_OTG_DIEPMSK_TXFURM);
 493              		.loc 1 278 0 is_stmt 1
 494 02be 7B68     		ldr	r3, [r7, #4]
 495 02c0 03F50063 		add	r3, r3, #2048
 496 02c4 7A68     		ldr	r2, [r7, #4]
 497 02c6 02F50062 		add	r2, r2, #2048
 498 02ca 1269     		ldr	r2, [r2, #16]
 499 02cc 22F48072 		bic	r2, r2, #256
 500 02d0 1A61     		str	r2, [r3, #16]
 279:../STM32F2xx_HAL_Driver/Src/stm32f2xx_ll_usb.c ****   
 280:../STM32F2xx_HAL_Driver/Src/stm32f2xx_ll_usb.c ****   if (cfg.dma_enable == 1)
 501              		.loc 1 280 0
 502 02d2 BB6A     		ldr	r3, [r7, #40]
 503 02d4 012B     		cmp	r3, #1
 504 02d6 1AD1     		bne	.L29
 281:../STM32F2xx_HAL_Driver/Src/stm32f2xx_ll_usb.c ****   {
 282:../STM32F2xx_HAL_Driver/Src/stm32f2xx_ll_usb.c ****     /*Set threshold parameters */
 283:../STM32F2xx_HAL_Driver/Src/stm32f2xx_ll_usb.c ****     USBx_DEVICE->DTHRCTL = (USB_OTG_DTHRCTL_TXTHRLEN_6 | USB_OTG_DTHRCTL_RXTHRLEN_6);
 505              		.loc 1 283 0
 506 02d8 7B68     		ldr	r3, [r7, #4]
 507 02da 03F50063 		add	r3, r3, #2048
 508 02de 1A46     		mov	r2, r3
 509 02e0 4FF48073 		mov	r3, #256
 510 02e4 C0F28003 		movt	r3, 128
 511 02e8 1363     		str	r3, [r2, #48]
 284:../STM32F2xx_HAL_Driver/Src/stm32f2xx_ll_usb.c ****     USBx_DEVICE->DTHRCTL |= (USB_OTG_DTHRCTL_RXTHREN | USB_OTG_DTHRCTL_ISOTHREN | USB_OTG_DTHRCTL_N
 512              		.loc 1 284 0
 513 02ea 7B68     		ldr	r3, [r7, #4]
 514 02ec 03F50063 		add	r3, r3, #2048
 515 02f0 1A46     		mov	r2, r3
 516 02f2 7B68     		ldr	r3, [r7, #4]
 517 02f4 03F50063 		add	r3, r3, #2048
 518 02f8 1B6B     		ldr	r3, [r3, #48]
 519 02fa 43F48033 		orr	r3, r3, #65536
 520 02fe 43F00303 		orr	r3, r3, #3
 521 0302 1363     		str	r3, [r2, #48]
 285:../STM32F2xx_HAL_Driver/Src/stm32f2xx_ll_usb.c ****     
 286:../STM32F2xx_HAL_Driver/Src/stm32f2xx_ll_usb.c ****     i= USBx_DEVICE->DTHRCTL;
 522              		.loc 1 286 0
 523 0304 7B68     		ldr	r3, [r7, #4]
 524 0306 03F50063 		add	r3, r3, #2048
 525 030a 1B6B     		ldr	r3, [r3, #48]
 526 030c FB60     		str	r3, [r7, #12]
 527              	.L29:
 287:../STM32F2xx_HAL_Driver/Src/stm32f2xx_ll_usb.c ****   }
 288:../STM32F2xx_HAL_Driver/Src/stm32f2xx_ll_usb.c ****   
 289:../STM32F2xx_HAL_Driver/Src/stm32f2xx_ll_usb.c ****   /* Disable all interrupts. */
 290:../STM32F2xx_HAL_Driver/Src/stm32f2xx_ll_usb.c ****   USBx->GINTMSK = 0;
 528              		.loc 1 290 0
 529 030e 7B68     		ldr	r3, [r7, #4]
 530 0310 0022     		movs	r2, #0
 531 0312 9A61     		str	r2, [r3, #24]
 291:../STM32F2xx_HAL_Driver/Src/stm32f2xx_ll_usb.c ****   
 292:../STM32F2xx_HAL_Driver/Src/stm32f2xx_ll_usb.c ****   /* Clear any pending interrupts */
 293:../STM32F2xx_HAL_Driver/Src/stm32f2xx_ll_usb.c ****   USBx->GINTSTS = 0xBFFFFFFF;
 532              		.loc 1 293 0
 533 0314 7B68     		ldr	r3, [r7, #4]
 534 0316 6FF08042 		mvn	r2, #1073741824
 535 031a 5A61     		str	r2, [r3, #20]
 294:../STM32F2xx_HAL_Driver/Src/stm32f2xx_ll_usb.c **** 
 295:../STM32F2xx_HAL_Driver/Src/stm32f2xx_ll_usb.c ****   /* Enable the common interrupts */
 296:../STM32F2xx_HAL_Driver/Src/stm32f2xx_ll_usb.c ****   if (cfg.dma_enable == DISABLE)
 536              		.loc 1 296 0
 537 031c BB6A     		ldr	r3, [r7, #40]
 538 031e 002B     		cmp	r3, #0
 539 0320 05D1     		bne	.L30
 297:../STM32F2xx_HAL_Driver/Src/stm32f2xx_ll_usb.c ****   {
 298:../STM32F2xx_HAL_Driver/Src/stm32f2xx_ll_usb.c ****     USBx->GINTMSK |= USB_OTG_GINTMSK_RXFLVLM; 
 540              		.loc 1 298 0
 541 0322 7B68     		ldr	r3, [r7, #4]
 542 0324 9B69     		ldr	r3, [r3, #24]
 543 0326 43F01002 		orr	r2, r3, #16
 544 032a 7B68     		ldr	r3, [r7, #4]
 545 032c 9A61     		str	r2, [r3, #24]
 546              	.L30:
 299:../STM32F2xx_HAL_Driver/Src/stm32f2xx_ll_usb.c ****   }
 300:../STM32F2xx_HAL_Driver/Src/stm32f2xx_ll_usb.c ****   
 301:../STM32F2xx_HAL_Driver/Src/stm32f2xx_ll_usb.c ****   /* Enable interrupts matching to the Device mode ONLY */
 302:../STM32F2xx_HAL_Driver/Src/stm32f2xx_ll_usb.c ****   USBx->GINTMSK |= (USB_OTG_GINTMSK_USBSUSPM | USB_OTG_GINTMSK_USBRST |\
 547              		.loc 1 302 0
 548 032e 7B68     		ldr	r3, [r7, #4]
 549 0330 9A69     		ldr	r2, [r3, #24]
 550 0332 4FF46053 		mov	r3, #14336
 551 0336 C8F23C03 		movt	r3, 32828
 552 033a 1343     		orrs	r3, r3, r2
 553 033c 7A68     		ldr	r2, [r7, #4]
 554 033e 9361     		str	r3, [r2, #24]
 303:../STM32F2xx_HAL_Driver/Src/stm32f2xx_ll_usb.c ****                     USB_OTG_GINTMSK_ENUMDNEM | USB_OTG_GINTMSK_IEPINT |\
 304:../STM32F2xx_HAL_Driver/Src/stm32f2xx_ll_usb.c ****                     USB_OTG_GINTMSK_OEPINT   | USB_OTG_GINTMSK_IISOIXFRM|\
 305:../STM32F2xx_HAL_Driver/Src/stm32f2xx_ll_usb.c ****                     USB_OTG_GINTMSK_PXFRM_IISOOXFRM | USB_OTG_GINTMSK_WUIM);
 306:../STM32F2xx_HAL_Driver/Src/stm32f2xx_ll_usb.c ****   
 307:../STM32F2xx_HAL_Driver/Src/stm32f2xx_ll_usb.c ****   if(cfg.Sof_enable)
 555              		.loc 1 307 0
 556 0340 7B6B     		ldr	r3, [r7, #52]
 557 0342 002B     		cmp	r3, #0
 558 0344 05D0     		beq	.L31
 308:../STM32F2xx_HAL_Driver/Src/stm32f2xx_ll_usb.c ****   {
 309:../STM32F2xx_HAL_Driver/Src/stm32f2xx_ll_usb.c ****     USBx->GINTMSK |= USB_OTG_GINTMSK_SOFM;
 559              		.loc 1 309 0
 560 0346 7B68     		ldr	r3, [r7, #4]
 561 0348 9B69     		ldr	r3, [r3, #24]
 562 034a 43F00802 		orr	r2, r3, #8
 563 034e 7B68     		ldr	r3, [r7, #4]
 564 0350 9A61     		str	r2, [r3, #24]
 565              	.L31:
 310:../STM32F2xx_HAL_Driver/Src/stm32f2xx_ll_usb.c ****   }
 311:../STM32F2xx_HAL_Driver/Src/stm32f2xx_ll_usb.c **** 
 312:../STM32F2xx_HAL_Driver/Src/stm32f2xx_ll_usb.c ****   if (cfg.vbus_sensing_enable == ENABLE)
 566              		.loc 1 312 0
 567 0352 FB6B     		ldr	r3, [r7, #60]
 568 0354 012B     		cmp	r3, #1
 569 0356 07D1     		bne	.L32
 313:../STM32F2xx_HAL_Driver/Src/stm32f2xx_ll_usb.c ****   {
 314:../STM32F2xx_HAL_Driver/Src/stm32f2xx_ll_usb.c ****     USBx->GINTMSK |= (USB_OTG_GINTMSK_SRQIM | USB_OTG_GINTMSK_OTGINT); 
 570              		.loc 1 314 0
 571 0358 7B68     		ldr	r3, [r7, #4]
 572 035a 9B69     		ldr	r3, [r3, #24]
 573 035c 43F08043 		orr	r3, r3, #1073741824
 574 0360 43F00403 		orr	r3, r3, #4
 575 0364 7A68     		ldr	r2, [r7, #4]
 576 0366 9361     		str	r3, [r2, #24]
 577              	.L32:
 315:../STM32F2xx_HAL_Driver/Src/stm32f2xx_ll_usb.c ****   }
 316:../STM32F2xx_HAL_Driver/Src/stm32f2xx_ll_usb.c ****   
 317:../STM32F2xx_HAL_Driver/Src/stm32f2xx_ll_usb.c ****   return HAL_OK;
 578              		.loc 1 317 0
 579 0368 0023     		movs	r3, #0
 318:../STM32F2xx_HAL_Driver/Src/stm32f2xx_ll_usb.c **** }
 580              		.loc 1 318 0
 581 036a 1846     		mov	r0, r3
 582 036c 1037     		adds	r7, r7, #16
 583 036e BD46     		mov	sp, r7
 584              		@ sp needed
 585 0370 BDE88040 		pop	{r7, lr}
 586 0374 04B0     		add	sp, sp, #16
 587 0376 7047     		bx	lr
 588              		.cfi_endproc
 589              	.LFE59:
 591              		.align	2
 592              		.global	USB_FlushTxFifo
 593              		.thumb
 594              		.thumb_func
 596              	USB_FlushTxFifo:
 597              	.LFB60:
 319:../STM32F2xx_HAL_Driver/Src/stm32f2xx_ll_usb.c **** 
 320:../STM32F2xx_HAL_Driver/Src/stm32f2xx_ll_usb.c **** 
 321:../STM32F2xx_HAL_Driver/Src/stm32f2xx_ll_usb.c **** /**
 322:../STM32F2xx_HAL_Driver/Src/stm32f2xx_ll_usb.c ****   * @brief  USB_OTG_FlushTxFifo : Flush a Tx FIFO
 323:../STM32F2xx_HAL_Driver/Src/stm32f2xx_ll_usb.c ****   * @param  USBx : Selected device
 324:../STM32F2xx_HAL_Driver/Src/stm32f2xx_ll_usb.c ****   * @param  num : FIFO number
 325:../STM32F2xx_HAL_Driver/Src/stm32f2xx_ll_usb.c ****   *         This parameter can be a value from 1 to 15
 326:../STM32F2xx_HAL_Driver/Src/stm32f2xx_ll_usb.c ****             15 means Flush all Tx FIFOs
 327:../STM32F2xx_HAL_Driver/Src/stm32f2xx_ll_usb.c ****   * @retval HAL status
 328:../STM32F2xx_HAL_Driver/Src/stm32f2xx_ll_usb.c ****   */
 329:../STM32F2xx_HAL_Driver/Src/stm32f2xx_ll_usb.c **** HAL_StatusTypeDef USB_FlushTxFifo (USB_OTG_GlobalTypeDef *USBx, uint32_t num )
 330:../STM32F2xx_HAL_Driver/Src/stm32f2xx_ll_usb.c **** {
 598              		.loc 1 330 0
 599              		.cfi_startproc
 600              		@ args = 0, pretend = 0, frame = 16
 601              		@ frame_needed = 1, uses_anonymous_args = 0
 602              		@ link register save eliminated.
 603 0378 80B4     		push	{r7}
 604              		.cfi_def_cfa_offset 4
 605              		.cfi_offset 7, -4
 606 037a 85B0     		sub	sp, sp, #20
 607              		.cfi_def_cfa_offset 24
 608 037c 00AF     		add	r7, sp, #0
 609              		.cfi_def_cfa_register 7
 610 037e 7860     		str	r0, [r7, #4]
 611 0380 3960     		str	r1, [r7]
 331:../STM32F2xx_HAL_Driver/Src/stm32f2xx_ll_usb.c ****   uint32_t count = 0;
 612              		.loc 1 331 0
 613 0382 0023     		movs	r3, #0
 614 0384 FB60     		str	r3, [r7, #12]
 332:../STM32F2xx_HAL_Driver/Src/stm32f2xx_ll_usb.c ****  
 333:../STM32F2xx_HAL_Driver/Src/stm32f2xx_ll_usb.c ****   USBx->GRSTCTL = ( USB_OTG_GRSTCTL_TXFFLSH |(uint32_t)( num << 5 )); 
 615              		.loc 1 333 0
 616 0386 3B68     		ldr	r3, [r7]
 617 0388 5B01     		lsls	r3, r3, #5
 618 038a 43F02002 		orr	r2, r3, #32
 619 038e 7B68     		ldr	r3, [r7, #4]
 620 0390 1A61     		str	r2, [r3, #16]
 621              	.L37:
 334:../STM32F2xx_HAL_Driver/Src/stm32f2xx_ll_usb.c ****  
 335:../STM32F2xx_HAL_Driver/Src/stm32f2xx_ll_usb.c ****   do
 336:../STM32F2xx_HAL_Driver/Src/stm32f2xx_ll_usb.c ****   {
 337:../STM32F2xx_HAL_Driver/Src/stm32f2xx_ll_usb.c ****     if (++count > 200000)
 622              		.loc 1 337 0
 623 0392 FB68     		ldr	r3, [r7, #12]
 624 0394 0133     		adds	r3, r3, #1
 625 0396 FB60     		str	r3, [r7, #12]
 626 0398 FA68     		ldr	r2, [r7, #12]
 627 039a 4FF45463 		mov	r3, #3392
 628 039e C0F20303 		movt	r3, 3
 629 03a2 9A42     		cmp	r2, r3
 630 03a4 01D9     		bls	.L35
 338:../STM32F2xx_HAL_Driver/Src/stm32f2xx_ll_usb.c ****     {
 339:../STM32F2xx_HAL_Driver/Src/stm32f2xx_ll_usb.c ****       return HAL_TIMEOUT;
 631              		.loc 1 339 0
 632 03a6 0323     		movs	r3, #3
 633 03a8 06E0     		b	.L36
 634              	.L35:
 340:../STM32F2xx_HAL_Driver/Src/stm32f2xx_ll_usb.c ****     }
 341:../STM32F2xx_HAL_Driver/Src/stm32f2xx_ll_usb.c ****   }
 342:../STM32F2xx_HAL_Driver/Src/stm32f2xx_ll_usb.c ****   while ((USBx->GRSTCTL & USB_OTG_GRSTCTL_TXFFLSH) == USB_OTG_GRSTCTL_TXFFLSH);
 635              		.loc 1 342 0
 636 03aa 7B68     		ldr	r3, [r7, #4]
 637 03ac 1B69     		ldr	r3, [r3, #16]
 638 03ae 03F02003 		and	r3, r3, #32
 639 03b2 002B     		cmp	r3, #0
 640 03b4 EDD1     		bne	.L37
 343:../STM32F2xx_HAL_Driver/Src/stm32f2xx_ll_usb.c ****   
 344:../STM32F2xx_HAL_Driver/Src/stm32f2xx_ll_usb.c ****   return HAL_OK;
 641              		.loc 1 344 0
 642 03b6 0023     		movs	r3, #0
 643              	.L36:
 345:../STM32F2xx_HAL_Driver/Src/stm32f2xx_ll_usb.c **** }
 644              		.loc 1 345 0
 645 03b8 1846     		mov	r0, r3
 646 03ba 1437     		adds	r7, r7, #20
 647 03bc BD46     		mov	sp, r7
 648              		@ sp needed
 649 03be 5DF8047B 		ldr	r7, [sp], #4
 650 03c2 7047     		bx	lr
 651              		.cfi_endproc
 652              	.LFE60:
 654              		.align	2
 655              		.global	USB_FlushRxFifo
 656              		.thumb
 657              		.thumb_func
 659              	USB_FlushRxFifo:
 660              	.LFB61:
 346:../STM32F2xx_HAL_Driver/Src/stm32f2xx_ll_usb.c **** 
 347:../STM32F2xx_HAL_Driver/Src/stm32f2xx_ll_usb.c **** 
 348:../STM32F2xx_HAL_Driver/Src/stm32f2xx_ll_usb.c **** /**
 349:../STM32F2xx_HAL_Driver/Src/stm32f2xx_ll_usb.c ****   * @brief  USB_FlushRxFifo : Flush Rx FIFO
 350:../STM32F2xx_HAL_Driver/Src/stm32f2xx_ll_usb.c ****   * @param  USBx : Selected device
 351:../STM32F2xx_HAL_Driver/Src/stm32f2xx_ll_usb.c ****   * @retval HAL status
 352:../STM32F2xx_HAL_Driver/Src/stm32f2xx_ll_usb.c ****   */
 353:../STM32F2xx_HAL_Driver/Src/stm32f2xx_ll_usb.c **** HAL_StatusTypeDef USB_FlushRxFifo(USB_OTG_GlobalTypeDef *USBx)
 354:../STM32F2xx_HAL_Driver/Src/stm32f2xx_ll_usb.c **** {
 661              		.loc 1 354 0
 662              		.cfi_startproc
 663              		@ args = 0, pretend = 0, frame = 16
 664              		@ frame_needed = 1, uses_anonymous_args = 0
 665              		@ link register save eliminated.
 666 03c4 80B4     		push	{r7}
 667              		.cfi_def_cfa_offset 4
 668              		.cfi_offset 7, -4
 669 03c6 85B0     		sub	sp, sp, #20
 670              		.cfi_def_cfa_offset 24
 671 03c8 00AF     		add	r7, sp, #0
 672              		.cfi_def_cfa_register 7
 673 03ca 7860     		str	r0, [r7, #4]
 355:../STM32F2xx_HAL_Driver/Src/stm32f2xx_ll_usb.c ****   uint32_t count = 0;
 674              		.loc 1 355 0
 675 03cc 0023     		movs	r3, #0
 676 03ce FB60     		str	r3, [r7, #12]
 356:../STM32F2xx_HAL_Driver/Src/stm32f2xx_ll_usb.c ****   
 357:../STM32F2xx_HAL_Driver/Src/stm32f2xx_ll_usb.c ****   USBx->GRSTCTL = USB_OTG_GRSTCTL_RXFFLSH;
 677              		.loc 1 357 0
 678 03d0 7B68     		ldr	r3, [r7, #4]
 679 03d2 1022     		movs	r2, #16
 680 03d4 1A61     		str	r2, [r3, #16]
 681              	.L41:
 358:../STM32F2xx_HAL_Driver/Src/stm32f2xx_ll_usb.c ****   
 359:../STM32F2xx_HAL_Driver/Src/stm32f2xx_ll_usb.c ****   do
 360:../STM32F2xx_HAL_Driver/Src/stm32f2xx_ll_usb.c ****   {
 361:../STM32F2xx_HAL_Driver/Src/stm32f2xx_ll_usb.c ****     if (++count > 200000)
 682              		.loc 1 361 0
 683 03d6 FB68     		ldr	r3, [r7, #12]
 684 03d8 0133     		adds	r3, r3, #1
 685 03da FB60     		str	r3, [r7, #12]
 686 03dc FA68     		ldr	r2, [r7, #12]
 687 03de 4FF45463 		mov	r3, #3392
 688 03e2 C0F20303 		movt	r3, 3
 689 03e6 9A42     		cmp	r2, r3
 690 03e8 01D9     		bls	.L39
 362:../STM32F2xx_HAL_Driver/Src/stm32f2xx_ll_usb.c ****     {
 363:../STM32F2xx_HAL_Driver/Src/stm32f2xx_ll_usb.c ****       return HAL_TIMEOUT;
 691              		.loc 1 363 0
 692 03ea 0323     		movs	r3, #3
 693 03ec 06E0     		b	.L40
 694              	.L39:
 364:../STM32F2xx_HAL_Driver/Src/stm32f2xx_ll_usb.c ****     }
 365:../STM32F2xx_HAL_Driver/Src/stm32f2xx_ll_usb.c ****   }
 366:../STM32F2xx_HAL_Driver/Src/stm32f2xx_ll_usb.c ****   while ((USBx->GRSTCTL & USB_OTG_GRSTCTL_RXFFLSH) == USB_OTG_GRSTCTL_RXFFLSH);
 695              		.loc 1 366 0
 696 03ee 7B68     		ldr	r3, [r7, #4]
 697 03f0 1B69     		ldr	r3, [r3, #16]
 698 03f2 03F01003 		and	r3, r3, #16
 699 03f6 002B     		cmp	r3, #0
 700 03f8 EDD1     		bne	.L41
 367:../STM32F2xx_HAL_Driver/Src/stm32f2xx_ll_usb.c ****   
 368:../STM32F2xx_HAL_Driver/Src/stm32f2xx_ll_usb.c ****   return HAL_OK;
 701              		.loc 1 368 0
 702 03fa 0023     		movs	r3, #0
 703              	.L40:
 369:../STM32F2xx_HAL_Driver/Src/stm32f2xx_ll_usb.c **** }
 704              		.loc 1 369 0
 705 03fc 1846     		mov	r0, r3
 706 03fe 1437     		adds	r7, r7, #20
 707 0400 BD46     		mov	sp, r7
 708              		@ sp needed
 709 0402 5DF8047B 		ldr	r7, [sp], #4
 710 0406 7047     		bx	lr
 711              		.cfi_endproc
 712              	.LFE61:
 714              		.align	2
 715              		.global	USB_SetDevSpeed
 716              		.thumb
 717              		.thumb_func
 719              	USB_SetDevSpeed:
 720              	.LFB62:
 370:../STM32F2xx_HAL_Driver/Src/stm32f2xx_ll_usb.c **** 
 371:../STM32F2xx_HAL_Driver/Src/stm32f2xx_ll_usb.c **** /**
 372:../STM32F2xx_HAL_Driver/Src/stm32f2xx_ll_usb.c ****   * @brief  USB_SetDevSpeed :Initializes the DevSpd field of DCFG register 
 373:../STM32F2xx_HAL_Driver/Src/stm32f2xx_ll_usb.c ****   *         depending the PHY type and the enumeration speed of the device.
 374:../STM32F2xx_HAL_Driver/Src/stm32f2xx_ll_usb.c ****   * @param  USBx : Selected device
 375:../STM32F2xx_HAL_Driver/Src/stm32f2xx_ll_usb.c ****   * @param  speed : device speed
 376:../STM32F2xx_HAL_Driver/Src/stm32f2xx_ll_usb.c ****   *          This parameter can be one of the these values:
 377:../STM32F2xx_HAL_Driver/Src/stm32f2xx_ll_usb.c ****   *            @arg USB_OTG_SPEED_HIGH: High speed mode
 378:../STM32F2xx_HAL_Driver/Src/stm32f2xx_ll_usb.c ****   *            @arg USB_OTG_SPEED_HIGH_IN_FULL: High speed core in Full Speed mode
 379:../STM32F2xx_HAL_Driver/Src/stm32f2xx_ll_usb.c ****   *            @arg USB_OTG_SPEED_FULL: Full speed mode
 380:../STM32F2xx_HAL_Driver/Src/stm32f2xx_ll_usb.c ****   *            @arg USB_OTG_SPEED_LOW: Low speed mode
 381:../STM32F2xx_HAL_Driver/Src/stm32f2xx_ll_usb.c ****   * @retval  Hal status
 382:../STM32F2xx_HAL_Driver/Src/stm32f2xx_ll_usb.c ****   */
 383:../STM32F2xx_HAL_Driver/Src/stm32f2xx_ll_usb.c **** HAL_StatusTypeDef USB_SetDevSpeed(USB_OTG_GlobalTypeDef *USBx , uint8_t speed)
 384:../STM32F2xx_HAL_Driver/Src/stm32f2xx_ll_usb.c **** {
 721              		.loc 1 384 0
 722              		.cfi_startproc
 723              		@ args = 0, pretend = 0, frame = 8
 724              		@ frame_needed = 1, uses_anonymous_args = 0
 725              		@ link register save eliminated.
 726 0408 80B4     		push	{r7}
 727              		.cfi_def_cfa_offset 4
 728              		.cfi_offset 7, -4
 729 040a 83B0     		sub	sp, sp, #12
 730              		.cfi_def_cfa_offset 16
 731 040c 00AF     		add	r7, sp, #0
 732              		.cfi_def_cfa_register 7
 733 040e 7860     		str	r0, [r7, #4]
 734 0410 0B46     		mov	r3, r1
 735 0412 FB70     		strb	r3, [r7, #3]
 385:../STM32F2xx_HAL_Driver/Src/stm32f2xx_ll_usb.c ****   USBx_DEVICE->DCFG |= speed;
 736              		.loc 1 385 0
 737 0414 7B68     		ldr	r3, [r7, #4]
 738 0416 03F50063 		add	r3, r3, #2048
 739 041a 7A68     		ldr	r2, [r7, #4]
 740 041c 02F50062 		add	r2, r2, #2048
 741 0420 1168     		ldr	r1, [r2]
 742 0422 FA78     		ldrb	r2, [r7, #3]	@ zero_extendqisi2
 743 0424 0A43     		orrs	r2, r2, r1
 744 0426 1A60     		str	r2, [r3]
 386:../STM32F2xx_HAL_Driver/Src/stm32f2xx_ll_usb.c ****   return HAL_OK;
 745              		.loc 1 386 0
 746 0428 0023     		movs	r3, #0
 387:../STM32F2xx_HAL_Driver/Src/stm32f2xx_ll_usb.c **** }
 747              		.loc 1 387 0
 748 042a 1846     		mov	r0, r3
 749 042c 0C37     		adds	r7, r7, #12
 750 042e BD46     		mov	sp, r7
 751              		@ sp needed
 752 0430 5DF8047B 		ldr	r7, [sp], #4
 753 0434 7047     		bx	lr
 754              		.cfi_endproc
 755              	.LFE62:
 757 0436 00BF     		.align	2
 758              		.global	USB_GetDevSpeed
 759              		.thumb
 760              		.thumb_func
 762              	USB_GetDevSpeed:
 763              	.LFB63:
 388:../STM32F2xx_HAL_Driver/Src/stm32f2xx_ll_usb.c **** 
 389:../STM32F2xx_HAL_Driver/Src/stm32f2xx_ll_usb.c **** /**
 390:../STM32F2xx_HAL_Driver/Src/stm32f2xx_ll_usb.c ****   * @brief  USB_GetDevSpeed :Return the  Dev Speed 
 391:../STM32F2xx_HAL_Driver/Src/stm32f2xx_ll_usb.c ****   * @param  USBx : Selected device
 392:../STM32F2xx_HAL_Driver/Src/stm32f2xx_ll_usb.c ****   * @retval speed : device speed
 393:../STM32F2xx_HAL_Driver/Src/stm32f2xx_ll_usb.c ****   *          This parameter can be one of the these values:
 394:../STM32F2xx_HAL_Driver/Src/stm32f2xx_ll_usb.c ****   *            @arg USB_OTG_SPEED_HIGH: High speed mode
 395:../STM32F2xx_HAL_Driver/Src/stm32f2xx_ll_usb.c ****   *            @arg USB_OTG_SPEED_FULL: Full speed mode
 396:../STM32F2xx_HAL_Driver/Src/stm32f2xx_ll_usb.c ****   *            @arg USB_OTG_SPEED_LOW: Low speed mode
 397:../STM32F2xx_HAL_Driver/Src/stm32f2xx_ll_usb.c ****   */
 398:../STM32F2xx_HAL_Driver/Src/stm32f2xx_ll_usb.c **** uint8_t USB_GetDevSpeed(USB_OTG_GlobalTypeDef *USBx)
 399:../STM32F2xx_HAL_Driver/Src/stm32f2xx_ll_usb.c **** {
 764              		.loc 1 399 0
 765              		.cfi_startproc
 766              		@ args = 0, pretend = 0, frame = 16
 767              		@ frame_needed = 1, uses_anonymous_args = 0
 768              		@ link register save eliminated.
 769 0438 80B4     		push	{r7}
 770              		.cfi_def_cfa_offset 4
 771              		.cfi_offset 7, -4
 772 043a 85B0     		sub	sp, sp, #20
 773              		.cfi_def_cfa_offset 24
 774 043c 00AF     		add	r7, sp, #0
 775              		.cfi_def_cfa_register 7
 776 043e 7860     		str	r0, [r7, #4]
 400:../STM32F2xx_HAL_Driver/Src/stm32f2xx_ll_usb.c ****   uint8_t speed = 0;
 777              		.loc 1 400 0
 778 0440 0023     		movs	r3, #0
 779 0442 FB73     		strb	r3, [r7, #15]
 401:../STM32F2xx_HAL_Driver/Src/stm32f2xx_ll_usb.c ****   
 402:../STM32F2xx_HAL_Driver/Src/stm32f2xx_ll_usb.c ****   if((USBx_DEVICE->DSTS & USB_OTG_DSTS_ENUMSPD) == DSTS_ENUMSPD_HS_PHY_30MHZ_OR_60MHZ)
 780              		.loc 1 402 0
 781 0444 7B68     		ldr	r3, [r7, #4]
 782 0446 03F50063 		add	r3, r3, #2048
 783 044a 9B68     		ldr	r3, [r3, #8]
 784 044c 03F00603 		and	r3, r3, #6
 785 0450 002B     		cmp	r3, #0
 786 0452 02D1     		bne	.L45
 403:../STM32F2xx_HAL_Driver/Src/stm32f2xx_ll_usb.c ****   {
 404:../STM32F2xx_HAL_Driver/Src/stm32f2xx_ll_usb.c ****     speed = USB_OTG_SPEED_HIGH;
 787              		.loc 1 404 0
 788 0454 0023     		movs	r3, #0
 789 0456 FB73     		strb	r3, [r7, #15]
 790 0458 1CE0     		b	.L46
 791              	.L45:
 405:../STM32F2xx_HAL_Driver/Src/stm32f2xx_ll_usb.c ****   }
 406:../STM32F2xx_HAL_Driver/Src/stm32f2xx_ll_usb.c ****   else if (((USBx_DEVICE->DSTS & USB_OTG_DSTS_ENUMSPD) == DSTS_ENUMSPD_FS_PHY_30MHZ_OR_60MHZ)||
 792              		.loc 1 406 0
 793 045a 7B68     		ldr	r3, [r7, #4]
 794 045c 03F50063 		add	r3, r3, #2048
 795 0460 9B68     		ldr	r3, [r3, #8]
 796 0462 03F00603 		and	r3, r3, #6
 797 0466 022B     		cmp	r3, #2
 798 0468 07D0     		beq	.L47
 407:../STM32F2xx_HAL_Driver/Src/stm32f2xx_ll_usb.c ****            ((USBx_DEVICE->DSTS & USB_OTG_DSTS_ENUMSPD) == DSTS_ENUMSPD_FS_PHY_48MHZ))
 799              		.loc 1 407 0 discriminator 1
 800 046a 7B68     		ldr	r3, [r7, #4]
 801 046c 03F50063 		add	r3, r3, #2048
 802 0470 9B68     		ldr	r3, [r3, #8]
 803 0472 03F00603 		and	r3, r3, #6
 406:../STM32F2xx_HAL_Driver/Src/stm32f2xx_ll_usb.c ****            ((USBx_DEVICE->DSTS & USB_OTG_DSTS_ENUMSPD) == DSTS_ENUMSPD_FS_PHY_48MHZ))
 804              		.loc 1 406 0 discriminator 1
 805 0476 062B     		cmp	r3, #6
 806 0478 02D1     		bne	.L48
 807              	.L47:
 408:../STM32F2xx_HAL_Driver/Src/stm32f2xx_ll_usb.c ****   {
 409:../STM32F2xx_HAL_Driver/Src/stm32f2xx_ll_usb.c ****     speed = USB_OTG_SPEED_FULL;
 808              		.loc 1 409 0
 809 047a 0323     		movs	r3, #3
 810 047c FB73     		strb	r3, [r7, #15]
 811 047e 09E0     		b	.L46
 812              	.L48:
 410:../STM32F2xx_HAL_Driver/Src/stm32f2xx_ll_usb.c ****   }
 411:../STM32F2xx_HAL_Driver/Src/stm32f2xx_ll_usb.c ****   else if((USBx_DEVICE->DSTS & USB_OTG_DSTS_ENUMSPD) == DSTS_ENUMSPD_LS_PHY_6MHZ)
 813              		.loc 1 411 0
 814 0480 7B68     		ldr	r3, [r7, #4]
 815 0482 03F50063 		add	r3, r3, #2048
 816 0486 9B68     		ldr	r3, [r3, #8]
 817 0488 03F00603 		and	r3, r3, #6
 818 048c 042B     		cmp	r3, #4
 819 048e 01D1     		bne	.L46
 412:../STM32F2xx_HAL_Driver/Src/stm32f2xx_ll_usb.c ****   {
 413:../STM32F2xx_HAL_Driver/Src/stm32f2xx_ll_usb.c ****     speed = USB_OTG_SPEED_LOW;
 820              		.loc 1 413 0
 821 0490 0223     		movs	r3, #2
 822 0492 FB73     		strb	r3, [r7, #15]
 823              	.L46:
 414:../STM32F2xx_HAL_Driver/Src/stm32f2xx_ll_usb.c ****   }
 415:../STM32F2xx_HAL_Driver/Src/stm32f2xx_ll_usb.c ****   
 416:../STM32F2xx_HAL_Driver/Src/stm32f2xx_ll_usb.c ****   return speed;
 824              		.loc 1 416 0
 825 0494 FB7B     		ldrb	r3, [r7, #15]	@ zero_extendqisi2
 417:../STM32F2xx_HAL_Driver/Src/stm32f2xx_ll_usb.c **** }
 826              		.loc 1 417 0
 827 0496 1846     		mov	r0, r3
 828 0498 1437     		adds	r7, r7, #20
 829 049a BD46     		mov	sp, r7
 830              		@ sp needed
 831 049c 5DF8047B 		ldr	r7, [sp], #4
 832 04a0 7047     		bx	lr
 833              		.cfi_endproc
 834              	.LFE63:
 836 04a2 00BF     		.align	2
 837              		.global	USB_ActivateEndpoint
 838              		.thumb
 839              		.thumb_func
 841              	USB_ActivateEndpoint:
 842              	.LFB64:
 418:../STM32F2xx_HAL_Driver/Src/stm32f2xx_ll_usb.c **** 
 419:../STM32F2xx_HAL_Driver/Src/stm32f2xx_ll_usb.c **** /**
 420:../STM32F2xx_HAL_Driver/Src/stm32f2xx_ll_usb.c ****   * @brief  Activate and configure an endpoint
 421:../STM32F2xx_HAL_Driver/Src/stm32f2xx_ll_usb.c ****   * @param  USBx : Selected device
 422:../STM32F2xx_HAL_Driver/Src/stm32f2xx_ll_usb.c ****   * @param  ep: pointer to endpoint structure
 423:../STM32F2xx_HAL_Driver/Src/stm32f2xx_ll_usb.c ****   * @retval HAL status
 424:../STM32F2xx_HAL_Driver/Src/stm32f2xx_ll_usb.c ****   */
 425:../STM32F2xx_HAL_Driver/Src/stm32f2xx_ll_usb.c **** HAL_StatusTypeDef USB_ActivateEndpoint(USB_OTG_GlobalTypeDef *USBx, USB_OTG_EPTypeDef *ep)
 426:../STM32F2xx_HAL_Driver/Src/stm32f2xx_ll_usb.c **** {
 843              		.loc 1 426 0
 844              		.cfi_startproc
 845              		@ args = 0, pretend = 0, frame = 8
 846              		@ frame_needed = 1, uses_anonymous_args = 0
 847              		@ link register save eliminated.
 848 04a4 80B4     		push	{r7}
 849              		.cfi_def_cfa_offset 4
 850              		.cfi_offset 7, -4
 851 04a6 83B0     		sub	sp, sp, #12
 852              		.cfi_def_cfa_offset 16
 853 04a8 00AF     		add	r7, sp, #0
 854              		.cfi_def_cfa_register 7
 855 04aa 7860     		str	r0, [r7, #4]
 856 04ac 3960     		str	r1, [r7]
 427:../STM32F2xx_HAL_Driver/Src/stm32f2xx_ll_usb.c ****   if (ep->is_in == 1)
 857              		.loc 1 427 0
 858 04ae 3B68     		ldr	r3, [r7]
 859 04b0 5B78     		ldrb	r3, [r3, #1]	@ zero_extendqisi2
 860 04b2 012B     		cmp	r3, #1
 861 04b4 3DD1     		bne	.L51
 428:../STM32F2xx_HAL_Driver/Src/stm32f2xx_ll_usb.c ****   {
 429:../STM32F2xx_HAL_Driver/Src/stm32f2xx_ll_usb.c ****    USBx_DEVICE->DAINTMSK |= USB_OTG_DAINTMSK_IEPM & ((1 << (ep->num)));
 862              		.loc 1 429 0
 863 04b6 7B68     		ldr	r3, [r7, #4]
 864 04b8 03F50063 		add	r3, r3, #2048
 865 04bc 7A68     		ldr	r2, [r7, #4]
 866 04be 02F50062 		add	r2, r2, #2048
 867 04c2 D169     		ldr	r1, [r2, #28]
 868 04c4 3A68     		ldr	r2, [r7]
 869 04c6 1278     		ldrb	r2, [r2]	@ zero_extendqisi2
 870 04c8 0120     		movs	r0, #1
 871 04ca 00FA02F2 		lsl	r2, r0, r2
 872 04ce 92B2     		uxth	r2, r2
 873 04d0 0A43     		orrs	r2, r2, r1
 874 04d2 DA61     		str	r2, [r3, #28]
 430:../STM32F2xx_HAL_Driver/Src/stm32f2xx_ll_usb.c ****    
 431:../STM32F2xx_HAL_Driver/Src/stm32f2xx_ll_usb.c ****     if (((USBx_INEP(ep->num)->DIEPCTL) & USB_OTG_DIEPCTL_USBAEP) == 0)
 875              		.loc 1 431 0
 876 04d4 3B68     		ldr	r3, [r7]
 877 04d6 1B78     		ldrb	r3, [r3]	@ zero_extendqisi2
 878 04d8 5A01     		lsls	r2, r3, #5
 879 04da 7B68     		ldr	r3, [r7, #4]
 880 04dc 1344     		add	r3, r3, r2
 881 04de 03F51063 		add	r3, r3, #2304
 882 04e2 1B68     		ldr	r3, [r3]
 883 04e4 03F40043 		and	r3, r3, #32768
 884 04e8 002B     		cmp	r3, #0
 885 04ea 5BD1     		bne	.L53
 432:../STM32F2xx_HAL_Driver/Src/stm32f2xx_ll_usb.c ****     {
 433:../STM32F2xx_HAL_Driver/Src/stm32f2xx_ll_usb.c ****       USBx_INEP(ep->num)->DIEPCTL |= ((ep->maxpacket & USB_OTG_DIEPCTL_MPSIZ ) | (ep->type << 18 ) 
 886              		.loc 1 433 0
 887 04ec 3B68     		ldr	r3, [r7]
 888 04ee 1B78     		ldrb	r3, [r3]	@ zero_extendqisi2
 889 04f0 5A01     		lsls	r2, r3, #5
 890 04f2 7B68     		ldr	r3, [r7, #4]
 891 04f4 1344     		add	r3, r3, r2
 892 04f6 03F51063 		add	r3, r3, #2304
 893 04fa 1A46     		mov	r2, r3
 894 04fc 3B68     		ldr	r3, [r7]
 895 04fe 1B78     		ldrb	r3, [r3]	@ zero_extendqisi2
 896 0500 5901     		lsls	r1, r3, #5
 897 0502 7B68     		ldr	r3, [r7, #4]
 898 0504 0B44     		add	r3, r3, r1
 899 0506 03F51063 		add	r3, r3, #2304
 900 050a 1968     		ldr	r1, [r3]
 901 050c 3B68     		ldr	r3, [r7]
 902 050e 9B68     		ldr	r3, [r3, #8]
 903 0510 C3F30A00 		ubfx	r0, r3, #0, #11
 904 0514 3B68     		ldr	r3, [r7]
 905 0516 DB78     		ldrb	r3, [r3, #3]	@ zero_extendqisi2
 906 0518 9B04     		lsls	r3, r3, #18
 907 051a 1843     		orrs	r0, r0, r3
 434:../STM32F2xx_HAL_Driver/Src/stm32f2xx_ll_usb.c ****         ((ep->num) << 22 ) | (USB_OTG_DIEPCTL_SD0PID_SEVNFRM) | (USB_OTG_DIEPCTL_USBAEP)); 
 908              		.loc 1 434 0
 909 051c 3B68     		ldr	r3, [r7]
 910 051e 1B78     		ldrb	r3, [r3]	@ zero_extendqisi2
 911 0520 9B05     		lsls	r3, r3, #22
 433:../STM32F2xx_HAL_Driver/Src/stm32f2xx_ll_usb.c ****         ((ep->num) << 22 ) | (USB_OTG_DIEPCTL_SD0PID_SEVNFRM) | (USB_OTG_DIEPCTL_USBAEP)); 
 912              		.loc 1 433 0
 913 0522 0343     		orrs	r3, r3, r0
 914 0524 0B43     		orrs	r3, r3, r1
 915 0526 43F08053 		orr	r3, r3, #268435456
 916 052a 43F40043 		orr	r3, r3, #32768
 917 052e 1360     		str	r3, [r2]
 918 0530 38E0     		b	.L53
 919              	.L51:
 435:../STM32F2xx_HAL_Driver/Src/stm32f2xx_ll_usb.c ****     } 
 436:../STM32F2xx_HAL_Driver/Src/stm32f2xx_ll_usb.c ****   }
 437:../STM32F2xx_HAL_Driver/Src/stm32f2xx_ll_usb.c ****   else
 438:../STM32F2xx_HAL_Driver/Src/stm32f2xx_ll_usb.c ****   {
 439:../STM32F2xx_HAL_Driver/Src/stm32f2xx_ll_usb.c ****      USBx_DEVICE->DAINTMSK |= USB_OTG_DAINTMSK_OEPM & ((1 << (ep->num)) << 16);
 920              		.loc 1 439 0
 921 0532 7B68     		ldr	r3, [r7, #4]
 922 0534 03F50063 		add	r3, r3, #2048
 923 0538 7A68     		ldr	r2, [r7, #4]
 924 053a 02F50062 		add	r2, r2, #2048
 925 053e D169     		ldr	r1, [r2, #28]
 926 0540 3A68     		ldr	r2, [r7]
 927 0542 1278     		ldrb	r2, [r2]	@ zero_extendqisi2
 928 0544 0120     		movs	r0, #1
 929 0546 00FA02F2 		lsl	r2, r0, r2
 930 054a 1204     		lsls	r2, r2, #16
 931 054c 0A43     		orrs	r2, r2, r1
 932 054e DA61     		str	r2, [r3, #28]
 440:../STM32F2xx_HAL_Driver/Src/stm32f2xx_ll_usb.c ****      
 441:../STM32F2xx_HAL_Driver/Src/stm32f2xx_ll_usb.c ****     if (((USBx_OUTEP(ep->num)->DOEPCTL) & USB_OTG_DOEPCTL_USBAEP) == 0)
 933              		.loc 1 441 0
 934 0550 3B68     		ldr	r3, [r7]
 935 0552 1B78     		ldrb	r3, [r3]	@ zero_extendqisi2
 936 0554 5A01     		lsls	r2, r3, #5
 937 0556 7B68     		ldr	r3, [r7, #4]
 938 0558 1344     		add	r3, r3, r2
 939 055a 03F53063 		add	r3, r3, #2816
 940 055e 1B68     		ldr	r3, [r3]
 941 0560 03F40043 		and	r3, r3, #32768
 942 0564 002B     		cmp	r3, #0
 943 0566 1DD1     		bne	.L53
 442:../STM32F2xx_HAL_Driver/Src/stm32f2xx_ll_usb.c ****     {
 443:../STM32F2xx_HAL_Driver/Src/stm32f2xx_ll_usb.c ****       USBx_OUTEP(ep->num)->DOEPCTL |= ((ep->maxpacket & USB_OTG_DOEPCTL_MPSIZ ) | (ep->type << 18 )
 944              		.loc 1 443 0
 945 0568 3B68     		ldr	r3, [r7]
 946 056a 1B78     		ldrb	r3, [r3]	@ zero_extendqisi2
 947 056c 5A01     		lsls	r2, r3, #5
 948 056e 7B68     		ldr	r3, [r7, #4]
 949 0570 1344     		add	r3, r3, r2
 950 0572 03F53063 		add	r3, r3, #2816
 951 0576 1A46     		mov	r2, r3
 952 0578 3B68     		ldr	r3, [r7]
 953 057a 1B78     		ldrb	r3, [r3]	@ zero_extendqisi2
 954 057c 5901     		lsls	r1, r3, #5
 955 057e 7B68     		ldr	r3, [r7, #4]
 956 0580 0B44     		add	r3, r3, r1
 957 0582 03F53063 		add	r3, r3, #2816
 958 0586 1968     		ldr	r1, [r3]
 959 0588 3B68     		ldr	r3, [r7]
 960 058a 9B68     		ldr	r3, [r3, #8]
 961 058c C3F30A00 		ubfx	r0, r3, #0, #11
 962 0590 3B68     		ldr	r3, [r7]
 963 0592 DB78     		ldrb	r3, [r3, #3]	@ zero_extendqisi2
 964 0594 9B04     		lsls	r3, r3, #18
 965 0596 0343     		orrs	r3, r3, r0
 966 0598 0B43     		orrs	r3, r3, r1
 967 059a 43F08053 		orr	r3, r3, #268435456
 968 059e 43F40043 		orr	r3, r3, #32768
 969 05a2 1360     		str	r3, [r2]
 970              	.L53:
 444:../STM32F2xx_HAL_Driver/Src/stm32f2xx_ll_usb.c ****        (USB_OTG_DIEPCTL_SD0PID_SEVNFRM)| (USB_OTG_DOEPCTL_USBAEP));
 445:../STM32F2xx_HAL_Driver/Src/stm32f2xx_ll_usb.c ****     } 
 446:../STM32F2xx_HAL_Driver/Src/stm32f2xx_ll_usb.c ****   }
 447:../STM32F2xx_HAL_Driver/Src/stm32f2xx_ll_usb.c ****   return HAL_OK;
 971              		.loc 1 447 0
 972 05a4 0023     		movs	r3, #0
 448:../STM32F2xx_HAL_Driver/Src/stm32f2xx_ll_usb.c **** }
 973              		.loc 1 448 0
 974 05a6 1846     		mov	r0, r3
 975 05a8 0C37     		adds	r7, r7, #12
 976 05aa BD46     		mov	sp, r7
 977              		@ sp needed
 978 05ac 5DF8047B 		ldr	r7, [sp], #4
 979 05b0 7047     		bx	lr
 980              		.cfi_endproc
 981              	.LFE64:
 983 05b2 00BF     		.align	2
 984              		.global	USB_ActivateDedicatedEndpoint
 985              		.thumb
 986              		.thumb_func
 988              	USB_ActivateDedicatedEndpoint:
 989              	.LFB65:
 449:../STM32F2xx_HAL_Driver/Src/stm32f2xx_ll_usb.c **** /**
 450:../STM32F2xx_HAL_Driver/Src/stm32f2xx_ll_usb.c ****   * @brief  Activate and configure a dedicated endpoint
 451:../STM32F2xx_HAL_Driver/Src/stm32f2xx_ll_usb.c ****   * @param  USBx : Selected device
 452:../STM32F2xx_HAL_Driver/Src/stm32f2xx_ll_usb.c ****   * @param  ep: pointer to endpoint structure
 453:../STM32F2xx_HAL_Driver/Src/stm32f2xx_ll_usb.c ****   * @retval HAL status
 454:../STM32F2xx_HAL_Driver/Src/stm32f2xx_ll_usb.c ****   */
 455:../STM32F2xx_HAL_Driver/Src/stm32f2xx_ll_usb.c **** HAL_StatusTypeDef USB_ActivateDedicatedEndpoint(USB_OTG_GlobalTypeDef *USBx, USB_OTG_EPTypeDef *ep)
 456:../STM32F2xx_HAL_Driver/Src/stm32f2xx_ll_usb.c **** {
 990              		.loc 1 456 0
 991              		.cfi_startproc
 992              		@ args = 0, pretend = 0, frame = 8
 993              		@ frame_needed = 1, uses_anonymous_args = 0
 994              		@ link register save eliminated.
 995 05b4 80B4     		push	{r7}
 996              		.cfi_def_cfa_offset 4
 997              		.cfi_offset 7, -4
 998 05b6 83B0     		sub	sp, sp, #12
 999              		.cfi_def_cfa_offset 16
 1000 05b8 00AF     		add	r7, sp, #0
 1001              		.cfi_def_cfa_register 7
 1002 05ba 7860     		str	r0, [r7, #4]
 1003 05bc 3960     		str	r1, [r7]
 457:../STM32F2xx_HAL_Driver/Src/stm32f2xx_ll_usb.c ****   static __IO uint32_t debug = 0;
 458:../STM32F2xx_HAL_Driver/Src/stm32f2xx_ll_usb.c ****   
 459:../STM32F2xx_HAL_Driver/Src/stm32f2xx_ll_usb.c ****   /* Read DEPCTLn register */
 460:../STM32F2xx_HAL_Driver/Src/stm32f2xx_ll_usb.c ****   if (ep->is_in == 1)
 1004              		.loc 1 460 0
 1005 05be 3B68     		ldr	r3, [r7]
 1006 05c0 5B78     		ldrb	r3, [r3, #1]	@ zero_extendqisi2
 1007 05c2 012B     		cmp	r3, #1
 1008 05c4 58D1     		bne	.L56
 461:../STM32F2xx_HAL_Driver/Src/stm32f2xx_ll_usb.c ****   {
 462:../STM32F2xx_HAL_Driver/Src/stm32f2xx_ll_usb.c ****     if (((USBx_INEP(ep->num)->DIEPCTL) & USB_OTG_DIEPCTL_USBAEP) == 0)
 1009              		.loc 1 462 0
 1010 05c6 3B68     		ldr	r3, [r7]
 1011 05c8 1B78     		ldrb	r3, [r3]	@ zero_extendqisi2
 1012 05ca 5A01     		lsls	r2, r3, #5
 1013 05cc 7B68     		ldr	r3, [r7, #4]
 1014 05ce 1344     		add	r3, r3, r2
 1015 05d0 03F51063 		add	r3, r3, #2304
 1016 05d4 1B68     		ldr	r3, [r3]
 1017 05d6 03F40043 		and	r3, r3, #32768
 1018 05da 002B     		cmp	r3, #0
 1019 05dc 21D1     		bne	.L57
 463:../STM32F2xx_HAL_Driver/Src/stm32f2xx_ll_usb.c ****     {
 464:../STM32F2xx_HAL_Driver/Src/stm32f2xx_ll_usb.c ****       USBx_INEP(ep->num)->DIEPCTL |= ((ep->maxpacket & USB_OTG_DIEPCTL_MPSIZ ) | (ep->type << 18 ) 
 1020              		.loc 1 464 0
 1021 05de 3B68     		ldr	r3, [r7]
 1022 05e0 1B78     		ldrb	r3, [r3]	@ zero_extendqisi2
 1023 05e2 5A01     		lsls	r2, r3, #5
 1024 05e4 7B68     		ldr	r3, [r7, #4]
 1025 05e6 1344     		add	r3, r3, r2
 1026 05e8 03F51063 		add	r3, r3, #2304
 1027 05ec 1A46     		mov	r2, r3
 1028 05ee 3B68     		ldr	r3, [r7]
 1029 05f0 1B78     		ldrb	r3, [r3]	@ zero_extendqisi2
 1030 05f2 5901     		lsls	r1, r3, #5
 1031 05f4 7B68     		ldr	r3, [r7, #4]
 1032 05f6 0B44     		add	r3, r3, r1
 1033 05f8 03F51063 		add	r3, r3, #2304
 1034 05fc 1968     		ldr	r1, [r3]
 1035 05fe 3B68     		ldr	r3, [r7]
 1036 0600 9B68     		ldr	r3, [r3, #8]
 1037 0602 C3F30A00 		ubfx	r0, r3, #0, #11
 1038 0606 3B68     		ldr	r3, [r7]
 1039 0608 DB78     		ldrb	r3, [r3, #3]	@ zero_extendqisi2
 1040 060a 9B04     		lsls	r3, r3, #18
 1041 060c 1843     		orrs	r0, r0, r3
 465:../STM32F2xx_HAL_Driver/Src/stm32f2xx_ll_usb.c ****         ((ep->num) << 22 ) | (USB_OTG_DIEPCTL_SD0PID_SEVNFRM) | (USB_OTG_DIEPCTL_USBAEP)); 
 1042              		.loc 1 465 0
 1043 060e 3B68     		ldr	r3, [r7]
 1044 0610 1B78     		ldrb	r3, [r3]	@ zero_extendqisi2
 1045 0612 9B05     		lsls	r3, r3, #22
 464:../STM32F2xx_HAL_Driver/Src/stm32f2xx_ll_usb.c ****         ((ep->num) << 22 ) | (USB_OTG_DIEPCTL_SD0PID_SEVNFRM) | (USB_OTG_DIEPCTL_USBAEP)); 
 1046              		.loc 1 464 0
 1047 0614 0343     		orrs	r3, r3, r0
 1048 0616 0B43     		orrs	r3, r3, r1
 1049 0618 43F08053 		orr	r3, r3, #268435456
 1050 061c 43F40043 		orr	r3, r3, #32768
 1051 0620 1360     		str	r3, [r2]
 1052              	.L57:
 466:../STM32F2xx_HAL_Driver/Src/stm32f2xx_ll_usb.c ****     } 
 467:../STM32F2xx_HAL_Driver/Src/stm32f2xx_ll_usb.c ****     
 468:../STM32F2xx_HAL_Driver/Src/stm32f2xx_ll_usb.c ****     
 469:../STM32F2xx_HAL_Driver/Src/stm32f2xx_ll_usb.c ****     debug  |= ((ep->maxpacket & USB_OTG_DIEPCTL_MPSIZ ) | (ep->type << 18 ) |\
 1053              		.loc 1 469 0
 1054 0622 3B68     		ldr	r3, [r7]
 1055 0624 9B68     		ldr	r3, [r3, #8]
 1056 0626 C3F30A02 		ubfx	r2, r3, #0, #11
 1057 062a 3B68     		ldr	r3, [r7]
 1058 062c DB78     		ldrb	r3, [r3, #3]	@ zero_extendqisi2
 1059 062e 9B04     		lsls	r3, r3, #18
 1060 0630 1A43     		orrs	r2, r2, r3
 470:../STM32F2xx_HAL_Driver/Src/stm32f2xx_ll_usb.c ****         ((ep->num) << 22 ) | (USB_OTG_DIEPCTL_SD0PID_SEVNFRM) | (USB_OTG_DIEPCTL_USBAEP)); 
 1061              		.loc 1 470 0
 1062 0632 3B68     		ldr	r3, [r7]
 1063 0634 1B78     		ldrb	r3, [r3]	@ zero_extendqisi2
 1064 0636 9B05     		lsls	r3, r3, #22
 469:../STM32F2xx_HAL_Driver/Src/stm32f2xx_ll_usb.c ****         ((ep->num) << 22 ) | (USB_OTG_DIEPCTL_SD0PID_SEVNFRM) | (USB_OTG_DIEPCTL_USBAEP)); 
 1065              		.loc 1 469 0
 1066 0638 1A43     		orrs	r2, r2, r3
 1067 063a 40F20003 		movw	r3, #:lower16:debug.7396
 1068 063e C0F20003 		movt	r3, #:upper16:debug.7396
 1069 0642 1B68     		ldr	r3, [r3]
 1070 0644 1343     		orrs	r3, r3, r2
 1071 0646 43F08052 		orr	r2, r3, #268435456
 1072 064a 42F40042 		orr	r2, r2, #32768
 1073 064e 40F20003 		movw	r3, #:lower16:debug.7396
 1074 0652 C0F20003 		movt	r3, #:upper16:debug.7396
 1075 0656 1A60     		str	r2, [r3]
 471:../STM32F2xx_HAL_Driver/Src/stm32f2xx_ll_usb.c ****     
 472:../STM32F2xx_HAL_Driver/Src/stm32f2xx_ll_usb.c ****    USBx_DEVICE->DEACHMSK |= USB_OTG_DAINTMSK_IEPM & ((1 << (ep->num)));
 1076              		.loc 1 472 0
 1077 0658 7B68     		ldr	r3, [r7, #4]
 1078 065a 03F50063 		add	r3, r3, #2048
 1079 065e 7A68     		ldr	r2, [r7, #4]
 1080 0660 02F50062 		add	r2, r2, #2048
 1081 0664 D16B     		ldr	r1, [r2, #60]
 1082 0666 3A68     		ldr	r2, [r7]
 1083 0668 1278     		ldrb	r2, [r2]	@ zero_extendqisi2
 1084 066a 0120     		movs	r0, #1
 1085 066c 00FA02F2 		lsl	r2, r0, r2
 1086 0670 92B2     		uxth	r2, r2
 1087 0672 0A43     		orrs	r2, r2, r1
 1088 0674 DA63     		str	r2, [r3, #60]
 1089 0676 67E0     		b	.L58
 1090              	.L56:
 473:../STM32F2xx_HAL_Driver/Src/stm32f2xx_ll_usb.c ****   }
 474:../STM32F2xx_HAL_Driver/Src/stm32f2xx_ll_usb.c ****   else
 475:../STM32F2xx_HAL_Driver/Src/stm32f2xx_ll_usb.c ****   {
 476:../STM32F2xx_HAL_Driver/Src/stm32f2xx_ll_usb.c ****     if (((USBx_OUTEP(ep->num)->DOEPCTL) & USB_OTG_DOEPCTL_USBAEP) == 0)
 1091              		.loc 1 476 0
 1092 0678 3B68     		ldr	r3, [r7]
 1093 067a 1B78     		ldrb	r3, [r3]	@ zero_extendqisi2
 1094 067c 5A01     		lsls	r2, r3, #5
 1095 067e 7B68     		ldr	r3, [r7, #4]
 1096 0680 1344     		add	r3, r3, r2
 1097 0682 03F53063 		add	r3, r3, #2816
 1098 0686 1B68     		ldr	r3, [r3]
 1099 0688 03F40043 		and	r3, r3, #32768
 1100 068c 002B     		cmp	r3, #0
 1101 068e 4CD1     		bne	.L59
 477:../STM32F2xx_HAL_Driver/Src/stm32f2xx_ll_usb.c ****     {
 478:../STM32F2xx_HAL_Driver/Src/stm32f2xx_ll_usb.c ****       USBx_OUTEP(ep->num)->DOEPCTL |= ((ep->maxpacket & USB_OTG_DOEPCTL_MPSIZ ) | (ep->type << 18 )
 1102              		.loc 1 478 0
 1103 0690 3B68     		ldr	r3, [r7]
 1104 0692 1B78     		ldrb	r3, [r3]	@ zero_extendqisi2
 1105 0694 5A01     		lsls	r2, r3, #5
 1106 0696 7B68     		ldr	r3, [r7, #4]
 1107 0698 1344     		add	r3, r3, r2
 1108 069a 03F53063 		add	r3, r3, #2816
 1109 069e 3A68     		ldr	r2, [r7]
 1110 06a0 1278     		ldrb	r2, [r2]	@ zero_extendqisi2
 1111 06a2 5101     		lsls	r1, r2, #5
 1112 06a4 7A68     		ldr	r2, [r7, #4]
 1113 06a6 0A44     		add	r2, r2, r1
 1114 06a8 02F53062 		add	r2, r2, #2816
 1115 06ac 1168     		ldr	r1, [r2]
 1116 06ae 3A68     		ldr	r2, [r7]
 1117 06b0 9268     		ldr	r2, [r2, #8]
 1118 06b2 C2F30A00 		ubfx	r0, r2, #0, #11
 1119 06b6 3A68     		ldr	r2, [r7]
 1120 06b8 D278     		ldrb	r2, [r2, #3]	@ zero_extendqisi2
 1121 06ba 9204     		lsls	r2, r2, #18
 1122 06bc 1043     		orrs	r0, r0, r2
 479:../STM32F2xx_HAL_Driver/Src/stm32f2xx_ll_usb.c ****         ((ep->num) << 22 ) | (USB_OTG_DOEPCTL_USBAEP));
 1123              		.loc 1 479 0
 1124 06be 3A68     		ldr	r2, [r7]
 1125 06c0 1278     		ldrb	r2, [r2]	@ zero_extendqisi2
 1126 06c2 9205     		lsls	r2, r2, #22
 478:../STM32F2xx_HAL_Driver/Src/stm32f2xx_ll_usb.c ****         ((ep->num) << 22 ) | (USB_OTG_DOEPCTL_USBAEP));
 1127              		.loc 1 478 0
 1128 06c4 0243     		orrs	r2, r2, r0
 1129 06c6 0A43     		orrs	r2, r2, r1
 1130 06c8 42F40042 		orr	r2, r2, #32768
 1131 06cc 1A60     		str	r2, [r3]
 480:../STM32F2xx_HAL_Driver/Src/stm32f2xx_ll_usb.c ****       
 481:../STM32F2xx_HAL_Driver/Src/stm32f2xx_ll_usb.c ****       debug = (uint32_t)(((uint32_t )USBx) + USB_OTG_OUT_ENDPOINT_BASE + (0)*USB_OTG_EP_REG_SIZE);
 1132              		.loc 1 481 0
 1133 06ce 7B68     		ldr	r3, [r7, #4]
 1134 06d0 03F53062 		add	r2, r3, #2816
 1135 06d4 40F20003 		movw	r3, #:lower16:debug.7396
 1136 06d8 C0F20003 		movt	r3, #:upper16:debug.7396
 1137 06dc 1A60     		str	r2, [r3]
 482:../STM32F2xx_HAL_Driver/Src/stm32f2xx_ll_usb.c ****       debug = (uint32_t )&USBx_OUTEP(ep->num)->DOEPCTL;
 1138              		.loc 1 482 0
 1139 06de 3B68     		ldr	r3, [r7]
 1140 06e0 1B78     		ldrb	r3, [r3]	@ zero_extendqisi2
 1141 06e2 5A01     		lsls	r2, r3, #5
 1142 06e4 7B68     		ldr	r3, [r7, #4]
 1143 06e6 1344     		add	r3, r3, r2
 1144 06e8 03F53063 		add	r3, r3, #2816
 1145 06ec 1A46     		mov	r2, r3
 1146 06ee 40F20003 		movw	r3, #:lower16:debug.7396
 1147 06f2 C0F20003 		movt	r3, #:upper16:debug.7396
 1148 06f6 1A60     		str	r2, [r3]
 483:../STM32F2xx_HAL_Driver/Src/stm32f2xx_ll_usb.c ****       debug |= ((ep->maxpacket & USB_OTG_DOEPCTL_MPSIZ ) | (ep->type << 18 ) |\
 1149              		.loc 1 483 0
 1150 06f8 3B68     		ldr	r3, [r7]
 1151 06fa 9B68     		ldr	r3, [r3, #8]
 1152 06fc C3F30A02 		ubfx	r2, r3, #0, #11
 1153 0700 3B68     		ldr	r3, [r7]
 1154 0702 DB78     		ldrb	r3, [r3, #3]	@ zero_extendqisi2
 1155 0704 9B04     		lsls	r3, r3, #18
 1156 0706 1A43     		orrs	r2, r2, r3
 484:../STM32F2xx_HAL_Driver/Src/stm32f2xx_ll_usb.c ****         ((ep->num) << 22 ) | (USB_OTG_DOEPCTL_USBAEP)); 
 1157              		.loc 1 484 0
 1158 0708 3B68     		ldr	r3, [r7]
 1159 070a 1B78     		ldrb	r3, [r3]	@ zero_extendqisi2
 1160 070c 9B05     		lsls	r3, r3, #22
 483:../STM32F2xx_HAL_Driver/Src/stm32f2xx_ll_usb.c ****       debug |= ((ep->maxpacket & USB_OTG_DOEPCTL_MPSIZ ) | (ep->type << 18 ) |\
 1161              		.loc 1 483 0
 1162 070e 1A43     		orrs	r2, r2, r3
 1163 0710 40F20003 		movw	r3, #:lower16:debug.7396
 1164 0714 C0F20003 		movt	r3, #:upper16:debug.7396
 1165 0718 1B68     		ldr	r3, [r3]
 1166 071a 1343     		orrs	r3, r3, r2
 1167 071c 43F40042 		orr	r2, r3, #32768
 1168 0720 40F20003 		movw	r3, #:lower16:debug.7396
 1169 0724 C0F20003 		movt	r3, #:upper16:debug.7396
 1170 0728 1A60     		str	r2, [r3]
 1171              	.L59:
 485:../STM32F2xx_HAL_Driver/Src/stm32f2xx_ll_usb.c ****     } 
 486:../STM32F2xx_HAL_Driver/Src/stm32f2xx_ll_usb.c ****     
 487:../STM32F2xx_HAL_Driver/Src/stm32f2xx_ll_usb.c ****      USBx_DEVICE->DEACHMSK |= USB_OTG_DAINTMSK_OEPM & ((1 << (ep->num)) << 16);
 1172              		.loc 1 487 0
 1173 072a 7B68     		ldr	r3, [r7, #4]
 1174 072c 03F50063 		add	r3, r3, #2048
 1175 0730 7A68     		ldr	r2, [r7, #4]
 1176 0732 02F50062 		add	r2, r2, #2048
 1177 0736 D16B     		ldr	r1, [r2, #60]
 1178 0738 3A68     		ldr	r2, [r7]
 1179 073a 1278     		ldrb	r2, [r2]	@ zero_extendqisi2
 1180 073c 0120     		movs	r0, #1
 1181 073e 00FA02F2 		lsl	r2, r0, r2
 1182 0742 1204     		lsls	r2, r2, #16
 1183 0744 0A43     		orrs	r2, r2, r1
 1184 0746 DA63     		str	r2, [r3, #60]
 1185              	.L58:
 488:../STM32F2xx_HAL_Driver/Src/stm32f2xx_ll_usb.c ****   }
 489:../STM32F2xx_HAL_Driver/Src/stm32f2xx_ll_usb.c **** 
 490:../STM32F2xx_HAL_Driver/Src/stm32f2xx_ll_usb.c ****   return HAL_OK;
 1186              		.loc 1 490 0
 1187 0748 0023     		movs	r3, #0
 491:../STM32F2xx_HAL_Driver/Src/stm32f2xx_ll_usb.c **** }
 1188              		.loc 1 491 0
 1189 074a 1846     		mov	r0, r3
 1190 074c 0C37     		adds	r7, r7, #12
 1191 074e BD46     		mov	sp, r7
 1192              		@ sp needed
 1193 0750 5DF8047B 		ldr	r7, [sp], #4
 1194 0754 7047     		bx	lr
 1195              		.cfi_endproc
 1196              	.LFE65:
 1198 0756 00BF     		.align	2
 1199              		.global	USB_DeactivateEndpoint
 1200              		.thumb
 1201              		.thumb_func
 1203              	USB_DeactivateEndpoint:
 1204              	.LFB66:
 492:../STM32F2xx_HAL_Driver/Src/stm32f2xx_ll_usb.c **** /**
 493:../STM32F2xx_HAL_Driver/Src/stm32f2xx_ll_usb.c ****   * @brief  De-activate and de-initialize an endpoint
 494:../STM32F2xx_HAL_Driver/Src/stm32f2xx_ll_usb.c ****   * @param  USBx : Selected device
 495:../STM32F2xx_HAL_Driver/Src/stm32f2xx_ll_usb.c ****   * @param  ep: pointer to endpoint structure
 496:../STM32F2xx_HAL_Driver/Src/stm32f2xx_ll_usb.c ****   * @retval HAL status
 497:../STM32F2xx_HAL_Driver/Src/stm32f2xx_ll_usb.c ****   */
 498:../STM32F2xx_HAL_Driver/Src/stm32f2xx_ll_usb.c **** HAL_StatusTypeDef USB_DeactivateEndpoint(USB_OTG_GlobalTypeDef *USBx, USB_OTG_EPTypeDef *ep)
 499:../STM32F2xx_HAL_Driver/Src/stm32f2xx_ll_usb.c **** {
 1205              		.loc 1 499 0
 1206              		.cfi_startproc
 1207              		@ args = 0, pretend = 0, frame = 8
 1208              		@ frame_needed = 1, uses_anonymous_args = 0
 1209              		@ link register save eliminated.
 1210 0758 80B4     		push	{r7}
 1211              		.cfi_def_cfa_offset 4
 1212              		.cfi_offset 7, -4
 1213 075a 83B0     		sub	sp, sp, #12
 1214              		.cfi_def_cfa_offset 16
 1215 075c 00AF     		add	r7, sp, #0
 1216              		.cfi_def_cfa_register 7
 1217 075e 7860     		str	r0, [r7, #4]
 1218 0760 3960     		str	r1, [r7]
 500:../STM32F2xx_HAL_Driver/Src/stm32f2xx_ll_usb.c ****   /* Read DEPCTLn register */
 501:../STM32F2xx_HAL_Driver/Src/stm32f2xx_ll_usb.c ****   if (ep->is_in == 1)
 1219              		.loc 1 501 0
 1220 0762 3B68     		ldr	r3, [r7]
 1221 0764 5B78     		ldrb	r3, [r3, #1]	@ zero_extendqisi2
 1222 0766 012B     		cmp	r3, #1
 1223 0768 32D1     		bne	.L62
 502:../STM32F2xx_HAL_Driver/Src/stm32f2xx_ll_usb.c ****   {
 503:../STM32F2xx_HAL_Driver/Src/stm32f2xx_ll_usb.c ****     USBx_DEVICE->DEACHMSK &= ~(USB_OTG_DAINTMSK_IEPM & ((1 << (ep->num))));
 1224              		.loc 1 503 0
 1225 076a 7B68     		ldr	r3, [r7, #4]
 1226 076c 03F50063 		add	r3, r3, #2048
 1227 0770 7A68     		ldr	r2, [r7, #4]
 1228 0772 02F50062 		add	r2, r2, #2048
 1229 0776 D16B     		ldr	r1, [r2, #60]
 1230 0778 3A68     		ldr	r2, [r7]
 1231 077a 1278     		ldrb	r2, [r2]	@ zero_extendqisi2
 1232 077c 0120     		movs	r0, #1
 1233 077e 00FA02F2 		lsl	r2, r0, r2
 1234 0782 92B2     		uxth	r2, r2
 1235 0784 D243     		mvns	r2, r2
 1236 0786 0A40     		ands	r2, r2, r1
 1237 0788 DA63     		str	r2, [r3, #60]
 504:../STM32F2xx_HAL_Driver/Src/stm32f2xx_ll_usb.c ****     USBx_DEVICE->DAINTMSK &= ~(USB_OTG_DAINTMSK_IEPM & ((1 << (ep->num))));
 1238              		.loc 1 504 0
 1239 078a 7B68     		ldr	r3, [r7, #4]
 1240 078c 03F50063 		add	r3, r3, #2048
 1241 0790 7A68     		ldr	r2, [r7, #4]
 1242 0792 02F50062 		add	r2, r2, #2048
 1243 0796 D169     		ldr	r1, [r2, #28]
 1244 0798 3A68     		ldr	r2, [r7]
 1245 079a 1278     		ldrb	r2, [r2]	@ zero_extendqisi2
 1246 079c 0120     		movs	r0, #1
 1247 079e 00FA02F2 		lsl	r2, r0, r2
 1248 07a2 92B2     		uxth	r2, r2
 1249 07a4 D243     		mvns	r2, r2
 1250 07a6 0A40     		ands	r2, r2, r1
 1251 07a8 DA61     		str	r2, [r3, #28]
 505:../STM32F2xx_HAL_Driver/Src/stm32f2xx_ll_usb.c ****     USBx_INEP(ep->num)->DIEPCTL &= ~ USB_OTG_DIEPCTL_USBAEP;
 1252              		.loc 1 505 0
 1253 07aa 3B68     		ldr	r3, [r7]
 1254 07ac 1B78     		ldrb	r3, [r3]	@ zero_extendqisi2
 1255 07ae 5A01     		lsls	r2, r3, #5
 1256 07b0 7B68     		ldr	r3, [r7, #4]
 1257 07b2 1344     		add	r3, r3, r2
 1258 07b4 03F51063 		add	r3, r3, #2304
 1259 07b8 3A68     		ldr	r2, [r7]
 1260 07ba 1278     		ldrb	r2, [r2]	@ zero_extendqisi2
 1261 07bc 5101     		lsls	r1, r2, #5
 1262 07be 7A68     		ldr	r2, [r7, #4]
 1263 07c0 0A44     		add	r2, r2, r1
 1264 07c2 02F51062 		add	r2, r2, #2304
 1265 07c6 1268     		ldr	r2, [r2]
 1266 07c8 22F40042 		bic	r2, r2, #32768
 1267 07cc 1A60     		str	r2, [r3]
 1268 07ce 31E0     		b	.L63
 1269              	.L62:
 506:../STM32F2xx_HAL_Driver/Src/stm32f2xx_ll_usb.c ****   }
 507:../STM32F2xx_HAL_Driver/Src/stm32f2xx_ll_usb.c ****   else
 508:../STM32F2xx_HAL_Driver/Src/stm32f2xx_ll_usb.c ****   {
 509:../STM32F2xx_HAL_Driver/Src/stm32f2xx_ll_usb.c ****     USBx_DEVICE->DEACHMSK &= ~(USB_OTG_DAINTMSK_OEPM & ((1 << (ep->num)) << 16));
 1270              		.loc 1 509 0
 1271 07d0 7B68     		ldr	r3, [r7, #4]
 1272 07d2 03F50063 		add	r3, r3, #2048
 1273 07d6 7A68     		ldr	r2, [r7, #4]
 1274 07d8 02F50062 		add	r2, r2, #2048
 1275 07dc D16B     		ldr	r1, [r2, #60]
 1276 07de 3A68     		ldr	r2, [r7]
 1277 07e0 1278     		ldrb	r2, [r2]	@ zero_extendqisi2
 1278 07e2 0120     		movs	r0, #1
 1279 07e4 00FA02F2 		lsl	r2, r0, r2
 1280 07e8 1204     		lsls	r2, r2, #16
 1281 07ea D243     		mvns	r2, r2
 1282 07ec 0A40     		ands	r2, r2, r1
 1283 07ee DA63     		str	r2, [r3, #60]
 510:../STM32F2xx_HAL_Driver/Src/stm32f2xx_ll_usb.c ****     USBx_DEVICE->DAINTMSK &= ~(USB_OTG_DAINTMSK_OEPM & ((1 << (ep->num)) << 16));
 1284              		.loc 1 510 0
 1285 07f0 7B68     		ldr	r3, [r7, #4]
 1286 07f2 03F50063 		add	r3, r3, #2048
 1287 07f6 7A68     		ldr	r2, [r7, #4]
 1288 07f8 02F50062 		add	r2, r2, #2048
 1289 07fc D169     		ldr	r1, [r2, #28]
 1290 07fe 3A68     		ldr	r2, [r7]
 1291 0800 1278     		ldrb	r2, [r2]	@ zero_extendqisi2
 1292 0802 0120     		movs	r0, #1
 1293 0804 00FA02F2 		lsl	r2, r0, r2
 1294 0808 1204     		lsls	r2, r2, #16
 1295 080a D243     		mvns	r2, r2
 1296 080c 0A40     		ands	r2, r2, r1
 1297 080e DA61     		str	r2, [r3, #28]
 511:../STM32F2xx_HAL_Driver/Src/stm32f2xx_ll_usb.c ****     USBx_OUTEP(ep->num)->DOEPCTL &= ~USB_OTG_DOEPCTL_USBAEP;
 1298              		.loc 1 511 0
 1299 0810 3B68     		ldr	r3, [r7]
 1300 0812 1B78     		ldrb	r3, [r3]	@ zero_extendqisi2
 1301 0814 5A01     		lsls	r2, r3, #5
 1302 0816 7B68     		ldr	r3, [r7, #4]
 1303 0818 1344     		add	r3, r3, r2
 1304 081a 03F53063 		add	r3, r3, #2816
 1305 081e 3A68     		ldr	r2, [r7]
 1306 0820 1278     		ldrb	r2, [r2]	@ zero_extendqisi2
 1307 0822 5101     		lsls	r1, r2, #5
 1308 0824 7A68     		ldr	r2, [r7, #4]
 1309 0826 0A44     		add	r2, r2, r1
 1310 0828 02F53062 		add	r2, r2, #2816
 1311 082c 1268     		ldr	r2, [r2]
 1312 082e 22F40042 		bic	r2, r2, #32768
 1313 0832 1A60     		str	r2, [r3]
 1314              	.L63:
 512:../STM32F2xx_HAL_Driver/Src/stm32f2xx_ll_usb.c ****   }
 513:../STM32F2xx_HAL_Driver/Src/stm32f2xx_ll_usb.c ****   return HAL_OK;
 1315              		.loc 1 513 0
 1316 0834 0023     		movs	r3, #0
 514:../STM32F2xx_HAL_Driver/Src/stm32f2xx_ll_usb.c **** }
 1317              		.loc 1 514 0
 1318 0836 1846     		mov	r0, r3
 1319 0838 0C37     		adds	r7, r7, #12
 1320 083a BD46     		mov	sp, r7
 1321              		@ sp needed
 1322 083c 5DF8047B 		ldr	r7, [sp], #4
 1323 0840 7047     		bx	lr
 1324              		.cfi_endproc
 1325              	.LFE66:
 1327 0842 00BF     		.align	2
 1328              		.global	USB_DeactivateDedicatedEndpoint
 1329              		.thumb
 1330              		.thumb_func
 1332              	USB_DeactivateDedicatedEndpoint:
 1333              	.LFB67:
 515:../STM32F2xx_HAL_Driver/Src/stm32f2xx_ll_usb.c **** 
 516:../STM32F2xx_HAL_Driver/Src/stm32f2xx_ll_usb.c **** /**
 517:../STM32F2xx_HAL_Driver/Src/stm32f2xx_ll_usb.c ****   * @brief  De-activate and de-initialize a dedicated endpoint
 518:../STM32F2xx_HAL_Driver/Src/stm32f2xx_ll_usb.c ****   * @param  USBx : Selected device
 519:../STM32F2xx_HAL_Driver/Src/stm32f2xx_ll_usb.c ****   * @param  ep: pointer to endpoint structure
 520:../STM32F2xx_HAL_Driver/Src/stm32f2xx_ll_usb.c ****   * @retval HAL status
 521:../STM32F2xx_HAL_Driver/Src/stm32f2xx_ll_usb.c ****   */
 522:../STM32F2xx_HAL_Driver/Src/stm32f2xx_ll_usb.c **** HAL_StatusTypeDef USB_DeactivateDedicatedEndpoint(USB_OTG_GlobalTypeDef *USBx, USB_OTG_EPTypeDef *e
 523:../STM32F2xx_HAL_Driver/Src/stm32f2xx_ll_usb.c **** {
 1334              		.loc 1 523 0
 1335              		.cfi_startproc
 1336              		@ args = 0, pretend = 0, frame = 8
 1337              		@ frame_needed = 1, uses_anonymous_args = 0
 1338              		@ link register save eliminated.
 1339 0844 80B4     		push	{r7}
 1340              		.cfi_def_cfa_offset 4
 1341              		.cfi_offset 7, -4
 1342 0846 83B0     		sub	sp, sp, #12
 1343              		.cfi_def_cfa_offset 16
 1344 0848 00AF     		add	r7, sp, #0
 1345              		.cfi_def_cfa_register 7
 1346 084a 7860     		str	r0, [r7, #4]
 1347 084c 3960     		str	r1, [r7]
 524:../STM32F2xx_HAL_Driver/Src/stm32f2xx_ll_usb.c ****   /* Read DEPCTLn register */
 525:../STM32F2xx_HAL_Driver/Src/stm32f2xx_ll_usb.c ****   if (ep->is_in == 1)
 1348              		.loc 1 525 0
 1349 084e 3B68     		ldr	r3, [r7]
 1350 0850 5B78     		ldrb	r3, [r3, #1]	@ zero_extendqisi2
 1351 0852 012B     		cmp	r3, #1
 1352 0854 22D1     		bne	.L66
 526:../STM32F2xx_HAL_Driver/Src/stm32f2xx_ll_usb.c ****   {
 527:../STM32F2xx_HAL_Driver/Src/stm32f2xx_ll_usb.c ****    USBx_INEP(ep->num)->DIEPCTL &= ~ USB_OTG_DIEPCTL_USBAEP;
 1353              		.loc 1 527 0
 1354 0856 3B68     		ldr	r3, [r7]
 1355 0858 1B78     		ldrb	r3, [r3]	@ zero_extendqisi2
 1356 085a 5A01     		lsls	r2, r3, #5
 1357 085c 7B68     		ldr	r3, [r7, #4]
 1358 085e 1344     		add	r3, r3, r2
 1359 0860 03F51063 		add	r3, r3, #2304
 1360 0864 3A68     		ldr	r2, [r7]
 1361 0866 1278     		ldrb	r2, [r2]	@ zero_extendqisi2
 1362 0868 5101     		lsls	r1, r2, #5
 1363 086a 7A68     		ldr	r2, [r7, #4]
 1364 086c 0A44     		add	r2, r2, r1
 1365 086e 02F51062 		add	r2, r2, #2304
 1366 0872 1268     		ldr	r2, [r2]
 1367 0874 22F40042 		bic	r2, r2, #32768
 1368 0878 1A60     		str	r2, [r3]
 528:../STM32F2xx_HAL_Driver/Src/stm32f2xx_ll_usb.c ****    USBx_DEVICE->DAINTMSK &= ~(USB_OTG_DAINTMSK_IEPM & ((1 << (ep->num))));
 1369              		.loc 1 528 0
 1370 087a 7B68     		ldr	r3, [r7, #4]
 1371 087c 03F50063 		add	r3, r3, #2048
 1372 0880 7A68     		ldr	r2, [r7, #4]
 1373 0882 02F50062 		add	r2, r2, #2048
 1374 0886 D169     		ldr	r1, [r2, #28]
 1375 0888 3A68     		ldr	r2, [r7]
 1376 088a 1278     		ldrb	r2, [r2]	@ zero_extendqisi2
 1377 088c 0120     		movs	r0, #1
 1378 088e 00FA02F2 		lsl	r2, r0, r2
 1379 0892 92B2     		uxth	r2, r2
 1380 0894 D243     		mvns	r2, r2
 1381 0896 0A40     		ands	r2, r2, r1
 1382 0898 DA61     		str	r2, [r3, #28]
 1383 089a 21E0     		b	.L67
 1384              	.L66:
 529:../STM32F2xx_HAL_Driver/Src/stm32f2xx_ll_usb.c ****   }
 530:../STM32F2xx_HAL_Driver/Src/stm32f2xx_ll_usb.c ****   else
 531:../STM32F2xx_HAL_Driver/Src/stm32f2xx_ll_usb.c ****   {
 532:../STM32F2xx_HAL_Driver/Src/stm32f2xx_ll_usb.c ****      USBx_OUTEP(ep->num)->DOEPCTL &= ~USB_OTG_DOEPCTL_USBAEP; 
 1385              		.loc 1 532 0
 1386 089c 3B68     		ldr	r3, [r7]
 1387 089e 1B78     		ldrb	r3, [r3]	@ zero_extendqisi2
 1388 08a0 5A01     		lsls	r2, r3, #5
 1389 08a2 7B68     		ldr	r3, [r7, #4]
 1390 08a4 1344     		add	r3, r3, r2
 1391 08a6 03F53063 		add	r3, r3, #2816
 1392 08aa 3A68     		ldr	r2, [r7]
 1393 08ac 1278     		ldrb	r2, [r2]	@ zero_extendqisi2
 1394 08ae 5101     		lsls	r1, r2, #5
 1395 08b0 7A68     		ldr	r2, [r7, #4]
 1396 08b2 0A44     		add	r2, r2, r1
 1397 08b4 02F53062 		add	r2, r2, #2816
 1398 08b8 1268     		ldr	r2, [r2]
 1399 08ba 22F40042 		bic	r2, r2, #32768
 1400 08be 1A60     		str	r2, [r3]
 533:../STM32F2xx_HAL_Driver/Src/stm32f2xx_ll_usb.c ****      USBx_DEVICE->DAINTMSK &= ~(USB_OTG_DAINTMSK_OEPM & ((1 << (ep->num)) << 16));
 1401              		.loc 1 533 0
 1402 08c0 7B68     		ldr	r3, [r7, #4]
 1403 08c2 03F50063 		add	r3, r3, #2048
 1404 08c6 7A68     		ldr	r2, [r7, #4]
 1405 08c8 02F50062 		add	r2, r2, #2048
 1406 08cc D169     		ldr	r1, [r2, #28]
 1407 08ce 3A68     		ldr	r2, [r7]
 1408 08d0 1278     		ldrb	r2, [r2]	@ zero_extendqisi2
 1409 08d2 0120     		movs	r0, #1
 1410 08d4 00FA02F2 		lsl	r2, r0, r2
 1411 08d8 1204     		lsls	r2, r2, #16
 1412 08da D243     		mvns	r2, r2
 1413 08dc 0A40     		ands	r2, r2, r1
 1414 08de DA61     		str	r2, [r3, #28]
 1415              	.L67:
 534:../STM32F2xx_HAL_Driver/Src/stm32f2xx_ll_usb.c ****   }
 535:../STM32F2xx_HAL_Driver/Src/stm32f2xx_ll_usb.c ****   return HAL_OK;
 1416              		.loc 1 535 0
 1417 08e0 0023     		movs	r3, #0
 536:../STM32F2xx_HAL_Driver/Src/stm32f2xx_ll_usb.c **** }
 1418              		.loc 1 536 0
 1419 08e2 1846     		mov	r0, r3
 1420 08e4 0C37     		adds	r7, r7, #12
 1421 08e6 BD46     		mov	sp, r7
 1422              		@ sp needed
 1423 08e8 5DF8047B 		ldr	r7, [sp], #4
 1424 08ec 7047     		bx	lr
 1425              		.cfi_endproc
 1426              	.LFE67:
 1428 08ee 00BF     		.align	2
 1429              		.global	USB_EPStartXfer
 1430              		.thumb
 1431              		.thumb_func
 1433              	USB_EPStartXfer:
 1434              	.LFB68:
 537:../STM32F2xx_HAL_Driver/Src/stm32f2xx_ll_usb.c **** 
 538:../STM32F2xx_HAL_Driver/Src/stm32f2xx_ll_usb.c **** /**
 539:../STM32F2xx_HAL_Driver/Src/stm32f2xx_ll_usb.c ****   * @brief  USB_EPStartXfer : setup and starts a transfer over an EP
 540:../STM32F2xx_HAL_Driver/Src/stm32f2xx_ll_usb.c ****   * @param  USBx : Selected device
 541:../STM32F2xx_HAL_Driver/Src/stm32f2xx_ll_usb.c ****   * @param  ep: pointer to endpoint structure
 542:../STM32F2xx_HAL_Driver/Src/stm32f2xx_ll_usb.c ****   * @param  dma: USB dma enabled or disabled 
 543:../STM32F2xx_HAL_Driver/Src/stm32f2xx_ll_usb.c ****   *          This parameter can be one of the these values:
 544:../STM32F2xx_HAL_Driver/Src/stm32f2xx_ll_usb.c ****   *           0 : DMA feature not used 
 545:../STM32F2xx_HAL_Driver/Src/stm32f2xx_ll_usb.c ****   *           1 : DMA feature used  
 546:../STM32F2xx_HAL_Driver/Src/stm32f2xx_ll_usb.c ****   * @retval HAL status
 547:../STM32F2xx_HAL_Driver/Src/stm32f2xx_ll_usb.c ****   */
 548:../STM32F2xx_HAL_Driver/Src/stm32f2xx_ll_usb.c **** HAL_StatusTypeDef USB_EPStartXfer(USB_OTG_GlobalTypeDef *USBx , USB_OTG_EPTypeDef *ep, uint8_t dma)
 549:../STM32F2xx_HAL_Driver/Src/stm32f2xx_ll_usb.c **** {
 1435              		.loc 1 549 0
 1436              		.cfi_startproc
 1437              		@ args = 0, pretend = 0, frame = 24
 1438              		@ frame_needed = 1, uses_anonymous_args = 0
 1439 08f0 80B5     		push	{r7, lr}
 1440              		.cfi_def_cfa_offset 8
 1441              		.cfi_offset 7, -8
 1442              		.cfi_offset 14, -4
 1443 08f2 88B0     		sub	sp, sp, #32
 1444              		.cfi_def_cfa_offset 40
 1445 08f4 02AF     		add	r7, sp, #8
 1446              		.cfi_def_cfa 7, 32
 1447 08f6 F860     		str	r0, [r7, #12]
 1448 08f8 B960     		str	r1, [r7, #8]
 1449 08fa 1346     		mov	r3, r2
 1450 08fc FB71     		strb	r3, [r7, #7]
 550:../STM32F2xx_HAL_Driver/Src/stm32f2xx_ll_usb.c ****   uint16_t pktcnt = 0;
 1451              		.loc 1 550 0
 1452 08fe 0023     		movs	r3, #0
 1453 0900 FB82     		strh	r3, [r7, #22]	@ movhi
 551:../STM32F2xx_HAL_Driver/Src/stm32f2xx_ll_usb.c ****   
 552:../STM32F2xx_HAL_Driver/Src/stm32f2xx_ll_usb.c ****   /* IN endpoint */
 553:../STM32F2xx_HAL_Driver/Src/stm32f2xx_ll_usb.c ****   if (ep->is_in == 1)
 1454              		.loc 1 553 0
 1455 0902 BB68     		ldr	r3, [r7, #8]
 1456 0904 5B78     		ldrb	r3, [r3, #1]	@ zero_extendqisi2
 1457 0906 012B     		cmp	r3, #1
 1458 0908 40F03E81 		bne	.L70
 554:../STM32F2xx_HAL_Driver/Src/stm32f2xx_ll_usb.c ****   {
 555:../STM32F2xx_HAL_Driver/Src/stm32f2xx_ll_usb.c ****     /* Zero Length Packet? */
 556:../STM32F2xx_HAL_Driver/Src/stm32f2xx_ll_usb.c ****     if (ep->xfer_len == 0)
 1459              		.loc 1 556 0
 1460 090c BB68     		ldr	r3, [r7, #8]
 1461 090e 5B69     		ldr	r3, [r3, #20]
 1462 0910 002B     		cmp	r3, #0
 1463 0912 3AD1     		bne	.L71
 557:../STM32F2xx_HAL_Driver/Src/stm32f2xx_ll_usb.c ****     {
 558:../STM32F2xx_HAL_Driver/Src/stm32f2xx_ll_usb.c ****       USBx_INEP(ep->num)->DIEPTSIZ &= ~(USB_OTG_DIEPTSIZ_PKTCNT); 
 1464              		.loc 1 558 0
 1465 0914 BB68     		ldr	r3, [r7, #8]
 1466 0916 1B78     		ldrb	r3, [r3]	@ zero_extendqisi2
 1467 0918 5A01     		lsls	r2, r3, #5
 1468 091a FB68     		ldr	r3, [r7, #12]
 1469 091c 1344     		add	r3, r3, r2
 1470 091e 03F51063 		add	r3, r3, #2304
 1471 0922 1A46     		mov	r2, r3
 1472 0924 BB68     		ldr	r3, [r7, #8]
 1473 0926 1B78     		ldrb	r3, [r3]	@ zero_extendqisi2
 1474 0928 5901     		lsls	r1, r3, #5
 1475 092a FB68     		ldr	r3, [r7, #12]
 1476 092c 0B44     		add	r3, r3, r1
 1477 092e 03F51063 		add	r3, r3, #2304
 1478 0932 1B69     		ldr	r3, [r3, #16]
 1479 0934 23F0FF53 		bic	r3, r3, #534773760
 1480 0938 23F4C013 		bic	r3, r3, #1572864
 1481 093c 1361     		str	r3, [r2, #16]
 559:../STM32F2xx_HAL_Driver/Src/stm32f2xx_ll_usb.c ****       USBx_INEP(ep->num)->DIEPTSIZ |= (USB_OTG_DIEPTSIZ_PKTCNT & (1 << 19)) ;
 1482              		.loc 1 559 0
 1483 093e BB68     		ldr	r3, [r7, #8]
 1484 0940 1B78     		ldrb	r3, [r3]	@ zero_extendqisi2
 1485 0942 5A01     		lsls	r2, r3, #5
 1486 0944 FB68     		ldr	r3, [r7, #12]
 1487 0946 1344     		add	r3, r3, r2
 1488 0948 03F51063 		add	r3, r3, #2304
 1489 094c BA68     		ldr	r2, [r7, #8]
 1490 094e 1278     		ldrb	r2, [r2]	@ zero_extendqisi2
 1491 0950 5101     		lsls	r1, r2, #5
 1492 0952 FA68     		ldr	r2, [r7, #12]
 1493 0954 0A44     		add	r2, r2, r1
 1494 0956 02F51062 		add	r2, r2, #2304
 1495 095a 1269     		ldr	r2, [r2, #16]
 1496 095c 42F40022 		orr	r2, r2, #524288
 1497 0960 1A61     		str	r2, [r3, #16]
 560:../STM32F2xx_HAL_Driver/Src/stm32f2xx_ll_usb.c ****       USBx_INEP(ep->num)->DIEPTSIZ &= ~(USB_OTG_DIEPTSIZ_XFRSIZ); 
 1498              		.loc 1 560 0
 1499 0962 BB68     		ldr	r3, [r7, #8]
 1500 0964 1B78     		ldrb	r3, [r3]	@ zero_extendqisi2
 1501 0966 5A01     		lsls	r2, r3, #5
 1502 0968 FB68     		ldr	r3, [r7, #12]
 1503 096a 1344     		add	r3, r3, r2
 1504 096c 03F51063 		add	r3, r3, #2304
 1505 0970 1A46     		mov	r2, r3
 1506 0972 BB68     		ldr	r3, [r7, #8]
 1507 0974 1B78     		ldrb	r3, [r3]	@ zero_extendqisi2
 1508 0976 5901     		lsls	r1, r3, #5
 1509 0978 FB68     		ldr	r3, [r7, #12]
 1510 097a 0B44     		add	r3, r3, r1
 1511 097c 03F51063 		add	r3, r3, #2304
 1512 0980 1B69     		ldr	r3, [r3, #16]
 1513 0982 DB0C     		lsrs	r3, r3, #19
 1514 0984 DB04     		lsls	r3, r3, #19
 1515 0986 1361     		str	r3, [r2, #16]
 1516 0988 85E0     		b	.L72
 1517              	.L71:
 561:../STM32F2xx_HAL_Driver/Src/stm32f2xx_ll_usb.c ****     }
 562:../STM32F2xx_HAL_Driver/Src/stm32f2xx_ll_usb.c ****     else
 563:../STM32F2xx_HAL_Driver/Src/stm32f2xx_ll_usb.c ****     {
 564:../STM32F2xx_HAL_Driver/Src/stm32f2xx_ll_usb.c ****       /* Program the transfer size and packet count
 565:../STM32F2xx_HAL_Driver/Src/stm32f2xx_ll_usb.c ****       * as follows: xfersize = N * maxpacket +
 566:../STM32F2xx_HAL_Driver/Src/stm32f2xx_ll_usb.c ****       * short_packet pktcnt = N + (short_packet
 567:../STM32F2xx_HAL_Driver/Src/stm32f2xx_ll_usb.c ****       * exist ? 1 : 0)
 568:../STM32F2xx_HAL_Driver/Src/stm32f2xx_ll_usb.c ****       */
 569:../STM32F2xx_HAL_Driver/Src/stm32f2xx_ll_usb.c ****       USBx_INEP(ep->num)->DIEPTSIZ &= ~(USB_OTG_DIEPTSIZ_XFRSIZ);
 1518              		.loc 1 569 0
 1519 098a BB68     		ldr	r3, [r7, #8]
 1520 098c 1B78     		ldrb	r3, [r3]	@ zero_extendqisi2
 1521 098e 5A01     		lsls	r2, r3, #5
 1522 0990 FB68     		ldr	r3, [r7, #12]
 1523 0992 1344     		add	r3, r3, r2
 1524 0994 03F51063 		add	r3, r3, #2304
 1525 0998 1A46     		mov	r2, r3
 1526 099a BB68     		ldr	r3, [r7, #8]
 1527 099c 1B78     		ldrb	r3, [r3]	@ zero_extendqisi2
 1528 099e 5901     		lsls	r1, r3, #5
 1529 09a0 FB68     		ldr	r3, [r7, #12]
 1530 09a2 0B44     		add	r3, r3, r1
 1531 09a4 03F51063 		add	r3, r3, #2304
 1532 09a8 1B69     		ldr	r3, [r3, #16]
 1533 09aa DB0C     		lsrs	r3, r3, #19
 1534 09ac DB04     		lsls	r3, r3, #19
 1535 09ae 1361     		str	r3, [r2, #16]
 570:../STM32F2xx_HAL_Driver/Src/stm32f2xx_ll_usb.c ****       USBx_INEP(ep->num)->DIEPTSIZ &= ~(USB_OTG_DIEPTSIZ_PKTCNT); 
 1536              		.loc 1 570 0
 1537 09b0 BB68     		ldr	r3, [r7, #8]
 1538 09b2 1B78     		ldrb	r3, [r3]	@ zero_extendqisi2
 1539 09b4 5A01     		lsls	r2, r3, #5
 1540 09b6 FB68     		ldr	r3, [r7, #12]
 1541 09b8 1344     		add	r3, r3, r2
 1542 09ba 03F51063 		add	r3, r3, #2304
 1543 09be 1A46     		mov	r2, r3
 1544 09c0 BB68     		ldr	r3, [r7, #8]
 1545 09c2 1B78     		ldrb	r3, [r3]	@ zero_extendqisi2
 1546 09c4 5901     		lsls	r1, r3, #5
 1547 09c6 FB68     		ldr	r3, [r7, #12]
 1548 09c8 0B44     		add	r3, r3, r1
 1549 09ca 03F51063 		add	r3, r3, #2304
 1550 09ce 1B69     		ldr	r3, [r3, #16]
 1551 09d0 23F0FF53 		bic	r3, r3, #534773760
 1552 09d4 23F4C013 		bic	r3, r3, #1572864
 1553 09d8 1361     		str	r3, [r2, #16]
 571:../STM32F2xx_HAL_Driver/Src/stm32f2xx_ll_usb.c ****       USBx_INEP(ep->num)->DIEPTSIZ |= (USB_OTG_DIEPTSIZ_PKTCNT & (((ep->xfer_len + ep->maxpacket -1
 1554              		.loc 1 571 0
 1555 09da BB68     		ldr	r3, [r7, #8]
 1556 09dc 1B78     		ldrb	r3, [r3]	@ zero_extendqisi2
 1557 09de 5A01     		lsls	r2, r3, #5
 1558 09e0 FB68     		ldr	r3, [r7, #12]
 1559 09e2 1344     		add	r3, r3, r2
 1560 09e4 03F51063 		add	r3, r3, #2304
 1561 09e8 1A46     		mov	r2, r3
 1562 09ea BB68     		ldr	r3, [r7, #8]
 1563 09ec 1B78     		ldrb	r3, [r3]	@ zero_extendqisi2
 1564 09ee 5901     		lsls	r1, r3, #5
 1565 09f0 FB68     		ldr	r3, [r7, #12]
 1566 09f2 0B44     		add	r3, r3, r1
 1567 09f4 03F51063 		add	r3, r3, #2304
 1568 09f8 1969     		ldr	r1, [r3, #16]
 1569 09fa BB68     		ldr	r3, [r7, #8]
 1570 09fc 5869     		ldr	r0, [r3, #20]
 1571 09fe BB68     		ldr	r3, [r7, #8]
 1572 0a00 9B68     		ldr	r3, [r3, #8]
 1573 0a02 0344     		add	r3, r3, r0
 1574 0a04 581E     		subs	r0, r3, #1
 1575 0a06 BB68     		ldr	r3, [r7, #8]
 1576 0a08 9B68     		ldr	r3, [r3, #8]
 1577 0a0a B0FBF3F3 		udiv	r3, r0, r3
 1578 0a0e D804     		lsls	r0, r3, #19
 1579 0a10 0023     		movs	r3, #0
 1580 0a12 C1F6F873 		movt	r3, 8184
 1581 0a16 0340     		ands	r3, r3, r0
 1582 0a18 0B43     		orrs	r3, r3, r1
 1583 0a1a 1361     		str	r3, [r2, #16]
 572:../STM32F2xx_HAL_Driver/Src/stm32f2xx_ll_usb.c ****       USBx_INEP(ep->num)->DIEPTSIZ |= (USB_OTG_DIEPTSIZ_XFRSIZ & ep->xfer_len); 
 1584              		.loc 1 572 0
 1585 0a1c BB68     		ldr	r3, [r7, #8]
 1586 0a1e 1B78     		ldrb	r3, [r3]	@ zero_extendqisi2
 1587 0a20 5A01     		lsls	r2, r3, #5
 1588 0a22 FB68     		ldr	r3, [r7, #12]
 1589 0a24 1344     		add	r3, r3, r2
 1590 0a26 03F51063 		add	r3, r3, #2304
 1591 0a2a BA68     		ldr	r2, [r7, #8]
 1592 0a2c 1278     		ldrb	r2, [r2]	@ zero_extendqisi2
 1593 0a2e 5101     		lsls	r1, r2, #5
 1594 0a30 FA68     		ldr	r2, [r7, #12]
 1595 0a32 0A44     		add	r2, r2, r1
 1596 0a34 02F51062 		add	r2, r2, #2304
 1597 0a38 1169     		ldr	r1, [r2, #16]
 1598 0a3a BA68     		ldr	r2, [r7, #8]
 1599 0a3c 5269     		ldr	r2, [r2, #20]
 1600 0a3e C2F31202 		ubfx	r2, r2, #0, #19
 1601 0a42 0A43     		orrs	r2, r2, r1
 1602 0a44 1A61     		str	r2, [r3, #16]
 573:../STM32F2xx_HAL_Driver/Src/stm32f2xx_ll_usb.c ****       
 574:../STM32F2xx_HAL_Driver/Src/stm32f2xx_ll_usb.c ****       if (ep->type == EP_TYPE_ISOC)
 1603              		.loc 1 574 0
 1604 0a46 BB68     		ldr	r3, [r7, #8]
 1605 0a48 DB78     		ldrb	r3, [r3, #3]	@ zero_extendqisi2
 1606 0a4a 012B     		cmp	r3, #1
 1607 0a4c 23D1     		bne	.L72
 575:../STM32F2xx_HAL_Driver/Src/stm32f2xx_ll_usb.c ****       {
 576:../STM32F2xx_HAL_Driver/Src/stm32f2xx_ll_usb.c ****         USBx_INEP(ep->num)->DIEPTSIZ &= ~(USB_OTG_DIEPTSIZ_MULCNT); 
 1608              		.loc 1 576 0
 1609 0a4e BB68     		ldr	r3, [r7, #8]
 1610 0a50 1B78     		ldrb	r3, [r3]	@ zero_extendqisi2
 1611 0a52 5A01     		lsls	r2, r3, #5
 1612 0a54 FB68     		ldr	r3, [r7, #12]
 1613 0a56 1344     		add	r3, r3, r2
 1614 0a58 03F51063 		add	r3, r3, #2304
 1615 0a5c BA68     		ldr	r2, [r7, #8]
 1616 0a5e 1278     		ldrb	r2, [r2]	@ zero_extendqisi2
 1617 0a60 5101     		lsls	r1, r2, #5
 1618 0a62 FA68     		ldr	r2, [r7, #12]
 1619 0a64 0A44     		add	r2, r2, r1
 1620 0a66 02F51062 		add	r2, r2, #2304
 1621 0a6a 1269     		ldr	r2, [r2, #16]
 1622 0a6c 22F0C042 		bic	r2, r2, #1610612736
 1623 0a70 1A61     		str	r2, [r3, #16]
 577:../STM32F2xx_HAL_Driver/Src/stm32f2xx_ll_usb.c ****         USBx_INEP(ep->num)->DIEPTSIZ |= (USB_OTG_DIEPTSIZ_MULCNT & (1 << 29)); 
 1624              		.loc 1 577 0
 1625 0a72 BB68     		ldr	r3, [r7, #8]
 1626 0a74 1B78     		ldrb	r3, [r3]	@ zero_extendqisi2
 1627 0a76 5A01     		lsls	r2, r3, #5
 1628 0a78 FB68     		ldr	r3, [r7, #12]
 1629 0a7a 1344     		add	r3, r3, r2
 1630 0a7c 03F51063 		add	r3, r3, #2304
 1631 0a80 BA68     		ldr	r2, [r7, #8]
 1632 0a82 1278     		ldrb	r2, [r2]	@ zero_extendqisi2
 1633 0a84 5101     		lsls	r1, r2, #5
 1634 0a86 FA68     		ldr	r2, [r7, #12]
 1635 0a88 0A44     		add	r2, r2, r1
 1636 0a8a 02F51062 		add	r2, r2, #2304
 1637 0a8e 1269     		ldr	r2, [r2, #16]
 1638 0a90 42F00052 		orr	r2, r2, #536870912
 1639 0a94 1A61     		str	r2, [r3, #16]
 1640              	.L72:
 578:../STM32F2xx_HAL_Driver/Src/stm32f2xx_ll_usb.c ****       }       
 579:../STM32F2xx_HAL_Driver/Src/stm32f2xx_ll_usb.c ****     }
 580:../STM32F2xx_HAL_Driver/Src/stm32f2xx_ll_usb.c **** 
 581:../STM32F2xx_HAL_Driver/Src/stm32f2xx_ll_usb.c ****     if (dma == 1)
 1641              		.loc 1 581 0
 1642 0a96 FB79     		ldrb	r3, [r7, #7]	@ zero_extendqisi2
 1643 0a98 012B     		cmp	r3, #1
 1644 0a9a 0AD1     		bne	.L73
 582:../STM32F2xx_HAL_Driver/Src/stm32f2xx_ll_usb.c ****     {
 583:../STM32F2xx_HAL_Driver/Src/stm32f2xx_ll_usb.c ****       USBx_INEP(ep->num)->DIEPDMA = (uint32_t)(ep->dma_addr);
 1645              		.loc 1 583 0
 1646 0a9c BB68     		ldr	r3, [r7, #8]
 1647 0a9e 1B78     		ldrb	r3, [r3]	@ zero_extendqisi2
 1648 0aa0 5A01     		lsls	r2, r3, #5
 1649 0aa2 FB68     		ldr	r3, [r7, #12]
 1650 0aa4 1344     		add	r3, r3, r2
 1651 0aa6 03F51063 		add	r3, r3, #2304
 1652 0aaa BA68     		ldr	r2, [r7, #8]
 1653 0aac 1269     		ldr	r2, [r2, #16]
 1654 0aae 5A61     		str	r2, [r3, #20]
 1655 0ab0 15E0     		b	.L74
 1656              	.L73:
 584:../STM32F2xx_HAL_Driver/Src/stm32f2xx_ll_usb.c ****     }
 585:../STM32F2xx_HAL_Driver/Src/stm32f2xx_ll_usb.c ****     else
 586:../STM32F2xx_HAL_Driver/Src/stm32f2xx_ll_usb.c ****     {
 587:../STM32F2xx_HAL_Driver/Src/stm32f2xx_ll_usb.c ****       if (ep->type != EP_TYPE_ISOC)
 1657              		.loc 1 587 0
 1658 0ab2 BB68     		ldr	r3, [r7, #8]
 1659 0ab4 DB78     		ldrb	r3, [r3, #3]	@ zero_extendqisi2
 1660 0ab6 012B     		cmp	r3, #1
 1661 0ab8 11D0     		beq	.L74
 588:../STM32F2xx_HAL_Driver/Src/stm32f2xx_ll_usb.c ****       {
 589:../STM32F2xx_HAL_Driver/Src/stm32f2xx_ll_usb.c ****         /* Enable the Tx FIFO Empty Interrupt for this EP */
 590:../STM32F2xx_HAL_Driver/Src/stm32f2xx_ll_usb.c ****         if (ep->xfer_len > 0)
 1662              		.loc 1 590 0
 1663 0aba BB68     		ldr	r3, [r7, #8]
 1664 0abc 5B69     		ldr	r3, [r3, #20]
 1665 0abe 002B     		cmp	r3, #0
 1666 0ac0 0DD0     		beq	.L74
 591:../STM32F2xx_HAL_Driver/Src/stm32f2xx_ll_usb.c ****         {
 592:../STM32F2xx_HAL_Driver/Src/stm32f2xx_ll_usb.c ****           USBx_DEVICE->DIEPEMPMSK |= 1 << ep->num;
 1667              		.loc 1 592 0
 1668 0ac2 FB68     		ldr	r3, [r7, #12]
 1669 0ac4 03F50063 		add	r3, r3, #2048
 1670 0ac8 FA68     		ldr	r2, [r7, #12]
 1671 0aca 02F50062 		add	r2, r2, #2048
 1672 0ace 516B     		ldr	r1, [r2, #52]
 1673 0ad0 BA68     		ldr	r2, [r7, #8]
 1674 0ad2 1278     		ldrb	r2, [r2]	@ zero_extendqisi2
 1675 0ad4 0120     		movs	r0, #1
 1676 0ad6 00FA02F2 		lsl	r2, r0, r2
 1677 0ada 0A43     		orrs	r2, r2, r1
 1678 0adc 5A63     		str	r2, [r3, #52]
 1679              	.L74:
 593:../STM32F2xx_HAL_Driver/Src/stm32f2xx_ll_usb.c ****         }
 594:../STM32F2xx_HAL_Driver/Src/stm32f2xx_ll_usb.c ****       }
 595:../STM32F2xx_HAL_Driver/Src/stm32f2xx_ll_usb.c ****     }
 596:../STM32F2xx_HAL_Driver/Src/stm32f2xx_ll_usb.c **** 
 597:../STM32F2xx_HAL_Driver/Src/stm32f2xx_ll_usb.c ****     if (ep->type == EP_TYPE_ISOC)
 1680              		.loc 1 597 0
 1681 0ade BB68     		ldr	r3, [r7, #8]
 1682 0ae0 DB78     		ldrb	r3, [r3, #3]	@ zero_extendqisi2
 1683 0ae2 012B     		cmp	r3, #1
 1684 0ae4 2CD1     		bne	.L75
 598:../STM32F2xx_HAL_Driver/Src/stm32f2xx_ll_usb.c ****     {
 599:../STM32F2xx_HAL_Driver/Src/stm32f2xx_ll_usb.c ****       if ((USBx_DEVICE->DSTS & ( 1 << 8 )) == 0)
 1685              		.loc 1 599 0
 1686 0ae6 FB68     		ldr	r3, [r7, #12]
 1687 0ae8 03F50063 		add	r3, r3, #2048
 1688 0aec 9B68     		ldr	r3, [r3, #8]
 1689 0aee 03F48073 		and	r3, r3, #256
 1690 0af2 002B     		cmp	r3, #0
 1691 0af4 12D1     		bne	.L76
 600:../STM32F2xx_HAL_Driver/Src/stm32f2xx_ll_usb.c ****       {
 601:../STM32F2xx_HAL_Driver/Src/stm32f2xx_ll_usb.c ****         USBx_INEP(ep->num)->DIEPCTL |= USB_OTG_DIEPCTL_SODDFRM;
 1692              		.loc 1 601 0
 1693 0af6 BB68     		ldr	r3, [r7, #8]
 1694 0af8 1B78     		ldrb	r3, [r3]	@ zero_extendqisi2
 1695 0afa 5A01     		lsls	r2, r3, #5
 1696 0afc FB68     		ldr	r3, [r7, #12]
 1697 0afe 1344     		add	r3, r3, r2
 1698 0b00 03F51063 		add	r3, r3, #2304
 1699 0b04 BA68     		ldr	r2, [r7, #8]
 1700 0b06 1278     		ldrb	r2, [r2]	@ zero_extendqisi2
 1701 0b08 5101     		lsls	r1, r2, #5
 1702 0b0a FA68     		ldr	r2, [r7, #12]
 1703 0b0c 0A44     		add	r2, r2, r1
 1704 0b0e 02F51062 		add	r2, r2, #2304
 1705 0b12 1268     		ldr	r2, [r2]
 1706 0b14 42F00052 		orr	r2, r2, #536870912
 1707 0b18 1A60     		str	r2, [r3]
 1708 0b1a 11E0     		b	.L75
 1709              	.L76:
 602:../STM32F2xx_HAL_Driver/Src/stm32f2xx_ll_usb.c ****       }
 603:../STM32F2xx_HAL_Driver/Src/stm32f2xx_ll_usb.c ****       else
 604:../STM32F2xx_HAL_Driver/Src/stm32f2xx_ll_usb.c ****       {
 605:../STM32F2xx_HAL_Driver/Src/stm32f2xx_ll_usb.c ****         USBx_INEP(ep->num)->DIEPCTL |= USB_OTG_DIEPCTL_SD0PID_SEVNFRM;
 1710              		.loc 1 605 0
 1711 0b1c BB68     		ldr	r3, [r7, #8]
 1712 0b1e 1B78     		ldrb	r3, [r3]	@ zero_extendqisi2
 1713 0b20 5A01     		lsls	r2, r3, #5
 1714 0b22 FB68     		ldr	r3, [r7, #12]
 1715 0b24 1344     		add	r3, r3, r2
 1716 0b26 03F51063 		add	r3, r3, #2304
 1717 0b2a BA68     		ldr	r2, [r7, #8]
 1718 0b2c 1278     		ldrb	r2, [r2]	@ zero_extendqisi2
 1719 0b2e 5101     		lsls	r1, r2, #5
 1720 0b30 FA68     		ldr	r2, [r7, #12]
 1721 0b32 0A44     		add	r2, r2, r1
 1722 0b34 02F51062 		add	r2, r2, #2304
 1723 0b38 1268     		ldr	r2, [r2]
 1724 0b3a 42F08052 		orr	r2, r2, #268435456
 1725 0b3e 1A60     		str	r2, [r3]
 1726              	.L75:
 606:../STM32F2xx_HAL_Driver/Src/stm32f2xx_ll_usb.c ****       }
 607:../STM32F2xx_HAL_Driver/Src/stm32f2xx_ll_usb.c ****     } 
 608:../STM32F2xx_HAL_Driver/Src/stm32f2xx_ll_usb.c ****     
 609:../STM32F2xx_HAL_Driver/Src/stm32f2xx_ll_usb.c ****     /* EP enable, IN data in FIFO */
 610:../STM32F2xx_HAL_Driver/Src/stm32f2xx_ll_usb.c ****     USBx_INEP(ep->num)->DIEPCTL |= (USB_OTG_DIEPCTL_CNAK | USB_OTG_DIEPCTL_EPENA);
 1727              		.loc 1 610 0
 1728 0b40 BB68     		ldr	r3, [r7, #8]
 1729 0b42 1B78     		ldrb	r3, [r3]	@ zero_extendqisi2
 1730 0b44 5A01     		lsls	r2, r3, #5
 1731 0b46 FB68     		ldr	r3, [r7, #12]
 1732 0b48 1344     		add	r3, r3, r2
 1733 0b4a 03F51063 		add	r3, r3, #2304
 1734 0b4e BA68     		ldr	r2, [r7, #8]
 1735 0b50 1278     		ldrb	r2, [r2]	@ zero_extendqisi2
 1736 0b52 5101     		lsls	r1, r2, #5
 1737 0b54 FA68     		ldr	r2, [r7, #12]
 1738 0b56 0A44     		add	r2, r2, r1
 1739 0b58 02F51062 		add	r2, r2, #2304
 1740 0b5c 1268     		ldr	r2, [r2]
 1741 0b5e 42F00442 		orr	r2, r2, #-2080374784
 1742 0b62 1A60     		str	r2, [r3]
 611:../STM32F2xx_HAL_Driver/Src/stm32f2xx_ll_usb.c ****     
 612:../STM32F2xx_HAL_Driver/Src/stm32f2xx_ll_usb.c ****     if (ep->type == EP_TYPE_ISOC)
 1743              		.loc 1 612 0
 1744 0b64 BB68     		ldr	r3, [r7, #8]
 1745 0b66 DB78     		ldrb	r3, [r3, #3]	@ zero_extendqisi2
 1746 0b68 012B     		cmp	r3, #1
 1747 0b6a 40F0ED80 		bne	.L78
 613:../STM32F2xx_HAL_Driver/Src/stm32f2xx_ll_usb.c ****     {
 614:../STM32F2xx_HAL_Driver/Src/stm32f2xx_ll_usb.c ****       USB_WritePacket(USBx, ep->xfer_buff, ep->num, ep->xfer_len, dma);   
 1748              		.loc 1 614 0
 1749 0b6e BB68     		ldr	r3, [r7, #8]
 1750 0b70 D968     		ldr	r1, [r3, #12]
 1751 0b72 BB68     		ldr	r3, [r7, #8]
 1752 0b74 1A78     		ldrb	r2, [r3]	@ zero_extendqisi2
 1753 0b76 BB68     		ldr	r3, [r7, #8]
 1754 0b78 5B69     		ldr	r3, [r3, #20]
 1755 0b7a 9BB2     		uxth	r3, r3
 1756 0b7c F879     		ldrb	r0, [r7, #7]	@ zero_extendqisi2
 1757 0b7e 0090     		str	r0, [sp]
 1758 0b80 F868     		ldr	r0, [r7, #12]
 1759 0b82 FFF7FEFF 		bl	USB_WritePacket
 1760 0b86 DFE0     		b	.L78
 1761              	.L70:
 615:../STM32F2xx_HAL_Driver/Src/stm32f2xx_ll_usb.c ****     }    
 616:../STM32F2xx_HAL_Driver/Src/stm32f2xx_ll_usb.c ****   }
 617:../STM32F2xx_HAL_Driver/Src/stm32f2xx_ll_usb.c ****   else /* OUT endpoint */
 618:../STM32F2xx_HAL_Driver/Src/stm32f2xx_ll_usb.c ****   {
 619:../STM32F2xx_HAL_Driver/Src/stm32f2xx_ll_usb.c ****     /* Program the transfer size and packet count as follows:
 620:../STM32F2xx_HAL_Driver/Src/stm32f2xx_ll_usb.c ****     * pktcnt = N
 621:../STM32F2xx_HAL_Driver/Src/stm32f2xx_ll_usb.c ****     * xfersize = N * maxpacket
 622:../STM32F2xx_HAL_Driver/Src/stm32f2xx_ll_usb.c ****     */  
 623:../STM32F2xx_HAL_Driver/Src/stm32f2xx_ll_usb.c ****     USBx_OUTEP(ep->num)->DOEPTSIZ &= ~(USB_OTG_DOEPTSIZ_XFRSIZ); 
 1762              		.loc 1 623 0
 1763 0b88 BB68     		ldr	r3, [r7, #8]
 1764 0b8a 1B78     		ldrb	r3, [r3]	@ zero_extendqisi2
 1765 0b8c 5A01     		lsls	r2, r3, #5
 1766 0b8e FB68     		ldr	r3, [r7, #12]
 1767 0b90 1344     		add	r3, r3, r2
 1768 0b92 03F53063 		add	r3, r3, #2816
 1769 0b96 1A46     		mov	r2, r3
 1770 0b98 BB68     		ldr	r3, [r7, #8]
 1771 0b9a 1B78     		ldrb	r3, [r3]	@ zero_extendqisi2
 1772 0b9c 5901     		lsls	r1, r3, #5
 1773 0b9e FB68     		ldr	r3, [r7, #12]
 1774 0ba0 0B44     		add	r3, r3, r1
 1775 0ba2 03F53063 		add	r3, r3, #2816
 1776 0ba6 1B69     		ldr	r3, [r3, #16]
 1777 0ba8 DB0C     		lsrs	r3, r3, #19
 1778 0baa DB04     		lsls	r3, r3, #19
 1779 0bac 1361     		str	r3, [r2, #16]
 624:../STM32F2xx_HAL_Driver/Src/stm32f2xx_ll_usb.c ****     USBx_OUTEP(ep->num)->DOEPTSIZ &= ~(USB_OTG_DOEPTSIZ_PKTCNT); 
 1780              		.loc 1 624 0
 1781 0bae BB68     		ldr	r3, [r7, #8]
 1782 0bb0 1B78     		ldrb	r3, [r3]	@ zero_extendqisi2
 1783 0bb2 5A01     		lsls	r2, r3, #5
 1784 0bb4 FB68     		ldr	r3, [r7, #12]
 1785 0bb6 1344     		add	r3, r3, r2
 1786 0bb8 03F53063 		add	r3, r3, #2816
 1787 0bbc 1A46     		mov	r2, r3
 1788 0bbe BB68     		ldr	r3, [r7, #8]
 1789 0bc0 1B78     		ldrb	r3, [r3]	@ zero_extendqisi2
 1790 0bc2 5901     		lsls	r1, r3, #5
 1791 0bc4 FB68     		ldr	r3, [r7, #12]
 1792 0bc6 0B44     		add	r3, r3, r1
 1793 0bc8 03F53063 		add	r3, r3, #2816
 1794 0bcc 1B69     		ldr	r3, [r3, #16]
 1795 0bce 23F0FF53 		bic	r3, r3, #534773760
 1796 0bd2 23F4C013 		bic	r3, r3, #1572864
 1797 0bd6 1361     		str	r3, [r2, #16]
 625:../STM32F2xx_HAL_Driver/Src/stm32f2xx_ll_usb.c ****       
 626:../STM32F2xx_HAL_Driver/Src/stm32f2xx_ll_usb.c ****     if (ep->xfer_len == 0)
 1798              		.loc 1 626 0
 1799 0bd8 BB68     		ldr	r3, [r7, #8]
 1800 0bda 5B69     		ldr	r3, [r3, #20]
 1801 0bdc 002B     		cmp	r3, #0
 1802 0bde 27D1     		bne	.L79
 627:../STM32F2xx_HAL_Driver/Src/stm32f2xx_ll_usb.c ****     {
 628:../STM32F2xx_HAL_Driver/Src/stm32f2xx_ll_usb.c ****       USBx_OUTEP(ep->num)->DOEPTSIZ |= (USB_OTG_DOEPTSIZ_XFRSIZ & ep->maxpacket);
 1803              		.loc 1 628 0
 1804 0be0 BB68     		ldr	r3, [r7, #8]
 1805 0be2 1B78     		ldrb	r3, [r3]	@ zero_extendqisi2
 1806 0be4 5A01     		lsls	r2, r3, #5
 1807 0be6 FB68     		ldr	r3, [r7, #12]
 1808 0be8 1344     		add	r3, r3, r2
 1809 0bea 03F53063 		add	r3, r3, #2816
 1810 0bee BA68     		ldr	r2, [r7, #8]
 1811 0bf0 1278     		ldrb	r2, [r2]	@ zero_extendqisi2
 1812 0bf2 5101     		lsls	r1, r2, #5
 1813 0bf4 FA68     		ldr	r2, [r7, #12]
 1814 0bf6 0A44     		add	r2, r2, r1
 1815 0bf8 02F53062 		add	r2, r2, #2816
 1816 0bfc 1169     		ldr	r1, [r2, #16]
 1817 0bfe BA68     		ldr	r2, [r7, #8]
 1818 0c00 9268     		ldr	r2, [r2, #8]
 1819 0c02 C2F31202 		ubfx	r2, r2, #0, #19
 1820 0c06 0A43     		orrs	r2, r2, r1
 1821 0c08 1A61     		str	r2, [r3, #16]
 629:../STM32F2xx_HAL_Driver/Src/stm32f2xx_ll_usb.c ****       USBx_OUTEP(ep->num)->DOEPTSIZ |= (USB_OTG_DOEPTSIZ_PKTCNT & (1 << 19)) ;      
 1822              		.loc 1 629 0
 1823 0c0a BB68     		ldr	r3, [r7, #8]
 1824 0c0c 1B78     		ldrb	r3, [r3]	@ zero_extendqisi2
 1825 0c0e 5A01     		lsls	r2, r3, #5
 1826 0c10 FB68     		ldr	r3, [r7, #12]
 1827 0c12 1344     		add	r3, r3, r2
 1828 0c14 03F53063 		add	r3, r3, #2816
 1829 0c18 BA68     		ldr	r2, [r7, #8]
 1830 0c1a 1278     		ldrb	r2, [r2]	@ zero_extendqisi2
 1831 0c1c 5101     		lsls	r1, r2, #5
 1832 0c1e FA68     		ldr	r2, [r7, #12]
 1833 0c20 0A44     		add	r2, r2, r1
 1834 0c22 02F53062 		add	r2, r2, #2816
 1835 0c26 1269     		ldr	r2, [r2, #16]
 1836 0c28 42F40022 		orr	r2, r2, #524288
 1837 0c2c 1A61     		str	r2, [r3, #16]
 1838 0c2e 3BE0     		b	.L80
 1839              	.L79:
 630:../STM32F2xx_HAL_Driver/Src/stm32f2xx_ll_usb.c ****     }
 631:../STM32F2xx_HAL_Driver/Src/stm32f2xx_ll_usb.c ****     else
 632:../STM32F2xx_HAL_Driver/Src/stm32f2xx_ll_usb.c ****     {
 633:../STM32F2xx_HAL_Driver/Src/stm32f2xx_ll_usb.c ****       pktcnt = (ep->xfer_len + ep->maxpacket -1)/ ep->maxpacket; 
 1840              		.loc 1 633 0
 1841 0c30 BB68     		ldr	r3, [r7, #8]
 1842 0c32 5A69     		ldr	r2, [r3, #20]
 1843 0c34 BB68     		ldr	r3, [r7, #8]
 1844 0c36 9B68     		ldr	r3, [r3, #8]
 1845 0c38 1344     		add	r3, r3, r2
 1846 0c3a 5A1E     		subs	r2, r3, #1
 1847 0c3c BB68     		ldr	r3, [r7, #8]
 1848 0c3e 9B68     		ldr	r3, [r3, #8]
 1849 0c40 B2FBF3F3 		udiv	r3, r2, r3
 1850 0c44 FB82     		strh	r3, [r7, #22]	@ movhi
 634:../STM32F2xx_HAL_Driver/Src/stm32f2xx_ll_usb.c ****       USBx_OUTEP(ep->num)->DOEPTSIZ |= (USB_OTG_DOEPTSIZ_PKTCNT & (pktcnt << 19)); ;
 1851              		.loc 1 634 0
 1852 0c46 BB68     		ldr	r3, [r7, #8]
 1853 0c48 1B78     		ldrb	r3, [r3]	@ zero_extendqisi2
 1854 0c4a 5A01     		lsls	r2, r3, #5
 1855 0c4c FB68     		ldr	r3, [r7, #12]
 1856 0c4e 1344     		add	r3, r3, r2
 1857 0c50 03F53063 		add	r3, r3, #2816
 1858 0c54 1A46     		mov	r2, r3
 1859 0c56 BB68     		ldr	r3, [r7, #8]
 1860 0c58 1B78     		ldrb	r3, [r3]	@ zero_extendqisi2
 1861 0c5a 5901     		lsls	r1, r3, #5
 1862 0c5c FB68     		ldr	r3, [r7, #12]
 1863 0c5e 0B44     		add	r3, r3, r1
 1864 0c60 03F53063 		add	r3, r3, #2816
 1865 0c64 1969     		ldr	r1, [r3, #16]
 1866 0c66 FB8A     		ldrh	r3, [r7, #22]
 1867 0c68 DB04     		lsls	r3, r3, #19
 1868 0c6a 1846     		mov	r0, r3
 1869 0c6c 0023     		movs	r3, #0
 1870 0c6e C1F6F873 		movt	r3, 8184
 1871 0c72 0340     		ands	r3, r3, r0
 1872 0c74 0B43     		orrs	r3, r3, r1
 1873 0c76 1361     		str	r3, [r2, #16]
 635:../STM32F2xx_HAL_Driver/Src/stm32f2xx_ll_usb.c ****       USBx_OUTEP(ep->num)->DOEPTSIZ |= (USB_OTG_DOEPTSIZ_XFRSIZ & (ep->maxpacket * pktcnt)); 
 1874              		.loc 1 635 0
 1875 0c78 BB68     		ldr	r3, [r7, #8]
 1876 0c7a 1B78     		ldrb	r3, [r3]	@ zero_extendqisi2
 1877 0c7c 5A01     		lsls	r2, r3, #5
 1878 0c7e FB68     		ldr	r3, [r7, #12]
 1879 0c80 1344     		add	r3, r3, r2
 1880 0c82 03F53063 		add	r3, r3, #2816
 1881 0c86 BA68     		ldr	r2, [r7, #8]
 1882 0c88 1278     		ldrb	r2, [r2]	@ zero_extendqisi2
 1883 0c8a 5101     		lsls	r1, r2, #5
 1884 0c8c FA68     		ldr	r2, [r7, #12]
 1885 0c8e 0A44     		add	r2, r2, r1
 1886 0c90 02F53062 		add	r2, r2, #2816
 1887 0c94 1169     		ldr	r1, [r2, #16]
 1888 0c96 BA68     		ldr	r2, [r7, #8]
 1889 0c98 9268     		ldr	r2, [r2, #8]
 1890 0c9a F88A     		ldrh	r0, [r7, #22]
 1891 0c9c 00FB02F2 		mul	r2, r0, r2
 1892 0ca0 C2F31202 		ubfx	r2, r2, #0, #19
 1893 0ca4 0A43     		orrs	r2, r2, r1
 1894 0ca6 1A61     		str	r2, [r3, #16]
 1895              	.L80:
 636:../STM32F2xx_HAL_Driver/Src/stm32f2xx_ll_usb.c ****     }
 637:../STM32F2xx_HAL_Driver/Src/stm32f2xx_ll_usb.c **** 
 638:../STM32F2xx_HAL_Driver/Src/stm32f2xx_ll_usb.c ****     if (dma == 1)
 1896              		.loc 1 638 0
 1897 0ca8 FB79     		ldrb	r3, [r7, #7]	@ zero_extendqisi2
 1898 0caa 012B     		cmp	r3, #1
 1899 0cac 09D1     		bne	.L81
 639:../STM32F2xx_HAL_Driver/Src/stm32f2xx_ll_usb.c ****     {
 640:../STM32F2xx_HAL_Driver/Src/stm32f2xx_ll_usb.c ****       USBx_OUTEP(ep->num)->DOEPDMA = (uint32_t)ep->xfer_buff;
 1900              		.loc 1 640 0
 1901 0cae BB68     		ldr	r3, [r7, #8]
 1902 0cb0 1B78     		ldrb	r3, [r3]	@ zero_extendqisi2
 1903 0cb2 5A01     		lsls	r2, r3, #5
 1904 0cb4 FB68     		ldr	r3, [r7, #12]
 1905 0cb6 1344     		add	r3, r3, r2
 1906 0cb8 03F53063 		add	r3, r3, #2816
 1907 0cbc BA68     		ldr	r2, [r7, #8]
 1908 0cbe D268     		ldr	r2, [r2, #12]
 1909 0cc0 5A61     		str	r2, [r3, #20]
 1910              	.L81:
 641:../STM32F2xx_HAL_Driver/Src/stm32f2xx_ll_usb.c ****     }
 642:../STM32F2xx_HAL_Driver/Src/stm32f2xx_ll_usb.c ****     
 643:../STM32F2xx_HAL_Driver/Src/stm32f2xx_ll_usb.c ****     if (ep->type == EP_TYPE_ISOC)
 1911              		.loc 1 643 0
 1912 0cc2 BB68     		ldr	r3, [r7, #8]
 1913 0cc4 DB78     		ldrb	r3, [r3, #3]	@ zero_extendqisi2
 1914 0cc6 012B     		cmp	r3, #1
 1915 0cc8 2CD1     		bne	.L82
 644:../STM32F2xx_HAL_Driver/Src/stm32f2xx_ll_usb.c ****     {
 645:../STM32F2xx_HAL_Driver/Src/stm32f2xx_ll_usb.c ****       if ((USBx_DEVICE->DSTS & ( 1 << 8 )) == 0)
 1916              		.loc 1 645 0
 1917 0cca FB68     		ldr	r3, [r7, #12]
 1918 0ccc 03F50063 		add	r3, r3, #2048
 1919 0cd0 9B68     		ldr	r3, [r3, #8]
 1920 0cd2 03F48073 		and	r3, r3, #256
 1921 0cd6 002B     		cmp	r3, #0
 1922 0cd8 12D1     		bne	.L83
 646:../STM32F2xx_HAL_Driver/Src/stm32f2xx_ll_usb.c ****       {
 647:../STM32F2xx_HAL_Driver/Src/stm32f2xx_ll_usb.c ****         USBx_OUTEP(ep->num)->DOEPCTL |= USB_OTG_DOEPCTL_SODDFRM;
 1923              		.loc 1 647 0
 1924 0cda BB68     		ldr	r3, [r7, #8]
 1925 0cdc 1B78     		ldrb	r3, [r3]	@ zero_extendqisi2
 1926 0cde 5A01     		lsls	r2, r3, #5
 1927 0ce0 FB68     		ldr	r3, [r7, #12]
 1928 0ce2 1344     		add	r3, r3, r2
 1929 0ce4 03F53063 		add	r3, r3, #2816
 1930 0ce8 BA68     		ldr	r2, [r7, #8]
 1931 0cea 1278     		ldrb	r2, [r2]	@ zero_extendqisi2
 1932 0cec 5101     		lsls	r1, r2, #5
 1933 0cee FA68     		ldr	r2, [r7, #12]
 1934 0cf0 0A44     		add	r2, r2, r1
 1935 0cf2 02F53062 		add	r2, r2, #2816
 1936 0cf6 1268     		ldr	r2, [r2]
 1937 0cf8 42F00052 		orr	r2, r2, #536870912
 1938 0cfc 1A60     		str	r2, [r3]
 1939 0cfe 11E0     		b	.L82
 1940              	.L83:
 648:../STM32F2xx_HAL_Driver/Src/stm32f2xx_ll_usb.c ****       }
 649:../STM32F2xx_HAL_Driver/Src/stm32f2xx_ll_usb.c ****       else
 650:../STM32F2xx_HAL_Driver/Src/stm32f2xx_ll_usb.c ****       {
 651:../STM32F2xx_HAL_Driver/Src/stm32f2xx_ll_usb.c ****         USBx_OUTEP(ep->num)->DOEPCTL |= USB_OTG_DOEPCTL_SD0PID_SEVNFRM;
 1941              		.loc 1 651 0
 1942 0d00 BB68     		ldr	r3, [r7, #8]
 1943 0d02 1B78     		ldrb	r3, [r3]	@ zero_extendqisi2
 1944 0d04 5A01     		lsls	r2, r3, #5
 1945 0d06 FB68     		ldr	r3, [r7, #12]
 1946 0d08 1344     		add	r3, r3, r2
 1947 0d0a 03F53063 		add	r3, r3, #2816
 1948 0d0e BA68     		ldr	r2, [r7, #8]
 1949 0d10 1278     		ldrb	r2, [r2]	@ zero_extendqisi2
 1950 0d12 5101     		lsls	r1, r2, #5
 1951 0d14 FA68     		ldr	r2, [r7, #12]
 1952 0d16 0A44     		add	r2, r2, r1
 1953 0d18 02F53062 		add	r2, r2, #2816
 1954 0d1c 1268     		ldr	r2, [r2]
 1955 0d1e 42F08052 		orr	r2, r2, #268435456
 1956 0d22 1A60     		str	r2, [r3]
 1957              	.L82:
 652:../STM32F2xx_HAL_Driver/Src/stm32f2xx_ll_usb.c ****       }
 653:../STM32F2xx_HAL_Driver/Src/stm32f2xx_ll_usb.c ****     }
 654:../STM32F2xx_HAL_Driver/Src/stm32f2xx_ll_usb.c ****     /* EP enable */
 655:../STM32F2xx_HAL_Driver/Src/stm32f2xx_ll_usb.c ****     USBx_OUTEP(ep->num)->DOEPCTL |= (USB_OTG_DOEPCTL_CNAK | USB_OTG_DOEPCTL_EPENA);
 1958              		.loc 1 655 0
 1959 0d24 BB68     		ldr	r3, [r7, #8]
 1960 0d26 1B78     		ldrb	r3, [r3]	@ zero_extendqisi2
 1961 0d28 5A01     		lsls	r2, r3, #5
 1962 0d2a FB68     		ldr	r3, [r7, #12]
 1963 0d2c 1344     		add	r3, r3, r2
 1964 0d2e 03F53063 		add	r3, r3, #2816
 1965 0d32 BA68     		ldr	r2, [r7, #8]
 1966 0d34 1278     		ldrb	r2, [r2]	@ zero_extendqisi2
 1967 0d36 5101     		lsls	r1, r2, #5
 1968 0d38 FA68     		ldr	r2, [r7, #12]
 1969 0d3a 0A44     		add	r2, r2, r1
 1970 0d3c 02F53062 		add	r2, r2, #2816
 1971 0d40 1268     		ldr	r2, [r2]
 1972 0d42 42F00442 		orr	r2, r2, #-2080374784
 1973 0d46 1A60     		str	r2, [r3]
 1974              	.L78:
 656:../STM32F2xx_HAL_Driver/Src/stm32f2xx_ll_usb.c ****   }
 657:../STM32F2xx_HAL_Driver/Src/stm32f2xx_ll_usb.c ****   return HAL_OK;
 1975              		.loc 1 657 0
 1976 0d48 0023     		movs	r3, #0
 658:../STM32F2xx_HAL_Driver/Src/stm32f2xx_ll_usb.c **** }
 1977              		.loc 1 658 0
 1978 0d4a 1846     		mov	r0, r3
 1979 0d4c 1837     		adds	r7, r7, #24
 1980 0d4e BD46     		mov	sp, r7
 1981              		@ sp needed
 1982 0d50 80BD     		pop	{r7, pc}
 1983              		.cfi_endproc
 1984              	.LFE68:
 1986 0d52 00BF     		.align	2
 1987              		.global	USB_EP0StartXfer
 1988              		.thumb
 1989              		.thumb_func
 1991              	USB_EP0StartXfer:
 1992              	.LFB69:
 659:../STM32F2xx_HAL_Driver/Src/stm32f2xx_ll_usb.c **** 
 660:../STM32F2xx_HAL_Driver/Src/stm32f2xx_ll_usb.c **** /**
 661:../STM32F2xx_HAL_Driver/Src/stm32f2xx_ll_usb.c ****   * @brief  USB_EP0StartXfer : setup and starts a transfer over the EP  0
 662:../STM32F2xx_HAL_Driver/Src/stm32f2xx_ll_usb.c ****   * @param  USBx : Selected device
 663:../STM32F2xx_HAL_Driver/Src/stm32f2xx_ll_usb.c ****   * @param  ep: pointer to endpoint structure
 664:../STM32F2xx_HAL_Driver/Src/stm32f2xx_ll_usb.c ****   * @param  dma: USB dma enabled or disabled 
 665:../STM32F2xx_HAL_Driver/Src/stm32f2xx_ll_usb.c ****   *          This parameter can be one of the these values:
 666:../STM32F2xx_HAL_Driver/Src/stm32f2xx_ll_usb.c ****   *           0 : DMA feature not used 
 667:../STM32F2xx_HAL_Driver/Src/stm32f2xx_ll_usb.c ****   *           1 : DMA feature used  
 668:../STM32F2xx_HAL_Driver/Src/stm32f2xx_ll_usb.c ****   * @retval HAL status
 669:../STM32F2xx_HAL_Driver/Src/stm32f2xx_ll_usb.c ****   */
 670:../STM32F2xx_HAL_Driver/Src/stm32f2xx_ll_usb.c **** HAL_StatusTypeDef USB_EP0StartXfer(USB_OTG_GlobalTypeDef *USBx , USB_OTG_EPTypeDef *ep, uint8_t dma
 671:../STM32F2xx_HAL_Driver/Src/stm32f2xx_ll_usb.c **** {
 1993              		.loc 1 671 0
 1994              		.cfi_startproc
 1995              		@ args = 0, pretend = 0, frame = 16
 1996              		@ frame_needed = 1, uses_anonymous_args = 0
 1997              		@ link register save eliminated.
 1998 0d54 80B4     		push	{r7}
 1999              		.cfi_def_cfa_offset 4
 2000              		.cfi_offset 7, -4
 2001 0d56 85B0     		sub	sp, sp, #20
 2002              		.cfi_def_cfa_offset 24
 2003 0d58 00AF     		add	r7, sp, #0
 2004              		.cfi_def_cfa_register 7
 2005 0d5a F860     		str	r0, [r7, #12]
 2006 0d5c B960     		str	r1, [r7, #8]
 2007 0d5e 1346     		mov	r3, r2
 2008 0d60 FB71     		strb	r3, [r7, #7]
 672:../STM32F2xx_HAL_Driver/Src/stm32f2xx_ll_usb.c ****   /* IN endpoint */
 673:../STM32F2xx_HAL_Driver/Src/stm32f2xx_ll_usb.c ****   if (ep->is_in == 1)
 2009              		.loc 1 673 0
 2010 0d62 BB68     		ldr	r3, [r7, #8]
 2011 0d64 5B78     		ldrb	r3, [r3, #1]	@ zero_extendqisi2
 2012 0d66 012B     		cmp	r3, #1
 2013 0d68 40F0CB80 		bne	.L86
 674:../STM32F2xx_HAL_Driver/Src/stm32f2xx_ll_usb.c ****   {
 675:../STM32F2xx_HAL_Driver/Src/stm32f2xx_ll_usb.c ****     /* Zero Length Packet? */
 676:../STM32F2xx_HAL_Driver/Src/stm32f2xx_ll_usb.c ****     if (ep->xfer_len == 0)
 2014              		.loc 1 676 0
 2015 0d6c BB68     		ldr	r3, [r7, #8]
 2016 0d6e 5B69     		ldr	r3, [r3, #20]
 2017 0d70 002B     		cmp	r3, #0
 2018 0d72 3AD1     		bne	.L87
 677:../STM32F2xx_HAL_Driver/Src/stm32f2xx_ll_usb.c ****     {
 678:../STM32F2xx_HAL_Driver/Src/stm32f2xx_ll_usb.c ****       USBx_INEP(ep->num)->DIEPTSIZ &= ~(USB_OTG_DIEPTSIZ_PKTCNT); 
 2019              		.loc 1 678 0
 2020 0d74 BB68     		ldr	r3, [r7, #8]
 2021 0d76 1B78     		ldrb	r3, [r3]	@ zero_extendqisi2
 2022 0d78 5A01     		lsls	r2, r3, #5
 2023 0d7a FB68     		ldr	r3, [r7, #12]
 2024 0d7c 1344     		add	r3, r3, r2
 2025 0d7e 03F51063 		add	r3, r3, #2304
 2026 0d82 1A46     		mov	r2, r3
 2027 0d84 BB68     		ldr	r3, [r7, #8]
 2028 0d86 1B78     		ldrb	r3, [r3]	@ zero_extendqisi2
 2029 0d88 5901     		lsls	r1, r3, #5
 2030 0d8a FB68     		ldr	r3, [r7, #12]
 2031 0d8c 0B44     		add	r3, r3, r1
 2032 0d8e 03F51063 		add	r3, r3, #2304
 2033 0d92 1B69     		ldr	r3, [r3, #16]
 2034 0d94 23F0FF53 		bic	r3, r3, #534773760
 2035 0d98 23F4C013 		bic	r3, r3, #1572864
 2036 0d9c 1361     		str	r3, [r2, #16]
 679:../STM32F2xx_HAL_Driver/Src/stm32f2xx_ll_usb.c ****       USBx_INEP(ep->num)->DIEPTSIZ |= (USB_OTG_DIEPTSIZ_PKTCNT & (1 << 19)) ;
 2037              		.loc 1 679 0
 2038 0d9e BB68     		ldr	r3, [r7, #8]
 2039 0da0 1B78     		ldrb	r3, [r3]	@ zero_extendqisi2
 2040 0da2 5A01     		lsls	r2, r3, #5
 2041 0da4 FB68     		ldr	r3, [r7, #12]
 2042 0da6 1344     		add	r3, r3, r2
 2043 0da8 03F51063 		add	r3, r3, #2304
 2044 0dac BA68     		ldr	r2, [r7, #8]
 2045 0dae 1278     		ldrb	r2, [r2]	@ zero_extendqisi2
 2046 0db0 5101     		lsls	r1, r2, #5
 2047 0db2 FA68     		ldr	r2, [r7, #12]
 2048 0db4 0A44     		add	r2, r2, r1
 2049 0db6 02F51062 		add	r2, r2, #2304
 2050 0dba 1269     		ldr	r2, [r2, #16]
 2051 0dbc 42F40022 		orr	r2, r2, #524288
 2052 0dc0 1A61     		str	r2, [r3, #16]
 680:../STM32F2xx_HAL_Driver/Src/stm32f2xx_ll_usb.c ****       USBx_INEP(ep->num)->DIEPTSIZ &= ~(USB_OTG_DIEPTSIZ_XFRSIZ); 
 2053              		.loc 1 680 0
 2054 0dc2 BB68     		ldr	r3, [r7, #8]
 2055 0dc4 1B78     		ldrb	r3, [r3]	@ zero_extendqisi2
 2056 0dc6 5A01     		lsls	r2, r3, #5
 2057 0dc8 FB68     		ldr	r3, [r7, #12]
 2058 0dca 1344     		add	r3, r3, r2
 2059 0dcc 03F51063 		add	r3, r3, #2304
 2060 0dd0 1A46     		mov	r2, r3
 2061 0dd2 BB68     		ldr	r3, [r7, #8]
 2062 0dd4 1B78     		ldrb	r3, [r3]	@ zero_extendqisi2
 2063 0dd6 5901     		lsls	r1, r3, #5
 2064 0dd8 FB68     		ldr	r3, [r7, #12]
 2065 0dda 0B44     		add	r3, r3, r1
 2066 0ddc 03F51063 		add	r3, r3, #2304
 2067 0de0 1B69     		ldr	r3, [r3, #16]
 2068 0de2 DB0C     		lsrs	r3, r3, #19
 2069 0de4 DB04     		lsls	r3, r3, #19
 2070 0de6 1361     		str	r3, [r2, #16]
 2071 0de8 58E0     		b	.L88
 2072              	.L87:
 681:../STM32F2xx_HAL_Driver/Src/stm32f2xx_ll_usb.c ****     }
 682:../STM32F2xx_HAL_Driver/Src/stm32f2xx_ll_usb.c ****     else
 683:../STM32F2xx_HAL_Driver/Src/stm32f2xx_ll_usb.c ****     {
 684:../STM32F2xx_HAL_Driver/Src/stm32f2xx_ll_usb.c ****       /* Program the transfer size and packet count
 685:../STM32F2xx_HAL_Driver/Src/stm32f2xx_ll_usb.c ****       * as follows: xfersize = N * maxpacket +
 686:../STM32F2xx_HAL_Driver/Src/stm32f2xx_ll_usb.c ****       * short_packet pktcnt = N + (short_packet
 687:../STM32F2xx_HAL_Driver/Src/stm32f2xx_ll_usb.c ****       * exist ? 1 : 0)
 688:../STM32F2xx_HAL_Driver/Src/stm32f2xx_ll_usb.c ****       */
 689:../STM32F2xx_HAL_Driver/Src/stm32f2xx_ll_usb.c ****       USBx_INEP(ep->num)->DIEPTSIZ &= ~(USB_OTG_DIEPTSIZ_XFRSIZ);
 2073              		.loc 1 689 0
 2074 0dea BB68     		ldr	r3, [r7, #8]
 2075 0dec 1B78     		ldrb	r3, [r3]	@ zero_extendqisi2
 2076 0dee 5A01     		lsls	r2, r3, #5
 2077 0df0 FB68     		ldr	r3, [r7, #12]
 2078 0df2 1344     		add	r3, r3, r2
 2079 0df4 03F51063 		add	r3, r3, #2304
 2080 0df8 1A46     		mov	r2, r3
 2081 0dfa BB68     		ldr	r3, [r7, #8]
 2082 0dfc 1B78     		ldrb	r3, [r3]	@ zero_extendqisi2
 2083 0dfe 5901     		lsls	r1, r3, #5
 2084 0e00 FB68     		ldr	r3, [r7, #12]
 2085 0e02 0B44     		add	r3, r3, r1
 2086 0e04 03F51063 		add	r3, r3, #2304
 2087 0e08 1B69     		ldr	r3, [r3, #16]
 2088 0e0a DB0C     		lsrs	r3, r3, #19
 2089 0e0c DB04     		lsls	r3, r3, #19
 2090 0e0e 1361     		str	r3, [r2, #16]
 690:../STM32F2xx_HAL_Driver/Src/stm32f2xx_ll_usb.c ****       USBx_INEP(ep->num)->DIEPTSIZ &= ~(USB_OTG_DIEPTSIZ_PKTCNT); 
 2091              		.loc 1 690 0
 2092 0e10 BB68     		ldr	r3, [r7, #8]
 2093 0e12 1B78     		ldrb	r3, [r3]	@ zero_extendqisi2
 2094 0e14 5A01     		lsls	r2, r3, #5
 2095 0e16 FB68     		ldr	r3, [r7, #12]
 2096 0e18 1344     		add	r3, r3, r2
 2097 0e1a 03F51063 		add	r3, r3, #2304
 2098 0e1e 1A46     		mov	r2, r3
 2099 0e20 BB68     		ldr	r3, [r7, #8]
 2100 0e22 1B78     		ldrb	r3, [r3]	@ zero_extendqisi2
 2101 0e24 5901     		lsls	r1, r3, #5
 2102 0e26 FB68     		ldr	r3, [r7, #12]
 2103 0e28 0B44     		add	r3, r3, r1
 2104 0e2a 03F51063 		add	r3, r3, #2304
 2105 0e2e 1B69     		ldr	r3, [r3, #16]
 2106 0e30 23F0FF53 		bic	r3, r3, #534773760
 2107 0e34 23F4C013 		bic	r3, r3, #1572864
 2108 0e38 1361     		str	r3, [r2, #16]
 691:../STM32F2xx_HAL_Driver/Src/stm32f2xx_ll_usb.c ****       
 692:../STM32F2xx_HAL_Driver/Src/stm32f2xx_ll_usb.c ****       if(ep->xfer_len > ep->maxpacket)
 2109              		.loc 1 692 0
 2110 0e3a BB68     		ldr	r3, [r7, #8]
 2111 0e3c 5A69     		ldr	r2, [r3, #20]
 2112 0e3e BB68     		ldr	r3, [r7, #8]
 2113 0e40 9B68     		ldr	r3, [r3, #8]
 2114 0e42 9A42     		cmp	r2, r3
 2115 0e44 03D9     		bls	.L89
 693:../STM32F2xx_HAL_Driver/Src/stm32f2xx_ll_usb.c ****       {
 694:../STM32F2xx_HAL_Driver/Src/stm32f2xx_ll_usb.c ****         ep->xfer_len = ep->maxpacket;
 2116              		.loc 1 694 0
 2117 0e46 BB68     		ldr	r3, [r7, #8]
 2118 0e48 9A68     		ldr	r2, [r3, #8]
 2119 0e4a BB68     		ldr	r3, [r7, #8]
 2120 0e4c 5A61     		str	r2, [r3, #20]
 2121              	.L89:
 695:../STM32F2xx_HAL_Driver/Src/stm32f2xx_ll_usb.c ****       }
 696:../STM32F2xx_HAL_Driver/Src/stm32f2xx_ll_usb.c ****       USBx_INEP(ep->num)->DIEPTSIZ |= (USB_OTG_DIEPTSIZ_PKTCNT & (1 << 19)) ;
 2122              		.loc 1 696 0
 2123 0e4e BB68     		ldr	r3, [r7, #8]
 2124 0e50 1B78     		ldrb	r3, [r3]	@ zero_extendqisi2
 2125 0e52 5A01     		lsls	r2, r3, #5
 2126 0e54 FB68     		ldr	r3, [r7, #12]
 2127 0e56 1344     		add	r3, r3, r2
 2128 0e58 03F51063 		add	r3, r3, #2304
 2129 0e5c BA68     		ldr	r2, [r7, #8]
 2130 0e5e 1278     		ldrb	r2, [r2]	@ zero_extendqisi2
 2131 0e60 5101     		lsls	r1, r2, #5
 2132 0e62 FA68     		ldr	r2, [r7, #12]
 2133 0e64 0A44     		add	r2, r2, r1
 2134 0e66 02F51062 		add	r2, r2, #2304
 2135 0e6a 1269     		ldr	r2, [r2, #16]
 2136 0e6c 42F40022 		orr	r2, r2, #524288
 2137 0e70 1A61     		str	r2, [r3, #16]
 697:../STM32F2xx_HAL_Driver/Src/stm32f2xx_ll_usb.c ****       USBx_INEP(ep->num)->DIEPTSIZ |= (USB_OTG_DIEPTSIZ_XFRSIZ & ep->xfer_len); 
 2138              		.loc 1 697 0
 2139 0e72 BB68     		ldr	r3, [r7, #8]
 2140 0e74 1B78     		ldrb	r3, [r3]	@ zero_extendqisi2
 2141 0e76 5A01     		lsls	r2, r3, #5
 2142 0e78 FB68     		ldr	r3, [r7, #12]
 2143 0e7a 1344     		add	r3, r3, r2
 2144 0e7c 03F51063 		add	r3, r3, #2304
 2145 0e80 BA68     		ldr	r2, [r7, #8]
 2146 0e82 1278     		ldrb	r2, [r2]	@ zero_extendqisi2
 2147 0e84 5101     		lsls	r1, r2, #5
 2148 0e86 FA68     		ldr	r2, [r7, #12]
 2149 0e88 0A44     		add	r2, r2, r1
 2150 0e8a 02F51062 		add	r2, r2, #2304
 2151 0e8e 1169     		ldr	r1, [r2, #16]
 2152 0e90 BA68     		ldr	r2, [r7, #8]
 2153 0e92 5269     		ldr	r2, [r2, #20]
 2154 0e94 C2F31202 		ubfx	r2, r2, #0, #19
 2155 0e98 0A43     		orrs	r2, r2, r1
 2156 0e9a 1A61     		str	r2, [r3, #16]
 2157              	.L88:
 698:../STM32F2xx_HAL_Driver/Src/stm32f2xx_ll_usb.c ****     
 699:../STM32F2xx_HAL_Driver/Src/stm32f2xx_ll_usb.c ****     }
 700:../STM32F2xx_HAL_Driver/Src/stm32f2xx_ll_usb.c ****     
 701:../STM32F2xx_HAL_Driver/Src/stm32f2xx_ll_usb.c ****     if (dma == 1)
 2158              		.loc 1 701 0
 2159 0e9c FB79     		ldrb	r3, [r7, #7]	@ zero_extendqisi2
 2160 0e9e 012B     		cmp	r3, #1
 2161 0ea0 0AD1     		bne	.L90
 702:../STM32F2xx_HAL_Driver/Src/stm32f2xx_ll_usb.c ****     {
 703:../STM32F2xx_HAL_Driver/Src/stm32f2xx_ll_usb.c ****       USBx_INEP(ep->num)->DIEPDMA = (uint32_t)(ep->dma_addr);
 2162              		.loc 1 703 0
 2163 0ea2 BB68     		ldr	r3, [r7, #8]
 2164 0ea4 1B78     		ldrb	r3, [r3]	@ zero_extendqisi2
 2165 0ea6 5A01     		lsls	r2, r3, #5
 2166 0ea8 FB68     		ldr	r3, [r7, #12]
 2167 0eaa 1344     		add	r3, r3, r2
 2168 0eac 03F51063 		add	r3, r3, #2304
 2169 0eb0 BA68     		ldr	r2, [r7, #8]
 2170 0eb2 1269     		ldr	r2, [r2, #16]
 2171 0eb4 5A61     		str	r2, [r3, #20]
 2172 0eb6 11E0     		b	.L91
 2173              	.L90:
 704:../STM32F2xx_HAL_Driver/Src/stm32f2xx_ll_usb.c ****     }
 705:../STM32F2xx_HAL_Driver/Src/stm32f2xx_ll_usb.c ****     else
 706:../STM32F2xx_HAL_Driver/Src/stm32f2xx_ll_usb.c ****     {
 707:../STM32F2xx_HAL_Driver/Src/stm32f2xx_ll_usb.c ****       /* Enable the Tx FIFO Empty Interrupt for this EP */
 708:../STM32F2xx_HAL_Driver/Src/stm32f2xx_ll_usb.c ****       if (ep->xfer_len > 0)
 2174              		.loc 1 708 0
 2175 0eb8 BB68     		ldr	r3, [r7, #8]
 2176 0eba 5B69     		ldr	r3, [r3, #20]
 2177 0ebc 002B     		cmp	r3, #0
 2178 0ebe 0DD0     		beq	.L91
 709:../STM32F2xx_HAL_Driver/Src/stm32f2xx_ll_usb.c ****       {
 710:../STM32F2xx_HAL_Driver/Src/stm32f2xx_ll_usb.c ****         USBx_DEVICE->DIEPEMPMSK |= 1 << (ep->num);
 2179              		.loc 1 710 0
 2180 0ec0 FB68     		ldr	r3, [r7, #12]
 2181 0ec2 03F50063 		add	r3, r3, #2048
 2182 0ec6 FA68     		ldr	r2, [r7, #12]
 2183 0ec8 02F50062 		add	r2, r2, #2048
 2184 0ecc 516B     		ldr	r1, [r2, #52]
 2185 0ece BA68     		ldr	r2, [r7, #8]
 2186 0ed0 1278     		ldrb	r2, [r2]	@ zero_extendqisi2
 2187 0ed2 0120     		movs	r0, #1
 2188 0ed4 00FA02F2 		lsl	r2, r0, r2
 2189 0ed8 0A43     		orrs	r2, r2, r1
 2190 0eda 5A63     		str	r2, [r3, #52]
 2191              	.L91:
 711:../STM32F2xx_HAL_Driver/Src/stm32f2xx_ll_usb.c ****       }
 712:../STM32F2xx_HAL_Driver/Src/stm32f2xx_ll_usb.c ****     }
 713:../STM32F2xx_HAL_Driver/Src/stm32f2xx_ll_usb.c ****     
 714:../STM32F2xx_HAL_Driver/Src/stm32f2xx_ll_usb.c ****     /* EP enable, IN data in FIFO */
 715:../STM32F2xx_HAL_Driver/Src/stm32f2xx_ll_usb.c ****     USBx_INEP(ep->num)->DIEPCTL |= (USB_OTG_DIEPCTL_CNAK | USB_OTG_DIEPCTL_EPENA);   
 2192              		.loc 1 715 0 discriminator 1
 2193 0edc BB68     		ldr	r3, [r7, #8]
 2194 0ede 1B78     		ldrb	r3, [r3]	@ zero_extendqisi2
 2195 0ee0 5A01     		lsls	r2, r3, #5
 2196 0ee2 FB68     		ldr	r3, [r7, #12]
 2197 0ee4 1344     		add	r3, r3, r2
 2198 0ee6 03F51063 		add	r3, r3, #2304
 2199 0eea BA68     		ldr	r2, [r7, #8]
 2200 0eec 1278     		ldrb	r2, [r2]	@ zero_extendqisi2
 2201 0eee 5101     		lsls	r1, r2, #5
 2202 0ef0 FA68     		ldr	r2, [r7, #12]
 2203 0ef2 0A44     		add	r2, r2, r1
 2204 0ef4 02F51062 		add	r2, r2, #2304
 2205 0ef8 1268     		ldr	r2, [r2]
 2206 0efa 42F00442 		orr	r2, r2, #-2080374784
 2207 0efe 1A60     		str	r2, [r3]
 2208 0f00 75E0     		b	.L92
 2209              	.L86:
 716:../STM32F2xx_HAL_Driver/Src/stm32f2xx_ll_usb.c ****   }
 717:../STM32F2xx_HAL_Driver/Src/stm32f2xx_ll_usb.c ****   else /* OUT endpoint */
 718:../STM32F2xx_HAL_Driver/Src/stm32f2xx_ll_usb.c ****   {
 719:../STM32F2xx_HAL_Driver/Src/stm32f2xx_ll_usb.c ****     /* Program the transfer size and packet count as follows:
 720:../STM32F2xx_HAL_Driver/Src/stm32f2xx_ll_usb.c ****     * pktcnt = N
 721:../STM32F2xx_HAL_Driver/Src/stm32f2xx_ll_usb.c ****     * xfersize = N * maxpacket
 722:../STM32F2xx_HAL_Driver/Src/stm32f2xx_ll_usb.c ****     */
 723:../STM32F2xx_HAL_Driver/Src/stm32f2xx_ll_usb.c ****     USBx_OUTEP(ep->num)->DOEPTSIZ &= ~(USB_OTG_DOEPTSIZ_XFRSIZ); 
 2210              		.loc 1 723 0
 2211 0f02 BB68     		ldr	r3, [r7, #8]
 2212 0f04 1B78     		ldrb	r3, [r3]	@ zero_extendqisi2
 2213 0f06 5A01     		lsls	r2, r3, #5
 2214 0f08 FB68     		ldr	r3, [r7, #12]
 2215 0f0a 1344     		add	r3, r3, r2
 2216 0f0c 03F53063 		add	r3, r3, #2816
 2217 0f10 1A46     		mov	r2, r3
 2218 0f12 BB68     		ldr	r3, [r7, #8]
 2219 0f14 1B78     		ldrb	r3, [r3]	@ zero_extendqisi2
 2220 0f16 5901     		lsls	r1, r3, #5
 2221 0f18 FB68     		ldr	r3, [r7, #12]
 2222 0f1a 0B44     		add	r3, r3, r1
 2223 0f1c 03F53063 		add	r3, r3, #2816
 2224 0f20 1B69     		ldr	r3, [r3, #16]
 2225 0f22 DB0C     		lsrs	r3, r3, #19
 2226 0f24 DB04     		lsls	r3, r3, #19
 2227 0f26 1361     		str	r3, [r2, #16]
 724:../STM32F2xx_HAL_Driver/Src/stm32f2xx_ll_usb.c ****     USBx_OUTEP(ep->num)->DOEPTSIZ &= ~(USB_OTG_DOEPTSIZ_PKTCNT); 
 2228              		.loc 1 724 0
 2229 0f28 BB68     		ldr	r3, [r7, #8]
 2230 0f2a 1B78     		ldrb	r3, [r3]	@ zero_extendqisi2
 2231 0f2c 5A01     		lsls	r2, r3, #5
 2232 0f2e FB68     		ldr	r3, [r7, #12]
 2233 0f30 1344     		add	r3, r3, r2
 2234 0f32 03F53063 		add	r3, r3, #2816
 2235 0f36 1A46     		mov	r2, r3
 2236 0f38 BB68     		ldr	r3, [r7, #8]
 2237 0f3a 1B78     		ldrb	r3, [r3]	@ zero_extendqisi2
 2238 0f3c 5901     		lsls	r1, r3, #5
 2239 0f3e FB68     		ldr	r3, [r7, #12]
 2240 0f40 0B44     		add	r3, r3, r1
 2241 0f42 03F53063 		add	r3, r3, #2816
 2242 0f46 1B69     		ldr	r3, [r3, #16]
 2243 0f48 23F0FF53 		bic	r3, r3, #534773760
 2244 0f4c 23F4C013 		bic	r3, r3, #1572864
 2245 0f50 1361     		str	r3, [r2, #16]
 725:../STM32F2xx_HAL_Driver/Src/stm32f2xx_ll_usb.c ****       
 726:../STM32F2xx_HAL_Driver/Src/stm32f2xx_ll_usb.c ****     if (ep->xfer_len > 0)
 2246              		.loc 1 726 0
 2247 0f52 BB68     		ldr	r3, [r7, #8]
 2248 0f54 5B69     		ldr	r3, [r3, #20]
 2249 0f56 002B     		cmp	r3, #0
 2250 0f58 03D0     		beq	.L93
 727:../STM32F2xx_HAL_Driver/Src/stm32f2xx_ll_usb.c ****     {
 728:../STM32F2xx_HAL_Driver/Src/stm32f2xx_ll_usb.c ****       ep->xfer_len = ep->maxpacket;
 2251              		.loc 1 728 0
 2252 0f5a BB68     		ldr	r3, [r7, #8]
 2253 0f5c 9A68     		ldr	r2, [r3, #8]
 2254 0f5e BB68     		ldr	r3, [r7, #8]
 2255 0f60 5A61     		str	r2, [r3, #20]
 2256              	.L93:
 729:../STM32F2xx_HAL_Driver/Src/stm32f2xx_ll_usb.c ****     }
 730:../STM32F2xx_HAL_Driver/Src/stm32f2xx_ll_usb.c ****     
 731:../STM32F2xx_HAL_Driver/Src/stm32f2xx_ll_usb.c ****     USBx_OUTEP(ep->num)->DOEPTSIZ |= (USB_OTG_DOEPTSIZ_PKTCNT & (1 << 19));
 2257              		.loc 1 731 0
 2258 0f62 BB68     		ldr	r3, [r7, #8]
 2259 0f64 1B78     		ldrb	r3, [r3]	@ zero_extendqisi2
 2260 0f66 5A01     		lsls	r2, r3, #5
 2261 0f68 FB68     		ldr	r3, [r7, #12]
 2262 0f6a 1344     		add	r3, r3, r2
 2263 0f6c 03F53063 		add	r3, r3, #2816
 2264 0f70 BA68     		ldr	r2, [r7, #8]
 2265 0f72 1278     		ldrb	r2, [r2]	@ zero_extendqisi2
 2266 0f74 5101     		lsls	r1, r2, #5
 2267 0f76 FA68     		ldr	r2, [r7, #12]
 2268 0f78 0A44     		add	r2, r2, r1
 2269 0f7a 02F53062 		add	r2, r2, #2816
 2270 0f7e 1269     		ldr	r2, [r2, #16]
 2271 0f80 42F40022 		orr	r2, r2, #524288
 2272 0f84 1A61     		str	r2, [r3, #16]
 732:../STM32F2xx_HAL_Driver/Src/stm32f2xx_ll_usb.c ****     USBx_OUTEP(ep->num)->DOEPTSIZ |= (USB_OTG_DOEPTSIZ_XFRSIZ & (ep->maxpacket)); 
 2273              		.loc 1 732 0
 2274 0f86 BB68     		ldr	r3, [r7, #8]
 2275 0f88 1B78     		ldrb	r3, [r3]	@ zero_extendqisi2
 2276 0f8a 5A01     		lsls	r2, r3, #5
 2277 0f8c FB68     		ldr	r3, [r7, #12]
 2278 0f8e 1344     		add	r3, r3, r2
 2279 0f90 03F53063 		add	r3, r3, #2816
 2280 0f94 BA68     		ldr	r2, [r7, #8]
 2281 0f96 1278     		ldrb	r2, [r2]	@ zero_extendqisi2
 2282 0f98 5101     		lsls	r1, r2, #5
 2283 0f9a FA68     		ldr	r2, [r7, #12]
 2284 0f9c 0A44     		add	r2, r2, r1
 2285 0f9e 02F53062 		add	r2, r2, #2816
 2286 0fa2 1169     		ldr	r1, [r2, #16]
 2287 0fa4 BA68     		ldr	r2, [r7, #8]
 2288 0fa6 9268     		ldr	r2, [r2, #8]
 2289 0fa8 C2F31202 		ubfx	r2, r2, #0, #19
 2290 0fac 0A43     		orrs	r2, r2, r1
 2291 0fae 1A61     		str	r2, [r3, #16]
 733:../STM32F2xx_HAL_Driver/Src/stm32f2xx_ll_usb.c ****     
 734:../STM32F2xx_HAL_Driver/Src/stm32f2xx_ll_usb.c **** 
 735:../STM32F2xx_HAL_Driver/Src/stm32f2xx_ll_usb.c ****     if (dma == 1)
 2292              		.loc 1 735 0
 2293 0fb0 FB79     		ldrb	r3, [r7, #7]	@ zero_extendqisi2
 2294 0fb2 012B     		cmp	r3, #1
 2295 0fb4 09D1     		bne	.L94
 736:../STM32F2xx_HAL_Driver/Src/stm32f2xx_ll_usb.c ****     {
 737:../STM32F2xx_HAL_Driver/Src/stm32f2xx_ll_usb.c ****       USBx_OUTEP(ep->num)->DOEPDMA = (uint32_t)(ep->xfer_buff);
 2296              		.loc 1 737 0
 2297 0fb6 BB68     		ldr	r3, [r7, #8]
 2298 0fb8 1B78     		ldrb	r3, [r3]	@ zero_extendqisi2
 2299 0fba 5A01     		lsls	r2, r3, #5
 2300 0fbc FB68     		ldr	r3, [r7, #12]
 2301 0fbe 1344     		add	r3, r3, r2
 2302 0fc0 03F53063 		add	r3, r3, #2816
 2303 0fc4 BA68     		ldr	r2, [r7, #8]
 2304 0fc6 D268     		ldr	r2, [r2, #12]
 2305 0fc8 5A61     		str	r2, [r3, #20]
 2306              	.L94:
 738:../STM32F2xx_HAL_Driver/Src/stm32f2xx_ll_usb.c ****     }
 739:../STM32F2xx_HAL_Driver/Src/stm32f2xx_ll_usb.c ****     
 740:../STM32F2xx_HAL_Driver/Src/stm32f2xx_ll_usb.c ****     /* EP enable */
 741:../STM32F2xx_HAL_Driver/Src/stm32f2xx_ll_usb.c ****     USBx_OUTEP(ep->num)->DOEPCTL |= (USB_OTG_DOEPCTL_CNAK | USB_OTG_DOEPCTL_EPENA);    
 2307              		.loc 1 741 0
 2308 0fca BB68     		ldr	r3, [r7, #8]
 2309 0fcc 1B78     		ldrb	r3, [r3]	@ zero_extendqisi2
 2310 0fce 5A01     		lsls	r2, r3, #5
 2311 0fd0 FB68     		ldr	r3, [r7, #12]
 2312 0fd2 1344     		add	r3, r3, r2
 2313 0fd4 03F53063 		add	r3, r3, #2816
 2314 0fd8 BA68     		ldr	r2, [r7, #8]
 2315 0fda 1278     		ldrb	r2, [r2]	@ zero_extendqisi2
 2316 0fdc 5101     		lsls	r1, r2, #5
 2317 0fde FA68     		ldr	r2, [r7, #12]
 2318 0fe0 0A44     		add	r2, r2, r1
 2319 0fe2 02F53062 		add	r2, r2, #2816
 2320 0fe6 1268     		ldr	r2, [r2]
 2321 0fe8 42F00442 		orr	r2, r2, #-2080374784
 2322 0fec 1A60     		str	r2, [r3]
 2323              	.L92:
 742:../STM32F2xx_HAL_Driver/Src/stm32f2xx_ll_usb.c ****   }
 743:../STM32F2xx_HAL_Driver/Src/stm32f2xx_ll_usb.c ****   return HAL_OK;
 2324              		.loc 1 743 0
 2325 0fee 0023     		movs	r3, #0
 744:../STM32F2xx_HAL_Driver/Src/stm32f2xx_ll_usb.c **** }
 2326              		.loc 1 744 0
 2327 0ff0 1846     		mov	r0, r3
 2328 0ff2 1437     		adds	r7, r7, #20
 2329 0ff4 BD46     		mov	sp, r7
 2330              		@ sp needed
 2331 0ff6 5DF8047B 		ldr	r7, [sp], #4
 2332 0ffa 7047     		bx	lr
 2333              		.cfi_endproc
 2334              	.LFE69:
 2336              		.align	2
 2337              		.global	USB_WritePacket
 2338              		.thumb
 2339              		.thumb_func
 2341              	USB_WritePacket:
 2342              	.LFB70:
 745:../STM32F2xx_HAL_Driver/Src/stm32f2xx_ll_usb.c **** 
 746:../STM32F2xx_HAL_Driver/Src/stm32f2xx_ll_usb.c **** /**
 747:../STM32F2xx_HAL_Driver/Src/stm32f2xx_ll_usb.c ****   * @brief  USB_WritePacket : Writes a packet into the Tx FIFO associated 
 748:../STM32F2xx_HAL_Driver/Src/stm32f2xx_ll_usb.c ****   *         with the EP/channel
 749:../STM32F2xx_HAL_Driver/Src/stm32f2xx_ll_usb.c ****   * @param  USBx : Selected device           
 750:../STM32F2xx_HAL_Driver/Src/stm32f2xx_ll_usb.c ****   * @param  src :  pointer to source buffer
 751:../STM32F2xx_HAL_Driver/Src/stm32f2xx_ll_usb.c ****   * @param  ch_ep_num : endpoint or host channel number
 752:../STM32F2xx_HAL_Driver/Src/stm32f2xx_ll_usb.c ****   * @param  len : Number of bytes to write
 753:../STM32F2xx_HAL_Driver/Src/stm32f2xx_ll_usb.c ****   * @param  dma: USB dma enabled or disabled 
 754:../STM32F2xx_HAL_Driver/Src/stm32f2xx_ll_usb.c ****   *          This parameter can be one of the these values:
 755:../STM32F2xx_HAL_Driver/Src/stm32f2xx_ll_usb.c ****   *           0 : DMA feature not used 
 756:../STM32F2xx_HAL_Driver/Src/stm32f2xx_ll_usb.c ****   *           1 : DMA feature used  
 757:../STM32F2xx_HAL_Driver/Src/stm32f2xx_ll_usb.c ****   * @retval HAL status
 758:../STM32F2xx_HAL_Driver/Src/stm32f2xx_ll_usb.c ****   */
 759:../STM32F2xx_HAL_Driver/Src/stm32f2xx_ll_usb.c **** HAL_StatusTypeDef USB_WritePacket(USB_OTG_GlobalTypeDef *USBx, uint8_t *src, uint8_t ch_ep_num, uin
 760:../STM32F2xx_HAL_Driver/Src/stm32f2xx_ll_usb.c **** {
 2343              		.loc 1 760 0
 2344              		.cfi_startproc
 2345              		@ args = 4, pretend = 0, frame = 24
 2346              		@ frame_needed = 1, uses_anonymous_args = 0
 2347              		@ link register save eliminated.
 2348 0ffc 80B4     		push	{r7}
 2349              		.cfi_def_cfa_offset 4
 2350              		.cfi_offset 7, -4
 2351 0ffe 87B0     		sub	sp, sp, #28
 2352              		.cfi_def_cfa_offset 32
 2353 1000 00AF     		add	r7, sp, #0
 2354              		.cfi_def_cfa_register 7
 2355 1002 F860     		str	r0, [r7, #12]
 2356 1004 B960     		str	r1, [r7, #8]
 2357 1006 FA71     		strb	r2, [r7, #7]
 2358 1008 BB80     		strh	r3, [r7, #4]	@ movhi
 761:../STM32F2xx_HAL_Driver/Src/stm32f2xx_ll_usb.c ****   uint32_t count32b= 0 , i= 0;
 2359              		.loc 1 761 0
 2360 100a 0023     		movs	r3, #0
 2361 100c 3B61     		str	r3, [r7, #16]
 2362 100e 0023     		movs	r3, #0
 2363 1010 7B61     		str	r3, [r7, #20]
 762:../STM32F2xx_HAL_Driver/Src/stm32f2xx_ll_usb.c ****   
 763:../STM32F2xx_HAL_Driver/Src/stm32f2xx_ll_usb.c ****   if (dma == 0)
 2364              		.loc 1 763 0
 2365 1012 97F82030 		ldrb	r3, [r7, #32]	@ zero_extendqisi2
 2366 1016 002B     		cmp	r3, #0
 2367 1018 1DD1     		bne	.L97
 764:../STM32F2xx_HAL_Driver/Src/stm32f2xx_ll_usb.c ****   {
 765:../STM32F2xx_HAL_Driver/Src/stm32f2xx_ll_usb.c ****     count32b =  (len + 3) / 4;
 2368              		.loc 1 765 0
 2369 101a BB88     		ldrh	r3, [r7, #4]
 2370 101c 0333     		adds	r3, r3, #3
 2371 101e DA1C     		adds	r2, r3, #3
 2372 1020 002B     		cmp	r3, #0
 2373 1022 B8BF     		it	lt
 2374 1024 1346     		movlt	r3, r2
 2375 1026 9B10     		asrs	r3, r3, #2
 2376 1028 3B61     		str	r3, [r7, #16]
 766:../STM32F2xx_HAL_Driver/Src/stm32f2xx_ll_usb.c ****     for (i = 0; i < count32b; i++, src += 4)
 2377              		.loc 1 766 0
 2378 102a 0023     		movs	r3, #0
 2379 102c 7B61     		str	r3, [r7, #20]
 2380 102e 0EE0     		b	.L98
 2381              	.L99:
 767:../STM32F2xx_HAL_Driver/Src/stm32f2xx_ll_usb.c ****     {
 768:../STM32F2xx_HAL_Driver/Src/stm32f2xx_ll_usb.c ****       USBx_DFIFO(ch_ep_num) = *((__packed uint32_t *)src);
 2382              		.loc 1 768 0 discriminator 2
 2383 1030 FB79     		ldrb	r3, [r7, #7]	@ zero_extendqisi2
 2384 1032 1A03     		lsls	r2, r3, #12
 2385 1034 FB68     		ldr	r3, [r7, #12]
 2386 1036 1344     		add	r3, r3, r2
 2387 1038 03F58053 		add	r3, r3, #4096
 2388 103c BA68     		ldr	r2, [r7, #8]
 2389 103e 1268     		ldr	r2, [r2]
 2390 1040 1A60     		str	r2, [r3]
 766:../STM32F2xx_HAL_Driver/Src/stm32f2xx_ll_usb.c ****     for (i = 0; i < count32b; i++, src += 4)
 2391              		.loc 1 766 0 discriminator 2
 2392 1042 7B69     		ldr	r3, [r7, #20]
 2393 1044 0133     		adds	r3, r3, #1
 2394 1046 7B61     		str	r3, [r7, #20]
 2395 1048 BB68     		ldr	r3, [r7, #8]
 2396 104a 0433     		adds	r3, r3, #4
 2397 104c BB60     		str	r3, [r7, #8]
 2398              	.L98:
 766:../STM32F2xx_HAL_Driver/Src/stm32f2xx_ll_usb.c ****     for (i = 0; i < count32b; i++, src += 4)
 2399              		.loc 1 766 0 is_stmt 0 discriminator 1
 2400 104e 7A69     		ldr	r2, [r7, #20]
 2401 1050 3B69     		ldr	r3, [r7, #16]
 2402 1052 9A42     		cmp	r2, r3
 2403 1054 ECD3     		bcc	.L99
 2404              	.L97:
 769:../STM32F2xx_HAL_Driver/Src/stm32f2xx_ll_usb.c ****     }
 770:../STM32F2xx_HAL_Driver/Src/stm32f2xx_ll_usb.c ****   }
 771:../STM32F2xx_HAL_Driver/Src/stm32f2xx_ll_usb.c ****   return HAL_OK;
 2405              		.loc 1 771 0 is_stmt 1
 2406 1056 0023     		movs	r3, #0
 772:../STM32F2xx_HAL_Driver/Src/stm32f2xx_ll_usb.c **** }
 2407              		.loc 1 772 0
 2408 1058 1846     		mov	r0, r3
 2409 105a 1C37     		adds	r7, r7, #28
 2410 105c BD46     		mov	sp, r7
 2411              		@ sp needed
 2412 105e 5DF8047B 		ldr	r7, [sp], #4
 2413 1062 7047     		bx	lr
 2414              		.cfi_endproc
 2415              	.LFE70:
 2417              		.align	2
 2418              		.global	USB_ReadPacket
 2419              		.thumb
 2420              		.thumb_func
 2422              	USB_ReadPacket:
 2423              	.LFB71:
 773:../STM32F2xx_HAL_Driver/Src/stm32f2xx_ll_usb.c **** 
 774:../STM32F2xx_HAL_Driver/Src/stm32f2xx_ll_usb.c **** /**
 775:../STM32F2xx_HAL_Driver/Src/stm32f2xx_ll_usb.c ****   * @brief  USB_ReadPacket : read a packet from the Tx FIFO associated 
 776:../STM32F2xx_HAL_Driver/Src/stm32f2xx_ll_usb.c ****   *         with the EP/channel
 777:../STM32F2xx_HAL_Driver/Src/stm32f2xx_ll_usb.c ****   * @param  USBx : Selected device  
 778:../STM32F2xx_HAL_Driver/Src/stm32f2xx_ll_usb.c ****   * @param  src : source pointer
 779:../STM32F2xx_HAL_Driver/Src/stm32f2xx_ll_usb.c ****   * @param  ch_ep_num : endpoint or host channel number
 780:../STM32F2xx_HAL_Driver/Src/stm32f2xx_ll_usb.c ****   * @param  len : Noumber of bytes to read
 781:../STM32F2xx_HAL_Driver/Src/stm32f2xx_ll_usb.c ****   * @param  dma: USB dma enabled or disabled 
 782:../STM32F2xx_HAL_Driver/Src/stm32f2xx_ll_usb.c ****   *          This parameter can be one of the these values:
 783:../STM32F2xx_HAL_Driver/Src/stm32f2xx_ll_usb.c ****   *           0 : DMA feature not used 
 784:../STM32F2xx_HAL_Driver/Src/stm32f2xx_ll_usb.c ****   *           1 : DMA feature used  
 785:../STM32F2xx_HAL_Driver/Src/stm32f2xx_ll_usb.c ****   * @retval pointer to desctination buffer
 786:../STM32F2xx_HAL_Driver/Src/stm32f2xx_ll_usb.c ****   */
 787:../STM32F2xx_HAL_Driver/Src/stm32f2xx_ll_usb.c **** void *USB_ReadPacket(USB_OTG_GlobalTypeDef *USBx, uint8_t *dest, uint16_t len)
 788:../STM32F2xx_HAL_Driver/Src/stm32f2xx_ll_usb.c **** {
 2424              		.loc 1 788 0
 2425              		.cfi_startproc
 2426              		@ args = 0, pretend = 0, frame = 24
 2427              		@ frame_needed = 1, uses_anonymous_args = 0
 2428              		@ link register save eliminated.
 2429 1064 80B4     		push	{r7}
 2430              		.cfi_def_cfa_offset 4
 2431              		.cfi_offset 7, -4
 2432 1066 87B0     		sub	sp, sp, #28
 2433              		.cfi_def_cfa_offset 32
 2434 1068 00AF     		add	r7, sp, #0
 2435              		.cfi_def_cfa_register 7
 2436 106a F860     		str	r0, [r7, #12]
 2437 106c B960     		str	r1, [r7, #8]
 2438 106e 1346     		mov	r3, r2
 2439 1070 FB80     		strh	r3, [r7, #6]	@ movhi
 789:../STM32F2xx_HAL_Driver/Src/stm32f2xx_ll_usb.c ****   uint32_t i=0;
 2440              		.loc 1 789 0
 2441 1072 0023     		movs	r3, #0
 2442 1074 7B61     		str	r3, [r7, #20]
 790:../STM32F2xx_HAL_Driver/Src/stm32f2xx_ll_usb.c ****   uint32_t count32b = (len + 3) / 4;
 2443              		.loc 1 790 0
 2444 1076 FB88     		ldrh	r3, [r7, #6]
 2445 1078 0333     		adds	r3, r3, #3
 2446 107a DA1C     		adds	r2, r3, #3
 2447 107c 002B     		cmp	r3, #0
 2448 107e B8BF     		it	lt
 2449 1080 1346     		movlt	r3, r2
 2450 1082 9B10     		asrs	r3, r3, #2
 2451 1084 3B61     		str	r3, [r7, #16]
 791:../STM32F2xx_HAL_Driver/Src/stm32f2xx_ll_usb.c ****   
 792:../STM32F2xx_HAL_Driver/Src/stm32f2xx_ll_usb.c ****   for ( i = 0; i < count32b; i++, dest += 4 )
 2452              		.loc 1 792 0
 2453 1086 0023     		movs	r3, #0
 2454 1088 7B61     		str	r3, [r7, #20]
 2455 108a 0BE0     		b	.L102
 2456              	.L103:
 793:../STM32F2xx_HAL_Driver/Src/stm32f2xx_ll_usb.c ****   {
 794:../STM32F2xx_HAL_Driver/Src/stm32f2xx_ll_usb.c ****     *(__packed uint32_t *)dest = USBx_DFIFO(0);
 2457              		.loc 1 794 0 discriminator 2
 2458 108c FB68     		ldr	r3, [r7, #12]
 2459 108e 03F58053 		add	r3, r3, #4096
 2460 1092 1A68     		ldr	r2, [r3]
 2461 1094 BB68     		ldr	r3, [r7, #8]
 2462 1096 1A60     		str	r2, [r3]
 792:../STM32F2xx_HAL_Driver/Src/stm32f2xx_ll_usb.c ****   {
 2463              		.loc 1 792 0 discriminator 2
 2464 1098 7B69     		ldr	r3, [r7, #20]
 2465 109a 0133     		adds	r3, r3, #1
 2466 109c 7B61     		str	r3, [r7, #20]
 2467 109e BB68     		ldr	r3, [r7, #8]
 2468 10a0 0433     		adds	r3, r3, #4
 2469 10a2 BB60     		str	r3, [r7, #8]
 2470              	.L102:
 792:../STM32F2xx_HAL_Driver/Src/stm32f2xx_ll_usb.c ****   {
 2471              		.loc 1 792 0 is_stmt 0 discriminator 1
 2472 10a4 7A69     		ldr	r2, [r7, #20]
 2473 10a6 3B69     		ldr	r3, [r7, #16]
 2474 10a8 9A42     		cmp	r2, r3
 2475 10aa EFD3     		bcc	.L103
 795:../STM32F2xx_HAL_Driver/Src/stm32f2xx_ll_usb.c ****     
 796:../STM32F2xx_HAL_Driver/Src/stm32f2xx_ll_usb.c ****   }
 797:../STM32F2xx_HAL_Driver/Src/stm32f2xx_ll_usb.c ****   return ((void *)dest);
 2476              		.loc 1 797 0 is_stmt 1
 2477 10ac BB68     		ldr	r3, [r7, #8]
 798:../STM32F2xx_HAL_Driver/Src/stm32f2xx_ll_usb.c **** }
 2478              		.loc 1 798 0
 2479 10ae 1846     		mov	r0, r3
 2480 10b0 1C37     		adds	r7, r7, #28
 2481 10b2 BD46     		mov	sp, r7
 2482              		@ sp needed
 2483 10b4 5DF8047B 		ldr	r7, [sp], #4
 2484 10b8 7047     		bx	lr
 2485              		.cfi_endproc
 2486              	.LFE71:
 2488 10ba 00BF     		.align	2
 2489              		.global	USB_EPSetStall
 2490              		.thumb
 2491              		.thumb_func
 2493              	USB_EPSetStall:
 2494              	.LFB72:
 799:../STM32F2xx_HAL_Driver/Src/stm32f2xx_ll_usb.c **** 
 800:../STM32F2xx_HAL_Driver/Src/stm32f2xx_ll_usb.c **** /**
 801:../STM32F2xx_HAL_Driver/Src/stm32f2xx_ll_usb.c ****   * @brief  USB_EPSetStall : set a stall condition over an EP
 802:../STM32F2xx_HAL_Driver/Src/stm32f2xx_ll_usb.c ****   * @param  USBx : Selected device
 803:../STM32F2xx_HAL_Driver/Src/stm32f2xx_ll_usb.c ****   * @param  ep: pointer to endpoint structure   
 804:../STM32F2xx_HAL_Driver/Src/stm32f2xx_ll_usb.c ****   * @retval HAL status
 805:../STM32F2xx_HAL_Driver/Src/stm32f2xx_ll_usb.c ****   */
 806:../STM32F2xx_HAL_Driver/Src/stm32f2xx_ll_usb.c **** HAL_StatusTypeDef USB_EPSetStall(USB_OTG_GlobalTypeDef *USBx , USB_OTG_EPTypeDef *ep)
 807:../STM32F2xx_HAL_Driver/Src/stm32f2xx_ll_usb.c **** {
 2495              		.loc 1 807 0
 2496              		.cfi_startproc
 2497              		@ args = 0, pretend = 0, frame = 8
 2498              		@ frame_needed = 1, uses_anonymous_args = 0
 2499              		@ link register save eliminated.
 2500 10bc 80B4     		push	{r7}
 2501              		.cfi_def_cfa_offset 4
 2502              		.cfi_offset 7, -4
 2503 10be 83B0     		sub	sp, sp, #12
 2504              		.cfi_def_cfa_offset 16
 2505 10c0 00AF     		add	r7, sp, #0
 2506              		.cfi_def_cfa_register 7
 2507 10c2 7860     		str	r0, [r7, #4]
 2508 10c4 3960     		str	r1, [r7]
 808:../STM32F2xx_HAL_Driver/Src/stm32f2xx_ll_usb.c ****   if (ep->is_in == 1)
 2509              		.loc 1 808 0
 2510 10c6 3B68     		ldr	r3, [r7]
 2511 10c8 5B78     		ldrb	r3, [r3, #1]	@ zero_extendqisi2
 2512 10ca 012B     		cmp	r3, #1
 2513 10cc 2ED1     		bne	.L106
 809:../STM32F2xx_HAL_Driver/Src/stm32f2xx_ll_usb.c ****   {
 810:../STM32F2xx_HAL_Driver/Src/stm32f2xx_ll_usb.c ****     if (((USBx_INEP(ep->num)->DIEPCTL) & USB_OTG_DIEPCTL_EPENA) == 0)
 2514              		.loc 1 810 0
 2515 10ce 3B68     		ldr	r3, [r7]
 2516 10d0 1B78     		ldrb	r3, [r3]	@ zero_extendqisi2
 2517 10d2 5A01     		lsls	r2, r3, #5
 2518 10d4 7B68     		ldr	r3, [r7, #4]
 2519 10d6 1344     		add	r3, r3, r2
 2520 10d8 03F51063 		add	r3, r3, #2304
 2521 10dc 1B68     		ldr	r3, [r3]
 2522 10de 002B     		cmp	r3, #0
 2523 10e0 11DB     		blt	.L107
 811:../STM32F2xx_HAL_Driver/Src/stm32f2xx_ll_usb.c ****     {
 812:../STM32F2xx_HAL_Driver/Src/stm32f2xx_ll_usb.c ****       USBx_INEP(ep->num)->DIEPCTL &= ~(USB_OTG_DIEPCTL_EPDIS); 
 2524              		.loc 1 812 0
 2525 10e2 3B68     		ldr	r3, [r7]
 2526 10e4 1B78     		ldrb	r3, [r3]	@ zero_extendqisi2
 2527 10e6 5A01     		lsls	r2, r3, #5
 2528 10e8 7B68     		ldr	r3, [r7, #4]
 2529 10ea 1344     		add	r3, r3, r2
 2530 10ec 03F51063 		add	r3, r3, #2304
 2531 10f0 3A68     		ldr	r2, [r7]
 2532 10f2 1278     		ldrb	r2, [r2]	@ zero_extendqisi2
 2533 10f4 5101     		lsls	r1, r2, #5
 2534 10f6 7A68     		ldr	r2, [r7, #4]
 2535 10f8 0A44     		add	r2, r2, r1
 2536 10fa 02F51062 		add	r2, r2, #2304
 2537 10fe 1268     		ldr	r2, [r2]
 2538 1100 22F08042 		bic	r2, r2, #1073741824
 2539 1104 1A60     		str	r2, [r3]
 2540              	.L107:
 813:../STM32F2xx_HAL_Driver/Src/stm32f2xx_ll_usb.c ****     } 
 814:../STM32F2xx_HAL_Driver/Src/stm32f2xx_ll_usb.c ****     USBx_INEP(ep->num)->DIEPCTL |= USB_OTG_DIEPCTL_STALL;
 2541              		.loc 1 814 0
 2542 1106 3B68     		ldr	r3, [r7]
 2543 1108 1B78     		ldrb	r3, [r3]	@ zero_extendqisi2
 2544 110a 5A01     		lsls	r2, r3, #5
 2545 110c 7B68     		ldr	r3, [r7, #4]
 2546 110e 1344     		add	r3, r3, r2
 2547 1110 03F51063 		add	r3, r3, #2304
 2548 1114 3A68     		ldr	r2, [r7]
 2549 1116 1278     		ldrb	r2, [r2]	@ zero_extendqisi2
 2550 1118 5101     		lsls	r1, r2, #5
 2551 111a 7A68     		ldr	r2, [r7, #4]
 2552 111c 0A44     		add	r2, r2, r1
 2553 111e 02F51062 		add	r2, r2, #2304
 2554 1122 1268     		ldr	r2, [r2]
 2555 1124 42F40012 		orr	r2, r2, #2097152
 2556 1128 1A60     		str	r2, [r3]
 2557 112a 2DE0     		b	.L108
 2558              	.L106:
 815:../STM32F2xx_HAL_Driver/Src/stm32f2xx_ll_usb.c ****   }
 816:../STM32F2xx_HAL_Driver/Src/stm32f2xx_ll_usb.c ****   else
 817:../STM32F2xx_HAL_Driver/Src/stm32f2xx_ll_usb.c ****   {
 818:../STM32F2xx_HAL_Driver/Src/stm32f2xx_ll_usb.c ****     if (((USBx_OUTEP(ep->num)->DOEPCTL) & USB_OTG_DOEPCTL_EPENA) == 0)
 2559              		.loc 1 818 0
 2560 112c 3B68     		ldr	r3, [r7]
 2561 112e 1B78     		ldrb	r3, [r3]	@ zero_extendqisi2
 2562 1130 5A01     		lsls	r2, r3, #5
 2563 1132 7B68     		ldr	r3, [r7, #4]
 2564 1134 1344     		add	r3, r3, r2
 2565 1136 03F53063 		add	r3, r3, #2816
 2566 113a 1B68     		ldr	r3, [r3]
 2567 113c 002B     		cmp	r3, #0
 2568 113e 11DB     		blt	.L109
 819:../STM32F2xx_HAL_Driver/Src/stm32f2xx_ll_usb.c ****     {
 820:../STM32F2xx_HAL_Driver/Src/stm32f2xx_ll_usb.c ****       USBx_OUTEP(ep->num)->DOEPCTL &= ~(USB_OTG_DOEPCTL_EPDIS); 
 2569              		.loc 1 820 0
 2570 1140 3B68     		ldr	r3, [r7]
 2571 1142 1B78     		ldrb	r3, [r3]	@ zero_extendqisi2
 2572 1144 5A01     		lsls	r2, r3, #5
 2573 1146 7B68     		ldr	r3, [r7, #4]
 2574 1148 1344     		add	r3, r3, r2
 2575 114a 03F53063 		add	r3, r3, #2816
 2576 114e 3A68     		ldr	r2, [r7]
 2577 1150 1278     		ldrb	r2, [r2]	@ zero_extendqisi2
 2578 1152 5101     		lsls	r1, r2, #5
 2579 1154 7A68     		ldr	r2, [r7, #4]
 2580 1156 0A44     		add	r2, r2, r1
 2581 1158 02F53062 		add	r2, r2, #2816
 2582 115c 1268     		ldr	r2, [r2]
 2583 115e 22F08042 		bic	r2, r2, #1073741824
 2584 1162 1A60     		str	r2, [r3]
 2585              	.L109:
 821:../STM32F2xx_HAL_Driver/Src/stm32f2xx_ll_usb.c ****     } 
 822:../STM32F2xx_HAL_Driver/Src/stm32f2xx_ll_usb.c ****     USBx_OUTEP(ep->num)->DOEPCTL |= USB_OTG_DOEPCTL_STALL;
 2586              		.loc 1 822 0
 2587 1164 3B68     		ldr	r3, [r7]
 2588 1166 1B78     		ldrb	r3, [r3]	@ zero_extendqisi2
 2589 1168 5A01     		lsls	r2, r3, #5
 2590 116a 7B68     		ldr	r3, [r7, #4]
 2591 116c 1344     		add	r3, r3, r2
 2592 116e 03F53063 		add	r3, r3, #2816
 2593 1172 3A68     		ldr	r2, [r7]
 2594 1174 1278     		ldrb	r2, [r2]	@ zero_extendqisi2
 2595 1176 5101     		lsls	r1, r2, #5
 2596 1178 7A68     		ldr	r2, [r7, #4]
 2597 117a 0A44     		add	r2, r2, r1
 2598 117c 02F53062 		add	r2, r2, #2816
 2599 1180 1268     		ldr	r2, [r2]
 2600 1182 42F40012 		orr	r2, r2, #2097152
 2601 1186 1A60     		str	r2, [r3]
 2602              	.L108:
 823:../STM32F2xx_HAL_Driver/Src/stm32f2xx_ll_usb.c ****   }
 824:../STM32F2xx_HAL_Driver/Src/stm32f2xx_ll_usb.c ****   return HAL_OK;
 2603              		.loc 1 824 0
 2604 1188 0023     		movs	r3, #0
 825:../STM32F2xx_HAL_Driver/Src/stm32f2xx_ll_usb.c **** }
 2605              		.loc 1 825 0
 2606 118a 1846     		mov	r0, r3
 2607 118c 0C37     		adds	r7, r7, #12
 2608 118e BD46     		mov	sp, r7
 2609              		@ sp needed
 2610 1190 5DF8047B 		ldr	r7, [sp], #4
 2611 1194 7047     		bx	lr
 2612              		.cfi_endproc
 2613              	.LFE72:
 2615 1196 00BF     		.align	2
 2616              		.global	USB_EPClearStall
 2617              		.thumb
 2618              		.thumb_func
 2620              	USB_EPClearStall:
 2621              	.LFB73:
 826:../STM32F2xx_HAL_Driver/Src/stm32f2xx_ll_usb.c **** 
 827:../STM32F2xx_HAL_Driver/Src/stm32f2xx_ll_usb.c **** 
 828:../STM32F2xx_HAL_Driver/Src/stm32f2xx_ll_usb.c **** /**
 829:../STM32F2xx_HAL_Driver/Src/stm32f2xx_ll_usb.c ****   * @brief  USB_EPClearStall : Clear a stall condition over an EP
 830:../STM32F2xx_HAL_Driver/Src/stm32f2xx_ll_usb.c ****   * @param  USBx : Selected device
 831:../STM32F2xx_HAL_Driver/Src/stm32f2xx_ll_usb.c ****   * @param  ep: pointer to endpoint structure   
 832:../STM32F2xx_HAL_Driver/Src/stm32f2xx_ll_usb.c ****   * @retval HAL status
 833:../STM32F2xx_HAL_Driver/Src/stm32f2xx_ll_usb.c ****   */
 834:../STM32F2xx_HAL_Driver/Src/stm32f2xx_ll_usb.c **** HAL_StatusTypeDef USB_EPClearStall(USB_OTG_GlobalTypeDef *USBx, USB_OTG_EPTypeDef *ep)
 835:../STM32F2xx_HAL_Driver/Src/stm32f2xx_ll_usb.c **** {
 2622              		.loc 1 835 0
 2623              		.cfi_startproc
 2624              		@ args = 0, pretend = 0, frame = 8
 2625              		@ frame_needed = 1, uses_anonymous_args = 0
 2626              		@ link register save eliminated.
 2627 1198 80B4     		push	{r7}
 2628              		.cfi_def_cfa_offset 4
 2629              		.cfi_offset 7, -4
 2630 119a 83B0     		sub	sp, sp, #12
 2631              		.cfi_def_cfa_offset 16
 2632 119c 00AF     		add	r7, sp, #0
 2633              		.cfi_def_cfa_register 7
 2634 119e 7860     		str	r0, [r7, #4]
 2635 11a0 3960     		str	r1, [r7]
 836:../STM32F2xx_HAL_Driver/Src/stm32f2xx_ll_usb.c ****   if (ep->is_in == 1)
 2636              		.loc 1 836 0
 2637 11a2 3B68     		ldr	r3, [r7]
 2638 11a4 5B78     		ldrb	r3, [r3, #1]	@ zero_extendqisi2
 2639 11a6 012B     		cmp	r3, #1
 2640 11a8 2CD1     		bne	.L112
 837:../STM32F2xx_HAL_Driver/Src/stm32f2xx_ll_usb.c ****   {
 838:../STM32F2xx_HAL_Driver/Src/stm32f2xx_ll_usb.c ****     USBx_INEP(ep->num)->DIEPCTL &= ~USB_OTG_DIEPCTL_STALL;
 2641              		.loc 1 838 0
 2642 11aa 3B68     		ldr	r3, [r7]
 2643 11ac 1B78     		ldrb	r3, [r3]	@ zero_extendqisi2
 2644 11ae 5A01     		lsls	r2, r3, #5
 2645 11b0 7B68     		ldr	r3, [r7, #4]
 2646 11b2 1344     		add	r3, r3, r2
 2647 11b4 03F51063 		add	r3, r3, #2304
 2648 11b8 3A68     		ldr	r2, [r7]
 2649 11ba 1278     		ldrb	r2, [r2]	@ zero_extendqisi2
 2650 11bc 5101     		lsls	r1, r2, #5
 2651 11be 7A68     		ldr	r2, [r7, #4]
 2652 11c0 0A44     		add	r2, r2, r1
 2653 11c2 02F51062 		add	r2, r2, #2304
 2654 11c6 1268     		ldr	r2, [r2]
 2655 11c8 22F40012 		bic	r2, r2, #2097152
 2656 11cc 1A60     		str	r2, [r3]
 839:../STM32F2xx_HAL_Driver/Src/stm32f2xx_ll_usb.c ****     if (ep->type == EP_TYPE_INTR || ep->type == EP_TYPE_BULK)
 2657              		.loc 1 839 0
 2658 11ce 3B68     		ldr	r3, [r7]
 2659 11d0 DB78     		ldrb	r3, [r3, #3]	@ zero_extendqisi2
 2660 11d2 032B     		cmp	r3, #3
 2661 11d4 03D0     		beq	.L113
 2662              		.loc 1 839 0 is_stmt 0 discriminator 1
 2663 11d6 3B68     		ldr	r3, [r7]
 2664 11d8 DB78     		ldrb	r3, [r3, #3]	@ zero_extendqisi2
 2665 11da 022B     		cmp	r3, #2
 2666 11dc 3ED1     		bne	.L115
 2667              	.L113:
 840:../STM32F2xx_HAL_Driver/Src/stm32f2xx_ll_usb.c ****     {
 841:../STM32F2xx_HAL_Driver/Src/stm32f2xx_ll_usb.c ****        USBx_INEP(ep->num)->DIEPCTL |= USB_OTG_DIEPCTL_SD0PID_SEVNFRM; /* DATA0 */
 2668              		.loc 1 841 0 is_stmt 1
 2669 11de 3B68     		ldr	r3, [r7]
 2670 11e0 1B78     		ldrb	r3, [r3]	@ zero_extendqisi2
 2671 11e2 5A01     		lsls	r2, r3, #5
 2672 11e4 7B68     		ldr	r3, [r7, #4]
 2673 11e6 1344     		add	r3, r3, r2
 2674 11e8 03F51063 		add	r3, r3, #2304
 2675 11ec 3A68     		ldr	r2, [r7]
 2676 11ee 1278     		ldrb	r2, [r2]	@ zero_extendqisi2
 2677 11f0 5101     		lsls	r1, r2, #5
 2678 11f2 7A68     		ldr	r2, [r7, #4]
 2679 11f4 0A44     		add	r2, r2, r1
 2680 11f6 02F51062 		add	r2, r2, #2304
 2681 11fa 1268     		ldr	r2, [r2]
 2682 11fc 42F08052 		orr	r2, r2, #268435456
 2683 1200 1A60     		str	r2, [r3]
 2684 1202 2BE0     		b	.L115
 2685              	.L112:
 842:../STM32F2xx_HAL_Driver/Src/stm32f2xx_ll_usb.c ****     }    
 843:../STM32F2xx_HAL_Driver/Src/stm32f2xx_ll_usb.c ****   }
 844:../STM32F2xx_HAL_Driver/Src/stm32f2xx_ll_usb.c ****   else
 845:../STM32F2xx_HAL_Driver/Src/stm32f2xx_ll_usb.c ****   {
 846:../STM32F2xx_HAL_Driver/Src/stm32f2xx_ll_usb.c ****     USBx_OUTEP(ep->num)->DOEPCTL &= ~USB_OTG_DOEPCTL_STALL;
 2686              		.loc 1 846 0
 2687 1204 3B68     		ldr	r3, [r7]
 2688 1206 1B78     		ldrb	r3, [r3]	@ zero_extendqisi2
 2689 1208 5A01     		lsls	r2, r3, #5
 2690 120a 7B68     		ldr	r3, [r7, #4]
 2691 120c 1344     		add	r3, r3, r2
 2692 120e 03F53063 		add	r3, r3, #2816
 2693 1212 3A68     		ldr	r2, [r7]
 2694 1214 1278     		ldrb	r2, [r2]	@ zero_extendqisi2
 2695 1216 5101     		lsls	r1, r2, #5
 2696 1218 7A68     		ldr	r2, [r7, #4]
 2697 121a 0A44     		add	r2, r2, r1
 2698 121c 02F53062 		add	r2, r2, #2816
 2699 1220 1268     		ldr	r2, [r2]
 2700 1222 22F40012 		bic	r2, r2, #2097152
 2701 1226 1A60     		str	r2, [r3]
 847:../STM32F2xx_HAL_Driver/Src/stm32f2xx_ll_usb.c ****     if (ep->type == EP_TYPE_INTR || ep->type == EP_TYPE_BULK)
 2702              		.loc 1 847 0
 2703 1228 3B68     		ldr	r3, [r7]
 2704 122a DB78     		ldrb	r3, [r3, #3]	@ zero_extendqisi2
 2705 122c 032B     		cmp	r3, #3
 2706 122e 03D0     		beq	.L116
 2707              		.loc 1 847 0 is_stmt 0 discriminator 1
 2708 1230 3B68     		ldr	r3, [r7]
 2709 1232 DB78     		ldrb	r3, [r3, #3]	@ zero_extendqisi2
 2710 1234 022B     		cmp	r3, #2
 2711 1236 11D1     		bne	.L115
 2712              	.L116:
 848:../STM32F2xx_HAL_Driver/Src/stm32f2xx_ll_usb.c ****     {
 849:../STM32F2xx_HAL_Driver/Src/stm32f2xx_ll_usb.c ****       USBx_OUTEP(ep->num)->DOEPCTL |= USB_OTG_DOEPCTL_SD0PID_SEVNFRM; /* DATA0 */
 2713              		.loc 1 849 0 is_stmt 1
 2714 1238 3B68     		ldr	r3, [r7]
 2715 123a 1B78     		ldrb	r3, [r3]	@ zero_extendqisi2
 2716 123c 5A01     		lsls	r2, r3, #5
 2717 123e 7B68     		ldr	r3, [r7, #4]
 2718 1240 1344     		add	r3, r3, r2
 2719 1242 03F53063 		add	r3, r3, #2816
 2720 1246 3A68     		ldr	r2, [r7]
 2721 1248 1278     		ldrb	r2, [r2]	@ zero_extendqisi2
 2722 124a 5101     		lsls	r1, r2, #5
 2723 124c 7A68     		ldr	r2, [r7, #4]
 2724 124e 0A44     		add	r2, r2, r1
 2725 1250 02F53062 		add	r2, r2, #2816
 2726 1254 1268     		ldr	r2, [r2]
 2727 1256 42F08052 		orr	r2, r2, #268435456
 2728 125a 1A60     		str	r2, [r3]
 2729              	.L115:
 850:../STM32F2xx_HAL_Driver/Src/stm32f2xx_ll_usb.c ****     }    
 851:../STM32F2xx_HAL_Driver/Src/stm32f2xx_ll_usb.c ****   }
 852:../STM32F2xx_HAL_Driver/Src/stm32f2xx_ll_usb.c ****   return HAL_OK;
 2730              		.loc 1 852 0
 2731 125c 0023     		movs	r3, #0
 853:../STM32F2xx_HAL_Driver/Src/stm32f2xx_ll_usb.c **** }
 2732              		.loc 1 853 0
 2733 125e 1846     		mov	r0, r3
 2734 1260 0C37     		adds	r7, r7, #12
 2735 1262 BD46     		mov	sp, r7
 2736              		@ sp needed
 2737 1264 5DF8047B 		ldr	r7, [sp], #4
 2738 1268 7047     		bx	lr
 2739              		.cfi_endproc
 2740              	.LFE73:
 2742 126a 00BF     		.align	2
 2743              		.global	USB_StopDevice
 2744              		.thumb
 2745              		.thumb_func
 2747              	USB_StopDevice:
 2748              	.LFB74:
 854:../STM32F2xx_HAL_Driver/Src/stm32f2xx_ll_usb.c **** 
 855:../STM32F2xx_HAL_Driver/Src/stm32f2xx_ll_usb.c **** /**
 856:../STM32F2xx_HAL_Driver/Src/stm32f2xx_ll_usb.c ****   * @brief  USB_StopDevice : Stop the usb device mode
 857:../STM32F2xx_HAL_Driver/Src/stm32f2xx_ll_usb.c ****   * @param  USBx : Selected device
 858:../STM32F2xx_HAL_Driver/Src/stm32f2xx_ll_usb.c ****   * @retval HAL status
 859:../STM32F2xx_HAL_Driver/Src/stm32f2xx_ll_usb.c ****   */
 860:../STM32F2xx_HAL_Driver/Src/stm32f2xx_ll_usb.c **** HAL_StatusTypeDef USB_StopDevice(USB_OTG_GlobalTypeDef *USBx)
 861:../STM32F2xx_HAL_Driver/Src/stm32f2xx_ll_usb.c **** {
 2749              		.loc 1 861 0
 2750              		.cfi_startproc
 2751              		@ args = 0, pretend = 0, frame = 16
 2752              		@ frame_needed = 1, uses_anonymous_args = 0
 2753 126c 80B5     		push	{r7, lr}
 2754              		.cfi_def_cfa_offset 8
 2755              		.cfi_offset 7, -8
 2756              		.cfi_offset 14, -4
 2757 126e 84B0     		sub	sp, sp, #16
 2758              		.cfi_def_cfa_offset 24
 2759 1270 00AF     		add	r7, sp, #0
 2760              		.cfi_def_cfa_register 7
 2761 1272 7860     		str	r0, [r7, #4]
 862:../STM32F2xx_HAL_Driver/Src/stm32f2xx_ll_usb.c ****   uint32_t i;
 863:../STM32F2xx_HAL_Driver/Src/stm32f2xx_ll_usb.c ****   
 864:../STM32F2xx_HAL_Driver/Src/stm32f2xx_ll_usb.c ****   /* Clear Pending interrupt */
 865:../STM32F2xx_HAL_Driver/Src/stm32f2xx_ll_usb.c ****   for (i = 0; i < 15 ; i++)
 2762              		.loc 1 865 0
 2763 1274 0023     		movs	r3, #0
 2764 1276 FB60     		str	r3, [r7, #12]
 2765 1278 12E0     		b	.L119
 2766              	.L120:
 866:../STM32F2xx_HAL_Driver/Src/stm32f2xx_ll_usb.c ****   {
 867:../STM32F2xx_HAL_Driver/Src/stm32f2xx_ll_usb.c ****     USBx_INEP(i)->DIEPINT  = 0xFF;
 2767              		.loc 1 867 0 discriminator 2
 2768 127a FB68     		ldr	r3, [r7, #12]
 2769 127c 5A01     		lsls	r2, r3, #5
 2770 127e 7B68     		ldr	r3, [r7, #4]
 2771 1280 1344     		add	r3, r3, r2
 2772 1282 03F51063 		add	r3, r3, #2304
 2773 1286 FF22     		movs	r2, #255
 2774 1288 9A60     		str	r2, [r3, #8]
 868:../STM32F2xx_HAL_Driver/Src/stm32f2xx_ll_usb.c ****     USBx_OUTEP(i)->DOEPINT  = 0xFF;
 2775              		.loc 1 868 0 discriminator 2
 2776 128a FB68     		ldr	r3, [r7, #12]
 2777 128c 5A01     		lsls	r2, r3, #5
 2778 128e 7B68     		ldr	r3, [r7, #4]
 2779 1290 1344     		add	r3, r3, r2
 2780 1292 03F53063 		add	r3, r3, #2816
 2781 1296 FF22     		movs	r2, #255
 2782 1298 9A60     		str	r2, [r3, #8]
 865:../STM32F2xx_HAL_Driver/Src/stm32f2xx_ll_usb.c ****   {
 2783              		.loc 1 865 0 discriminator 2
 2784 129a FB68     		ldr	r3, [r7, #12]
 2785 129c 0133     		adds	r3, r3, #1
 2786 129e FB60     		str	r3, [r7, #12]
 2787              	.L119:
 865:../STM32F2xx_HAL_Driver/Src/stm32f2xx_ll_usb.c ****   {
 2788              		.loc 1 865 0 is_stmt 0 discriminator 1
 2789 12a0 FB68     		ldr	r3, [r7, #12]
 2790 12a2 0E2B     		cmp	r3, #14
 2791 12a4 E9D9     		bls	.L120
 869:../STM32F2xx_HAL_Driver/Src/stm32f2xx_ll_usb.c ****   }
 870:../STM32F2xx_HAL_Driver/Src/stm32f2xx_ll_usb.c ****   USBx_DEVICE->DAINT = 0xFFFFFFFF;
 2792              		.loc 1 870 0 is_stmt 1
 2793 12a6 7B68     		ldr	r3, [r7, #4]
 2794 12a8 03F50063 		add	r3, r3, #2048
 2795 12ac 4FF0FF32 		mov	r2, #-1
 2796 12b0 9A61     		str	r2, [r3, #24]
 871:../STM32F2xx_HAL_Driver/Src/stm32f2xx_ll_usb.c ****   
 872:../STM32F2xx_HAL_Driver/Src/stm32f2xx_ll_usb.c ****   /* Clear interrupt masks */
 873:../STM32F2xx_HAL_Driver/Src/stm32f2xx_ll_usb.c ****   USBx_DEVICE->DIEPMSK  = 0;
 2797              		.loc 1 873 0
 2798 12b2 7B68     		ldr	r3, [r7, #4]
 2799 12b4 03F50063 		add	r3, r3, #2048
 2800 12b8 0022     		movs	r2, #0
 2801 12ba 1A61     		str	r2, [r3, #16]
 874:../STM32F2xx_HAL_Driver/Src/stm32f2xx_ll_usb.c ****   USBx_DEVICE->DOEPMSK  = 0;
 2802              		.loc 1 874 0
 2803 12bc 7B68     		ldr	r3, [r7, #4]
 2804 12be 03F50063 		add	r3, r3, #2048
 2805 12c2 0022     		movs	r2, #0
 2806 12c4 5A61     		str	r2, [r3, #20]
 875:../STM32F2xx_HAL_Driver/Src/stm32f2xx_ll_usb.c ****   USBx_DEVICE->DAINTMSK = 0;
 2807              		.loc 1 875 0
 2808 12c6 7B68     		ldr	r3, [r7, #4]
 2809 12c8 03F50063 		add	r3, r3, #2048
 2810 12cc 0022     		movs	r2, #0
 2811 12ce DA61     		str	r2, [r3, #28]
 876:../STM32F2xx_HAL_Driver/Src/stm32f2xx_ll_usb.c ****   
 877:../STM32F2xx_HAL_Driver/Src/stm32f2xx_ll_usb.c ****   /* Flush the FIFO */
 878:../STM32F2xx_HAL_Driver/Src/stm32f2xx_ll_usb.c ****   USB_FlushRxFifo(USBx);
 2812              		.loc 1 878 0
 2813 12d0 7868     		ldr	r0, [r7, #4]
 2814 12d2 FFF7FEFF 		bl	USB_FlushRxFifo
 879:../STM32F2xx_HAL_Driver/Src/stm32f2xx_ll_usb.c ****   USB_FlushTxFifo(USBx ,  0x10 );  
 2815              		.loc 1 879 0
 2816 12d6 7868     		ldr	r0, [r7, #4]
 2817 12d8 1021     		movs	r1, #16
 2818 12da FFF7FEFF 		bl	USB_FlushTxFifo
 880:../STM32F2xx_HAL_Driver/Src/stm32f2xx_ll_usb.c ****   
 881:../STM32F2xx_HAL_Driver/Src/stm32f2xx_ll_usb.c ****   return HAL_OK;
 2819              		.loc 1 881 0
 2820 12de 0023     		movs	r3, #0
 882:../STM32F2xx_HAL_Driver/Src/stm32f2xx_ll_usb.c **** }
 2821              		.loc 1 882 0
 2822 12e0 1846     		mov	r0, r3
 2823 12e2 1037     		adds	r7, r7, #16
 2824 12e4 BD46     		mov	sp, r7
 2825              		@ sp needed
 2826 12e6 80BD     		pop	{r7, pc}
 2827              		.cfi_endproc
 2828              	.LFE74:
 2830              		.align	2
 2831              		.global	USB_SetDevAddress
 2832              		.thumb
 2833              		.thumb_func
 2835              	USB_SetDevAddress:
 2836              	.LFB75:
 883:../STM32F2xx_HAL_Driver/Src/stm32f2xx_ll_usb.c **** 
 884:../STM32F2xx_HAL_Driver/Src/stm32f2xx_ll_usb.c **** /**
 885:../STM32F2xx_HAL_Driver/Src/stm32f2xx_ll_usb.c ****   * @brief  USB_SetDevAddress : Stop the usb device mode
 886:../STM32F2xx_HAL_Driver/Src/stm32f2xx_ll_usb.c ****   * @param  USBx : Selected device
 887:../STM32F2xx_HAL_Driver/Src/stm32f2xx_ll_usb.c ****   * @param  address : new device address to be assigned
 888:../STM32F2xx_HAL_Driver/Src/stm32f2xx_ll_usb.c ****   *          This parameter can be a value from 0 to 255
 889:../STM32F2xx_HAL_Driver/Src/stm32f2xx_ll_usb.c ****   * @retval HAL status
 890:../STM32F2xx_HAL_Driver/Src/stm32f2xx_ll_usb.c ****   */
 891:../STM32F2xx_HAL_Driver/Src/stm32f2xx_ll_usb.c **** HAL_StatusTypeDef  USB_SetDevAddress (USB_OTG_GlobalTypeDef *USBx, uint8_t address)
 892:../STM32F2xx_HAL_Driver/Src/stm32f2xx_ll_usb.c **** {
 2837              		.loc 1 892 0
 2838              		.cfi_startproc
 2839              		@ args = 0, pretend = 0, frame = 8
 2840              		@ frame_needed = 1, uses_anonymous_args = 0
 2841              		@ link register save eliminated.
 2842 12e8 80B4     		push	{r7}
 2843              		.cfi_def_cfa_offset 4
 2844              		.cfi_offset 7, -4
 2845 12ea 83B0     		sub	sp, sp, #12
 2846              		.cfi_def_cfa_offset 16
 2847 12ec 00AF     		add	r7, sp, #0
 2848              		.cfi_def_cfa_register 7
 2849 12ee 7860     		str	r0, [r7, #4]
 2850 12f0 0B46     		mov	r3, r1
 2851 12f2 FB70     		strb	r3, [r7, #3]
 893:../STM32F2xx_HAL_Driver/Src/stm32f2xx_ll_usb.c ****   USBx_DEVICE->DCFG &= ~ (USB_OTG_DCFG_DAD);
 2852              		.loc 1 893 0
 2853 12f4 7B68     		ldr	r3, [r7, #4]
 2854 12f6 03F50063 		add	r3, r3, #2048
 2855 12fa 7A68     		ldr	r2, [r7, #4]
 2856 12fc 02F50062 		add	r2, r2, #2048
 2857 1300 1268     		ldr	r2, [r2]
 2858 1302 22F4FE62 		bic	r2, r2, #2032
 2859 1306 1A60     		str	r2, [r3]
 894:../STM32F2xx_HAL_Driver/Src/stm32f2xx_ll_usb.c ****   USBx_DEVICE->DCFG |= (address << 4) & USB_OTG_DCFG_DAD ;
 2860              		.loc 1 894 0
 2861 1308 7B68     		ldr	r3, [r7, #4]
 2862 130a 03F50063 		add	r3, r3, #2048
 2863 130e 7A68     		ldr	r2, [r7, #4]
 2864 1310 02F50062 		add	r2, r2, #2048
 2865 1314 1168     		ldr	r1, [r2]
 2866 1316 FA78     		ldrb	r2, [r7, #3]	@ zero_extendqisi2
 2867 1318 1201     		lsls	r2, r2, #4
 2868 131a 02F4FE62 		and	r2, r2, #2032
 2869 131e 0A43     		orrs	r2, r2, r1
 2870 1320 1A60     		str	r2, [r3]
 895:../STM32F2xx_HAL_Driver/Src/stm32f2xx_ll_usb.c ****   
 896:../STM32F2xx_HAL_Driver/Src/stm32f2xx_ll_usb.c ****   return HAL_OK;  
 2871              		.loc 1 896 0
 2872 1322 0023     		movs	r3, #0
 897:../STM32F2xx_HAL_Driver/Src/stm32f2xx_ll_usb.c **** }
 2873              		.loc 1 897 0
 2874 1324 1846     		mov	r0, r3
 2875 1326 0C37     		adds	r7, r7, #12
 2876 1328 BD46     		mov	sp, r7
 2877              		@ sp needed
 2878 132a 5DF8047B 		ldr	r7, [sp], #4
 2879 132e 7047     		bx	lr
 2880              		.cfi_endproc
 2881              	.LFE75:
 2883              		.align	2
 2884              		.global	USB_DevConnect
 2885              		.thumb
 2886              		.thumb_func
 2888              	USB_DevConnect:
 2889              	.LFB76:
 898:../STM32F2xx_HAL_Driver/Src/stm32f2xx_ll_usb.c **** 
 899:../STM32F2xx_HAL_Driver/Src/stm32f2xx_ll_usb.c **** /**
 900:../STM32F2xx_HAL_Driver/Src/stm32f2xx_ll_usb.c ****   * @brief  USB_DevConnect : Connect the USB device by enabling the pull-up/pull-down
 901:../STM32F2xx_HAL_Driver/Src/stm32f2xx_ll_usb.c ****   * @param  USBx : Selected device
 902:../STM32F2xx_HAL_Driver/Src/stm32f2xx_ll_usb.c ****   * @retval HAL status
 903:../STM32F2xx_HAL_Driver/Src/stm32f2xx_ll_usb.c ****   */
 904:../STM32F2xx_HAL_Driver/Src/stm32f2xx_ll_usb.c **** HAL_StatusTypeDef  USB_DevConnect (USB_OTG_GlobalTypeDef *USBx)
 905:../STM32F2xx_HAL_Driver/Src/stm32f2xx_ll_usb.c **** {
 2890              		.loc 1 905 0
 2891              		.cfi_startproc
 2892              		@ args = 0, pretend = 0, frame = 8
 2893              		@ frame_needed = 1, uses_anonymous_args = 0
 2894 1330 80B5     		push	{r7, lr}
 2895              		.cfi_def_cfa_offset 8
 2896              		.cfi_offset 7, -8
 2897              		.cfi_offset 14, -4
 2898 1332 82B0     		sub	sp, sp, #8
 2899              		.cfi_def_cfa_offset 16
 2900 1334 00AF     		add	r7, sp, #0
 2901              		.cfi_def_cfa_register 7
 2902 1336 7860     		str	r0, [r7, #4]
 906:../STM32F2xx_HAL_Driver/Src/stm32f2xx_ll_usb.c ****   USBx_DEVICE->DCTL &= ~USB_OTG_DCTL_SDIS ;
 2903              		.loc 1 906 0
 2904 1338 7B68     		ldr	r3, [r7, #4]
 2905 133a 03F50063 		add	r3, r3, #2048
 2906 133e 7A68     		ldr	r2, [r7, #4]
 2907 1340 02F50062 		add	r2, r2, #2048
 2908 1344 5268     		ldr	r2, [r2, #4]
 2909 1346 22F00202 		bic	r2, r2, #2
 2910 134a 5A60     		str	r2, [r3, #4]
 907:../STM32F2xx_HAL_Driver/Src/stm32f2xx_ll_usb.c ****   HAL_Delay(3);
 2911              		.loc 1 907 0
 2912 134c 0320     		movs	r0, #3
 2913 134e FFF7FEFF 		bl	HAL_Delay
 908:../STM32F2xx_HAL_Driver/Src/stm32f2xx_ll_usb.c ****   
 909:../STM32F2xx_HAL_Driver/Src/stm32f2xx_ll_usb.c ****   return HAL_OK;  
 2914              		.loc 1 909 0
 2915 1352 0023     		movs	r3, #0
 910:../STM32F2xx_HAL_Driver/Src/stm32f2xx_ll_usb.c **** }
 2916              		.loc 1 910 0
 2917 1354 1846     		mov	r0, r3
 2918 1356 0837     		adds	r7, r7, #8
 2919 1358 BD46     		mov	sp, r7
 2920              		@ sp needed
 2921 135a 80BD     		pop	{r7, pc}
 2922              		.cfi_endproc
 2923              	.LFE76:
 2925              		.align	2
 2926              		.global	USB_DevDisconnect
 2927              		.thumb
 2928              		.thumb_func
 2930              	USB_DevDisconnect:
 2931              	.LFB77:
 911:../STM32F2xx_HAL_Driver/Src/stm32f2xx_ll_usb.c **** 
 912:../STM32F2xx_HAL_Driver/Src/stm32f2xx_ll_usb.c **** /**
 913:../STM32F2xx_HAL_Driver/Src/stm32f2xx_ll_usb.c ****   * @brief  USB_DevDisconnect : Disconnect the USB device by disabling the pull-up/pull-down
 914:../STM32F2xx_HAL_Driver/Src/stm32f2xx_ll_usb.c ****   * @param  USBx : Selected device
 915:../STM32F2xx_HAL_Driver/Src/stm32f2xx_ll_usb.c ****   * @retval HAL status
 916:../STM32F2xx_HAL_Driver/Src/stm32f2xx_ll_usb.c ****   */
 917:../STM32F2xx_HAL_Driver/Src/stm32f2xx_ll_usb.c **** HAL_StatusTypeDef  USB_DevDisconnect (USB_OTG_GlobalTypeDef *USBx)
 918:../STM32F2xx_HAL_Driver/Src/stm32f2xx_ll_usb.c **** {
 2932              		.loc 1 918 0
 2933              		.cfi_startproc
 2934              		@ args = 0, pretend = 0, frame = 8
 2935              		@ frame_needed = 1, uses_anonymous_args = 0
 2936 135c 80B5     		push	{r7, lr}
 2937              		.cfi_def_cfa_offset 8
 2938              		.cfi_offset 7, -8
 2939              		.cfi_offset 14, -4
 2940 135e 82B0     		sub	sp, sp, #8
 2941              		.cfi_def_cfa_offset 16
 2942 1360 00AF     		add	r7, sp, #0
 2943              		.cfi_def_cfa_register 7
 2944 1362 7860     		str	r0, [r7, #4]
 919:../STM32F2xx_HAL_Driver/Src/stm32f2xx_ll_usb.c ****   USBx_DEVICE->DCTL |= USB_OTG_DCTL_SDIS ;
 2945              		.loc 1 919 0
 2946 1364 7B68     		ldr	r3, [r7, #4]
 2947 1366 03F50063 		add	r3, r3, #2048
 2948 136a 7A68     		ldr	r2, [r7, #4]
 2949 136c 02F50062 		add	r2, r2, #2048
 2950 1370 5268     		ldr	r2, [r2, #4]
 2951 1372 42F00202 		orr	r2, r2, #2
 2952 1376 5A60     		str	r2, [r3, #4]
 920:../STM32F2xx_HAL_Driver/Src/stm32f2xx_ll_usb.c ****   HAL_Delay(3);
 2953              		.loc 1 920 0
 2954 1378 0320     		movs	r0, #3
 2955 137a FFF7FEFF 		bl	HAL_Delay
 921:../STM32F2xx_HAL_Driver/Src/stm32f2xx_ll_usb.c ****   
 922:../STM32F2xx_HAL_Driver/Src/stm32f2xx_ll_usb.c ****   return HAL_OK;  
 2956              		.loc 1 922 0
 2957 137e 0023     		movs	r3, #0
 923:../STM32F2xx_HAL_Driver/Src/stm32f2xx_ll_usb.c **** }
 2958              		.loc 1 923 0
 2959 1380 1846     		mov	r0, r3
 2960 1382 0837     		adds	r7, r7, #8
 2961 1384 BD46     		mov	sp, r7
 2962              		@ sp needed
 2963 1386 80BD     		pop	{r7, pc}
 2964              		.cfi_endproc
 2965              	.LFE77:
 2967              		.align	2
 2968              		.global	USB_ReadInterrupts
 2969              		.thumb
 2970              		.thumb_func
 2972              	USB_ReadInterrupts:
 2973              	.LFB78:
 924:../STM32F2xx_HAL_Driver/Src/stm32f2xx_ll_usb.c **** 
 925:../STM32F2xx_HAL_Driver/Src/stm32f2xx_ll_usb.c **** /**
 926:../STM32F2xx_HAL_Driver/Src/stm32f2xx_ll_usb.c ****   * @brief  USB_ReadInterrupts: return the global USB interrupt status
 927:../STM32F2xx_HAL_Driver/Src/stm32f2xx_ll_usb.c ****   * @param  USBx : Selected device
 928:../STM32F2xx_HAL_Driver/Src/stm32f2xx_ll_usb.c ****   * @retval HAL status
 929:../STM32F2xx_HAL_Driver/Src/stm32f2xx_ll_usb.c ****   */
 930:../STM32F2xx_HAL_Driver/Src/stm32f2xx_ll_usb.c **** uint32_t  USB_ReadInterrupts (USB_OTG_GlobalTypeDef *USBx)
 931:../STM32F2xx_HAL_Driver/Src/stm32f2xx_ll_usb.c **** {
 2974              		.loc 1 931 0
 2975              		.cfi_startproc
 2976              		@ args = 0, pretend = 0, frame = 16
 2977              		@ frame_needed = 1, uses_anonymous_args = 0
 2978              		@ link register save eliminated.
 2979 1388 80B4     		push	{r7}
 2980              		.cfi_def_cfa_offset 4
 2981              		.cfi_offset 7, -4
 2982 138a 85B0     		sub	sp, sp, #20
 2983              		.cfi_def_cfa_offset 24
 2984 138c 00AF     		add	r7, sp, #0
 2985              		.cfi_def_cfa_register 7
 2986 138e 7860     		str	r0, [r7, #4]
 932:../STM32F2xx_HAL_Driver/Src/stm32f2xx_ll_usb.c ****   uint32_t v = 0;
 2987              		.loc 1 932 0
 2988 1390 0023     		movs	r3, #0
 2989 1392 FB60     		str	r3, [r7, #12]
 933:../STM32F2xx_HAL_Driver/Src/stm32f2xx_ll_usb.c ****   
 934:../STM32F2xx_HAL_Driver/Src/stm32f2xx_ll_usb.c ****   v = USBx->GINTSTS;
 2990              		.loc 1 934 0
 2991 1394 7B68     		ldr	r3, [r7, #4]
 2992 1396 5B69     		ldr	r3, [r3, #20]
 2993 1398 FB60     		str	r3, [r7, #12]
 935:../STM32F2xx_HAL_Driver/Src/stm32f2xx_ll_usb.c ****   v &= USBx->GINTMSK;
 2994              		.loc 1 935 0
 2995 139a 7B68     		ldr	r3, [r7, #4]
 2996 139c 9B69     		ldr	r3, [r3, #24]
 2997 139e FA68     		ldr	r2, [r7, #12]
 2998 13a0 1340     		ands	r3, r3, r2
 2999 13a2 FB60     		str	r3, [r7, #12]
 936:../STM32F2xx_HAL_Driver/Src/stm32f2xx_ll_usb.c ****   return v;  
 3000              		.loc 1 936 0
 3001 13a4 FB68     		ldr	r3, [r7, #12]
 937:../STM32F2xx_HAL_Driver/Src/stm32f2xx_ll_usb.c **** }
 3002              		.loc 1 937 0
 3003 13a6 1846     		mov	r0, r3
 3004 13a8 1437     		adds	r7, r7, #20
 3005 13aa BD46     		mov	sp, r7
 3006              		@ sp needed
 3007 13ac 5DF8047B 		ldr	r7, [sp], #4
 3008 13b0 7047     		bx	lr
 3009              		.cfi_endproc
 3010              	.LFE78:
 3012 13b2 00BF     		.align	2
 3013              		.global	USB_ReadDevAllOutEpInterrupt
 3014              		.thumb
 3015              		.thumb_func
 3017              	USB_ReadDevAllOutEpInterrupt:
 3018              	.LFB79:
 938:../STM32F2xx_HAL_Driver/Src/stm32f2xx_ll_usb.c **** 
 939:../STM32F2xx_HAL_Driver/Src/stm32f2xx_ll_usb.c **** /**
 940:../STM32F2xx_HAL_Driver/Src/stm32f2xx_ll_usb.c ****   * @brief  USB_ReadDevAllOutEpInterrupt: return the USB device OUT endpoints interrupt status
 941:../STM32F2xx_HAL_Driver/Src/stm32f2xx_ll_usb.c ****   * @param  USBx : Selected device
 942:../STM32F2xx_HAL_Driver/Src/stm32f2xx_ll_usb.c ****   * @retval HAL status
 943:../STM32F2xx_HAL_Driver/Src/stm32f2xx_ll_usb.c ****   */
 944:../STM32F2xx_HAL_Driver/Src/stm32f2xx_ll_usb.c **** uint32_t USB_ReadDevAllOutEpInterrupt (USB_OTG_GlobalTypeDef *USBx)
 945:../STM32F2xx_HAL_Driver/Src/stm32f2xx_ll_usb.c **** {
 3019              		.loc 1 945 0
 3020              		.cfi_startproc
 3021              		@ args = 0, pretend = 0, frame = 16
 3022              		@ frame_needed = 1, uses_anonymous_args = 0
 3023              		@ link register save eliminated.
 3024 13b4 80B4     		push	{r7}
 3025              		.cfi_def_cfa_offset 4
 3026              		.cfi_offset 7, -4
 3027 13b6 85B0     		sub	sp, sp, #20
 3028              		.cfi_def_cfa_offset 24
 3029 13b8 00AF     		add	r7, sp, #0
 3030              		.cfi_def_cfa_register 7
 3031 13ba 7860     		str	r0, [r7, #4]
 946:../STM32F2xx_HAL_Driver/Src/stm32f2xx_ll_usb.c ****   uint32_t v;
 947:../STM32F2xx_HAL_Driver/Src/stm32f2xx_ll_usb.c ****   v  = USBx_DEVICE->DAINT;
 3032              		.loc 1 947 0
 3033 13bc 7B68     		ldr	r3, [r7, #4]
 3034 13be 03F50063 		add	r3, r3, #2048
 3035 13c2 9B69     		ldr	r3, [r3, #24]
 3036 13c4 FB60     		str	r3, [r7, #12]
 948:../STM32F2xx_HAL_Driver/Src/stm32f2xx_ll_usb.c ****   v &= USBx_DEVICE->DAINTMSK;
 3037              		.loc 1 948 0
 3038 13c6 7B68     		ldr	r3, [r7, #4]
 3039 13c8 03F50063 		add	r3, r3, #2048
 3040 13cc DB69     		ldr	r3, [r3, #28]
 3041 13ce FA68     		ldr	r2, [r7, #12]
 3042 13d0 1340     		ands	r3, r3, r2
 3043 13d2 FB60     		str	r3, [r7, #12]
 949:../STM32F2xx_HAL_Driver/Src/stm32f2xx_ll_usb.c ****   return ((v & 0xffff0000) >> 16);
 3044              		.loc 1 949 0
 3045 13d4 FB68     		ldr	r3, [r7, #12]
 3046 13d6 1B0C     		lsrs	r3, r3, #16
 950:../STM32F2xx_HAL_Driver/Src/stm32f2xx_ll_usb.c **** }
 3047              		.loc 1 950 0
 3048 13d8 1846     		mov	r0, r3
 3049 13da 1437     		adds	r7, r7, #20
 3050 13dc BD46     		mov	sp, r7
 3051              		@ sp needed
 3052 13de 5DF8047B 		ldr	r7, [sp], #4
 3053 13e2 7047     		bx	lr
 3054              		.cfi_endproc
 3055              	.LFE79:
 3057              		.align	2
 3058              		.global	USB_ReadDevAllInEpInterrupt
 3059              		.thumb
 3060              		.thumb_func
 3062              	USB_ReadDevAllInEpInterrupt:
 3063              	.LFB80:
 951:../STM32F2xx_HAL_Driver/Src/stm32f2xx_ll_usb.c **** 
 952:../STM32F2xx_HAL_Driver/Src/stm32f2xx_ll_usb.c **** /**
 953:../STM32F2xx_HAL_Driver/Src/stm32f2xx_ll_usb.c ****   * @brief  USB_ReadDevAllInEpInterrupt: return the USB device IN endpoints interrupt status
 954:../STM32F2xx_HAL_Driver/Src/stm32f2xx_ll_usb.c ****   * @param  USBx : Selected device
 955:../STM32F2xx_HAL_Driver/Src/stm32f2xx_ll_usb.c ****   * @retval HAL status
 956:../STM32F2xx_HAL_Driver/Src/stm32f2xx_ll_usb.c ****   */
 957:../STM32F2xx_HAL_Driver/Src/stm32f2xx_ll_usb.c **** uint32_t USB_ReadDevAllInEpInterrupt (USB_OTG_GlobalTypeDef *USBx)
 958:../STM32F2xx_HAL_Driver/Src/stm32f2xx_ll_usb.c **** {
 3064              		.loc 1 958 0
 3065              		.cfi_startproc
 3066              		@ args = 0, pretend = 0, frame = 16
 3067              		@ frame_needed = 1, uses_anonymous_args = 0
 3068              		@ link register save eliminated.
 3069 13e4 80B4     		push	{r7}
 3070              		.cfi_def_cfa_offset 4
 3071              		.cfi_offset 7, -4
 3072 13e6 85B0     		sub	sp, sp, #20
 3073              		.cfi_def_cfa_offset 24
 3074 13e8 00AF     		add	r7, sp, #0
 3075              		.cfi_def_cfa_register 7
 3076 13ea 7860     		str	r0, [r7, #4]
 959:../STM32F2xx_HAL_Driver/Src/stm32f2xx_ll_usb.c ****   uint32_t v;
 960:../STM32F2xx_HAL_Driver/Src/stm32f2xx_ll_usb.c ****   v  = USBx_DEVICE->DAINT;
 3077              		.loc 1 960 0
 3078 13ec 7B68     		ldr	r3, [r7, #4]
 3079 13ee 03F50063 		add	r3, r3, #2048
 3080 13f2 9B69     		ldr	r3, [r3, #24]
 3081 13f4 FB60     		str	r3, [r7, #12]
 961:../STM32F2xx_HAL_Driver/Src/stm32f2xx_ll_usb.c ****   v &= USBx_DEVICE->DAINTMSK;
 3082              		.loc 1 961 0
 3083 13f6 7B68     		ldr	r3, [r7, #4]
 3084 13f8 03F50063 		add	r3, r3, #2048
 3085 13fc DB69     		ldr	r3, [r3, #28]
 3086 13fe FA68     		ldr	r2, [r7, #12]
 3087 1400 1340     		ands	r3, r3, r2
 3088 1402 FB60     		str	r3, [r7, #12]
 962:../STM32F2xx_HAL_Driver/Src/stm32f2xx_ll_usb.c ****   return ((v & 0xFFFF));
 3089              		.loc 1 962 0
 3090 1404 FB68     		ldr	r3, [r7, #12]
 3091 1406 9BB2     		uxth	r3, r3
 963:../STM32F2xx_HAL_Driver/Src/stm32f2xx_ll_usb.c **** }
 3092              		.loc 1 963 0
 3093 1408 1846     		mov	r0, r3
 3094 140a 1437     		adds	r7, r7, #20
 3095 140c BD46     		mov	sp, r7
 3096              		@ sp needed
 3097 140e 5DF8047B 		ldr	r7, [sp], #4
 3098 1412 7047     		bx	lr
 3099              		.cfi_endproc
 3100              	.LFE80:
 3102              		.align	2
 3103              		.global	USB_ReadDevOutEPInterrupt
 3104              		.thumb
 3105              		.thumb_func
 3107              	USB_ReadDevOutEPInterrupt:
 3108              	.LFB81:
 964:../STM32F2xx_HAL_Driver/Src/stm32f2xx_ll_usb.c **** 
 965:../STM32F2xx_HAL_Driver/Src/stm32f2xx_ll_usb.c **** /**
 966:../STM32F2xx_HAL_Driver/Src/stm32f2xx_ll_usb.c ****   * @brief  Returns Device OUT EP Interrupt register
 967:../STM32F2xx_HAL_Driver/Src/stm32f2xx_ll_usb.c ****   * @param  USBx : Selected device
 968:../STM32F2xx_HAL_Driver/Src/stm32f2xx_ll_usb.c ****   * @param  epnum : endpoint number
 969:../STM32F2xx_HAL_Driver/Src/stm32f2xx_ll_usb.c ****   *          This parameter can be a value from 0 to 15
 970:../STM32F2xx_HAL_Driver/Src/stm32f2xx_ll_usb.c ****   * @retval Device OUT EP Interrupt register
 971:../STM32F2xx_HAL_Driver/Src/stm32f2xx_ll_usb.c ****   */
 972:../STM32F2xx_HAL_Driver/Src/stm32f2xx_ll_usb.c **** uint32_t USB_ReadDevOutEPInterrupt (USB_OTG_GlobalTypeDef *USBx , uint8_t epnum)
 973:../STM32F2xx_HAL_Driver/Src/stm32f2xx_ll_usb.c **** {
 3109              		.loc 1 973 0
 3110              		.cfi_startproc
 3111              		@ args = 0, pretend = 0, frame = 16
 3112              		@ frame_needed = 1, uses_anonymous_args = 0
 3113              		@ link register save eliminated.
 3114 1414 80B4     		push	{r7}
 3115              		.cfi_def_cfa_offset 4
 3116              		.cfi_offset 7, -4
 3117 1416 85B0     		sub	sp, sp, #20
 3118              		.cfi_def_cfa_offset 24
 3119 1418 00AF     		add	r7, sp, #0
 3120              		.cfi_def_cfa_register 7
 3121 141a 7860     		str	r0, [r7, #4]
 3122 141c 0B46     		mov	r3, r1
 3123 141e FB70     		strb	r3, [r7, #3]
 974:../STM32F2xx_HAL_Driver/Src/stm32f2xx_ll_usb.c ****   uint32_t v;
 975:../STM32F2xx_HAL_Driver/Src/stm32f2xx_ll_usb.c ****   v  = USBx_OUTEP(epnum)->DOEPINT;
 3124              		.loc 1 975 0
 3125 1420 FB78     		ldrb	r3, [r7, #3]	@ zero_extendqisi2
 3126 1422 5A01     		lsls	r2, r3, #5
 3127 1424 7B68     		ldr	r3, [r7, #4]
 3128 1426 1344     		add	r3, r3, r2
 3129 1428 03F53063 		add	r3, r3, #2816
 3130 142c 9B68     		ldr	r3, [r3, #8]
 3131 142e FB60     		str	r3, [r7, #12]
 976:../STM32F2xx_HAL_Driver/Src/stm32f2xx_ll_usb.c ****   v &= USBx_DEVICE->DOEPMSK;
 3132              		.loc 1 976 0
 3133 1430 7B68     		ldr	r3, [r7, #4]
 3134 1432 03F50063 		add	r3, r3, #2048
 3135 1436 5B69     		ldr	r3, [r3, #20]
 3136 1438 FA68     		ldr	r2, [r7, #12]
 3137 143a 1340     		ands	r3, r3, r2
 3138 143c FB60     		str	r3, [r7, #12]
 977:../STM32F2xx_HAL_Driver/Src/stm32f2xx_ll_usb.c ****   return v;
 3139              		.loc 1 977 0
 3140 143e FB68     		ldr	r3, [r7, #12]
 978:../STM32F2xx_HAL_Driver/Src/stm32f2xx_ll_usb.c **** }
 3141              		.loc 1 978 0
 3142 1440 1846     		mov	r0, r3
 3143 1442 1437     		adds	r7, r7, #20
 3144 1444 BD46     		mov	sp, r7
 3145              		@ sp needed
 3146 1446 5DF8047B 		ldr	r7, [sp], #4
 3147 144a 7047     		bx	lr
 3148              		.cfi_endproc
 3149              	.LFE81:
 3151              		.align	2
 3152              		.global	USB_ReadDevInEPInterrupt
 3153              		.thumb
 3154              		.thumb_func
 3156              	USB_ReadDevInEPInterrupt:
 3157              	.LFB82:
 979:../STM32F2xx_HAL_Driver/Src/stm32f2xx_ll_usb.c **** 
 980:../STM32F2xx_HAL_Driver/Src/stm32f2xx_ll_usb.c **** /**
 981:../STM32F2xx_HAL_Driver/Src/stm32f2xx_ll_usb.c ****   * @brief  Returns Device IN EP Interrupt register
 982:../STM32F2xx_HAL_Driver/Src/stm32f2xx_ll_usb.c ****   * @param  USBx : Selected device
 983:../STM32F2xx_HAL_Driver/Src/stm32f2xx_ll_usb.c ****   * @param  epnum : endpoint number
 984:../STM32F2xx_HAL_Driver/Src/stm32f2xx_ll_usb.c ****   *          This parameter can be a value from 0 to 15
 985:../STM32F2xx_HAL_Driver/Src/stm32f2xx_ll_usb.c ****   * @retval Device IN EP Interrupt register
 986:../STM32F2xx_HAL_Driver/Src/stm32f2xx_ll_usb.c ****   */
 987:../STM32F2xx_HAL_Driver/Src/stm32f2xx_ll_usb.c **** uint32_t USB_ReadDevInEPInterrupt (USB_OTG_GlobalTypeDef *USBx , uint8_t epnum)
 988:../STM32F2xx_HAL_Driver/Src/stm32f2xx_ll_usb.c **** {
 3158              		.loc 1 988 0
 3159              		.cfi_startproc
 3160              		@ args = 0, pretend = 0, frame = 24
 3161              		@ frame_needed = 1, uses_anonymous_args = 0
 3162              		@ link register save eliminated.
 3163 144c 80B4     		push	{r7}
 3164              		.cfi_def_cfa_offset 4
 3165              		.cfi_offset 7, -4
 3166 144e 87B0     		sub	sp, sp, #28
 3167              		.cfi_def_cfa_offset 32
 3168 1450 00AF     		add	r7, sp, #0
 3169              		.cfi_def_cfa_register 7
 3170 1452 7860     		str	r0, [r7, #4]
 3171 1454 0B46     		mov	r3, r1
 3172 1456 FB70     		strb	r3, [r7, #3]
 989:../STM32F2xx_HAL_Driver/Src/stm32f2xx_ll_usb.c ****   uint32_t v, msk, emp;
 990:../STM32F2xx_HAL_Driver/Src/stm32f2xx_ll_usb.c ****   
 991:../STM32F2xx_HAL_Driver/Src/stm32f2xx_ll_usb.c ****   msk = USBx_DEVICE->DIEPMSK;
 3173              		.loc 1 991 0
 3174 1458 7B68     		ldr	r3, [r7, #4]
 3175 145a 03F50063 		add	r3, r3, #2048
 3176 145e 1B69     		ldr	r3, [r3, #16]
 3177 1460 7B61     		str	r3, [r7, #20]
 992:../STM32F2xx_HAL_Driver/Src/stm32f2xx_ll_usb.c ****   emp = USBx_DEVICE->DIEPEMPMSK;
 3178              		.loc 1 992 0
 3179 1462 7B68     		ldr	r3, [r7, #4]
 3180 1464 03F50063 		add	r3, r3, #2048
 3181 1468 5B6B     		ldr	r3, [r3, #52]
 3182 146a 3B61     		str	r3, [r7, #16]
 993:../STM32F2xx_HAL_Driver/Src/stm32f2xx_ll_usb.c ****   msk |= ((emp >> epnum) & 0x1) << 7;
 3183              		.loc 1 993 0
 3184 146c FB78     		ldrb	r3, [r7, #3]	@ zero_extendqisi2
 3185 146e 3A69     		ldr	r2, [r7, #16]
 3186 1470 22FA03F3 		lsr	r3, r2, r3
 3187 1474 DB01     		lsls	r3, r3, #7
 3188 1476 DBB2     		uxtb	r3, r3
 3189 1478 7A69     		ldr	r2, [r7, #20]
 3190 147a 1343     		orrs	r3, r3, r2
 3191 147c 7B61     		str	r3, [r7, #20]
 994:../STM32F2xx_HAL_Driver/Src/stm32f2xx_ll_usb.c ****   v = USBx_INEP(epnum)->DIEPINT & msk;
 3192              		.loc 1 994 0
 3193 147e FB78     		ldrb	r3, [r7, #3]	@ zero_extendqisi2
 3194 1480 5A01     		lsls	r2, r3, #5
 3195 1482 7B68     		ldr	r3, [r7, #4]
 3196 1484 1344     		add	r3, r3, r2
 3197 1486 03F51063 		add	r3, r3, #2304
 3198 148a 9A68     		ldr	r2, [r3, #8]
 3199 148c 7B69     		ldr	r3, [r7, #20]
 3200 148e 1340     		ands	r3, r3, r2
 3201 1490 FB60     		str	r3, [r7, #12]
 995:../STM32F2xx_HAL_Driver/Src/stm32f2xx_ll_usb.c ****   return v;
 3202              		.loc 1 995 0
 3203 1492 FB68     		ldr	r3, [r7, #12]
 996:../STM32F2xx_HAL_Driver/Src/stm32f2xx_ll_usb.c **** }
 3204              		.loc 1 996 0
 3205 1494 1846     		mov	r0, r3
 3206 1496 1C37     		adds	r7, r7, #28
 3207 1498 BD46     		mov	sp, r7
 3208              		@ sp needed
 3209 149a 5DF8047B 		ldr	r7, [sp], #4
 3210 149e 7047     		bx	lr
 3211              		.cfi_endproc
 3212              	.LFE82:
 3214              		.align	2
 3215              		.global	USB_ClearInterrupts
 3216              		.thumb
 3217              		.thumb_func
 3219              	USB_ClearInterrupts:
 3220              	.LFB83:
 997:../STM32F2xx_HAL_Driver/Src/stm32f2xx_ll_usb.c **** 
 998:../STM32F2xx_HAL_Driver/Src/stm32f2xx_ll_usb.c **** /**
 999:../STM32F2xx_HAL_Driver/Src/stm32f2xx_ll_usb.c ****   * @brief  USB_ClearInterrupts: clear a USB interrupt
1000:../STM32F2xx_HAL_Driver/Src/stm32f2xx_ll_usb.c ****   * @param  USBx : Selected device
1001:../STM32F2xx_HAL_Driver/Src/stm32f2xx_ll_usb.c ****   * @param  interrupt : interrupt flag
1002:../STM32F2xx_HAL_Driver/Src/stm32f2xx_ll_usb.c ****   * @retval None
1003:../STM32F2xx_HAL_Driver/Src/stm32f2xx_ll_usb.c ****   */
1004:../STM32F2xx_HAL_Driver/Src/stm32f2xx_ll_usb.c **** void  USB_ClearInterrupts (USB_OTG_GlobalTypeDef *USBx, uint32_t interrupt)
1005:../STM32F2xx_HAL_Driver/Src/stm32f2xx_ll_usb.c **** {
 3221              		.loc 1 1005 0
 3222              		.cfi_startproc
 3223              		@ args = 0, pretend = 0, frame = 8
 3224              		@ frame_needed = 1, uses_anonymous_args = 0
 3225              		@ link register save eliminated.
 3226 14a0 80B4     		push	{r7}
 3227              		.cfi_def_cfa_offset 4
 3228              		.cfi_offset 7, -4
 3229 14a2 83B0     		sub	sp, sp, #12
 3230              		.cfi_def_cfa_offset 16
 3231 14a4 00AF     		add	r7, sp, #0
 3232              		.cfi_def_cfa_register 7
 3233 14a6 7860     		str	r0, [r7, #4]
 3234 14a8 3960     		str	r1, [r7]
1006:../STM32F2xx_HAL_Driver/Src/stm32f2xx_ll_usb.c ****   USBx->GINTSTS |= interrupt; 
 3235              		.loc 1 1006 0
 3236 14aa 7B68     		ldr	r3, [r7, #4]
 3237 14ac 5A69     		ldr	r2, [r3, #20]
 3238 14ae 3B68     		ldr	r3, [r7]
 3239 14b0 1A43     		orrs	r2, r2, r3
 3240 14b2 7B68     		ldr	r3, [r7, #4]
 3241 14b4 5A61     		str	r2, [r3, #20]
1007:../STM32F2xx_HAL_Driver/Src/stm32f2xx_ll_usb.c **** }
 3242              		.loc 1 1007 0
 3243 14b6 0C37     		adds	r7, r7, #12
 3244 14b8 BD46     		mov	sp, r7
 3245              		@ sp needed
 3246 14ba 5DF8047B 		ldr	r7, [sp], #4
 3247 14be 7047     		bx	lr
 3248              		.cfi_endproc
 3249              	.LFE83:
 3251              		.align	2
 3252              		.global	USB_GetMode
 3253              		.thumb
 3254              		.thumb_func
 3256              	USB_GetMode:
 3257              	.LFB84:
1008:../STM32F2xx_HAL_Driver/Src/stm32f2xx_ll_usb.c **** 
1009:../STM32F2xx_HAL_Driver/Src/stm32f2xx_ll_usb.c **** /**
1010:../STM32F2xx_HAL_Driver/Src/stm32f2xx_ll_usb.c ****   * @brief  Returns USB core mode
1011:../STM32F2xx_HAL_Driver/Src/stm32f2xx_ll_usb.c ****   * @param  USBx : Selected device
1012:../STM32F2xx_HAL_Driver/Src/stm32f2xx_ll_usb.c ****   * @retval return core mode : Host or Device
1013:../STM32F2xx_HAL_Driver/Src/stm32f2xx_ll_usb.c ****   *          This parameter can be one of the these values:
1014:../STM32F2xx_HAL_Driver/Src/stm32f2xx_ll_usb.c ****   *           0 : Host 
1015:../STM32F2xx_HAL_Driver/Src/stm32f2xx_ll_usb.c ****   *           1 : Device
1016:../STM32F2xx_HAL_Driver/Src/stm32f2xx_ll_usb.c ****   */
1017:../STM32F2xx_HAL_Driver/Src/stm32f2xx_ll_usb.c **** uint32_t USB_GetMode(USB_OTG_GlobalTypeDef *USBx)
1018:../STM32F2xx_HAL_Driver/Src/stm32f2xx_ll_usb.c **** {
 3258              		.loc 1 1018 0
 3259              		.cfi_startproc
 3260              		@ args = 0, pretend = 0, frame = 8
 3261              		@ frame_needed = 1, uses_anonymous_args = 0
 3262              		@ link register save eliminated.
 3263 14c0 80B4     		push	{r7}
 3264              		.cfi_def_cfa_offset 4
 3265              		.cfi_offset 7, -4
 3266 14c2 83B0     		sub	sp, sp, #12
 3267              		.cfi_def_cfa_offset 16
 3268 14c4 00AF     		add	r7, sp, #0
 3269              		.cfi_def_cfa_register 7
 3270 14c6 7860     		str	r0, [r7, #4]
1019:../STM32F2xx_HAL_Driver/Src/stm32f2xx_ll_usb.c ****   return ((USBx->GINTSTS ) & 0x1);
 3271              		.loc 1 1019 0
 3272 14c8 7B68     		ldr	r3, [r7, #4]
 3273 14ca 5B69     		ldr	r3, [r3, #20]
 3274 14cc 03F00103 		and	r3, r3, #1
1020:../STM32F2xx_HAL_Driver/Src/stm32f2xx_ll_usb.c **** }
 3275              		.loc 1 1020 0
 3276 14d0 1846     		mov	r0, r3
 3277 14d2 0C37     		adds	r7, r7, #12
 3278 14d4 BD46     		mov	sp, r7
 3279              		@ sp needed
 3280 14d6 5DF8047B 		ldr	r7, [sp], #4
 3281 14da 7047     		bx	lr
 3282              		.cfi_endproc
 3283              	.LFE84:
 3285              		.align	2
 3286              		.global	USB_ActivateSetup
 3287              		.thumb
 3288              		.thumb_func
 3290              	USB_ActivateSetup:
 3291              	.LFB85:
1021:../STM32F2xx_HAL_Driver/Src/stm32f2xx_ll_usb.c **** 
1022:../STM32F2xx_HAL_Driver/Src/stm32f2xx_ll_usb.c **** 
1023:../STM32F2xx_HAL_Driver/Src/stm32f2xx_ll_usb.c **** /**
1024:../STM32F2xx_HAL_Driver/Src/stm32f2xx_ll_usb.c ****   * @brief  Activate EP0 for Setup transactions
1025:../STM32F2xx_HAL_Driver/Src/stm32f2xx_ll_usb.c ****   * @param  USBx : Selected device
1026:../STM32F2xx_HAL_Driver/Src/stm32f2xx_ll_usb.c ****   * @retval HAL status
1027:../STM32F2xx_HAL_Driver/Src/stm32f2xx_ll_usb.c ****   */
1028:../STM32F2xx_HAL_Driver/Src/stm32f2xx_ll_usb.c **** HAL_StatusTypeDef  USB_ActivateSetup (USB_OTG_GlobalTypeDef *USBx)
1029:../STM32F2xx_HAL_Driver/Src/stm32f2xx_ll_usb.c **** {
 3292              		.loc 1 1029 0
 3293              		.cfi_startproc
 3294              		@ args = 0, pretend = 0, frame = 8
 3295              		@ frame_needed = 1, uses_anonymous_args = 0
 3296              		@ link register save eliminated.
 3297 14dc 80B4     		push	{r7}
 3298              		.cfi_def_cfa_offset 4
 3299              		.cfi_offset 7, -4
 3300 14de 83B0     		sub	sp, sp, #12
 3301              		.cfi_def_cfa_offset 16
 3302 14e0 00AF     		add	r7, sp, #0
 3303              		.cfi_def_cfa_register 7
 3304 14e2 7860     		str	r0, [r7, #4]
1030:../STM32F2xx_HAL_Driver/Src/stm32f2xx_ll_usb.c ****   /* Set the MPS of the IN EP based on the enumeration speed */
1031:../STM32F2xx_HAL_Driver/Src/stm32f2xx_ll_usb.c ****   USBx_INEP(0)->DIEPCTL &= ~USB_OTG_DIEPCTL_MPSIZ;
 3305              		.loc 1 1031 0
 3306 14e4 7B68     		ldr	r3, [r7, #4]
 3307 14e6 03F51063 		add	r3, r3, #2304
 3308 14ea 1A46     		mov	r2, r3
 3309 14ec 7B68     		ldr	r3, [r7, #4]
 3310 14ee 03F51063 		add	r3, r3, #2304
 3311 14f2 1B68     		ldr	r3, [r3]
 3312 14f4 23F4FF63 		bic	r3, r3, #2040
 3313 14f8 23F00703 		bic	r3, r3, #7
 3314 14fc 1360     		str	r3, [r2]
1032:../STM32F2xx_HAL_Driver/Src/stm32f2xx_ll_usb.c ****   
1033:../STM32F2xx_HAL_Driver/Src/stm32f2xx_ll_usb.c ****   if((USBx_DEVICE->DSTS & USB_OTG_DSTS_ENUMSPD) == DSTS_ENUMSPD_LS_PHY_6MHZ)
 3315              		.loc 1 1033 0
 3316 14fe 7B68     		ldr	r3, [r7, #4]
 3317 1500 03F50063 		add	r3, r3, #2048
 3318 1504 9B68     		ldr	r3, [r3, #8]
 3319 1506 03F00603 		and	r3, r3, #6
 3320 150a 042B     		cmp	r3, #4
 3321 150c 09D1     		bne	.L142
1034:../STM32F2xx_HAL_Driver/Src/stm32f2xx_ll_usb.c ****   {
1035:../STM32F2xx_HAL_Driver/Src/stm32f2xx_ll_usb.c ****     USBx_INEP(0)->DIEPCTL |= 3;
 3322              		.loc 1 1035 0
 3323 150e 7B68     		ldr	r3, [r7, #4]
 3324 1510 03F51063 		add	r3, r3, #2304
 3325 1514 7A68     		ldr	r2, [r7, #4]
 3326 1516 02F51062 		add	r2, r2, #2304
 3327 151a 1268     		ldr	r2, [r2]
 3328 151c 42F00302 		orr	r2, r2, #3
 3329 1520 1A60     		str	r2, [r3]
 3330              	.L142:
1036:../STM32F2xx_HAL_Driver/Src/stm32f2xx_ll_usb.c ****   }
1037:../STM32F2xx_HAL_Driver/Src/stm32f2xx_ll_usb.c ****   USBx_DEVICE->DCTL |= USB_OTG_DCTL_CGINAK;
 3331              		.loc 1 1037 0
 3332 1522 7B68     		ldr	r3, [r7, #4]
 3333 1524 03F50063 		add	r3, r3, #2048
 3334 1528 7A68     		ldr	r2, [r7, #4]
 3335 152a 02F50062 		add	r2, r2, #2048
 3336 152e 5268     		ldr	r2, [r2, #4]
 3337 1530 42F48072 		orr	r2, r2, #256
 3338 1534 5A60     		str	r2, [r3, #4]
1038:../STM32F2xx_HAL_Driver/Src/stm32f2xx_ll_usb.c **** 
1039:../STM32F2xx_HAL_Driver/Src/stm32f2xx_ll_usb.c ****   return HAL_OK;
 3339              		.loc 1 1039 0
 3340 1536 0023     		movs	r3, #0
1040:../STM32F2xx_HAL_Driver/Src/stm32f2xx_ll_usb.c **** }
 3341              		.loc 1 1040 0
 3342 1538 1846     		mov	r0, r3
 3343 153a 0C37     		adds	r7, r7, #12
 3344 153c BD46     		mov	sp, r7
 3345              		@ sp needed
 3346 153e 5DF8047B 		ldr	r7, [sp], #4
 3347 1542 7047     		bx	lr
 3348              		.cfi_endproc
 3349              	.LFE85:
 3351              		.align	2
 3352              		.global	USB_EP0_OutStart
 3353              		.thumb
 3354              		.thumb_func
 3356              	USB_EP0_OutStart:
 3357              	.LFB86:
1041:../STM32F2xx_HAL_Driver/Src/stm32f2xx_ll_usb.c **** 
1042:../STM32F2xx_HAL_Driver/Src/stm32f2xx_ll_usb.c **** 
1043:../STM32F2xx_HAL_Driver/Src/stm32f2xx_ll_usb.c **** /**
1044:../STM32F2xx_HAL_Driver/Src/stm32f2xx_ll_usb.c ****   * @brief  Prepare the EP0 to start the first control setup
1045:../STM32F2xx_HAL_Driver/Src/stm32f2xx_ll_usb.c ****   * @param  USBx : Selected device
1046:../STM32F2xx_HAL_Driver/Src/stm32f2xx_ll_usb.c ****   * @param  dma: USB dma enabled or disabled 
1047:../STM32F2xx_HAL_Driver/Src/stm32f2xx_ll_usb.c ****   *          This parameter can be one of the these values:
1048:../STM32F2xx_HAL_Driver/Src/stm32f2xx_ll_usb.c ****   *           0 : DMA feature not used 
1049:../STM32F2xx_HAL_Driver/Src/stm32f2xx_ll_usb.c ****   *           1 : DMA feature used  
1050:../STM32F2xx_HAL_Driver/Src/stm32f2xx_ll_usb.c ****   * @param  psetup : pointer to setup packet
1051:../STM32F2xx_HAL_Driver/Src/stm32f2xx_ll_usb.c ****   * @retval HAL status
1052:../STM32F2xx_HAL_Driver/Src/stm32f2xx_ll_usb.c ****   */
1053:../STM32F2xx_HAL_Driver/Src/stm32f2xx_ll_usb.c **** HAL_StatusTypeDef USB_EP0_OutStart(USB_OTG_GlobalTypeDef *USBx, uint8_t dma, uint8_t *psetup)
1054:../STM32F2xx_HAL_Driver/Src/stm32f2xx_ll_usb.c **** {
 3358              		.loc 1 1054 0
 3359              		.cfi_startproc
 3360              		@ args = 0, pretend = 0, frame = 16
 3361              		@ frame_needed = 1, uses_anonymous_args = 0
 3362              		@ link register save eliminated.
 3363 1544 80B4     		push	{r7}
 3364              		.cfi_def_cfa_offset 4
 3365              		.cfi_offset 7, -4
 3366 1546 85B0     		sub	sp, sp, #20
 3367              		.cfi_def_cfa_offset 24
 3368 1548 00AF     		add	r7, sp, #0
 3369              		.cfi_def_cfa_register 7
 3370 154a F860     		str	r0, [r7, #12]
 3371 154c 0B46     		mov	r3, r1
 3372 154e 7A60     		str	r2, [r7, #4]
 3373 1550 FB72     		strb	r3, [r7, #11]
1055:../STM32F2xx_HAL_Driver/Src/stm32f2xx_ll_usb.c ****   USBx_OUTEP(0)->DOEPTSIZ = 0;
 3374              		.loc 1 1055 0
 3375 1552 FB68     		ldr	r3, [r7, #12]
 3376 1554 03F53063 		add	r3, r3, #2816
 3377 1558 0022     		movs	r2, #0
 3378 155a 1A61     		str	r2, [r3, #16]
1056:../STM32F2xx_HAL_Driver/Src/stm32f2xx_ll_usb.c ****   USBx_OUTEP(0)->DOEPTSIZ |= (USB_OTG_DOEPTSIZ_PKTCNT & (1 << 19)) ;
 3379              		.loc 1 1056 0
 3380 155c FB68     		ldr	r3, [r7, #12]
 3381 155e 03F53063 		add	r3, r3, #2816
 3382 1562 FA68     		ldr	r2, [r7, #12]
 3383 1564 02F53062 		add	r2, r2, #2816
 3384 1568 1269     		ldr	r2, [r2, #16]
 3385 156a 42F40022 		orr	r2, r2, #524288
 3386 156e 1A61     		str	r2, [r3, #16]
1057:../STM32F2xx_HAL_Driver/Src/stm32f2xx_ll_usb.c ****   USBx_OUTEP(0)->DOEPTSIZ |= (3 * 8);
 3387              		.loc 1 1057 0
 3388 1570 FB68     		ldr	r3, [r7, #12]
 3389 1572 03F53063 		add	r3, r3, #2816
 3390 1576 FA68     		ldr	r2, [r7, #12]
 3391 1578 02F53062 		add	r2, r2, #2816
 3392 157c 1269     		ldr	r2, [r2, #16]
 3393 157e 42F01802 		orr	r2, r2, #24
 3394 1582 1A61     		str	r2, [r3, #16]
1058:../STM32F2xx_HAL_Driver/Src/stm32f2xx_ll_usb.c ****   USBx_OUTEP(0)->DOEPTSIZ |=  USB_OTG_DOEPTSIZ_STUPCNT;  
 3395              		.loc 1 1058 0
 3396 1584 FB68     		ldr	r3, [r7, #12]
 3397 1586 03F53063 		add	r3, r3, #2816
 3398 158a FA68     		ldr	r2, [r7, #12]
 3399 158c 02F53062 		add	r2, r2, #2816
 3400 1590 1269     		ldr	r2, [r2, #16]
 3401 1592 42F0C042 		orr	r2, r2, #1610612736
 3402 1596 1A61     		str	r2, [r3, #16]
1059:../STM32F2xx_HAL_Driver/Src/stm32f2xx_ll_usb.c ****   
1060:../STM32F2xx_HAL_Driver/Src/stm32f2xx_ll_usb.c ****   if (dma == 1)
 3403              		.loc 1 1060 0
 3404 1598 FB7A     		ldrb	r3, [r7, #11]	@ zero_extendqisi2
 3405 159a 012B     		cmp	r3, #1
 3406 159c 0AD1     		bne	.L145
1061:../STM32F2xx_HAL_Driver/Src/stm32f2xx_ll_usb.c ****   {
1062:../STM32F2xx_HAL_Driver/Src/stm32f2xx_ll_usb.c ****     USBx_OUTEP(0)->DOEPDMA = (uint32_t)psetup;
 3407              		.loc 1 1062 0
 3408 159e FB68     		ldr	r3, [r7, #12]
 3409 15a0 03F53063 		add	r3, r3, #2816
 3410 15a4 7A68     		ldr	r2, [r7, #4]
 3411 15a6 5A61     		str	r2, [r3, #20]
1063:../STM32F2xx_HAL_Driver/Src/stm32f2xx_ll_usb.c ****     /* EP enable */
1064:../STM32F2xx_HAL_Driver/Src/stm32f2xx_ll_usb.c ****     USBx_OUTEP(0)->DOEPCTL = 0x80008000;
 3412              		.loc 1 1064 0
 3413 15a8 FB68     		ldr	r3, [r7, #12]
 3414 15aa 03F53063 		add	r3, r3, #2816
 3415 15ae 4FF08022 		mov	r2, #-2147450880
 3416 15b2 1A60     		str	r2, [r3]
 3417              	.L145:
1065:../STM32F2xx_HAL_Driver/Src/stm32f2xx_ll_usb.c ****   }
1066:../STM32F2xx_HAL_Driver/Src/stm32f2xx_ll_usb.c ****   
1067:../STM32F2xx_HAL_Driver/Src/stm32f2xx_ll_usb.c ****   return HAL_OK;  
 3418              		.loc 1 1067 0
 3419 15b4 0023     		movs	r3, #0
1068:../STM32F2xx_HAL_Driver/Src/stm32f2xx_ll_usb.c **** }
 3420              		.loc 1 1068 0
 3421 15b6 1846     		mov	r0, r3
 3422 15b8 1437     		adds	r7, r7, #20
 3423 15ba BD46     		mov	sp, r7
 3424              		@ sp needed
 3425 15bc 5DF8047B 		ldr	r7, [sp], #4
 3426 15c0 7047     		bx	lr
 3427              		.cfi_endproc
 3428              	.LFE86:
 3430 15c2 00BF     		.align	2
 3431              		.thumb
 3432              		.thumb_func
 3434              	USB_CoreReset:
 3435              	.LFB87:
1069:../STM32F2xx_HAL_Driver/Src/stm32f2xx_ll_usb.c **** 
1070:../STM32F2xx_HAL_Driver/Src/stm32f2xx_ll_usb.c **** 
1071:../STM32F2xx_HAL_Driver/Src/stm32f2xx_ll_usb.c **** /**
1072:../STM32F2xx_HAL_Driver/Src/stm32f2xx_ll_usb.c ****   * @brief  Reset the USB Core (needed after USB clock settings change)
1073:../STM32F2xx_HAL_Driver/Src/stm32f2xx_ll_usb.c ****   * @param  USBx : Selected device
1074:../STM32F2xx_HAL_Driver/Src/stm32f2xx_ll_usb.c ****   * @retval HAL status
1075:../STM32F2xx_HAL_Driver/Src/stm32f2xx_ll_usb.c ****   */
1076:../STM32F2xx_HAL_Driver/Src/stm32f2xx_ll_usb.c **** static HAL_StatusTypeDef USB_CoreReset(USB_OTG_GlobalTypeDef *USBx)
1077:../STM32F2xx_HAL_Driver/Src/stm32f2xx_ll_usb.c **** {
 3436              		.loc 1 1077 0
 3437              		.cfi_startproc
 3438              		@ args = 0, pretend = 0, frame = 16
 3439              		@ frame_needed = 1, uses_anonymous_args = 0
 3440              		@ link register save eliminated.
 3441 15c4 80B4     		push	{r7}
 3442              		.cfi_def_cfa_offset 4
 3443              		.cfi_offset 7, -4
 3444 15c6 85B0     		sub	sp, sp, #20
 3445              		.cfi_def_cfa_offset 24
 3446 15c8 00AF     		add	r7, sp, #0
 3447              		.cfi_def_cfa_register 7
 3448 15ca 7860     		str	r0, [r7, #4]
1078:../STM32F2xx_HAL_Driver/Src/stm32f2xx_ll_usb.c ****   uint32_t count = 0;
 3449              		.loc 1 1078 0
 3450 15cc 0023     		movs	r3, #0
 3451 15ce FB60     		str	r3, [r7, #12]
 3452              	.L150:
1079:../STM32F2xx_HAL_Driver/Src/stm32f2xx_ll_usb.c **** 
1080:../STM32F2xx_HAL_Driver/Src/stm32f2xx_ll_usb.c ****   /* Wait for AHB master IDLE state. */
1081:../STM32F2xx_HAL_Driver/Src/stm32f2xx_ll_usb.c ****   do
1082:../STM32F2xx_HAL_Driver/Src/stm32f2xx_ll_usb.c ****   {
1083:../STM32F2xx_HAL_Driver/Src/stm32f2xx_ll_usb.c ****     if (++count > 200000)
 3453              		.loc 1 1083 0
 3454 15d0 FB68     		ldr	r3, [r7, #12]
 3455 15d2 0133     		adds	r3, r3, #1
 3456 15d4 FB60     		str	r3, [r7, #12]
 3457 15d6 FA68     		ldr	r2, [r7, #12]
 3458 15d8 4FF45463 		mov	r3, #3392
 3459 15dc C0F20303 		movt	r3, 3
 3460 15e0 9A42     		cmp	r2, r3
 3461 15e2 01D9     		bls	.L148
1084:../STM32F2xx_HAL_Driver/Src/stm32f2xx_ll_usb.c ****     {
1085:../STM32F2xx_HAL_Driver/Src/stm32f2xx_ll_usb.c ****       return HAL_TIMEOUT;
 3462              		.loc 1 1085 0
 3463 15e4 0323     		movs	r3, #3
 3464 15e6 1EE0     		b	.L149
 3465              	.L148:
1086:../STM32F2xx_HAL_Driver/Src/stm32f2xx_ll_usb.c ****     }
1087:../STM32F2xx_HAL_Driver/Src/stm32f2xx_ll_usb.c ****   }
1088:../STM32F2xx_HAL_Driver/Src/stm32f2xx_ll_usb.c ****   while ((USBx->GRSTCTL & USB_OTG_GRSTCTL_AHBIDL) == 0);
 3466              		.loc 1 1088 0
 3467 15e8 7B68     		ldr	r3, [r7, #4]
 3468 15ea 1B69     		ldr	r3, [r3, #16]
 3469 15ec 002B     		cmp	r3, #0
 3470 15ee EFDA     		bge	.L150
1089:../STM32F2xx_HAL_Driver/Src/stm32f2xx_ll_usb.c ****   
1090:../STM32F2xx_HAL_Driver/Src/stm32f2xx_ll_usb.c ****   /* Core Soft Reset */
1091:../STM32F2xx_HAL_Driver/Src/stm32f2xx_ll_usb.c ****   count = 0;
 3471              		.loc 1 1091 0
 3472 15f0 0023     		movs	r3, #0
 3473 15f2 FB60     		str	r3, [r7, #12]
1092:../STM32F2xx_HAL_Driver/Src/stm32f2xx_ll_usb.c ****   USBx->GRSTCTL |= USB_OTG_GRSTCTL_CSRST;
 3474              		.loc 1 1092 0
 3475 15f4 7B68     		ldr	r3, [r7, #4]
 3476 15f6 1B69     		ldr	r3, [r3, #16]
 3477 15f8 43F00102 		orr	r2, r3, #1
 3478 15fc 7B68     		ldr	r3, [r7, #4]
 3479 15fe 1A61     		str	r2, [r3, #16]
 3480              	.L152:
1093:../STM32F2xx_HAL_Driver/Src/stm32f2xx_ll_usb.c **** 
1094:../STM32F2xx_HAL_Driver/Src/stm32f2xx_ll_usb.c ****   do
1095:../STM32F2xx_HAL_Driver/Src/stm32f2xx_ll_usb.c ****   {
1096:../STM32F2xx_HAL_Driver/Src/stm32f2xx_ll_usb.c ****     if (++count > 200000)
 3481              		.loc 1 1096 0
 3482 1600 FB68     		ldr	r3, [r7, #12]
 3483 1602 0133     		adds	r3, r3, #1
 3484 1604 FB60     		str	r3, [r7, #12]
 3485 1606 FA68     		ldr	r2, [r7, #12]
 3486 1608 4FF45463 		mov	r3, #3392
 3487 160c C0F20303 		movt	r3, 3
 3488 1610 9A42     		cmp	r2, r3
 3489 1612 01D9     		bls	.L151
1097:../STM32F2xx_HAL_Driver/Src/stm32f2xx_ll_usb.c ****     {
1098:../STM32F2xx_HAL_Driver/Src/stm32f2xx_ll_usb.c ****       return HAL_TIMEOUT;
 3490              		.loc 1 1098 0
 3491 1614 0323     		movs	r3, #3
 3492 1616 06E0     		b	.L149
 3493              	.L151:
1099:../STM32F2xx_HAL_Driver/Src/stm32f2xx_ll_usb.c ****     }
1100:../STM32F2xx_HAL_Driver/Src/stm32f2xx_ll_usb.c ****   }
1101:../STM32F2xx_HAL_Driver/Src/stm32f2xx_ll_usb.c ****   while ((USBx->GRSTCTL & USB_OTG_GRSTCTL_CSRST) == USB_OTG_GRSTCTL_CSRST);
 3494              		.loc 1 1101 0
 3495 1618 7B68     		ldr	r3, [r7, #4]
 3496 161a 1B69     		ldr	r3, [r3, #16]
 3497 161c 03F00103 		and	r3, r3, #1
 3498 1620 002B     		cmp	r3, #0
 3499 1622 EDD1     		bne	.L152
1102:../STM32F2xx_HAL_Driver/Src/stm32f2xx_ll_usb.c ****   
1103:../STM32F2xx_HAL_Driver/Src/stm32f2xx_ll_usb.c ****   return HAL_OK;
 3500              		.loc 1 1103 0
 3501 1624 0023     		movs	r3, #0
 3502              	.L149:
1104:../STM32F2xx_HAL_Driver/Src/stm32f2xx_ll_usb.c **** }
 3503              		.loc 1 1104 0
 3504 1626 1846     		mov	r0, r3
 3505 1628 1437     		adds	r7, r7, #20
 3506 162a BD46     		mov	sp, r7
 3507              		@ sp needed
 3508 162c 5DF8047B 		ldr	r7, [sp], #4
 3509 1630 7047     		bx	lr
 3510              		.cfi_endproc
 3511              	.LFE87:
 3513 1632 00BF     		.align	2
 3514              		.global	USB_HostInit
 3515              		.thumb
 3516              		.thumb_func
 3518              	USB_HostInit:
 3519              	.LFB88:
1105:../STM32F2xx_HAL_Driver/Src/stm32f2xx_ll_usb.c **** 
1106:../STM32F2xx_HAL_Driver/Src/stm32f2xx_ll_usb.c **** 
1107:../STM32F2xx_HAL_Driver/Src/stm32f2xx_ll_usb.c **** /**
1108:../STM32F2xx_HAL_Driver/Src/stm32f2xx_ll_usb.c ****   * @brief  USB_HostInit : Initializes the USB OTG controller registers 
1109:../STM32F2xx_HAL_Driver/Src/stm32f2xx_ll_usb.c ****   *         for Host mode 
1110:../STM32F2xx_HAL_Driver/Src/stm32f2xx_ll_usb.c ****   * @param  USBx : Selected device
1111:../STM32F2xx_HAL_Driver/Src/stm32f2xx_ll_usb.c ****   * @param  cfg  : pointer to a USB_OTG_CfgTypeDef structure that contains
1112:../STM32F2xx_HAL_Driver/Src/stm32f2xx_ll_usb.c ****   *         the configuration information for the specified USBx peripheral.
1113:../STM32F2xx_HAL_Driver/Src/stm32f2xx_ll_usb.c ****   * @retval HAL status
1114:../STM32F2xx_HAL_Driver/Src/stm32f2xx_ll_usb.c ****   */
1115:../STM32F2xx_HAL_Driver/Src/stm32f2xx_ll_usb.c **** HAL_StatusTypeDef USB_HostInit (USB_OTG_GlobalTypeDef *USBx, USB_OTG_CfgTypeDef cfg)
1116:../STM32F2xx_HAL_Driver/Src/stm32f2xx_ll_usb.c **** {
 3520              		.loc 1 1116 0
 3521              		.cfi_startproc
 3522              		@ args = 48, pretend = 16, frame = 16
 3523              		@ frame_needed = 1, uses_anonymous_args = 0
 3524 1634 84B0     		sub	sp, sp, #16
 3525              		.cfi_def_cfa_offset 16
 3526 1636 80B5     		push	{r7, lr}
 3527              		.cfi_def_cfa_offset 24
 3528              		.cfi_offset 7, -24
 3529              		.cfi_offset 14, -20
 3530 1638 84B0     		sub	sp, sp, #16
 3531              		.cfi_def_cfa_offset 40
 3532 163a 00AF     		add	r7, sp, #0
 3533              		.cfi_def_cfa_register 7
 3534 163c 7860     		str	r0, [r7, #4]
 3535 163e 07F11C00 		add	r0, r7, #28
 3536 1642 80E80E00 		stmia	r0, {r1, r2, r3}
1117:../STM32F2xx_HAL_Driver/Src/stm32f2xx_ll_usb.c ****   uint32_t i;
1118:../STM32F2xx_HAL_Driver/Src/stm32f2xx_ll_usb.c ****   
1119:../STM32F2xx_HAL_Driver/Src/stm32f2xx_ll_usb.c ****   /* Restart the Phy Clock */
1120:../STM32F2xx_HAL_Driver/Src/stm32f2xx_ll_usb.c ****   USBx_PCGCCTL = 0;
 3537              		.loc 1 1120 0
 3538 1646 7B68     		ldr	r3, [r7, #4]
 3539 1648 03F56063 		add	r3, r3, #3584
 3540 164c 0022     		movs	r2, #0
 3541 164e 1A60     		str	r2, [r3]
1121:../STM32F2xx_HAL_Driver/Src/stm32f2xx_ll_usb.c ****   
1122:../STM32F2xx_HAL_Driver/Src/stm32f2xx_ll_usb.c ****   /* no VBUS sensing*/
1123:../STM32F2xx_HAL_Driver/Src/stm32f2xx_ll_usb.c ****   USBx->GCCFG &=~ (USB_OTG_GCCFG_VBUSASEN);
 3542              		.loc 1 1123 0
 3543 1650 7B68     		ldr	r3, [r7, #4]
 3544 1652 9B6B     		ldr	r3, [r3, #56]
 3545 1654 23F48022 		bic	r2, r3, #262144
 3546 1658 7B68     		ldr	r3, [r7, #4]
 3547 165a 9A63     		str	r2, [r3, #56]
1124:../STM32F2xx_HAL_Driver/Src/stm32f2xx_ll_usb.c ****   USBx->GCCFG &=~ (USB_OTG_GCCFG_VBUSBSEN);
 3548              		.loc 1 1124 0
 3549 165c 7B68     		ldr	r3, [r7, #4]
 3550 165e 9B6B     		ldr	r3, [r3, #56]
 3551 1660 23F40022 		bic	r2, r3, #524288
 3552 1664 7B68     		ldr	r3, [r7, #4]
 3553 1666 9A63     		str	r2, [r3, #56]
1125:../STM32F2xx_HAL_Driver/Src/stm32f2xx_ll_usb.c ****   USBx->GCCFG |= USB_OTG_GCCFG_NOVBUSSENS;
 3554              		.loc 1 1125 0
 3555 1668 7B68     		ldr	r3, [r7, #4]
 3556 166a 9B6B     		ldr	r3, [r3, #56]
 3557 166c 43F40012 		orr	r2, r3, #2097152
 3558 1670 7B68     		ldr	r3, [r7, #4]
 3559 1672 9A63     		str	r2, [r3, #56]
1126:../STM32F2xx_HAL_Driver/Src/stm32f2xx_ll_usb.c ****   
1127:../STM32F2xx_HAL_Driver/Src/stm32f2xx_ll_usb.c ****   /* Disable the FS/LS support mode only */
1128:../STM32F2xx_HAL_Driver/Src/stm32f2xx_ll_usb.c ****   if((cfg.speed == USB_OTG_SPEED_FULL)&&
 3560              		.loc 1 1128 0
 3561 1674 7B6A     		ldr	r3, [r7, #36]
 3562 1676 032B     		cmp	r3, #3
 3563 1678 0ED1     		bne	.L154
 3564              		.loc 1 1128 0 is_stmt 0 discriminator 1
 3565 167a 7B68     		ldr	r3, [r7, #4]
 3566 167c B3F1A04F 		cmp	r3, #1342177280
 3567 1680 0AD0     		beq	.L154
1129:../STM32F2xx_HAL_Driver/Src/stm32f2xx_ll_usb.c ****      (USBx != USB_OTG_FS))
1130:../STM32F2xx_HAL_Driver/Src/stm32f2xx_ll_usb.c ****   {
1131:../STM32F2xx_HAL_Driver/Src/stm32f2xx_ll_usb.c ****     USBx_HOST->HCFG |= USB_OTG_HCFG_FSLSS; 
 3568              		.loc 1 1131 0 is_stmt 1
 3569 1682 7B68     		ldr	r3, [r7, #4]
 3570 1684 03F58063 		add	r3, r3, #1024
 3571 1688 7A68     		ldr	r2, [r7, #4]
 3572 168a 02F58062 		add	r2, r2, #1024
 3573 168e 1268     		ldr	r2, [r2]
 3574 1690 42F00402 		orr	r2, r2, #4
 3575 1694 1A60     		str	r2, [r3]
 3576 1696 09E0     		b	.L155
 3577              	.L154:
1132:../STM32F2xx_HAL_Driver/Src/stm32f2xx_ll_usb.c ****   }
1133:../STM32F2xx_HAL_Driver/Src/stm32f2xx_ll_usb.c ****   else
1134:../STM32F2xx_HAL_Driver/Src/stm32f2xx_ll_usb.c ****   {
1135:../STM32F2xx_HAL_Driver/Src/stm32f2xx_ll_usb.c ****     USBx_HOST->HCFG &= ~(USB_OTG_HCFG_FSLSS);  
 3578              		.loc 1 1135 0
 3579 1698 7B68     		ldr	r3, [r7, #4]
 3580 169a 03F58063 		add	r3, r3, #1024
 3581 169e 7A68     		ldr	r2, [r7, #4]
 3582 16a0 02F58062 		add	r2, r2, #1024
 3583 16a4 1268     		ldr	r2, [r2]
 3584 16a6 22F00402 		bic	r2, r2, #4
 3585 16aa 1A60     		str	r2, [r3]
 3586              	.L155:
1136:../STM32F2xx_HAL_Driver/Src/stm32f2xx_ll_usb.c ****   }
1137:../STM32F2xx_HAL_Driver/Src/stm32f2xx_ll_usb.c **** 
1138:../STM32F2xx_HAL_Driver/Src/stm32f2xx_ll_usb.c ****   /* Make sure the FIFOs are flushed. */
1139:../STM32F2xx_HAL_Driver/Src/stm32f2xx_ll_usb.c ****   USB_FlushTxFifo(USBx, 0x10 ); /* all Tx FIFOs */
 3587              		.loc 1 1139 0
 3588 16ac 7868     		ldr	r0, [r7, #4]
 3589 16ae 1021     		movs	r1, #16
 3590 16b0 FFF7FEFF 		bl	USB_FlushTxFifo
1140:../STM32F2xx_HAL_Driver/Src/stm32f2xx_ll_usb.c ****   USB_FlushRxFifo(USBx);
 3591              		.loc 1 1140 0
 3592 16b4 7868     		ldr	r0, [r7, #4]
 3593 16b6 FFF7FEFF 		bl	USB_FlushRxFifo
1141:../STM32F2xx_HAL_Driver/Src/stm32f2xx_ll_usb.c **** 
1142:../STM32F2xx_HAL_Driver/Src/stm32f2xx_ll_usb.c ****   /* Clear all pending HC Interrupts */
1143:../STM32F2xx_HAL_Driver/Src/stm32f2xx_ll_usb.c ****   for (i = 0; i < cfg.Host_channels; i++)
 3594              		.loc 1 1143 0
 3595 16ba 0023     		movs	r3, #0
 3596 16bc FB60     		str	r3, [r7, #12]
 3597 16be 13E0     		b	.L156
 3598              	.L157:
1144:../STM32F2xx_HAL_Driver/Src/stm32f2xx_ll_usb.c ****   {
1145:../STM32F2xx_HAL_Driver/Src/stm32f2xx_ll_usb.c ****     USBx_HC(i)->HCINT = 0xFFFFFFFF;
 3599              		.loc 1 1145 0 discriminator 2
 3600 16c0 FB68     		ldr	r3, [r7, #12]
 3601 16c2 5A01     		lsls	r2, r3, #5
 3602 16c4 7B68     		ldr	r3, [r7, #4]
 3603 16c6 1344     		add	r3, r3, r2
 3604 16c8 03F5A063 		add	r3, r3, #1280
 3605 16cc 4FF0FF32 		mov	r2, #-1
 3606 16d0 9A60     		str	r2, [r3, #8]
1146:../STM32F2xx_HAL_Driver/Src/stm32f2xx_ll_usb.c ****     USBx_HC(i)->HCINTMSK = 0;
 3607              		.loc 1 1146 0 discriminator 2
 3608 16d2 FB68     		ldr	r3, [r7, #12]
 3609 16d4 5A01     		lsls	r2, r3, #5
 3610 16d6 7B68     		ldr	r3, [r7, #4]
 3611 16d8 1344     		add	r3, r3, r2
 3612 16da 03F5A063 		add	r3, r3, #1280
 3613 16de 0022     		movs	r2, #0
 3614 16e0 DA60     		str	r2, [r3, #12]
1143:../STM32F2xx_HAL_Driver/Src/stm32f2xx_ll_usb.c ****   {
 3615              		.loc 1 1143 0 discriminator 2
 3616 16e2 FB68     		ldr	r3, [r7, #12]
 3617 16e4 0133     		adds	r3, r3, #1
 3618 16e6 FB60     		str	r3, [r7, #12]
 3619              	.L156:
1143:../STM32F2xx_HAL_Driver/Src/stm32f2xx_ll_usb.c ****   {
 3620              		.loc 1 1143 0 is_stmt 0 discriminator 1
 3621 16e8 3A6A     		ldr	r2, [r7, #32]
 3622 16ea FB68     		ldr	r3, [r7, #12]
 3623 16ec 9A42     		cmp	r2, r3
 3624 16ee E7D8     		bhi	.L157
1147:../STM32F2xx_HAL_Driver/Src/stm32f2xx_ll_usb.c ****   }
1148:../STM32F2xx_HAL_Driver/Src/stm32f2xx_ll_usb.c ****   
1149:../STM32F2xx_HAL_Driver/Src/stm32f2xx_ll_usb.c ****   /* Enable VBUS driving */
1150:../STM32F2xx_HAL_Driver/Src/stm32f2xx_ll_usb.c ****   USB_DriveVbus(USBx, 1);
 3625              		.loc 1 1150 0 is_stmt 1
 3626 16f0 7868     		ldr	r0, [r7, #4]
 3627 16f2 0121     		movs	r1, #1
 3628 16f4 FFF7FEFF 		bl	USB_DriveVbus
1151:../STM32F2xx_HAL_Driver/Src/stm32f2xx_ll_usb.c ****   
1152:../STM32F2xx_HAL_Driver/Src/stm32f2xx_ll_usb.c ****   HAL_Delay(200);
 3629              		.loc 1 1152 0
 3630 16f8 C820     		movs	r0, #200
 3631 16fa FFF7FEFF 		bl	HAL_Delay
1153:../STM32F2xx_HAL_Driver/Src/stm32f2xx_ll_usb.c ****   
1154:../STM32F2xx_HAL_Driver/Src/stm32f2xx_ll_usb.c ****   /* Disable all interrupts. */
1155:../STM32F2xx_HAL_Driver/Src/stm32f2xx_ll_usb.c ****   USBx->GINTMSK = 0;
 3632              		.loc 1 1155 0
 3633 16fe 7B68     		ldr	r3, [r7, #4]
 3634 1700 0022     		movs	r2, #0
 3635 1702 9A61     		str	r2, [r3, #24]
1156:../STM32F2xx_HAL_Driver/Src/stm32f2xx_ll_usb.c ****   
1157:../STM32F2xx_HAL_Driver/Src/stm32f2xx_ll_usb.c ****   /* Clear any pending interrupts */
1158:../STM32F2xx_HAL_Driver/Src/stm32f2xx_ll_usb.c ****   USBx->GINTSTS = 0xFFFFFFFF;
 3636              		.loc 1 1158 0
 3637 1704 7B68     		ldr	r3, [r7, #4]
 3638 1706 4FF0FF32 		mov	r2, #-1
 3639 170a 5A61     		str	r2, [r3, #20]
1159:../STM32F2xx_HAL_Driver/Src/stm32f2xx_ll_usb.c **** 
1160:../STM32F2xx_HAL_Driver/Src/stm32f2xx_ll_usb.c ****   
1161:../STM32F2xx_HAL_Driver/Src/stm32f2xx_ll_usb.c ****   if(USBx == USB_OTG_FS)
 3640              		.loc 1 1161 0
 3641 170c 7B68     		ldr	r3, [r7, #4]
 3642 170e B3F1A04F 		cmp	r3, #1342177280
 3643 1712 0ED1     		bne	.L158
1162:../STM32F2xx_HAL_Driver/Src/stm32f2xx_ll_usb.c ****   {
1163:../STM32F2xx_HAL_Driver/Src/stm32f2xx_ll_usb.c ****     /* set Rx FIFO size */
1164:../STM32F2xx_HAL_Driver/Src/stm32f2xx_ll_usb.c ****     USBx->GRXFSIZ  = (uint32_t )0x80; 
 3644              		.loc 1 1164 0
 3645 1714 7B68     		ldr	r3, [r7, #4]
 3646 1716 8022     		movs	r2, #128
 3647 1718 5A62     		str	r2, [r3, #36]
1165:../STM32F2xx_HAL_Driver/Src/stm32f2xx_ll_usb.c ****     USBx->DIEPTXF0_HNPTXFSIZ = (uint32_t )(((0x60 << 16)& USB_OTG_NPTXFD) | 0x80);
 3648              		.loc 1 1165 0
 3649 171a 7A68     		ldr	r2, [r7, #4]
 3650 171c 8023     		movs	r3, #128
 3651 171e C0F26003 		movt	r3, 96
 3652 1722 9362     		str	r3, [r2, #40]
1166:../STM32F2xx_HAL_Driver/Src/stm32f2xx_ll_usb.c ****     USBx->HPTXFSIZ = (uint32_t )(((0x40 << 16)& USB_OTG_HPTXFSIZ_PTXFD) | 0xE0);
 3653              		.loc 1 1166 0
 3654 1724 7A68     		ldr	r2, [r7, #4]
 3655 1726 E023     		movs	r3, #224
 3656 1728 C0F24003 		movt	r3, 64
 3657 172c C2F80031 		str	r3, [r2, #256]
 3658 1730 10E0     		b	.L159
 3659              	.L158:
1167:../STM32F2xx_HAL_Driver/Src/stm32f2xx_ll_usb.c **** 
1168:../STM32F2xx_HAL_Driver/Src/stm32f2xx_ll_usb.c ****   }
1169:../STM32F2xx_HAL_Driver/Src/stm32f2xx_ll_usb.c **** 
1170:../STM32F2xx_HAL_Driver/Src/stm32f2xx_ll_usb.c ****   else
1171:../STM32F2xx_HAL_Driver/Src/stm32f2xx_ll_usb.c ****   {
1172:../STM32F2xx_HAL_Driver/Src/stm32f2xx_ll_usb.c ****     /* set Rx FIFO size */
1173:../STM32F2xx_HAL_Driver/Src/stm32f2xx_ll_usb.c ****     USBx->GRXFSIZ  = (uint32_t )0x200; 
 3660              		.loc 1 1173 0
 3661 1732 7B68     		ldr	r3, [r7, #4]
 3662 1734 4FF40072 		mov	r2, #512
 3663 1738 5A62     		str	r2, [r3, #36]
1174:../STM32F2xx_HAL_Driver/Src/stm32f2xx_ll_usb.c ****     USBx->DIEPTXF0_HNPTXFSIZ = (uint32_t )(((0x100 << 16)& USB_OTG_NPTXFD) | 0x200);
 3664              		.loc 1 1174 0
 3665 173a 7A68     		ldr	r2, [r7, #4]
 3666 173c 4FF40073 		mov	r3, #512
 3667 1740 C0F20013 		movt	r3, 256
 3668 1744 9362     		str	r3, [r2, #40]
1175:../STM32F2xx_HAL_Driver/Src/stm32f2xx_ll_usb.c ****     USBx->HPTXFSIZ = (uint32_t )(((0xE0 << 16)& USB_OTG_HPTXFSIZ_PTXFD) | 0x300);
 3669              		.loc 1 1175 0
 3670 1746 7A68     		ldr	r2, [r7, #4]
 3671 1748 4FF44073 		mov	r3, #768
 3672 174c C0F2E003 		movt	r3, 224
 3673 1750 C2F80031 		str	r3, [r2, #256]
 3674              	.L159:
1176:../STM32F2xx_HAL_Driver/Src/stm32f2xx_ll_usb.c ****   }
1177:../STM32F2xx_HAL_Driver/Src/stm32f2xx_ll_usb.c ****   
1178:../STM32F2xx_HAL_Driver/Src/stm32f2xx_ll_usb.c ****   /* Enable the common interrupts */
1179:../STM32F2xx_HAL_Driver/Src/stm32f2xx_ll_usb.c ****   if (cfg.dma_enable == DISABLE)
 3675              		.loc 1 1179 0
 3676 1754 BB6A     		ldr	r3, [r7, #40]
 3677 1756 002B     		cmp	r3, #0
 3678 1758 05D1     		bne	.L160
1180:../STM32F2xx_HAL_Driver/Src/stm32f2xx_ll_usb.c ****   {
1181:../STM32F2xx_HAL_Driver/Src/stm32f2xx_ll_usb.c ****     USBx->GINTMSK |= USB_OTG_GINTMSK_RXFLVLM; 
 3679              		.loc 1 1181 0
 3680 175a 7B68     		ldr	r3, [r7, #4]
 3681 175c 9B69     		ldr	r3, [r3, #24]
 3682 175e 43F01002 		orr	r2, r3, #16
 3683 1762 7B68     		ldr	r3, [r7, #4]
 3684 1764 9A61     		str	r2, [r3, #24]
 3685              	.L160:
1182:../STM32F2xx_HAL_Driver/Src/stm32f2xx_ll_usb.c ****   }
1183:../STM32F2xx_HAL_Driver/Src/stm32f2xx_ll_usb.c ****   
1184:../STM32F2xx_HAL_Driver/Src/stm32f2xx_ll_usb.c ****   /* Enable interrupts matching to the Host mode ONLY */
1185:../STM32F2xx_HAL_Driver/Src/stm32f2xx_ll_usb.c ****   USBx->GINTMSK |= (USB_OTG_GINTMSK_PRTIM            | USB_OTG_GINTMSK_HCIM |\
 3686              		.loc 1 1185 0
 3687 1766 7B68     		ldr	r3, [r7, #4]
 3688 1768 9A69     		ldr	r2, [r3, #24]
 3689 176a 0823     		movs	r3, #8
 3690 176c CAF22033 		movt	r3, 41760
 3691 1770 1343     		orrs	r3, r3, r2
 3692 1772 7A68     		ldr	r2, [r7, #4]
 3693 1774 9361     		str	r3, [r2, #24]
1186:../STM32F2xx_HAL_Driver/Src/stm32f2xx_ll_usb.c ****                     USB_OTG_GINTMSK_SOFM             |USB_OTG_GINTSTS_DISCINT|\
1187:../STM32F2xx_HAL_Driver/Src/stm32f2xx_ll_usb.c ****                     USB_OTG_GINTMSK_PXFRM_IISOOXFRM  | USB_OTG_GINTMSK_WUIM);
1188:../STM32F2xx_HAL_Driver/Src/stm32f2xx_ll_usb.c **** 
1189:../STM32F2xx_HAL_Driver/Src/stm32f2xx_ll_usb.c ****   return HAL_OK;
 3694              		.loc 1 1189 0
 3695 1776 0023     		movs	r3, #0
1190:../STM32F2xx_HAL_Driver/Src/stm32f2xx_ll_usb.c **** }
 3696              		.loc 1 1190 0
 3697 1778 1846     		mov	r0, r3
 3698 177a 1037     		adds	r7, r7, #16
 3699 177c BD46     		mov	sp, r7
 3700              		@ sp needed
 3701 177e BDE88040 		pop	{r7, lr}
 3702 1782 04B0     		add	sp, sp, #16
 3703 1784 7047     		bx	lr
 3704              		.cfi_endproc
 3705              	.LFE88:
 3707 1786 00BF     		.align	2
 3708              		.global	USB_InitFSLSPClkSel
 3709              		.thumb
 3710              		.thumb_func
 3712              	USB_InitFSLSPClkSel:
 3713              	.LFB89:
1191:../STM32F2xx_HAL_Driver/Src/stm32f2xx_ll_usb.c **** 
1192:../STM32F2xx_HAL_Driver/Src/stm32f2xx_ll_usb.c **** /**
1193:../STM32F2xx_HAL_Driver/Src/stm32f2xx_ll_usb.c ****   * @brief  USB_InitFSLSPClkSel : Initializes the FSLSPClkSel field of the 
1194:../STM32F2xx_HAL_Driver/Src/stm32f2xx_ll_usb.c ****   *         HCFG register on the PHY type and set the right frame interval
1195:../STM32F2xx_HAL_Driver/Src/stm32f2xx_ll_usb.c ****   * @param  USBx : Selected device
1196:../STM32F2xx_HAL_Driver/Src/stm32f2xx_ll_usb.c ****   * @param  freq : clock frequency
1197:../STM32F2xx_HAL_Driver/Src/stm32f2xx_ll_usb.c ****   *          This parameter can be one of the these values:
1198:../STM32F2xx_HAL_Driver/Src/stm32f2xx_ll_usb.c ****   *           HCFG_48_MHZ : Full Speed 48 MHz Clock 
1199:../STM32F2xx_HAL_Driver/Src/stm32f2xx_ll_usb.c ****   *           HCFG_6_MHZ : Low Speed 6 MHz Clock 
1200:../STM32F2xx_HAL_Driver/Src/stm32f2xx_ll_usb.c ****   * @retval HAL status
1201:../STM32F2xx_HAL_Driver/Src/stm32f2xx_ll_usb.c ****   */
1202:../STM32F2xx_HAL_Driver/Src/stm32f2xx_ll_usb.c **** HAL_StatusTypeDef USB_InitFSLSPClkSel(USB_OTG_GlobalTypeDef *USBx , uint8_t freq)
1203:../STM32F2xx_HAL_Driver/Src/stm32f2xx_ll_usb.c **** {
 3714              		.loc 1 1203 0
 3715              		.cfi_startproc
 3716              		@ args = 0, pretend = 0, frame = 8
 3717              		@ frame_needed = 1, uses_anonymous_args = 0
 3718              		@ link register save eliminated.
 3719 1788 80B4     		push	{r7}
 3720              		.cfi_def_cfa_offset 4
 3721              		.cfi_offset 7, -4
 3722 178a 83B0     		sub	sp, sp, #12
 3723              		.cfi_def_cfa_offset 16
 3724 178c 00AF     		add	r7, sp, #0
 3725              		.cfi_def_cfa_register 7
 3726 178e 7860     		str	r0, [r7, #4]
 3727 1790 0B46     		mov	r3, r1
 3728 1792 FB70     		strb	r3, [r7, #3]
1204:../STM32F2xx_HAL_Driver/Src/stm32f2xx_ll_usb.c ****   USBx_HOST->HCFG &= ~(USB_OTG_HCFG_FSLSPCS);
 3729              		.loc 1 1204 0
 3730 1794 7B68     		ldr	r3, [r7, #4]
 3731 1796 03F58063 		add	r3, r3, #1024
 3732 179a 7A68     		ldr	r2, [r7, #4]
 3733 179c 02F58062 		add	r2, r2, #1024
 3734 17a0 1268     		ldr	r2, [r2]
 3735 17a2 22F00302 		bic	r2, r2, #3
 3736 17a6 1A60     		str	r2, [r3]
