   1              		.syntax unified
   2              		.cpu cortex-m3
   3              		.fpu softvfp
   4              		.eabi_attribute 20, 1
   5              		.eabi_attribute 21, 1
   6              		.eabi_attribute 23, 3
   7              		.eabi_attribute 24, 1
   8              		.eabi_attribute 25, 1
   9              		.eabi_attribute 26, 1
  10              		.eabi_attribute 30, 6
  11              		.eabi_attribute 34, 1
  12              		.eabi_attribute 18, 4
  13              		.thumb
  14              		.file	"stm32f2xx_hal_msp.c"
  15              		.text
  16              	.Ltext0:
  17              		.cfi_sections	.debug_frame
  18              		.comm	uSdHandle,96,4
  19              		.comm	SD_CardInfo,88,8
  20              		.align	2
  21              		.global	HAL_RTC_MspInit
  22              		.thumb
  23              		.thumb_func
  25              	HAL_RTC_MspInit:
  26              	.LFB55:
  27              		.file 1 "../stm32f2xx_hal_msp.c"
   1:../stm32f2xx_hal_msp.c **** /**
   2:../stm32f2xx_hal_msp.c ****   ******************************************************************************
   3:../stm32f2xx_hal_msp.c ****   * @file    RTC/RTC_Calendar/Src/stm32f2xx_hal_msp.c
   4:../stm32f2xx_hal_msp.c ****   * @author  MCD Application Team
   5:../stm32f2xx_hal_msp.c ****   * @version V1.1.0
   6:../stm32f2xx_hal_msp.c ****   * @date    13-March-2014
   7:../stm32f2xx_hal_msp.c ****   * @brief   HAL MSP module.
   8:../stm32f2xx_hal_msp.c ****   ******************************************************************************
   9:../stm32f2xx_hal_msp.c ****   * @attention
  10:../stm32f2xx_hal_msp.c ****   *
  11:../stm32f2xx_hal_msp.c ****   * <h2><center>&copy; COPYRIGHT(c) 2014 STMicroelectronics</center></h2>
  12:../stm32f2xx_hal_msp.c ****   *
  13:../stm32f2xx_hal_msp.c ****   * Redistribution and use in source and binary forms, with or without modification,
  14:../stm32f2xx_hal_msp.c ****   * are permitted provided that the following conditions are met:
  15:../stm32f2xx_hal_msp.c ****   *   1. Redistributions of source code must retain the above copyright notice,
  16:../stm32f2xx_hal_msp.c ****   *      this list of conditions and the following disclaimer.
  17:../stm32f2xx_hal_msp.c ****   *   2. Redistributions in binary form must reproduce the above copyright notice,
  18:../stm32f2xx_hal_msp.c ****   *      this list of conditions and the following disclaimer in the documentation
  19:../stm32f2xx_hal_msp.c ****   *      and/or other materials provided with the distribution.
  20:../stm32f2xx_hal_msp.c ****   *   3. Neither the name of STMicroelectronics nor the names of its contributors
  21:../stm32f2xx_hal_msp.c ****   *      may be used to endorse or promote products derived from this software
  22:../stm32f2xx_hal_msp.c ****   *      without specific prior written permission.
  23:../stm32f2xx_hal_msp.c ****   *
  24:../stm32f2xx_hal_msp.c ****   * THIS SOFTWARE IS PROVIDED BY THE COPYRIGHT HOLDERS AND CONTRIBUTORS "AS IS"
  25:../stm32f2xx_hal_msp.c ****   * AND ANY EXPRESS OR IMPLIED WARRANTIES, INCLUDING, BUT NOT LIMITED TO, THE
  26:../stm32f2xx_hal_msp.c ****   * IMPLIED WARRANTIES OF MERCHANTABILITY AND FITNESS FOR A PARTICULAR PURPOSE ARE
  27:../stm32f2xx_hal_msp.c ****   * DISCLAIMED. IN NO EVENT SHALL THE COPYRIGHT HOLDER OR CONTRIBUTORS BE LIABLE
  28:../stm32f2xx_hal_msp.c ****   * FOR ANY DIRECT, INDIRECT, INCIDENTAL, SPECIAL, EXEMPLARY, OR CONSEQUENTIAL
  29:../stm32f2xx_hal_msp.c ****   * DAMAGES (INCLUDING, BUT NOT LIMITED TO, PROCUREMENT OF SUBSTITUTE GOODS OR
  30:../stm32f2xx_hal_msp.c ****   * SERVICES; LOSS OF USE, DATA, OR PROFITS; OR BUSINESS INTERRUPTION) HOWEVER
  31:../stm32f2xx_hal_msp.c ****   * CAUSED AND ON ANY THEORY OF LIABILITY, WHETHER IN CONTRACT, STRICT LIABILITY,
  32:../stm32f2xx_hal_msp.c ****   * OR TORT (INCLUDING NEGLIGENCE OR OTHERWISE) ARISING IN ANY WAY OUT OF THE USE
  33:../stm32f2xx_hal_msp.c ****   * OF THIS SOFTWARE, EVEN IF ADVISED OF THE POSSIBILITY OF SUCH DAMAGE.
  34:../stm32f2xx_hal_msp.c ****   *
  35:../stm32f2xx_hal_msp.c ****   ******************************************************************************
  36:../stm32f2xx_hal_msp.c ****   */
  37:../stm32f2xx_hal_msp.c **** 
  38:../stm32f2xx_hal_msp.c **** /* Includes ------------------------------------------------------------------*/
  39:../stm32f2xx_hal_msp.c **** #include "main.h"
  40:../stm32f2xx_hal_msp.c **** 
  41:../stm32f2xx_hal_msp.c **** /** @addtogroup STM32F2xx_HAL_Examples
  42:../stm32f2xx_hal_msp.c ****   * @{
  43:../stm32f2xx_hal_msp.c ****   */
  44:../stm32f2xx_hal_msp.c **** 
  45:../stm32f2xx_hal_msp.c **** /** @defgroup RTC_Calendar
  46:../stm32f2xx_hal_msp.c ****   * @{
  47:../stm32f2xx_hal_msp.c ****   */
  48:../stm32f2xx_hal_msp.c **** 
  49:../stm32f2xx_hal_msp.c **** /* Private typedef -----------------------------------------------------------*/
  50:../stm32f2xx_hal_msp.c **** /* Private define ------------------------------------------------------------*/
  51:../stm32f2xx_hal_msp.c **** /* Private macro -------------------------------------------------------------*/
  52:../stm32f2xx_hal_msp.c **** /* Private variables ---------------------------------------------------------*/
  53:../stm32f2xx_hal_msp.c **** /* Private function prototypes -----------------------------------------------*/
  54:../stm32f2xx_hal_msp.c **** /* Private functions ---------------------------------------------------------*/
  55:../stm32f2xx_hal_msp.c **** 
  56:../stm32f2xx_hal_msp.c **** /** @defgroup HAL_MSP_Private_Functions
  57:../stm32f2xx_hal_msp.c ****   * @{
  58:../stm32f2xx_hal_msp.c ****   */
  59:../stm32f2xx_hal_msp.c **** 
  60:../stm32f2xx_hal_msp.c **** /**
  61:../stm32f2xx_hal_msp.c ****   * @brief RTC MSP Initialization 
  62:../stm32f2xx_hal_msp.c ****   *        This function configures the hardware resources used in this example
  63:../stm32f2xx_hal_msp.c ****   * @param hrtc: RTC handle pointer
  64:../stm32f2xx_hal_msp.c ****   * 
  65:../stm32f2xx_hal_msp.c ****   * @note  Care must be taken when HAL_RCCEx_PeriphCLKConfig() is used to select 
  66:../stm32f2xx_hal_msp.c ****   *        the RTC clock source; in this case the Backup domain will be reset in  
  67:../stm32f2xx_hal_msp.c ****   *        order to modify the RTC Clock source, as consequence RTC registers (including 
  68:../stm32f2xx_hal_msp.c ****   *        the backup registers) and RCC_BDCR register are set to their reset values.
  69:../stm32f2xx_hal_msp.c ****   *             
  70:../stm32f2xx_hal_msp.c ****   * @retval None
  71:../stm32f2xx_hal_msp.c ****   */
  72:../stm32f2xx_hal_msp.c **** void HAL_RTC_MspInit(RTC_HandleTypeDef *hrtc)
  73:../stm32f2xx_hal_msp.c **** {
  28              		.loc 1 73 0
  29              		.cfi_startproc
  30              		@ args = 0, pretend = 0, frame = 80
  31              		@ frame_needed = 1, uses_anonymous_args = 0
  32 0000 80B5     		push	{r7, lr}
  33              		.cfi_def_cfa_offset 8
  34              		.cfi_offset 7, -8
  35              		.cfi_offset 14, -4
  36 0002 94B0     		sub	sp, sp, #80
  37              		.cfi_def_cfa_offset 88
  38 0004 00AF     		add	r7, sp, #0
  39              		.cfi_def_cfa_register 7
  40 0006 7860     		str	r0, [r7, #4]
  74:../stm32f2xx_hal_msp.c ****   RCC_OscInitTypeDef        RCC_OscInitStruct;
  75:../stm32f2xx_hal_msp.c ****   RCC_PeriphCLKInitTypeDef  PeriphClkInitStruct;
  76:../stm32f2xx_hal_msp.c **** 
  77:../stm32f2xx_hal_msp.c ****   /*##-1- Enables the PWR Clock and Enables access to the backup domain ###########################
  78:../stm32f2xx_hal_msp.c ****   /* To change the source clock of the RTC feature (LSE, LSI), You have to:
  79:../stm32f2xx_hal_msp.c ****      - Enable the power clock using __PWR_CLK_ENABLE()
  80:../stm32f2xx_hal_msp.c ****      - Enable write access using HAL_PWR_EnableBkUpAccess() function before to 
  81:../stm32f2xx_hal_msp.c ****        configure the RTC clock source (to be done once after reset).
  82:../stm32f2xx_hal_msp.c ****      - Reset the Back up Domain using __HAL_RCC_BACKUPRESET_FORCE() and 
  83:../stm32f2xx_hal_msp.c ****        __HAL_RCC_BACKUPRESET_RELEASE().
  84:../stm32f2xx_hal_msp.c ****      - Configure the needed RTc clock source */
  85:../stm32f2xx_hal_msp.c ****   __PWR_CLK_ENABLE();
  41              		.loc 1 85 0
  42 0008 4FF46053 		mov	r3, #14336
  43 000c C4F20203 		movt	r3, 16386
  44 0010 4FF46052 		mov	r2, #14336
  45 0014 C4F20202 		movt	r2, 16386
  46 0018 126C     		ldr	r2, [r2, #64]
  47 001a 42F08052 		orr	r2, r2, #268435456
  48 001e 1A64     		str	r2, [r3, #64]
  86:../stm32f2xx_hal_msp.c ****   HAL_PWR_EnableBkUpAccess();
  49              		.loc 1 86 0
  50 0020 FFF7FEFF 		bl	HAL_PWR_EnableBkUpAccess
  87:../stm32f2xx_hal_msp.c **** 
  88:../stm32f2xx_hal_msp.c ****   /*##-2- Configue LSE as RTC clock soucre ###################################*/
  89:../stm32f2xx_hal_msp.c ****   RCC_OscInitStruct.OscillatorType =  RCC_OSCILLATORTYPE_LSI | RCC_OSCILLATORTYPE_LSE;
  51              		.loc 1 89 0
  52 0024 0C23     		movs	r3, #12
  53 0026 3B62     		str	r3, [r7, #32]
  90:../stm32f2xx_hal_msp.c ****   RCC_OscInitStruct.PLL.PLLState = RCC_PLL_NONE;
  54              		.loc 1 90 0
  55 0028 0023     		movs	r3, #0
  56 002a BB63     		str	r3, [r7, #56]
  91:../stm32f2xx_hal_msp.c ****   RCC_OscInitStruct.LSEState = RCC_LSE_ON;
  57              		.loc 1 91 0
  58 002c 0123     		movs	r3, #1
  59 002e BB62     		str	r3, [r7, #40]
  92:../stm32f2xx_hal_msp.c ****   RCC_OscInitStruct.LSIState = RCC_LSI_OFF;
  60              		.loc 1 92 0
  61 0030 0023     		movs	r3, #0
  62 0032 7B63     		str	r3, [r7, #52]
  93:../stm32f2xx_hal_msp.c ****   if(HAL_RCC_OscConfig(&RCC_OscInitStruct) != HAL_OK)
  63              		.loc 1 93 0
  64 0034 07F12003 		add	r3, r7, #32
  65 0038 1846     		mov	r0, r3
  66 003a FFF7FEFF 		bl	HAL_RCC_OscConfig
  67 003e 0346     		mov	r3, r0
  68 0040 002B     		cmp	r3, #0
  69 0042 01D0     		beq	.L2
  94:../stm32f2xx_hal_msp.c ****   { 
  95:../stm32f2xx_hal_msp.c **** 	  Error_Handler_Main();
  70              		.loc 1 95 0
  71 0044 FFF7FEFF 		bl	Error_Handler_Main
  72              	.L2:
  96:../stm32f2xx_hal_msp.c ****   }
  97:../stm32f2xx_hal_msp.c ****   
  98:../stm32f2xx_hal_msp.c ****   PeriphClkInitStruct.PeriphClockSelection = RCC_PERIPHCLK_RTC;
  73              		.loc 1 98 0
  74 0048 0823     		movs	r3, #8
  75 004a FB60     		str	r3, [r7, #12]
  99:../stm32f2xx_hal_msp.c ****   PeriphClkInitStruct.RTCClockSelection = RCC_RTCCLKSOURCE_LSE;
  76              		.loc 1 99 0
  77 004c 4FF48073 		mov	r3, #256
  78 0050 BB61     		str	r3, [r7, #24]
 100:../stm32f2xx_hal_msp.c ****   if(HAL_RCCEx_PeriphCLKConfig(&PeriphClkInitStruct) != HAL_OK)
  79              		.loc 1 100 0
  80 0052 07F10C03 		add	r3, r7, #12
  81 0056 1846     		mov	r0, r3
  82 0058 FFF7FEFF 		bl	HAL_RCCEx_PeriphCLKConfig
  83 005c 0346     		mov	r3, r0
  84 005e 002B     		cmp	r3, #0
  85 0060 01D0     		beq	.L3
 101:../stm32f2xx_hal_msp.c ****   { 
 102:../stm32f2xx_hal_msp.c **** 	  Error_Handler_Main();
  86              		.loc 1 102 0
  87 0062 FFF7FEFF 		bl	Error_Handler_Main
  88              	.L3:
 103:../stm32f2xx_hal_msp.c ****   }
 104:../stm32f2xx_hal_msp.c ****   
 105:../stm32f2xx_hal_msp.c ****   /*##-3- Enable RTC peripheral Clocks #######################################*/
 106:../stm32f2xx_hal_msp.c ****   /* Enable RTC Clock */
 107:../stm32f2xx_hal_msp.c ****   __HAL_RCC_RTC_ENABLE();
  89              		.loc 1 107 0
  90 0066 40F63C63 		movw	r3, #3644
  91 006a C4F24723 		movt	r3, 16967
  92 006e 0122     		movs	r2, #1
  93 0070 1A60     		str	r2, [r3]
 108:../stm32f2xx_hal_msp.c **** }
  94              		.loc 1 108 0
  95 0072 5037     		adds	r7, r7, #80
  96 0074 BD46     		mov	sp, r7
  97              		@ sp needed
  98 0076 80BD     		pop	{r7, pc}
  99              		.cfi_endproc
 100              	.LFE55:
 102              		.align	2
 103              		.global	HAL_RTC_MspDeInit
 104              		.thumb
 105              		.thumb_func
 107              	HAL_RTC_MspDeInit:
 108              	.LFB56:
 109:../stm32f2xx_hal_msp.c **** 
 110:../stm32f2xx_hal_msp.c **** /**
 111:../stm32f2xx_hal_msp.c ****   * @brief RTC MSP De-Initialization
 112:../stm32f2xx_hal_msp.c ****   *        This function frees the hardware resources used in this example:
 113:../stm32f2xx_hal_msp.c ****   *          - Disable the Peripheral's clock
 114:../stm32f2xx_hal_msp.c ****   * @param hrtc: RTC handle pointer
 115:../stm32f2xx_hal_msp.c ****   * @retval None
 116:../stm32f2xx_hal_msp.c ****   */
 117:../stm32f2xx_hal_msp.c **** void HAL_RTC_MspDeInit(RTC_HandleTypeDef *hrtc)
 118:../stm32f2xx_hal_msp.c **** {
 109              		.loc 1 118 0
 110              		.cfi_startproc
 111              		@ args = 0, pretend = 0, frame = 8
 112              		@ frame_needed = 1, uses_anonymous_args = 0
 113 0078 80B5     		push	{r7, lr}
 114              		.cfi_def_cfa_offset 8
 115              		.cfi_offset 7, -8
 116              		.cfi_offset 14, -4
 117 007a 82B0     		sub	sp, sp, #8
 118              		.cfi_def_cfa_offset 16
 119 007c 00AF     		add	r7, sp, #0
 120              		.cfi_def_cfa_register 7
 121 007e 7860     		str	r0, [r7, #4]
 119:../stm32f2xx_hal_msp.c ****   /*##-1- Reset peripherals ##################################################*/
 120:../stm32f2xx_hal_msp.c ****   __HAL_RCC_RTC_DISABLE();
 122              		.loc 1 120 0
 123 0080 40F63C63 		movw	r3, #3644
 124 0084 C4F24723 		movt	r3, 16967
 125 0088 0022     		movs	r2, #0
 126 008a 1A60     		str	r2, [r3]
 121:../stm32f2xx_hal_msp.c **** 
 122:../stm32f2xx_hal_msp.c ****   /*##-2- Disables the PWR Clock and Disables access to the backup domain #########################
 123:../stm32f2xx_hal_msp.c ****   HAL_PWR_DisableBkUpAccess();
 127              		.loc 1 123 0
 128 008c FFF7FEFF 		bl	HAL_PWR_DisableBkUpAccess
 124:../stm32f2xx_hal_msp.c ****   __PWR_CLK_DISABLE();
 129              		.loc 1 124 0
 130 0090 4FF46053 		mov	r3, #14336
 131 0094 C4F20203 		movt	r3, 16386
 132 0098 4FF46052 		mov	r2, #14336
 133 009c C4F20202 		movt	r2, 16386
 134 00a0 126C     		ldr	r2, [r2, #64]
 135 00a2 22F08052 		bic	r2, r2, #268435456
 136 00a6 1A64     		str	r2, [r3, #64]
 125:../stm32f2xx_hal_msp.c **** }
 137              		.loc 1 125 0
 138 00a8 0837     		adds	r7, r7, #8
 139 00aa BD46     		mov	sp, r7
 140              		@ sp needed
 141 00ac 80BD     		pop	{r7, pc}
 142              		.cfi_endproc
 143              	.LFE56:
 145              	.Letext0:
 146              		.file 2 "c:\\program files (x86)\\codesourcery\\arm-none-eabi\\include\\stdint.h"
 147              		.file 3 "D:\\workspace\\console800480\\system/stm32f217xx.h"
 148              		.file 4 "D:\\workspace\\console800480\\system/stm32f2xx.h"
 149              		.file 5 "D:\\workspace\\console800480\\STM32F2xx_HAL_Driver\\Inc/stm32f2xx_hal_def.h"
 150              		.file 6 "D:\\workspace\\console800480\\STM32F2xx_HAL_Driver\\Inc/stm32f2xx_hal_rcc.h"
 151              		.file 7 "D:\\workspace\\console800480\\STM32F2xx_HAL_Driver\\Inc/stm32f2xx_hal_rcc_ex.h"
 152              		.file 8 "D:\\workspace\\console800480\\STM32F2xx_HAL_Driver\\Inc/stm32f2xx_hal_dma.h"
 153              		.file 9 "D:\\workspace\\console800480\\STM32F2xx_HAL_Driver\\Inc/stm32f2xx_hal_rtc.h"
 154              		.file 10 "D:\\workspace\\console800480\\STM32F2xx_HAL_Driver\\Inc/stm32f2xx_ll_sdmmc.h"
 155              		.file 11 "D:\\workspace\\console800480\\STM32F2xx_HAL_Driver\\Inc/stm32f2xx_hal_sd.h"
 156              		.file 12 "D:\\workspace\\console800480\\system/core_cm3.h"
 157              		.file 13 "../main.h"