   1              		.syntax unified
   2              		.cpu cortex-m3
   3              		.fpu softvfp
   4              		.eabi_attribute 20, 1
   5              		.eabi_attribute 21, 1
   6              		.eabi_attribute 23, 3
   7              		.eabi_attribute 24, 1
   8              		.eabi_attribute 25, 1
   9              		.eabi_attribute 26, 1
  10              		.eabi_attribute 30, 6
  11              		.eabi_attribute 34, 1
  12              		.eabi_attribute 18, 4
  13              		.thumb
  14              		.file	"usbd_msc_storage.c"
  15              		.text
  16              	.Ltext0:
  17              		.cfi_sections	.debug_frame
  18              		.comm	uSdHandle,96,4
  19              		.comm	SD_CardInfo,88,8
  20              		.global	STORAGE_Inquirydata
  21              		.data
  22              		.align	2
  25              	STORAGE_Inquirydata:
  26 0000 00       		.byte	0
  27 0001 80       		.byte	-128
  28 0002 02       		.byte	2
  29 0003 02       		.byte	2
  30 0004 1F       		.byte	31
  31 0005 00       		.byte	0
  32 0006 00       		.byte	0
  33 0007 00       		.byte	0
  34 0008 53       		.byte	83
  35 0009 54       		.byte	84
  36 000a 4D       		.byte	77
  37 000b 20       		.byte	32
  38 000c 20       		.byte	32
  39 000d 20       		.byte	32
  40 000e 20       		.byte	32
  41 000f 20       		.byte	32
  42 0010 50       		.byte	80
  43 0011 72       		.byte	114
  44 0012 6F       		.byte	111
  45 0013 64       		.byte	100
  46 0014 75       		.byte	117
  47 0015 63       		.byte	99
  48 0016 74       		.byte	116
  49 0017 20       		.byte	32
  50 0018 20       		.byte	32
  51 0019 20       		.byte	32
  52 001a 20       		.byte	32
  53 001b 20       		.byte	32
  54 001c 20       		.byte	32
  55 001d 20       		.byte	32
  56 001e 20       		.byte	32
  57 001f 20       		.byte	32
  58 0020 30       		.byte	48
  59 0021 2E       		.byte	46
  60 0022 30       		.byte	48
  61 0023 31       		.byte	49
  62              		.global	USBD_MSC_fops
  63              		.align	2
  66              	USBD_MSC_fops:
  67 0024 00000000 		.word	STORAGE_Init
  68 0028 00000000 		.word	STORAGE_GetCapacity
  69 002c 00000000 		.word	STORAGE_IsReady
  70 0030 00000000 		.word	STORAGE_IsWriteProtected
  71 0034 00000000 		.word	STORAGE_Read
  72 0038 00000000 		.word	STORAGE_Write
  73 003c 00000000 		.word	STORAGE_GetMaxLun
  74 0040 00000000 		.word	STORAGE_Inquirydata
  75              		.section	.rodata
  76              		.align	2
  77              	.LC0:
  78 0000 5B555342 		.ascii	"[USB MSC] I:STORAGE_Init: %d\012\000"
  78      204D5343 
  78      5D20493A 
  78      53544F52 
  78      4147455F 
  79              		.text
  80              		.align	2
  81              		.global	STORAGE_Init
  82              		.thumb
  83              		.thumb_func
  85              	STORAGE_Init:
  86              	.LFB55:
  87              		.file 1 "../tasks/usb/usbd_msc_storage.c"
   1:../tasks/usb/usbd_msc_storage.c **** /**
   2:../tasks/usb/usbd_msc_storage.c ****   ******************************************************************************
   3:../tasks/usb/usbd_msc_storage.c ****   * @file    usbd_msc_storage_template.c
   4:../tasks/usb/usbd_msc_storage.c ****   * @author  MCD Application Team
   5:../tasks/usb/usbd_msc_storage.c ****   * @version V2.0.0
   6:../tasks/usb/usbd_msc_storage.c ****   * @date    18-February-2014
   7:../tasks/usb/usbd_msc_storage.c ****   * @brief   Memory management layer
   8:../tasks/usb/usbd_msc_storage.c ****   ******************************************************************************
   9:../tasks/usb/usbd_msc_storage.c ****   * @attention
  10:../tasks/usb/usbd_msc_storage.c ****   *
  11:../tasks/usb/usbd_msc_storage.c ****   * <h2><center>&copy; COPYRIGHT 2014 STMicroelectronics</center></h2>
  12:../tasks/usb/usbd_msc_storage.c ****   *
  13:../tasks/usb/usbd_msc_storage.c ****   * Licensed under MCD-ST Liberty SW License Agreement V2, (the "License");
  14:../tasks/usb/usbd_msc_storage.c ****   * You may not use this file except in compliance with the License.
  15:../tasks/usb/usbd_msc_storage.c ****   * You may obtain a copy of the License at:
  16:../tasks/usb/usbd_msc_storage.c ****   *
  17:../tasks/usb/usbd_msc_storage.c ****   *        http://www.st.com/software_license_agreement_liberty_v2
  18:../tasks/usb/usbd_msc_storage.c ****   *
  19:../tasks/usb/usbd_msc_storage.c ****   * Unless required by applicable law or agreed to in writing, software 
  20:../tasks/usb/usbd_msc_storage.c ****   * distributed under the License is distributed on an "AS IS" BASIS, 
  21:../tasks/usb/usbd_msc_storage.c ****   * WITHOUT WARRANTIES OR CONDITIONS OF ANY KIND, either express or implied.
  22:../tasks/usb/usbd_msc_storage.c ****   * See the License for the specific language governing permissions and
  23:../tasks/usb/usbd_msc_storage.c ****   * limitations under the License.
  24:../tasks/usb/usbd_msc_storage.c ****   *
  25:../tasks/usb/usbd_msc_storage.c ****   ******************************************************************************
  26:../tasks/usb/usbd_msc_storage.c ****   */ 
  27:../tasks/usb/usbd_msc_storage.c **** 
  28:../tasks/usb/usbd_msc_storage.c **** 
  29:../tasks/usb/usbd_msc_storage.c **** /* Includes ------------------------------------------------------------------*/
  30:../tasks/usb/usbd_msc_storage.c **** #include "usbd_msc_storage.h"
  31:../tasks/usb/usbd_msc_storage.c **** #include "sd_diskio.h"
  32:../tasks/usb/usbd_msc_storage.c **** #include "diskio.h"
  33:../tasks/usb/usbd_msc_storage.c **** #include "main.h"
  34:../tasks/usb/usbd_msc_storage.c **** 
  35:../tasks/usb/usbd_msc_storage.c **** 
  36:../tasks/usb/usbd_msc_storage.c **** /* Private typedef -----------------------------------------------------------*/
  37:../tasks/usb/usbd_msc_storage.c **** /* Private define ------------------------------------------------------------*/
  38:../tasks/usb/usbd_msc_storage.c **** /* Private macro -------------------------------------------------------------*/
  39:../tasks/usb/usbd_msc_storage.c **** /* Private variables ---------------------------------------------------------*/
  40:../tasks/usb/usbd_msc_storage.c **** /* Private function prototypes -----------------------------------------------*/
  41:../tasks/usb/usbd_msc_storage.c **** /* Extern function prototypes ------------------------------------------------*/
  42:../tasks/usb/usbd_msc_storage.c **** /* Private functions ---------------------------------------------------------*/
  43:../tasks/usb/usbd_msc_storage.c **** 
  44:../tasks/usb/usbd_msc_storage.c **** #define STORAGE_LUN_NBR                  1  
  45:../tasks/usb/usbd_msc_storage.c **** #define STORAGE_BLK_NBR                  0x10000  
  46:../tasks/usb/usbd_msc_storage.c **** #define STORAGE_BLK_SIZ                  0x200
  47:../tasks/usb/usbd_msc_storage.c **** 
  48:../tasks/usb/usbd_msc_storage.c **** //extern	SD_HandleTypeDef 		uSdHandle;
  49:../tasks/usb/usbd_msc_storage.c **** 
  50:../tasks/usb/usbd_msc_storage.c **** int8_t STORAGE_Init (uint8_t lun);
  51:../tasks/usb/usbd_msc_storage.c **** 
  52:../tasks/usb/usbd_msc_storage.c **** int8_t STORAGE_GetCapacity (uint8_t lun, 
  53:../tasks/usb/usbd_msc_storage.c ****                            uint32_t *block_num, 
  54:../tasks/usb/usbd_msc_storage.c ****                            uint16_t *block_size);
  55:../tasks/usb/usbd_msc_storage.c **** 
  56:../tasks/usb/usbd_msc_storage.c **** int8_t  STORAGE_IsReady (uint8_t lun);
  57:../tasks/usb/usbd_msc_storage.c **** 
  58:../tasks/usb/usbd_msc_storage.c **** int8_t  STORAGE_IsWriteProtected (uint8_t lun);
  59:../tasks/usb/usbd_msc_storage.c **** 
  60:../tasks/usb/usbd_msc_storage.c **** int8_t STORAGE_Read (uint8_t lun, 
  61:../tasks/usb/usbd_msc_storage.c ****                         uint8_t *buf, 
  62:../tasks/usb/usbd_msc_storage.c ****                         uint32_t blk_addr,
  63:../tasks/usb/usbd_msc_storage.c ****                         uint16_t blk_len);
  64:../tasks/usb/usbd_msc_storage.c **** 
  65:../tasks/usb/usbd_msc_storage.c **** int8_t STORAGE_Write (uint8_t lun, 
  66:../tasks/usb/usbd_msc_storage.c ****                         uint8_t *buf, 
  67:../tasks/usb/usbd_msc_storage.c ****                         uint32_t blk_addr,
  68:../tasks/usb/usbd_msc_storage.c ****                         uint16_t blk_len);
  69:../tasks/usb/usbd_msc_storage.c **** 
  70:../tasks/usb/usbd_msc_storage.c **** int8_t STORAGE_GetMaxLun (void);
  71:../tasks/usb/usbd_msc_storage.c **** 
  72:../tasks/usb/usbd_msc_storage.c **** /* USB Mass storage Standard Inquiry Data */
  73:../tasks/usb/usbd_msc_storage.c **** int8_t  STORAGE_Inquirydata[] = {//36
  74:../tasks/usb/usbd_msc_storage.c ****   
  75:../tasks/usb/usbd_msc_storage.c ****   /* LUN 0 */
  76:../tasks/usb/usbd_msc_storage.c ****   0x00,		
  77:../tasks/usb/usbd_msc_storage.c ****   0x80,		
  78:../tasks/usb/usbd_msc_storage.c ****   0x02,		
  79:../tasks/usb/usbd_msc_storage.c ****   0x02,
  80:../tasks/usb/usbd_msc_storage.c ****   (STANDARD_INQUIRY_DATA_LEN - 5),
  81:../tasks/usb/usbd_msc_storage.c ****   0x00,
  82:../tasks/usb/usbd_msc_storage.c ****   0x00,	
  83:../tasks/usb/usbd_msc_storage.c ****   0x00,
  84:../tasks/usb/usbd_msc_storage.c ****   'S', 'T', 'M', ' ', ' ', ' ', ' ', ' ', /* Manufacturer : 8 bytes */
  85:../tasks/usb/usbd_msc_storage.c ****   'P', 'r', 'o', 'd', 'u', 'c', 't', ' ', /* Product      : 16 Bytes */
  86:../tasks/usb/usbd_msc_storage.c ****   ' ', ' ', ' ', ' ', ' ', ' ', ' ', ' ',
  87:../tasks/usb/usbd_msc_storage.c ****   '0', '.', '0' ,'1',                     /* Version      : 4 Bytes */
  88:../tasks/usb/usbd_msc_storage.c **** }; 
  89:../tasks/usb/usbd_msc_storage.c **** 
  90:../tasks/usb/usbd_msc_storage.c **** USBD_StorageTypeDef USBD_MSC_fops =
  91:../tasks/usb/usbd_msc_storage.c **** {
  92:../tasks/usb/usbd_msc_storage.c ****   STORAGE_Init,
  93:../tasks/usb/usbd_msc_storage.c ****   STORAGE_GetCapacity,
  94:../tasks/usb/usbd_msc_storage.c ****   STORAGE_IsReady,
  95:../tasks/usb/usbd_msc_storage.c ****   STORAGE_IsWriteProtected,
  96:../tasks/usb/usbd_msc_storage.c ****   STORAGE_Read,
  97:../tasks/usb/usbd_msc_storage.c ****   STORAGE_Write,
  98:../tasks/usb/usbd_msc_storage.c ****   STORAGE_GetMaxLun,
  99:../tasks/usb/usbd_msc_storage.c ****   STORAGE_Inquirydata,
 100:../tasks/usb/usbd_msc_storage.c ****   
 101:../tasks/usb/usbd_msc_storage.c **** };
 102:../tasks/usb/usbd_msc_storage.c **** /*******************************************************************************
 103:../tasks/usb/usbd_msc_storage.c **** * Function Name  : Read_Memory
 104:../tasks/usb/usbd_msc_storage.c **** * Description    : Handle the Read operation from the microSD card.
 105:../tasks/usb/usbd_msc_storage.c **** * Input          : None.
 106:../tasks/usb/usbd_msc_storage.c **** * Output         : None.
 107:../tasks/usb/usbd_msc_storage.c **** * Return         : None.
 108:../tasks/usb/usbd_msc_storage.c **** *******************************************************************************/
 109:../tasks/usb/usbd_msc_storage.c **** int8_t STORAGE_Init (uint8_t lun)
 110:../tasks/usb/usbd_msc_storage.c **** {
  88              		.loc 1 110 0
  89              		.cfi_startproc
  90              		@ args = 0, pretend = 0, frame = 16
  91              		@ frame_needed = 1, uses_anonymous_args = 0
  92 0000 80B5     		push	{r7, lr}
  93              		.cfi_def_cfa_offset 8
  94              		.cfi_offset 7, -8
  95              		.cfi_offset 14, -4
  96 0002 84B0     		sub	sp, sp, #16
  97              		.cfi_def_cfa_offset 24
  98 0004 00AF     		add	r7, sp, #0
  99              		.cfi_def_cfa_register 7
 100 0006 0346     		mov	r3, r0
 101 0008 FB71     		strb	r3, [r7, #7]
 111:../tasks/usb/usbd_msc_storage.c ****   uint8_t SD_state;
 112:../tasks/usb/usbd_msc_storage.c ****   SD_state = SD_initialize();
 102              		.loc 1 112 0
 103 000a FFF7FEFF 		bl	SD_initialize
 104 000e 0346     		mov	r3, r0
 105 0010 FB73     		strb	r3, [r7, #15]
 113:../tasks/usb/usbd_msc_storage.c **** 	printf("[USB MSC] I:STORAGE_Init: %d\n",SD_state);
 106              		.loc 1 113 0
 107 0012 FB7B     		ldrb	r3, [r7, #15]	@ zero_extendqisi2
 108 0014 40F20000 		movw	r0, #:lower16:.LC0
 109 0018 C0F20000 		movt	r0, #:upper16:.LC0
 110 001c 1946     		mov	r1, r3
 111 001e FFF7FEFF 		bl	printf
 114:../tasks/usb/usbd_msc_storage.c **** 	return (SD_state);
 112              		.loc 1 114 0
 113 0022 FB7B     		ldrb	r3, [r7, #15]	@ zero_extendqisi2
 114 0024 5BB2     		sxtb	r3, r3
 115:../tasks/usb/usbd_msc_storage.c **** }
 115              		.loc 1 115 0
 116 0026 1846     		mov	r0, r3
 117 0028 1037     		adds	r7, r7, #16
 118 002a BD46     		mov	sp, r7
 119              		@ sp needed
 120 002c 80BD     		pop	{r7, pc}
 121              		.cfi_endproc
 122              	.LFE55:
 124 002e 00BF     		.align	2
 125              		.global	STORAGE_GetCapacity
 126              		.thumb
 127              		.thumb_func
 129              	STORAGE_GetCapacity:
 130              	.LFB56:
 116:../tasks/usb/usbd_msc_storage.c **** 
 117:../tasks/usb/usbd_msc_storage.c **** /*******************************************************************************
 118:../tasks/usb/usbd_msc_storage.c **** * Function Name  : Read_Memory
 119:../tasks/usb/usbd_msc_storage.c **** * Description    : Handle the Read operation from the STORAGE card.
 120:../tasks/usb/usbd_msc_storage.c **** * Input          : None.
 121:../tasks/usb/usbd_msc_storage.c **** * Output         : None.
 122:../tasks/usb/usbd_msc_storage.c **** * Return         : None.
 123:../tasks/usb/usbd_msc_storage.c **** *******************************************************************************/
 124:../tasks/usb/usbd_msc_storage.c **** int8_t STORAGE_GetCapacity (uint8_t lun, uint32_t *block_num, uint16_t *block_size)
 125:../tasks/usb/usbd_msc_storage.c **** {
 131              		.loc 1 125 0
 132              		.cfi_startproc
 133              		@ args = 0, pretend = 0, frame = 16
 134              		@ frame_needed = 1, uses_anonymous_args = 0
 135 0030 80B5     		push	{r7, lr}
 136              		.cfi_def_cfa_offset 8
 137              		.cfi_offset 7, -8
 138              		.cfi_offset 14, -4
 139 0032 84B0     		sub	sp, sp, #16
 140              		.cfi_def_cfa_offset 24
 141 0034 00AF     		add	r7, sp, #0
 142              		.cfi_def_cfa_register 7
 143 0036 0346     		mov	r3, r0
 144 0038 B960     		str	r1, [r7, #8]
 145 003a 7A60     		str	r2, [r7, #4]
 146 003c FB73     		strb	r3, [r7, #15]
 126:../tasks/usb/usbd_msc_storage.c **** 
 127:../tasks/usb/usbd_msc_storage.c **** //  *block_num  = STORAGE_BLK_NBR;
 128:../tasks/usb/usbd_msc_storage.c **** //  *block_size = STORAGE_BLK_SIZ;
 129:../tasks/usb/usbd_msc_storage.c **** 
 130:../tasks/usb/usbd_msc_storage.c **** if (SD_status())  return (-1);
 147              		.loc 1 130 0
 148 003e FFF7FEFF 		bl	SD_status
 149 0042 0346     		mov	r3, r0
 150 0044 002B     		cmp	r3, #0
 151 0046 01D0     		beq	.L4
 152              		.loc 1 130 0 is_stmt 0 discriminator 1
 153 0048 FF23     		movs	r3, #255
 154 004a 08E0     		b	.L5
 155              	.L4:
 131:../tasks/usb/usbd_msc_storage.c **** 
 132:../tasks/usb/usbd_msc_storage.c ****   SD_ioctl(GET_SECTOR_COUNT, block_num);
 156              		.loc 1 132 0 is_stmt 1
 157 004c 0120     		movs	r0, #1
 158 004e B968     		ldr	r1, [r7, #8]
 159 0050 FFF7FEFF 		bl	SD_ioctl
 133:../tasks/usb/usbd_msc_storage.c ****   SD_ioctl(GET_SECTOR_SIZE, block_size);
 160              		.loc 1 133 0
 161 0054 0220     		movs	r0, #2
 162 0056 7968     		ldr	r1, [r7, #4]
 163 0058 FFF7FEFF 		bl	SD_ioctl
 134:../tasks/usb/usbd_msc_storage.c **** //  printf("[USB MSC] I:STORAGE_GetCapacity: %d %d \n",*block_num,*block_size);
 135:../tasks/usb/usbd_msc_storage.c **** 
 136:../tasks/usb/usbd_msc_storage.c ****   return (0);
 164              		.loc 1 136 0
 165 005c 0023     		movs	r3, #0
 166              	.L5:
 167 005e 5BB2     		sxtb	r3, r3
 137:../tasks/usb/usbd_msc_storage.c **** }
 168              		.loc 1 137 0
 169 0060 1846     		mov	r0, r3
 170 0062 1037     		adds	r7, r7, #16
 171 0064 BD46     		mov	sp, r7
 172              		@ sp needed
 173 0066 80BD     		pop	{r7, pc}
 174              		.cfi_endproc
 175              	.LFE56:
 177              		.section	.rodata
 178 001e 0000     		.align	2
 179              	.LC1:
 180 0020 5B555342 		.ascii	"[USB MSC] I:STORAGE_IsReady? Ok\000"
 180      204D5343 
 180      5D20493A 
 180      53544F52 
 180      4147455F 
 181              		.align	2
 182              	.LC2:
 183 0040 5B555342 		.ascii	"[USB MSC] I:STORAGE_IsReady? no\000"
 183      204D5343 
 183      5D20493A 
 183      53544F52 
 183      4147455F 
 184              		.text
 185              		.align	2
 186              		.global	STORAGE_IsReady
 187              		.thumb
 188              		.thumb_func
 190              	STORAGE_IsReady:
 191              	.LFB57:
 138:../tasks/usb/usbd_msc_storage.c **** 
 139:../tasks/usb/usbd_msc_storage.c **** /*******************************************************************************
 140:../tasks/usb/usbd_msc_storage.c **** * Function Name  : Read_Memory
 141:../tasks/usb/usbd_msc_storage.c **** * Description    : Handle the Read operation from the STORAGE card.
 142:../tasks/usb/usbd_msc_storage.c **** * Input          : None.
 143:../tasks/usb/usbd_msc_storage.c **** * Output         : None.
 144:../tasks/usb/usbd_msc_storage.c **** * Return         : None.
 145:../tasks/usb/usbd_msc_storage.c **** *******************************************************************************/
 146:../tasks/usb/usbd_msc_storage.c **** int8_t  STORAGE_IsReady (uint8_t lun)
 147:../tasks/usb/usbd_msc_storage.c **** {
 192              		.loc 1 147 0
 193              		.cfi_startproc
 194              		@ args = 0, pretend = 0, frame = 16
 195              		@ frame_needed = 1, uses_anonymous_args = 0
 196 0068 80B5     		push	{r7, lr}
 197              		.cfi_def_cfa_offset 8
 198              		.cfi_offset 7, -8
 199              		.cfi_offset 14, -4
 200 006a 84B0     		sub	sp, sp, #16
 201              		.cfi_def_cfa_offset 24
 202 006c 00AF     		add	r7, sp, #0
 203              		.cfi_def_cfa_register 7
 204 006e 0346     		mov	r3, r0
 205 0070 FB71     		strb	r3, [r7, #7]
 148:../tasks/usb/usbd_msc_storage.c **** 	uint8_t res;
 149:../tasks/usb/usbd_msc_storage.c **** 	res = SD_status();
 206              		.loc 1 149 0
 207 0072 FFF7FEFF 		bl	SD_status
 208 0076 0346     		mov	r3, r0
 209 0078 FB73     		strb	r3, [r7, #15]
 150:../tasks/usb/usbd_msc_storage.c ****   if (!res )printf("[USB MSC] I:STORAGE_IsReady? Ok\n");
 210              		.loc 1 150 0
 211 007a FB7B     		ldrb	r3, [r7, #15]	@ zero_extendqisi2
 212 007c 002B     		cmp	r3, #0
 213 007e 06D1     		bne	.L7
 214              		.loc 1 150 0 is_stmt 0 discriminator 1
 215 0080 40F20000 		movw	r0, #:lower16:.LC1
 216 0084 C0F20000 		movt	r0, #:upper16:.LC1
 217 0088 FFF7FEFF 		bl	puts
 218 008c 05E0     		b	.L8
 219              	.L7:
 151:../tasks/usb/usbd_msc_storage.c ****   else 		printf("[USB MSC] I:STORAGE_IsReady? no\n");
 220              		.loc 1 151 0 is_stmt 1
 221 008e 40F20000 		movw	r0, #:lower16:.LC2
 222 0092 C0F20000 		movt	r0, #:upper16:.LC2
 223 0096 FFF7FEFF 		bl	puts
 224              	.L8:
 152:../tasks/usb/usbd_msc_storage.c ****   return (res);
 225              		.loc 1 152 0
 226 009a FB7B     		ldrb	r3, [r7, #15]	@ zero_extendqisi2
 227 009c 5BB2     		sxtb	r3, r3
 153:../tasks/usb/usbd_msc_storage.c **** }
 228              		.loc 1 153 0
 229 009e 1846     		mov	r0, r3
 230 00a0 1037     		adds	r7, r7, #16
 231 00a2 BD46     		mov	sp, r7
 232              		@ sp needed
 233 00a4 80BD     		pop	{r7, pc}
 234              		.cfi_endproc
 235              	.LFE57:
 237              		.section	.rodata
 238              		.align	2
 239              	.LC3:
 240 0060 5B555342 		.ascii	"[USB MSC] I:STORAGE_IsWriteProtected\000"
 240      204D5343 
 240      5D20493A 
 240      53544F52 
 240      4147455F 
 241              		.text
 242 00a6 00BF     		.align	2
 243              		.global	STORAGE_IsWriteProtected
 244              		.thumb
 245              		.thumb_func
 247              	STORAGE_IsWriteProtected:
 248              	.LFB58:
 154:../tasks/usb/usbd_msc_storage.c **** 
 155:../tasks/usb/usbd_msc_storage.c **** /*******************************************************************************
 156:../tasks/usb/usbd_msc_storage.c **** * Function Name  : Read_Memory
 157:../tasks/usb/usbd_msc_storage.c **** * Description    : Handle the Read operation from the STORAGE card.
 158:../tasks/usb/usbd_msc_storage.c **** * Input          : None.
 159:../tasks/usb/usbd_msc_storage.c **** * Output         : None.
 160:../tasks/usb/usbd_msc_storage.c **** * Return         : None.
 161:../tasks/usb/usbd_msc_storage.c **** *******************************************************************************/
 162:../tasks/usb/usbd_msc_storage.c **** int8_t  STORAGE_IsWriteProtected (uint8_t lun)
 163:../tasks/usb/usbd_msc_storage.c **** {
 249              		.loc 1 163 0
 250              		.cfi_startproc
 251              		@ args = 0, pretend = 0, frame = 8
 252              		@ frame_needed = 1, uses_anonymous_args = 0
 253 00a8 80B5     		push	{r7, lr}
 254              		.cfi_def_cfa_offset 8
 255              		.cfi_offset 7, -8
 256              		.cfi_offset 14, -4
 257 00aa 82B0     		sub	sp, sp, #8
 258              		.cfi_def_cfa_offset 16
 259 00ac 00AF     		add	r7, sp, #0
 260              		.cfi_def_cfa_register 7
 261 00ae 0346     		mov	r3, r0
 262 00b0 FB71     		strb	r3, [r7, #7]
 164:../tasks/usb/usbd_msc_storage.c ****   printf("[USB MSC] I:STORAGE_IsWriteProtected\n");
 263              		.loc 1 164 0
 264 00b2 40F20000 		movw	r0, #:lower16:.LC3
 265 00b6 C0F20000 		movt	r0, #:upper16:.LC3
 266 00ba FFF7FEFF 		bl	puts
 165:../tasks/usb/usbd_msc_storage.c **** 
 166:../tasks/usb/usbd_msc_storage.c ****   return  0;
 267              		.loc 1 166 0
 268 00be 0023     		movs	r3, #0
 269 00c0 5BB2     		sxtb	r3, r3
 167:../tasks/usb/usbd_msc_storage.c **** }
 270              		.loc 1 167 0
 271 00c2 1846     		mov	r0, r3
 272 00c4 0837     		adds	r7, r7, #8
 273 00c6 BD46     		mov	sp, r7
 274              		@ sp needed
 275 00c8 80BD     		pop	{r7, pc}
 276              		.cfi_endproc
 277              	.LFE58:
 279              		.section	.rodata
 280 0085 000000   		.align	2
 281              	.LC4:
 282 0088 5B555342 		.ascii	"[USB MSC] I:STORAGE_Read. lun:%d addr:%d,%d len:%d\012"
 282      204D5343 
 282      5D20493A 
 282      53544F52 
 282      4147455F 
 283 00bb 00       		.ascii	"\000"
 284              		.text
 285 00ca 00BF     		.align	2
 286              		.global	STORAGE_Read
 287              		.thumb
 288              		.thumb_func
 290              	STORAGE_Read:
 291              	.LFB59:
 168:../tasks/usb/usbd_msc_storage.c **** 
 169:../tasks/usb/usbd_msc_storage.c **** /*******************************************************************************
 170:../tasks/usb/usbd_msc_storage.c **** * Function Name  : Read_Memory
 171:../tasks/usb/usbd_msc_storage.c **** * Description    : Handle the Read operation from the STORAGE card.
 172:../tasks/usb/usbd_msc_storage.c **** * Input          : None.
 173:../tasks/usb/usbd_msc_storage.c **** * Output         : None.
 174:../tasks/usb/usbd_msc_storage.c **** * Return         : None.
 175:../tasks/usb/usbd_msc_storage.c **** *******************************************************************************/
 176:../tasks/usb/usbd_msc_storage.c **** int8_t STORAGE_Read (uint8_t lun, 
 177:../tasks/usb/usbd_msc_storage.c ****                  uint8_t *buf, 
 178:../tasks/usb/usbd_msc_storage.c ****                  uint32_t blk_addr,                       
 179:../tasks/usb/usbd_msc_storage.c ****                  uint16_t blk_len)
 180:../tasks/usb/usbd_msc_storage.c **** {
 292              		.loc 1 180 0
 293              		.cfi_startproc
 294              		@ args = 0, pretend = 0, frame = 16
 295              		@ frame_needed = 1, uses_anonymous_args = 0
 296 00cc 80B5     		push	{r7, lr}
 297              		.cfi_def_cfa_offset 8
 298              		.cfi_offset 7, -8
 299              		.cfi_offset 14, -4
 300 00ce 86B0     		sub	sp, sp, #24
 301              		.cfi_def_cfa_offset 32
 302 00d0 02AF     		add	r7, sp, #8
 303              		.cfi_def_cfa 7, 24
 304 00d2 B960     		str	r1, [r7, #8]
 305 00d4 7A60     		str	r2, [r7, #4]
 306 00d6 0246     		mov	r2, r0
 307 00d8 FA73     		strb	r2, [r7, #15]
 308 00da BB81     		strh	r3, [r7, #12]	@ movhi
 181:../tasks/usb/usbd_msc_storage.c **** 	printf("[USB MSC] I:STORAGE_Read. lun:%d addr:%d,%d len:%d\n",lun,(uint16_t)(blk_addr>>16),(uint16
 309              		.loc 1 181 0
 310 00dc F97B     		ldrb	r1, [r7, #15]	@ zero_extendqisi2
 311 00de 7B68     		ldr	r3, [r7, #4]
 312 00e0 1B0C     		lsrs	r3, r3, #16
 313 00e2 9BB2     		uxth	r3, r3
 314 00e4 1A46     		mov	r2, r3
 315 00e6 7B68     		ldr	r3, [r7, #4]
 316 00e8 9BB2     		uxth	r3, r3
 317 00ea B889     		ldrh	r0, [r7, #12]
 318 00ec 0090     		str	r0, [sp]
 319 00ee 40F20000 		movw	r0, #:lower16:.LC4
 320 00f2 C0F20000 		movt	r0, #:upper16:.LC4
 321 00f6 FFF7FEFF 		bl	printf
 182:../tasks/usb/usbd_msc_storage.c **** 
 183:../tasks/usb/usbd_msc_storage.c **** //	SD_read(buf,blk_addr,blk_len);
 184:../tasks/usb/usbd_msc_storage.c **** /*
 185:../tasks/usb/usbd_msc_storage.c **** 	  if( SD_ReadMultiBlocks (buf, blk_addr * 512, 512, blk_len) != 0)
 186:../tasks/usb/usbd_msc_storage.c **** 	  {
 187:../tasks/usb/usbd_msc_storage.c **** 	    return -1;
 188:../tasks/usb/usbd_msc_storage.c **** 	  }
 189:../tasks/usb/usbd_msc_storage.c **** 	  return 0;
 190:../tasks/usb/usbd_msc_storage.c **** */
 191:../tasks/usb/usbd_msc_storage.c **** 
 192:../tasks/usb/usbd_msc_storage.c **** 	// чтение из карточки SD_read почемуто зависает. Возможно приоритет прерывания УСБ выше чем прерыв
 193:../tasks/usb/usbd_msc_storage.c **** //	SD_read(buf,blk_addr,blk_len);
 194:../tasks/usb/usbd_msc_storage.c **** 
 195:../tasks/usb/usbd_msc_storage.c **** 	return 0;
 322              		.loc 1 195 0
 323 00fa 0023     		movs	r3, #0
 324 00fc 5BB2     		sxtb	r3, r3
 196:../tasks/usb/usbd_msc_storage.c **** }
 325              		.loc 1 196 0
 326 00fe 1846     		mov	r0, r3
 327 0100 1037     		adds	r7, r7, #16
 328 0102 BD46     		mov	sp, r7
 329              		@ sp needed
 330 0104 80BD     		pop	{r7, pc}
 331              		.cfi_endproc
 332              	.LFE59:
 334              		.section	.rodata
 335              		.align	2
 336              	.LC5:
 337 00bc 5B555342 		.ascii	"[USB MSC] I:STORAGE_Write\000"
 337      204D5343 
 337      5D20493A 
 337      53544F52 
 337      4147455F 
 338              		.text
 339 0106 00BF     		.align	2
 340              		.global	STORAGE_Write
 341              		.thumb
 342              		.thumb_func
 344              	STORAGE_Write:
 345              	.LFB60:
 197:../tasks/usb/usbd_msc_storage.c **** /*******************************************************************************
 198:../tasks/usb/usbd_msc_storage.c **** * Function Name  : Write_Memory
 199:../tasks/usb/usbd_msc_storage.c **** * Description    : Handle the Write operation to the STORAGE card.
 200:../tasks/usb/usbd_msc_storage.c **** * Input          : None.
 201:../tasks/usb/usbd_msc_storage.c **** * Output         : None.
 202:../tasks/usb/usbd_msc_storage.c **** * Return         : None.
 203:../tasks/usb/usbd_msc_storage.c **** *******************************************************************************/
 204:../tasks/usb/usbd_msc_storage.c **** int8_t STORAGE_Write (uint8_t lun, 
 205:../tasks/usb/usbd_msc_storage.c ****                   uint8_t *buf, 
 206:../tasks/usb/usbd_msc_storage.c ****                   uint32_t blk_addr,
 207:../tasks/usb/usbd_msc_storage.c ****                   uint16_t blk_len)
 208:../tasks/usb/usbd_msc_storage.c **** {
 346              		.loc 1 208 0
 347              		.cfi_startproc
 348              		@ args = 0, pretend = 0, frame = 16
 349              		@ frame_needed = 1, uses_anonymous_args = 0
 350 0108 80B5     		push	{r7, lr}
 351              		.cfi_def_cfa_offset 8
 352              		.cfi_offset 7, -8
 353              		.cfi_offset 14, -4
 354 010a 84B0     		sub	sp, sp, #16
 355              		.cfi_def_cfa_offset 24
 356 010c 00AF     		add	r7, sp, #0
 357              		.cfi_def_cfa_register 7
 358 010e B960     		str	r1, [r7, #8]
 359 0110 7A60     		str	r2, [r7, #4]
 360 0112 0246     		mov	r2, r0
 361 0114 FA73     		strb	r2, [r7, #15]
 362 0116 BB81     		strh	r3, [r7, #12]	@ movhi
 209:../tasks/usb/usbd_msc_storage.c **** 	printf("[USB MSC] I:STORAGE_Write\n");
 363              		.loc 1 209 0
 364 0118 40F20000 		movw	r0, #:lower16:.LC5
 365 011c C0F20000 		movt	r0, #:upper16:.LC5
 366 0120 FFF7FEFF 		bl	puts
 210:../tasks/usb/usbd_msc_storage.c **** 
 211:../tasks/usb/usbd_msc_storage.c **** //	SD_read(buf,blk_addr,blk_len);
 212:../tasks/usb/usbd_msc_storage.c **** //	SD_write(buf,blk_addr,blk_len);
 213:../tasks/usb/usbd_msc_storage.c ****   return (0);
 367              		.loc 1 213 0
 368 0124 0023     		movs	r3, #0
 369 0126 5BB2     		sxtb	r3, r3
 214:../tasks/usb/usbd_msc_storage.c **** }
 370              		.loc 1 214 0
 371 0128 1846     		mov	r0, r3
 372 012a 1037     		adds	r7, r7, #16
 373 012c BD46     		mov	sp, r7
 374              		@ sp needed
 375 012e 80BD     		pop	{r7, pc}
 376              		.cfi_endproc
 377              	.LFE60:
 379              		.section	.rodata
 380 00d6 0000     		.align	2
 381              	.LC6:
 382 00d8 5B555342 		.ascii	"[USB MSC] I:STORAGE_GetMaxLun = %d\012\000"
 382      204D5343 
 382      5D20493A 
 382      53544F52 
 382      4147455F 
 383              		.text
 384              		.align	2
 385              		.global	STORAGE_GetMaxLun
 386              		.thumb
 387              		.thumb_func
 389              	STORAGE_GetMaxLun:
 390              	.LFB61:
 215:../tasks/usb/usbd_msc_storage.c **** /*******************************************************************************
 216:../tasks/usb/usbd_msc_storage.c **** * Function Name  : Write_Memory
 217:../tasks/usb/usbd_msc_storage.c **** * Description    : Handle the Write operation to the STORAGE card.
 218:../tasks/usb/usbd_msc_storage.c **** * Input          : None.
 219:../tasks/usb/usbd_msc_storage.c **** * Output         : None.
 220:../tasks/usb/usbd_msc_storage.c **** * Return         : None.
 221:../tasks/usb/usbd_msc_storage.c **** *******************************************************************************/
 222:../tasks/usb/usbd_msc_storage.c **** int8_t STORAGE_GetMaxLun (void)
 223:../tasks/usb/usbd_msc_storage.c **** {
 391              		.loc 1 223 0
 392              		.cfi_startproc
 393              		@ args = 0, pretend = 0, frame = 0
 394              		@ frame_needed = 1, uses_anonymous_args = 0
 395 0130 80B5     		push	{r7, lr}
 396              		.cfi_def_cfa_offset 8
 397              		.cfi_offset 7, -8
 398              		.cfi_offset 14, -4
 399 0132 00AF     		add	r7, sp, #0
 400              		.cfi_def_cfa_register 7
 224:../tasks/usb/usbd_msc_storage.c **** printf("[USB MSC] I:STORAGE_GetMaxLun = %d\n",STORAGE_LUN_NBR - 1);
 401              		.loc 1 224 0
 402 0134 40F20000 		movw	r0, #:lower16:.LC6
 403 0138 C0F20000 		movt	r0, #:upper16:.LC6
 404 013c 0021     		movs	r1, #0
 405 013e FFF7FEFF 		bl	printf
 225:../tasks/usb/usbd_msc_storage.c **** 
 226:../tasks/usb/usbd_msc_storage.c ****   return (STORAGE_LUN_NBR - 1);
 406              		.loc 1 226 0
 407 0142 0023     		movs	r3, #0
 408 0144 5BB2     		sxtb	r3, r3
 227:../tasks/usb/usbd_msc_storage.c **** }
 409              		.loc 1 227 0
 410 0146 1846     		mov	r0, r3
 411 0148 80BD     		pop	{r7, pc}
 412              		.cfi_endproc
 413              	.LFE61:
 415              	.Letext0:
 416              		.file 2 "c:\\program files (x86)\\codesourcery\\arm-none-eabi\\include\\stdint.h"
 417              		.file 3 "D:\\workspace\\console800480\\system/stm32f217xx.h"
 418              		.file 4 "D:\\workspace\\console800480\\STM32F2xx_HAL_Driver\\Inc/stm32f2xx_hal_def.h"
 419              		.file 5 "D:\\workspace\\console800480\\STM32F2xx_HAL_Driver\\Inc/stm32f2xx_hal_dma.h"
 420              		.file 6 "D:\\workspace\\console800480\\STM32F2xx_HAL_Driver\\Inc/stm32f2xx_ll_sdmmc.h"
 421              		.file 7 "D:\\workspace\\console800480\\STM32F2xx_HAL_Driver\\Inc/stm32f2xx_hal_sd.h"
 422              		.file 8 "D:\\workspace\\console800480\\tasks\\usb\\STM32_USB_Device_Library\\Class\\MSC\\Inc/usbd_
 423              		.file 9 "D:\\workspace\\console800480\\system/core_cm3.h"
 424              		.file 10 "D:\\workspace\\console800480/main.h"